(dp0
(L13L
L21L
Ntp1
Ns(L13L
L18L
Ntp2
Ns(V15*A
p3
L6L
L12L
tp4
VDraw
p5
s(V17*AD
p6
L4L
L12L
tp7
VDouble
p8
s(L13L
L24L
Ntp9
Ns(V18*AD
p10
L11L
L12L
tp11
VStay
p12
s(V9*
p13
L2L
L12L
tp14
g5
s(V4*DS
p15
L3L
L12L
tp16
g5
s(V16*A
p17
L11L
L12L
tp18
g5
s(V12*D
p19
L21L
Ntp20
Ns(V21*
p21
L6L
L12L
tp22
g12
s(V11*
p23
L3L
L12L
tp24
g5
s(V21*A
p25
L4L
L12L
tp26
g12
s(L6L
L26L
Ntp27
Ns(V10*D
p28
L6L
L12L
tp29
g8
s(V20*D
p30
L11L
L12L
tp31
g12
s(V19*
p32
L21L
Ntp33
Ns(L15L
L26L
Ntp34
Ns(V19*A
p35
L11L
L12L
tp36
g12
s(L19L
L19L
Ntp37
Ns(V15*AD
p38
L9L
L12L
tp39
g5
s(L19L
L20L
Ntp40
Ns(V19*A
p41
L7L
L12L
tp42
g12
s(V13*AD
p43
L3L
L12L
tp44
g8
s(V15*A
p45
L9L
L12L
tp46
g5
s(V14*
p47
L4L
L12L
tp48
g12
s(V16*AD
p49
L3L
L12L
tp50
g8
s(V10*
p51
L3L
L12L
tp52
g5
s(V16*A
p53
L6L
L12L
tp54
g5
s(V7*D
p55
L7L
L12L
tp56
g5
s(L17L
L21L
Ntp57
Ns(V14*
p58
L21L
Ntp59
Ns(V19*D
p60
L2L
L12L
tp61
g12
s(V14*
p62
L8L
L12L
tp63
g5
s(V19*
p64
L5L
L12L
tp65
g12
s(V15*D
p66
L4L
L12L
tp67
g12
s(V20*
p68
L5L
L12L
tp69
g12
s(V8*D
p70
L4L
L12L
tp71
g8
s(V18*DS
p72
L2L
L12L
tp73
g12
s(L4L
L24L
Ntp74
Ns(V18*
p75
L10L
L12L
tp76
g12
s(V13*
p77
L11L
L12L
tp78
g5
s(L4L
L18L
Ntp79
Ns(V7*
p80
L11L
L12L
tp81
g5
s(V6*
p82
L8L
L12L
tp83
g5
s(V17*AD
p84
L5L
L12L
tp85
g8
s(V14*AD
p86
L10L
L12L
tp87
g5
s(V19*
p88
L8L
L12L
tp89
g12
s(V4*DS
p90
L2L
L12L
tp91
g5
s(L14L
L17L
Ntp92
Ns(V12*DS
p93
L7L
L12L
tp94
g5
s(V11*
p95
L2L
L12L
tp96
g5
s(V7*
p97
L7L
L12L
tp98
g5
s(L18L
L22L
Ntp99
Ns(V17*A
p100
L5L
L12L
tp101
g5
s(V16*D
p102
L8L
L12L
tp103
g12
s(V5*D
p104
L5L
L12L
tp105
g5
s(V20*D
p106
L10L
L12L
tp107
g12
s(V10*D
p108
L7L
L12L
tp109
g8
s(V16*D
p110
L4L
L12L
tp111
g12
s(V13*A
p112
L21L
Ntp113
Ns(L4L
L20L
Ntp114
Ns(V16*
p115
L4L
L12L
tp116
g12
s(V19*A
p117
L6L
L12L
tp118
g12
s(V16*DS
p119
L6L
L12L
tp120
g12
s(V9*
p121
L9L
L12L
tp122
g5
s(V7*D
p123
L21L
Ntp124
Ns(V15*A
p125
L7L
L12L
tp126
g5
s(V19*D
p127
L3L
L12L
tp128
g12
s(V14*
p129
L9L
L12L
tp130
g5
s(V18*AD
p131
L10L
L12L
tp132
g5
s(V9*
p133
L5L
L12L
tp134
g5
s(V21*
p135
L5L
L12L
tp136
g12
s(V18*A
p137
L3L
L12L
tp138
g12
s(V21*A
p139
L11L
L12L
tp140
g12
s(L15L
L22L
Ntp141
Ns(V15*AD
p142
L2L
L12L
tp143
g5
s(V8*D
p144
L21L
Ntp145
Ns(V4*DS
p146
L21L
Ntp147
Ns(L13L
L19L
Ntp148
Ns(L20L
L21L
Ntp149
Ns(V14*A
p150
L21L
Ntp151
Ns(V17*
p152
L7L
L12L
tp153
g12
s(V10*
p154
L8L
L12L
tp155
g5
s(L17L
L25L
Ntp156
Ns(L6L
L17L
Ntp157
Ns(V13*AD
p158
L2L
L12L
tp159
g5
s(V15*A
p160
L10L
L12L
tp161
g5
s(V18*DS
p162
L3L
L12L
tp163
g12
s(V17*
p164
L11L
L12L
tp165
g12
s(V16*A
p166
L7L
L12L
tp167
g5
s(V7*D
p168
L4L
L12L
tp169
g5
s(V21*
p170
L10L
L12L
tp171
g12
s(V10*
p172
L4L
L12L
tp173
g5
s(V14*AD
p174
L11L
L12L
tp175
g5
s(V7*
p176
L6L
L12L
tp177
g5
s(L19L
L21L
Ntp178
Ns(V5*D
p179
L4L
L12L
tp180
g5
s(V15*D
p181
L3L
L12L
tp182
g12
s(L19L
L22L
Ntp183
Ns(L16L
L22L
Ntp184
Ns(V16*D
p185
L5L
L12L
tp186
g12
s(V20*
p187
L2L
L12L
tp188
g12
s(V14*DS
p189
L10L
L12L
tp190
g5
s(V8*D
p191
L3L
L12L
tp192
g8
s(V16*
p193
L5L
L12L
tp194
g12
s(L21L
L22L
Ntp195
Ns(V14*DS
p196
L6L
L12L
tp197
g12
s(V13*
p198
L10L
L12L
tp199
g5
s(V6*
p200
L9L
L12L
tp201
g5
s(V17*AD
p202
L6L
L12L
tp203
g8
s(V9*
p204
L4L
L12L
tp205
g5
s(V19*
p206
L9L
L12L
tp207
g12
s(V12*DS
p208
L6L
L12L
tp209
g12
s(L12L
L21L
Ntp210
Ns(V17*A
p211
L2L
L12L
tp212
g5
s(V21*A
p213
L10L
L12L
tp214
g12
s(V20*D
p215
L9L
L12L
tp216
g12
s(V9*D
p217
L3L
L12L
tp218
g8
s(V10*D
p219
L4L
L12L
tp220
g8
s(L20L
L19L
Ntp221
Ns(V11*D
p222
L2L
L12L
tp223
g8
s(L4L
L26L
Ntp224
Ns(L17L
L19L
Ntp225
Ns(V19*A
p226
L5L
L12L
tp227
g12
s(V16*DS
p228
L7L
L12L
tp229
g12
s(L11L
L21L
Ntp230
Ns(V17*
p231
L10L
L12L
tp232
g12
s(L11L
L22L
Ntp233
Ns(V10*
p234
L5L
L12L
tp235
g5
s(V14*
p236
L10L
L12L
tp237
g5
s(L6L
L24L
Ntp238
Ns(V10*DS
p239
L8L
L12L
tp240
g8
s(V18*D
p241
L10L
L12L
tp242
g12
s(V21*
p243
L4L
L12L
tp244
g12
s(V18*A
p245
L2L
L12L
tp246
g12
s(L13L
L22L
Ntp247
Ns(V15*D
p248
L2L
L12L
tp249
g12
s(V17*D
p250
L21L
Ntp251
Ns(V20*
p252
L3L
L12L
tp253
g12
s(V19*A
p254
L10L
L12L
tp255
g12
s(V13*AD
p256
L9L
L12L
tp257
g5
s(V8*D
p258
L2L
L12L
tp259
g5
s(V14*DS
p260
L7L
L12L
tp261
g5
s(V13*AD
p262
L5L
L12L
tp263
g8
s(V15*A
p264
L11L
L12L
tp265
g5
s(V14*
p266
L5L
L12L
tp267
g12
s(V12*ADS
p268
L4L
L12L
tp269
g5
s(V6*DS
p270
L2L
L12L
tp271
g5
s(L24L
NNtp272
Ns(V7*D
p273
L5L
L12L
tp274
g8
s(V21*
p275
L9L
L12L
tp276
g12
s(V14*AD
p277
L8L
L12L
tp278
g5
s(V12*ADS
p279
L8L
L12L
tp280
g5
s(L12L
L19L
Ntp281
Ns(L12L
L26L
Ntp282
Ns(V6*DS
p283
L21L
Ntp284
Ns(V17*A
p285
L3L
L12L
tp286
g5
s(V7*
p287
L5L
L12L
tp288
g5
s(V13*D
p289
L3L
L12L
tp290
g12
s(V21*
p291
L21L
Ntp292
Ns(V5*D
p293
L7L
L12L
tp294
g5
s(L17L
L17L
Ntp295
Ns(g77
L21L
Ntp296
Ns(V16*D
p297
L6L
L12L
tp298
g12
s(V24*
p299
NNtp300
Ns(V16*
p301
L6L
L12L
tp302
g12
s(V6*
p303
L2L
L12L
tp304
g5
s(V13*A
p305
L10L
L12L
tp306
g5
s(L10L
L22L
Ntp307
Ns(L6L
L18L
Ntp308
Ns(V7*
p309
L10L
L12L
tp310
g5
s(V20*AD
p311
L21L
Ntp312
Ns(V17*AD
p313
L7L
L12L
tp314
g5
s(V9*
p315
L7L
L12L
tp316
g5
s(V10*DS
p317
L9L
L12L
tp318
g8
s(V18*D
p319
L11L
L12L
tp320
g12
s(V12*DS
p321
L9L
L12L
tp322
g5
s(V21*A
p323
L9L
L12L
tp324
g12
s(V16*D
p325
L9L
L12L
tp326
g12
s(L13L
L25L
Ntp327
Ns(L4L
L22L
Ntp328
Ns(V20*D
p329
L8L
L12L
tp330
g12
s(V9*D
p331
L2L
L12L
tp332
g8
s(V10*D
p333
L5L
L12L
tp334
g8
s(L18L
L20L
Ntp335
Ns(V11*D
p336
L3L
L12L
tp337
g8
s(V6*D
p338
L10L
L12L
tp339
g5
s(L18L
L26L
Ntp340
Ns(L11L
L26L
Ntp341
Ns(V19*A
p342
L4L
L12L
tp343
g12
s(V12*ADS
p344
L21L
Ntp345
Ns(V13*AD
p346
L4L
L12L
tp347
g8
s(V6*D
p348
L6L
L12L
tp349
g5
s(V20*A
p350
L3L
L12L
tp351
g12
s(V9*
p352
L8L
L12L
tp353
g5
s(V8*
p354
L4L
L12L
tp355
g5
s(V17*
p356
L9L
L12L
tp357
g12
s(V10*
p358
L6L
L12L
tp359
g5
s(V15*
p360
L11L
L12L
tp361
g12
s(L11L
L25L
Ntp362
Ns(g58
L11L
L12L
tp363
g5
s(V12*ADS
p364
L9L
L12L
tp365
g5
s(V8*
p366
L8L
L12L
tp367
g5
s(V18*A
p368
L5L
L12L
tp369
g12
s(L10L
L26L
Ntp370
Ns(L10L
L25L
Ntp371
Ns(V15*AD
p372
L3L
L12L
tp373
g8
s(V8*DS
p374
L6L
L12L
tp375
g8
s(V19*A
p376
L9L
L12L
tp377
g12
s(V8*DS
p378
L10L
L12L
tp379
g5
s(V17*
p380
L6L
L12L
tp381
g12
s(V10*
p382
L9L
L12L
tp383
g5
s(V14*DS
p384
L4L
L12L
tp385
g12
s(g112
L11L
L12L
tp386
g5
s(V12*
p387
L21L
Ntp388
Ns(V14*
p389
L6L
L12L
tp390
g12
s(V6*DS
p391
L3L
L12L
tp392
g5
s(V7*D
p393
L2L
L12L
tp394
g5
s(V21*
p395
L8L
L12L
tp396
g12
s(L13L
L20L
Ntp397
Ns(V14*AD
p398
L9L
L12L
tp399
g5
s(V12*DS
p400
L8L
L12L
tp401
g5
s(V7*
p402
L4L
L12L
tp403
g5
s(V13*D
p404
L2L
L12L
tp405
g12
s(V26*
p406
NNtp407
Ns(V5*D
p408
L6L
L12L
tp409
g5
s(V19*AD
p410
L21L
Ntp411
Ns(L14L
L23L
Ntp412
Ns(V16*D
p413
L7L
L12L
tp414
g12
s(V14*DS
p415
L11L
L12L
tp416
g5
s(V13*D
p417
L21L
Ntp418
Ns(V16*
p419
L7L
L12L
tp420
g12
s(L28L
NNtp421
Ns(L12L
L18L
Ntp422
Ns(V6*D
p423
L7L
L12L
tp424
g5
s(L16L
L18L
Ntp425
Ns(g146
L11L
L12L
tp426
g5
s(V15*
p427
L10L
L12L
tp428
g12
s(V7*
p429
L9L
L12L
tp430
g5
s(V17*AD
p431
L8L
L12L
tp432
g5
s(V9*
p433
L6L
L12L
tp434
g5
s(V10*DS
p435
L10L
L12L
tp436
g8
s(V18*D
p437
L8L
L12L
tp438
g12
s(V4*DS
p439
L7L
L12L
tp440
g5
s(V8*
p441
L9L
L12L
tp442
g5
s(V9*D
p443
L9L
L12L
tp444
g5
s(V20*D
p445
L3L
L12L
tp446
g12
s(V18*A
p447
L4L
L12L
tp448
g12
s(V14*A
p449
L10L
L12L
tp450
g5
s(V21*A
p451
L8L
L12L
tp452
g12
s(V16*D
p453
L10L
L12L
tp454
g12
s(V20*DS
p455
L2L
L12L
tp456
g12
s(L9L
L19L
Ntp457
Ns(V10*D
p458
L2L
L12L
tp459
g8
s(V9*D
p460
L5L
L12L
tp461
g8
s(V11*D
p462
L4L
L12L
tp463
g8
s(V20*AD
p464
L10L
L12L
tp465
g12
s(V8*DS
p466
L11L
L12L
tp467
g5
s(L14L
L24L
Ntp468
Ns(V13*AD
p469
L7L
L12L
tp470
g5
s(V20*A
p471
L2L
L12L
tp472
g12
s(V9*
p473
L11L
L12L
tp474
g5
s(L13L
L17L
Ntp475
Ns(V17*
p476
L8L
L12L
tp477
g12
s(V16*A
p478
L2L
L12L
tp479
g5
s(V7*D
p480
L3L
L12L
tp481
g5
s(V10*
p482
L7L
L12L
tp483
g5
s(L13L
L23L
Ntp484
Ns(L6L
L23L
Ntp485
Ns(V12*
p486
L7L
L12L
tp487
g5
s(V12*ADS
p488
L10L
L12L
tp489
g5
s(g387
L11L
L12L
tp490
g5
s(L11L
L18L
Ntp491
Ns(V16*AD
p492
L21L
Ntp493
Ns(V19*A
p494
L8L
L12L
tp495
g12
s(V13*AD
p496
L8L
L12L
tp497
g5
s(V18*DS
p498
L10L
L12L
tp499
g12
s(L18L
L23L
Ntp500
Ns(V17*
p501
L5L
L12L
tp502
g12
s(V10*
p503
L10L
L12L
tp504
g5
s(V11*D
p505
L21L
Ntp506
Ns(V14*DS
p507
L5L
L12L
tp508
g12
s(V13*A
p509
L8L
L12L
tp510
g5
s(V18*DS
p511
L6L
L12L
tp512
g12
s(V14*
p513
L7L
L12L
tp514
g5
s(V12*ADS
p515
L5L
L12L
tp516
g5
s(g174
L21L
Ntp517
Ns(L15L
L17L
Ntp518
Ns(V17*AD
p519
L9L
L12L
tp520
g5
s(V14*AD
p521
L6L
L12L
tp522
g8
s(L10L
L24L
Ntp523
Ns(V4*DS
p524
L6L
L12L
tp525
g5
s(V12*DS
p526
L11L
L12L
tp527
g5
s(g150
L11L
L12L
tp528
g5
s(V13*D
p529
L5L
L12L
tp530
g12
s(V5*D
p531
L9L
L12L
tp532
g5
s(g466
L21L
Ntp533
Ns(V10*D
p534
L3L
L12L
tp535
g8
s(V9*D
p536
L4L
L12L
tp537
g8
s(L17L
L20L
Ntp538
Ns(L12L
L23L
Ntp539
Ns(V11*D
p540
L5L
L12L
tp541
g8
s(g311
L11L
L12L
tp542
g12
s(V14*DS
p543
L8L
L12L
tp544
g5
s(L12L
L25L
Ntp545
Ns(V6*
p546
L3L
L12L
tp547
g5
s(V6*D
p548
L4L
L12L
tp549
g5
s(V16*DS
p550
L2L
L12L
tp551
g12
s(g35
L21L
Ntp552
Ns(V15*
p553
L9L
L12L
tp554
g12
s(V7*
p555
L8L
L12L
tp556
g5
s(V21*A
p557
L3L
L12L
tp558
g12
s(V10*DS
p559
L11L
L12L
tp560
g8
s(V18*D
p561
L9L
L12L
tp562
g12
s(V8*
p563
L10L
L12L
tp564
g5
s(L11L
L23L
Ntp565
Ns(V18*A
p566
L7L
L12L
tp567
g12
s(V12*
p568
L10L
L12L
tp569
g5
s(V16*D
p570
L11L
L12L
tp571
g12
s(V20*DS
p572
L3L
L12L
tp573
g12
s(L11L
L17L
Ntp574
Ns(L4L
L25L
Ntp575
Ns(L4L
L19L
Ntp576
Ns(L16L
L20L
Ntp577
Ns(L18L
L17L
Ntp578
Ns(V6*D
p579
L11L
L12L
tp580
g5
s(V12*D
p581
L6L
L12L
tp582
g12
s(V20*A
p583
L9L
L12L
tp584
g12
s(V8*DS
p585
L8L
L12L
tp586
g5
s(L9L
L24L
Ntp587
Ns(L13L
L26L
Ntp588
Ns(V13*AD
p589
L6L
L12L
tp590
g8
s(V18*DS
p591
L7L
L12L
tp592
g12
s(V12*D
p593
L10L
L12L
tp594
g5
s(V20*A
p595
L5L
L12L
tp596
g12
s(V9*
p597
L10L
L12L
tp598
g5
s(V8*
p599
L5L
L12L
tp600
g5
s(V19*AD
p601
L7L
L12L
tp602
g12
s(V16*A
p603
L3L
L12L
tp604
g5
s(L30L
NNtp605
Ns(V11*
p606
L11L
L12L
tp607
g5
s(V14*AD
p608
L7L
L12L
tp609
g5
s(g344
L11L
L12L
tp610
g5
s(g410
L11L
L12L
tp611
g12
s(V13*D
p612
L4L
L12L
tp613
g12
s(L16L
L24L
Ntp614
Ns(V5*D
p615
L8L
L12L
tp616
g5
s(L12L
L20L
Ntp617
Ns(V8*DS
p618
L7L
L12L
tp619
g5
s(V13*AD
p620
L11L
L12L
tp621
g5
s(L17L
L23L
Ntp622
Ns(L6L
L21L
Ntp623
Ns(V17*
p624
L4L
L12L
tp625
g12
s(V17*D
p626
L3L
L12L
tp627
g12
s(V10*
p628
L11L
L12L
tp629
g5
s(V13*A
p630
L9L
L12L
tp631
g5
s(L10L
L20L
Ntp632
Ns(V19*D
p633
L10L
L12L
tp634
g12
s(V12*ADS
p635
L6L
L12L
tp636
g5
s(L10L
L19L
Ntp637
Ns(V17*AD
p638
L10L
L12L
tp639
g5
s(V4*DS
p640
L5L
L12L
tp641
g5
s(V12*DS
p642
L10L
L12L
tp643
g5
s(V20*DS
p644
L21L
Ntp645
Ns(V14*A
p646
L8L
L12L
tp647
g5
s(L14L
L22L
Ntp648
Ns(V9*D
p649
L7L
L12L
tp650
g8
s(V18*A
p651
L21L
Ntp652
Ns(L15L
L25L
Ntp653
Ns(V11*D
p654
L6L
L12L
tp655
g8
s(V20*AD
p656
L8L
L12L
tp657
g12
s(V14*DS
p658
L9L
L12L
tp659
g5
s(V6*DS
p660
L8L
L12L
tp661
g5
s(V13*
p662
L3L
L12L
tp663
g12
s(V6*D
p664
L5L
L12L
tp665
g5
s(V16*DS
p666
L3L
L12L
tp667
g12
s(g19
L11L
L12L
tp668
g5
s(V20*A
p669
L4L
L12L
tp670
g12
s(V4*DS
p671
L10L
L12L
tp672
g5
s(L18L
L24L
Ntp673
Ns(V15*
p674
L8L
L12L
tp675
g12
s(g30
L21L
Ntp676
Ns(g319
L21L
Ntp677
Ns(V11*
p678
L10L
L12L
tp679
g5
s(V10*DS
p680
L4L
L12L
tp681
g8
s(V18*D
p682
L6L
L12L
tp683
g12
s(V8*
p684
L11L
L12L
tp685
g5
s(V19*AD
p686
L10L
L12L
tp687
g12
s(V20*D
p688
L2L
L12L
tp689
g12
s(V9*D
p690
L8L
L12L
tp691
g8
s(V18*A
p692
L6L
L12L
tp693
g12
s(V12*
p694
L9L
L12L
tp695
g5
s(V20*DS
p696
L4L
L12L
tp697
g12
s(L15L
L21L
Ntp698
Ns(V15*D
p699
L21L
Ntp700
Ns(V6*D
p701
L8L
L12L
tp702
g5
s(L21L
NNtp703
Ns(V8*DS
p704
L9L
L12L
tp705
g5
s(V27*
p706
NNtp707
Ns(V18*DS
p708
L21L
Ntp709
Ns(V18*DS
p710
L4L
L12L
tp711
g12
s(V19*D
p712
L11L
L12L
tp713
g12
s(V8*
p714
L6L
L12L
tp715
g5
s(V
p716
g716
L12L
tp717
VBegin
p718
s(V20*A
p719
L21L
Ntp720
Ns(V14*AD
p721
L4L
L12L
tp722
g8
s(V12*
p723
L6L
L12L
tp724
g12
s(L8L
L18L
Ntp725
Ns(L8L
L21L
Ntp726
Ns(V13*D
p727
L7L
L12L
tp728
g5
s(V5*D
p729
L11L
L12L
tp730
g5
s(L6L
L19L
Ntp731
Ns(V15*AD
p732
L6L
L12L
tp733
g8
s(V8*DS
p734
L4L
L12L
tp735
g8
s(L6L
L25L
Ntp736
Ns(V13*AD
p737
L10L
L12L
tp738
g5
s(g708
L11L
L12L
tp739
g12
s(V16*
p740
L2L
L12L
tp741
g12
s(V6*DS
p742
L9L
L12L
tp743
g5
s(V17*
p744
L3L
L12L
tp745
g12
s(V17*D
p746
L2L
L12L
tp747
g12
s(V17*A
p748
L21L
Ntp749
Ns(V13*A
p750
L6L
L12L
tp751
g5
s(V12*ADS
p752
L7L
L12L
tp753
g5
s(V14*D
p754
L6L
L12L
tp755
g12
s(L21L
L7L
L12L
tp756
g12
s(V17*AD
p757
L11L
L12L
tp758
g5
s(V10*DS
p759
L5L
L12L
tp760
g8
s(V18*D
p761
L7L
L12L
tp762
g12
s(V4*DS
p763
L4L
L12L
tp764
g5
s(V19*
p765
L2L
L12L
tp766
g12
s(V28*
p767
NNtp768
Ns(V14*D
p769
L10L
L12L
tp770
g5
s(L21L
L11L
L12L
tp771
g12
s(L20L
L25L
Ntp772
Ns(V14*A
p773
L9L
L12L
tp774
g5
s(V20*DS
p775
L5L
L12L
tp776
g12
s(V20*
p777
L10L
L12L
tp778
g12
s(L9L
L17L
Ntp779
Ns(L9L
L22L
Ntp780
Ns(V9*D
p781
L6L
L12L
tp782
g8
s(V11*D
p783
L7L
L12L
tp784
g8
s(V20*AD
p785
L9L
L12L
tp786
g12
s(g757
L21L
Ntp787
Ns(V13*
p788
L2L
L12L
tp789
g12
s(g570
L21L
Ntp790
Ns(g139
L21L
Ntp791
Ns(V12*D
p792
L8L
L12L
tp793
g5
s(V20*A
p794
L7L
L12L
tp795
g12
s(V4*DS
p796
L9L
L12L
tp797
g5
s(V15*
p798
L7L
L12L
tp799
g12
s(V11*
p800
L9L
L12L
tp801
g5
s(L25L
NNtp802
Ns(L8L
L24L
Ntp803
Ns(L14L
L20L
Ntp804
Ns(V21*A
p805
L2L
L12L
tp806
g12
s(V19*AD
p807
L9L
L12L
tp808
g12
s(V9*D
p809
L11L
L12L
tp810
g5
s(V18*A
p811
L9L
L12L
tp812
g5
s(V12*
p813
L8L
L12L
tp814
g5
s(L26L
NNtp815
Ns(L21L
L26L
Ntp816
Ns(L21L
L19L
Ntp817
Ns(g526
L21L
Ntp818
Ns(V15*AD
p819
L7L
L12L
tp820
g5
s(L11L
L19L
Ntp821
Ns(V6*D
p822
L9L
L12L
tp823
g5
s(L11L
L20L
Ntp824
Ns(V12*D
p825
L7L
L12L
tp826
g5
s(V16*AD
p827
L6L
L12L
tp828
g8
s(V20*A
p829
L8L
L12L
tp830
g12
s(V17*
p831
L2L
L12L
tp832
g12
s(L14L
L18L
Ntp833
Ns(V13*A
p834
L7L
L12L
tp835
g5
s(L4L
L23L
Ntp836
Ns(V18*DS
p837
L5L
L12L
tp838
g12
s(V19*D
p839
L8L
L12L
tp840
g12
s(V14*
p841
L2L
L12L
tp842
g12
s(V16*AD
p843
L10L
L12L
tp844
g5
s(V8*
p845
L7L
L12L
tp846
g5
s(V18*
p847
L3L
L12L
tp848
g12
s(V19*AD
p849
L6L
L12L
tp850
g8
s(L18L
L21L
Ntp851
Ns(V10*D
p852
L21L
Ntp853
Ns(V14*AD
p854
L5L
L12L
tp855
g8
s(V12*
p856
L5L
L12L
tp857
g12
s(V19*
p858
L3L
L12L
tp859
g12
s(V14*D
p860
L11L
L12L
tp861
g5
s(L21L
L10L
L12L
tp862
g12
s(L15L
L19L
Ntp863
Ns(V13*D
p864
L6L
L12L
tp865
g12
s(V20*
p866
L11L
L12L
tp867
g12
s(V5*D
p868
L10L
L12L
tp869
g5
s(V8*DS
p870
L5L
L12L
tp871
g8
s(V6*D
p872
L3L
L12L
tp873
g5
s(V17*D
p874
L9L
L12L
tp875
g12
s(V18*DS
p876
L8L
L12L
tp877
g12
s(L6L
L20L
Ntp878
Ns(V16*
p879
L3L
L12L
tp880
g12
s(V6*DS
p881
L10L
L12L
tp882
g5
s(L8L
L26L
Ntp883
Ns(V17*D
p884
L5L
L12L
tp885
g12
s(L12L
L24L
Ntp886
Ns(V15*
p887
L6L
L12L
tp888
g12
s(V10*DS
p889
L6L
L12L
tp890
g8
s(V18*AD
p891
L3L
L12L
tp892
g8
s(V18*D
p893
L4L
L12L
tp894
g12
s(L27L
NNtp895
Ns(V18*A
p896
L8L
L12L
tp897
g12
s(V14*A
p898
L6L
L12L
tp899
g5
s(V20*DS
p900
L6L
L12L
tp901
g12
s(L10L
L23L
Ntp902
Ns(V11*D
p903
L8L
L12L
tp904
g8
s(V20*AD
p905
L6L
L12L
tp906
g12
s(V13*
p907
L5L
L12L
tp908
g12
s(V6*
p909
L6L
L12L
tp910
g5
s(V12*D
p911
L9L
L12L
tp912
g5
s(V20*A
p913
L6L
L12L
tp914
g12
s(g492
L11L
L12L
tp915
g5
s(L9L
L25L
Ntp916
Ns(V4*DS
p917
L8L
L12L
tp918
g5
s(V11*
p919
L8L
L12L
tp920
g5
s(L9L
L23L
Ntp921
Ns(L9L
L20L
Ntp922
Ns(V19*AD
p923
L8L
L12L
tp924
g12
s(V9*D
p925
L10L
L12L
tp926
g5
s(L16L
L19L
Ntp927
Ns(V15*AD
p928
L21L
Ntp929
Ns(V23*
p930
NNtp931
Ns(V15*AD
p932
L4L
L12L
tp933
g8
s(L11L
L24L
Ntp934
Ns(V16*DS
p935
L8L
L12L
tp936
g12
s(V12*D
p937
L4L
L12L
tp938
g12
s(g719
L11L
L12L
tp939
g12
s(V17*D
p940
L4L
L12L
tp941
g12
s(V13*A
p942
L4L
L12L
tp943
g5
s(L29L
NNtp944
Ns(V19*D
p945
L9L
L12L
tp946
g12
s(V14*
p947
L3L
L12L
tp948
g12
s(V18*
p949
L2L
L12L
tp950
g12
s(V19*AD
p951
L5L
L12L
tp952
g8
s(V21*
p953
L3L
L12L
tp954
g12
s(V14*AD
p955
L2L
L12L
tp956
g5
s(L21L
L24L
Ntp957
Ns(V12*
p958
L4L
L12L
tp959
g12
s(L14L
L25L
Ntp960
Ns(L10L
L18L
Ntp961
Ns(V14*D
p962
L8L
L12L
tp963
g5
s(L21L
L9L
L12L
tp964
g12
s(L10L
L17L
Ntp965
Ns(V14*A
p966
L7L
L12L
tp967
g5
s(V13*D
p968
L9L
L12L
tp969
g5
s(V20*
p970
L8L
L12L
tp971
g12
s(V8*DS
p972
L2L
L12L
tp973
g5
s(V11*D
p974
L9L
L12L
tp975
g8
s(V20*AD
p976
L7L
L12L
tp977
g12
s(L8L
L17L
Ntp978
Ns(V18*DS
p979
L9L
L12L
tp980
g12
s(L18L
L19L
Ntp981
Ns(g283
L11L
L12L
tp982
g5
s(V13*
p983
L4L
L12L
tp984
g12
s(V7*D
p985
L10L
L12L
tp986
g5
s(L21L
L23L
Ntp987
Ns(V6*
p988
L7L
L12L
tp989
g5
s(V15*
p990
L5L
L12L
tp991
g12
s(V14*D
p992
L7L
L12L
tp993
g5
s(L21L
L6L
L12L
tp994
g12
s(V10*DS
p995
L7L
L12L
tp996
g8
s(V18*AD
p997
L2L
L12L
tp998
g8
s(V18*D
p999
L5L
L12L
tp1000
g12
s(g651
L11L
L12L
tp1001
g12
s(V20*DS
p1002
L7L
L12L
tp1003
g12
s(V16*DS
p1004
L9L
L12L
tp1005
g12
s(L16L
L26L
Ntp1006
Ns(L9L
L18L
Ntp1007
Ns(g360
L21L
Ntp1008
Ns(V15*A
p1009
L2L
L12L
tp1010
g5
s(V16*AD
p1011
L8L
L12L
tp1012
g5
s(V21*
p1013
L2L
L12L
tp1014
g12
s(V11*
p1015
L7L
L12L
tp1016
g5
s(g620
L21L
Ntp1017
Ns(V14*AD
p1018
L3L
L12L
tp1019
g8
s(V15*D
p1020
L7L
L12L
tp1021
g12
s(V10*D
p1022
L10L
L12L
tp1023
g8
s(V20*D
p1024
L7L
L12L
tp1025
g12
s(V13*D
p1026
L8L
L12L
tp1027
g5
s(g699
L11L
L12L
tp1028
g12
s(V8*D
p1029
L7L
L12L
tp1030
g5
s(V15*AD
p1031
L5L
L12L
tp1032
g8
s(L23L
NNtp1033
Ns(V8*DS
p1034
L3L
L12L
tp1035
g8
s(L8L
L20L
Ntp1036
Ns(L8L
L23L
Ntp1037
Ns(V19*A
p1038
L3L
L12L
tp1039
g12
s(g144
L11L
L12L
tp1040
g5
s(V12*D
p1041
L5L
L12L
tp1042
g12
s(V20*A
p1043
L10L
L12L
tp1044
g12
s(V16*AD
p1045
L7L
L12L
tp1046
g5
s(V18*
p1047
L9L
L12L
tp1048
g12
s(g712
L21L
Ntp1049
Ns(V17*D
p1050
L7L
L12L
tp1051
g12
s(g123
L11L
L12L
tp1052
g5
s(V13*A
p1053
L5L
L12L
tp1054
g5
s(V19*D
p1055
L6L
L12L
tp1056
g12
s(L21L
L20L
Ntp1057
Ns(V12*ADS
p1058
L2L
L12L
tp1059
g5
s(g860
L21L
Ntp1060
Ns(V18*
p1061
L5L
L12L
tp1062
g12
s(V19*AD
p1063
L4L
L12L
tp1064
g8
s(L16L
L21L
Ntp1065
Ns(V17*A
p1066
L6L
L12L
tp1067
g5
s(V12*
p1068
L3L
L12L
tp1069
g12
s(L19L
L17L
Ntp1070
Ns(V14*D
p1071
L9L
L12L
tp1072
g5
s(L21L
L8L
L12L
tp1073
g12
s(V17*A
p1074
L10L
L12L
tp1075
g5
s(V14*A
p1076
L4L
L12L
tp1077
g5
s(V20*
p1078
L9L
L12L
tp1079
g12
s(L20L
L24L
Ntp1080
Ns(V11*D
p1081
L10L
L12L
tp1082
g8
s(V17*D
p1083
L8L
L12L
tp1084
g12
s(V20*AD
p1085
L4L
L12L
tp1086
g12
s(L20L
L18L
Ntp1087
Ns(L15L
L23L
Ntp1088
Ns(V6*DS
p1089
L4L
L12L
tp1090
g5
s(V13*
p1091
L7L
L12L
tp1092
g5
s(V6*
p1093
L4L
L12L
tp1094
g5
s(V18*AD
p1095
L9L
L12L
tp1096
g5
s(V15*
p1097
L4L
L12L
tp1098
g12
s(V14*D
p1099
L4L
L12L
tp1100
g12
s(V12*DS
p1101
L3L
L12L
tp1102
g12
s(L21L
L5L
L12L
tp1103
g12
s(V11*
p1104
L6L
L12L
tp1105
g5
s(V7*
p1106
L3L
L12L
tp1107
g5
s(V18*AD
p1108
L5L
L12L
tp1109
g8
s(V18*D
p1110
L2L
L12L
tp1111
g12
s(L17L
L22L
Ntp1112
Ns(L8L
L25L
Ntp1113
Ns(g852
L11L
L12L
tp1114
g8
s(V20*D
p1115
L6L
L12L
tp1116
g12
s(L20L
L20L
Ntp1117
Ns(V18*A
p1118
L10L
L12L
tp1119
g5
s(V20*DS
p1120
L8L
L12L
tp1121
g12
s(V15*D
p1122
L10L
L12L
tp1123
g12
s(L14L
L26L
Ntp1124
Ns(V16*
p1125
L8L
L12L
tp1126
g12
s(V19*A
p1127
L2L
L12L
tp1128
g12
s(V16*DS
p1129
L10L
L12L
tp1130
g12
s(V8*D
p1131
L10L
L12L
tp1132
g5
s(L21L
L17L
Ntp1133
Ns(V16*A
p1134
L4L
L12L
tp1135
g5
s(V15*A
p1136
L3L
L12L
tp1137
g5
s(V19*D
p1138
L7L
L12L
tp1139
g12
s(V16*AD
p1140
L9L
L12L
tp1141
g5
s(g10
L21L
Ntp1142
Ns(V18*
p1143
L4L
L12L
tp1144
g12
s(V16*A
p1145
L8L
L12L
tp1146
g5
s(V8*
p1147
L2L
L12L
tp1148
g5
s(L15L
L24L
Ntp1149
Ns(L19L
L24L
Ntp1150
Ns(V12*
p1151
L2L
L12L
tp1152
g12
s(V21*A
p1153
L7L
L12L
tp1154
g12
s(L4L
L17L
Ntp1155
Ns(L19L
L18L
Ntp1156
Ns(g748
L11L
L12L
tp1157
g5
s(g417
L11L
L12L
tp1158
g5
s(L9L
L26L
Ntp1159
Ns(L18L
L25L
Ntp1160
Ns(V15*AD
p1161
L10L
L12L
tp1162
g5
s(V12*D
p1163
L2L
L12L
tp1164
g12
s(V16*AD
p1165
L4L
L12L
tp1166
g8
s(V6*DS
p1167
L5L
L12L
tp1168
g5
s(V17*D
p1169
L6L
L12L
tp1170
g12
s(V7*D
p1171
L8L
L12L
tp1172
g5
s(L16L
L25L
Ntp1173
Ns(V13*A
p1174
L2L
L12L
tp1175
g5
s(V19*
p1176
L10L
L12L
tp1177
g12
s(V12*ADS
p1178
L3L
L12L
tp1179
g5
s(V19*AD
p1180
L3L
L12L
tp1181
g8
s(V7*
p1182
L2L
L12L
tp1183
g5
s(V18*
p1184
L21L
Ntp1185
Ns(V18*AD
p1186
L4L
L12L
tp1187
g8
s(V18*D
p1188
L3L
L12L
tp1189
g12
s(V19*
p1190
L6L
L12L
tp1191
g12
s(L8L
L22L
Ntp1192
Ns(V14*A
p1193
L5L
L12L
tp1194
g5
s(V20*DS
p1195
L9L
L12L
tp1196
g12
s(L20L
L23L
Ntp1197
Ns(V20*
p1198
L6L
L12L
tp1199
g12
s(g415
L21L
Ntp1200
Ns(V25*
p1201
NNtp1202
Ns(V16*
p1203
L9L
L12L
tp1204
g12
s(g505
L11L
L12L
tp1205
g8
s(g250
L11L
L12L
tp1206
g12
s(V20*AD
p1207
L5L
L12L
tp1208
g12
s(V14*DS
p1209
L2L
L12L
tp1210
g12
s(L18L
L18L
Ntp1211
Ns(L10L
L21L
Ntp1212
Ns(g809
L21L
Ntp1213
Ns(g264
L21L
Ntp1214
Ns(V13*
p1215
L6L
L12L
tp1216
g12
s(V6*
p1217
L5L
L12L
tp1218
g5
s(V17*AD
p1219
L2L
L12L
tp1220
g8
s(L17L
L26L
Ntp1221
Ns(V16*A
p1222
L9L
L12L
tp1223
g5
s(V15*
p1224
L3L
L12L
tp1225
g12
s(V14*D
p1226
L5L
L12L
tp1227
g12
s(V12*DS
p1228
L2L
L12L
tp1229
g12
s(L21L
L4L
L12L
tp1230
g12
s(L19L
L23L
Ntp1231
Ns(V11*
p1232
L5L
L12L
tp1233
g5
s(V21*A
p1234
L6L
L12L
tp1235
g12
s(L20L
L26L
Ntp1236
Ns(V10*D
p1237
L8L
L12L
tp1238
g8
s(V20*D
p1239
L5L
L12L
tp1240
g12
s(L9L
L21L
Ntp1241
Ns(V15*D
p1242
L9L
L12L
tp1243
g12
s(g928
L11L
L12L
tp1244
g5
s(V15*A
p1245
L8L
L12L
tp1246
g5
s(V16*DS
p1247
L11L
L12L
tp1248
g12
s(V8*D
p1249
L9L
L12L
tp1250
g5
s(V12*D
p1251
L3L
L12L
tp1252
g12
s(g559
L21L
Ntp1253
Ns(L15L
L20L
Ntp1254
Ns(V13*A
p1255
L3L
L12L
tp1256
g5
s(V15*A
p1257
L4L
L12L
tp1258
g5
s(V19*D
p1259
L4L
L12L
tp1260
g12
s(V8*
p1261
L3L
L12L
tp1262
g5
s(V18*
p1263
L7L
L12L
tp1264
g12
s(V19*AD
p1265
L2L
L12L
tp1266
g8
s(g164
L21L
Ntp1267
Ns(V19*
p1268
L7L
L12L
tp1269
g12
s(V15*D
p1270
L6L
L12L
tp1271
g12
s(V17*A
p1272
L8L
L12L
tp1273
g5
s(V13*D
p1274
L10L
L12L
tp1275
g5
s(L21L
L25L
Ntp1276
Ns(V20*
p1277
L7L
L12L
tp1278
g12
s(V8*D
p1279
L6L
L12L
tp1280
g8
s(g866
L21L
Ntp1281
Ns(g1247
L21L
Ntp1282
Ns(L14L
L21L
Ntp1283
Ns(V14*DS
p1284
L3L
L12L
tp1285
g12
s(V16*AD
p1286
L5L
L12L
tp1287
g8
s(V6*DS
p1288
L6L
L12L
tp1289
g5
s(V18*
p1290
L8L
L12L
tp1291
g12
s(L19L
L26L
Ntp1292
Ns(V7*D
p1293
L9L
L12L
tp1294
g5
s(L8L
L19L
Ntp1295
Ns(g17
L21L
Ntp1296
Ns(V15*
p1297
L2L
L12L
tp1298
g12
s(V17*A
p1299
L7L
L12L
tp1300
g5
s(V10*DS
p1301
L2L
L12L
tp1302
g8
s(V18*AD
p1303
L7L
L12L
tp1304
g12
s(V5*D
p1305
L3L
L12L
tp1306
g5
s(V14*A
p1307
L2L
L12L
tp1308
g5
s(V16*D
p1309
L2L
L12L
tp1310
g12
s(V20*DS
p1311
L10L
L12L
tp1312
g12
s(V16*
p1313
L21L
Ntp1314
Ns(L16L
L17L
Ntp1315
Ns(V16*
p1316
L10L
L12L
tp1317
g12
s(V20*AD
p1318
L2L
L12L
tp1319
g12
s(V17*D
p1320
L10L
L12L
tp1321
g12
s(L15L
L18L
Ntp1322
Ns(V13*
p1323
L9L
L12L
tp1324
g5
s(V6*
p1325
L10L
L12L
tp1326
g5
s(V15*A
p1327
L5L
L12L
tp1328
g5
s(V17*AD
p1329
L3L
L12L
tp1330
g8
s(V9*
p1331
L3L
L12L
tp1332
g5
s(V18*AD
p1333
L8L
L12L
tp1334
g12
s(V16*A
p1335
L10L
L12L
tp1336
g5
s(L20L
L22L
Ntp1337
Ns(V14*D
p1338
L2L
L12L
tp1339
g12
s(V12*DS
p1340
L5L
L12L
tp1341
g12
s(L21L
L3L
L12L
tp1342
g12
s(L20L
L17L
Ntp1343
Ns(L22L
NNtp1344
Ns(V11*
p1345
L4L
L12L
tp1346
g5
s(V21*A
p1347
L5L
L12L
tp1348
g12
s(V10*D
p1349
L9L
L12L
tp1350
g8
s(V20*D
p1351
L4L
L12L
tp1352
g12
s(V15*D
p1353
L8L
L12L
tp1354
g12
s(g579
L21L
Ntp1355
Ns(V15*AD
p1356
L8L
L12L
tp1357
g5
s(L17L
L18L
Ntp1358
Ns(V6*D
p1359
L2L
L12L
tp1360
g5
s(V8*D
p1361
L8L
L12L
tp1362
g5
s(V16*DS
p1363
L4L
L12L
tp1364
g12
s(L17L
L24L
Ntp1365
Ns(L19L
L25L
Ntp1366
Ns(V10*
p1367
L2L
L12L
tp1368
g5
s(V16*A
p1369
L5L
L12L
tp1370
g5
s(g291
L11L
L12L
tp1371
g12
s(V19*D
p1372
L5L
L12L
tp1373
g12
s(V18*
p1374
L6L
L12L
tp1375
g12
s(V21*
p1376
L7L
L12L
tp1377
g12
s(V19*
p1378
L4L
L12L
tp1379
g12
s(L21L
L21L
Ntp1380
Ns(V15*D
p1381
L5L
L12L
tp1382
g12
s(L21L
L18L
Ntp1383
Ns(V17*A
p1384
L9L
L12L
tp1385
g5
s(L14L
L19L
Ntp1386
Ns(V14*A
p1387
L3L
L12L
tp1388
g5
s(L16L
L23L
Ntp1389
Ns(V20*
p1390
L4L
L12L
tp1391
g12
s(V8*D
p1392
L5L
L12L
tp1393
g8
s(L4L
L21L
Ntp1394
Ns(V20*AD
p1395
L3L
L12L
tp1396
g12
s(L12L
L22L
Ntp1397
Ns(L12L
L17L
Ntp1398
Ns(V16*AD
p1399
L2L
L12L
tp1400
g5
s(V6*DS
p1401
L7L
L12L
tp1402
g5
s(g1184
L11L
L12L
tp1403
g12
s(V13*
p1404
L8L
L12L
tp1405
g5
s(V7*D
p1406
L6L
L12L
tp1407
g8
s(V6*
p1408
L11L
L12L
tp1409
g5
s(g32
L11L
L12L
tp1410
g12
s(L21L
L2L
L12L
tp1411
g12
s(V14*D
p1412
L3L
L12L
tp1413
g12
s(V12*DS
p1414
L4L
L12L
tp1415
g12
s(V17*A
p1416
L4L
L12L
tp1417
g5
s(V10*DS
p1418
L3L
L12L
tp1419
g8
s(V18*AD
p1420
L6L
L12L
tp1421
g8
s(V5*D
p1422
L2L
L12L
tp1423
g5
s(V16*D
p1424
L3L
L12L
tp1425
g12
s(g644
L11L
L12L
tp1426
g12
s(V22*
p1427
NNtp1428
Ns(L6L
L22L
Ntp1429
Ns(g1313
L11L
L12L
tp1430
g12
s(V16*DS
p1431
L5L
L12L
tp1432
g12
s.