(dp0
(V18*AD
p1
L11L
L-8L
tp2
VDraw
p3
s(V6*D
p4
L2L
L-8L
tp5
g3
s(L13L
L21L
Ntp6
Ns(L13L
L18L
Ntp7
Ns(V6*D
p8
L8L
L-8L
tp9
g3
s(V12*D
p10
L8L
L-8L
tp11
g3
s(L13L
L24L
Ntp12
Ns(V20*AD
p13
L10L
L-8L
tp14
VStay
p15
s(V18*D
p16
L3L
L-8L
tp17
g15
s(V15*D
p18
L7L
L-8L
tp19
g3
s(L6L
L26L
Ntp20
Ns(V18*D
p21
L9L
L-8L
tp22
g15
s(V19*A
p23
L7L
L-8L
tp24
g15
s(V11*D
p25
L21L
Ntp26
Ns(L15L
L26L
Ntp27
Ns(V21*
p28
L4L
L-8L
tp29
g15
s(V9*
p30
L10L
L-8L
tp31
g3
s(V14*D
p32
L10L
L-8L
tp33
g3
s(L19L
L19L
Ntp34
Ns(V8*DS
p35
L10L
L-8L
tp36
g3
s(V21*
p37
L2L
L-8L
tp38
g15
s(L19L
L20L
Ntp39
Ns(V14*D
p40
L4L
L-8L
tp41
g3
s(V20*A
p42
L21L
Ntp43
Ns(V8*D
p44
L6L
L-8L
tp45
g3
s(V18*DS
p46
L6L
L-8L
tp47
g15
s(V15*A
p48
L5L
L-8L
tp49
g3
s(L17L
L21L
Ntp50
Ns(V10*D
p51
L8L
L-8L
tp52
g3
s(V5*D
p53
L11L
L-8L
tp54
g3
s(V17*D
p55
L4L
L-8L
tp56
g15
s(V8*D
p57
L10L
L-8L
tp58
g3
s(V18*DS
p59
L10L
L-8L
tp60
g15
s(V16*D
p61
L8L
L-8L
tp62
g3
s(V5*D
p63
L5L
L-8L
tp64
g3
s(V10*D
p65
L6L
L-8L
tp66
VDouble
p67
s(V17*D
p68
L10L
L-8L
tp69
g15
s(V16*DS
p70
L7L
L-8L
tp71
g3
s(L21L
L2L
L-8L
tp72
g15
s(V12*ADS
p73
L6L
L-8L
tp74
g3
s(V14*DS
p75
L11L
L-8L
tp76
g3
s(V16*DS
p77
L9L
L-8L
tp78
g3
s(V9*D
p79
L6L
L-8L
tp80
g3
s(V14*AD
p81
L8L
L-8L
tp82
g3
s(V19*D
p83
L5L
L-8L
tp84
g15
s(g42
L11L
L-8L
tp85
g15
s(V13*AD
p86
L10L
L-8L
tp87
g3
s(V9*D
p88
L10L
L-8L
tp89
g3
s(V18*AD
p90
L7L
L-8L
tp91
g15
s(V13*
p92
L2L
L-8L
tp93
g3
s(V25*
p94
NNtp95
Ns(V15*AD
p96
L9L
L-8L
tp97
g3
s(V8*DS
p98
L21L
Ntp99
Ns(V6*D
p100
L4L
L-8L
tp101
g3
s(L4L
L24L
Ntp102
Ns(V21*A
p103
L8L
L-8L
tp104
g15
s(V12*
p105
L21L
Ntp106
Ns(L4L
L18L
Ntp107
Ns(V21*A
p108
L2L
L-8L
tp109
g15
s(V13*D
p110
L4L
L-8L
tp111
g3
s(V15*D
p112
L11L
L-8L
tp113
g3
s(L14L
L17L
Ntp114
Ns(V11*
p115
L9L
L-8L
tp116
g3
s(V4*DS
p117
L7L
L-8L
tp118
g3
s(L18L
L22L
Ntp119
Ns(V11*
p120
L7L
L-8L
tp121
g3
s(V9*
p122
L6L
L-8L
tp123
g3
s(V19*AD
p124
L10L
L-8L
tp125
g15
s(V20*
p126
L4L
L-8L
tp127
g15
s(V4*DS
p128
L21L
Ntp129
Ns(V10*DS
p130
L21L
Ntp131
Ns(L4L
L20L
Ntp132
Ns(V17*A
p133
L21L
Ntp134
Ns(V17*A
p135
L2L
L-8L
tp136
g3
s(V18*D
p137
L21L
Ntp138
Ns(V19*AD
p139
L6L
L-8L
tp140
g15
s(V12*DS
p141
L3L
L-8L
tp142
g3
s(V12*DS
p143
L9L
L-8L
tp144
g3
s(V14*A
p145
L7L
L-8L
tp146
g3
s(V10*
p147
L3L
L-8L
tp148
g3
s(L15L
L22L
Ntp149
Ns(V19*
p150
L9L
L-8L
tp151
g15
s(V10*DS
p152
L7L
L-8L
tp153
g3
s(V20*D
p154
L2L
L-8L
tp155
g15
s(V10*
p156
L9L
L-8L
tp157
g3
s(V20*D
p158
L4L
L-8L
tp159
g15
s(V15*AD
p160
L5L
L-8L
tp161
g3
s(L13L
L19L
Ntp162
Ns(V7*D
p163
L6L
L-8L
tp164
g3
s(L20L
L21L
Ntp165
Ns(V6*DS
p166
L9L
L-8L
tp167
g3
s(L6L
L17L
Ntp168
Ns(L17L
L25L
Ntp169
Ns(V6*DS
p170
L3L
L-8L
tp171
g3
s(V13*D
p172
L8L
L-8L
tp173
g3
s(V16*A
p174
L7L
L-8L
tp175
g3
s(V28*
p176
NNtp177
Ns(V6*DS
p178
L5L
L-8L
tp179
g3
s(V13*D
p180
L2L
L-8L
tp181
g3
s(g128
L11L
L-8L
tp182
g3
s(V16*A
p183
L9L
L-8L
tp184
g3
s(V7*
p185
L9L
L-8L
tp186
g3
s(g1
L21L
Ntp187
Ns(L19L
L21L
Ntp188
Ns(V17*
p189
L11L
L-8L
tp190
g3
s(L19L
L22L
Ntp191
Ns(L16L
L22L
Ntp192
Ns(V20*
p193
L8L
L-8L
tp194
g15
s(V12*D
p195
L9L
L-8L
tp196
g3
s(V20*
p197
L2L
L-8L
tp198
g15
s(V12*D
p199
L3L
L-8L
tp200
g3
s(V17*AD
p201
L8L
L-8L
tp202
g3
s(V20*AD
p203
L5L
L-8L
tp204
g15
s(V20*DS
p205
L2L
L-8L
tp206
g15
s(L21L
L22L
Ntp207
Ns(V18*
p208
L11L
L-8L
tp209
g15
s(V13*A
p210
L3L
L-8L
tp211
g3
s(V17*AD
p212
L6L
L-8L
tp213
g67
s(V13*A
p214
L5L
L-8L
tp215
g3
s(V12*DS
p216
L5L
L-8L
tp217
g3
s(g75
L21L
Ntp218
Ns(V19*A
p219
L8L
L-8L
tp220
g15
s(g98
L11L
L-8L
tp221
g3
s(V21*
p222
L3L
L-8L
tp223
g15
s(V16*AD
p224
L11L
L-8L
tp225
g3
s(V19*
p226
L5L
L-8L
tp227
g15
s(V21*
p228
L9L
L-8L
tp229
g15
s(L12L
L21L
Ntp230
Ns(V14*AD
p231
L21L
Ntp232
Ns(V19*
p233
L3L
L-8L
tp234
g15
s(V18*A
p235
L8L
L-8L
tp236
g15
s(V7*D
p237
L10L
L-8L
tp238
g3
s(V18*A
p239
L6L
L-8L
tp240
g15
s(V8*D
p241
L11L
L-8L
tp242
g3
s(V18*DS
p243
L11L
L-8L
tp244
g15
s(L20L
L19L
Ntp245
Ns(L4L
L26L
Ntp246
Ns(V6*
p247
L2L
L-8L
tp248
g3
s(V11*D
p249
L7L
L-8L
tp250
g67
s(L17L
L19L
Ntp251
Ns(V16*DS
p252
L21L
Ntp253
Ns(V6*
p254
L8L
L-8L
tp255
g3
s(V16*D
p256
L5L
L-8L
tp257
g15
s(V8*
p258
L11L
L-8L
tp259
g3
s(V7*
p260
L5L
L-8L
tp261
g3
s(L11L
L21L
Ntp262
Ns(V14*DS
p263
L4L
L-8L
tp264
g3
s(L11L
L22L
Ntp265
Ns(V9*D
p266
L11L
L-8L
tp267
g3
s(L6L
L24L
Ntp268
Ns(V6*DS
p269
L21L
Ntp270
Ns(V14*AD
p271
L3L
L-8L
tp272
g3
s(V20*A
p273
L4L
L-8L
tp274
g15
s(V18*AD
p275
L10L
L-8L
tp276
g3
s(L13L
L22L
Ntp277
Ns(V20*AD
p278
L9L
L-8L
tp279
g15
s(V18*D
p280
L2L
L-8L
tp281
g15
s(V19*
p282
L21L
Ntp283
Ns(V18*D
p284
L8L
L-8L
tp285
g15
s(V19*A
p286
L4L
L-8L
tp287
g15
s(L24L
NNtp288
Ns(V9*
p289
L3L
L-8L
tp290
g3
s(V19*A
p291
L2L
L-8L
tp292
g15
s(V21*
p293
L5L
L-8L
tp294
g15
s(V14*D
p295
L11L
L-8L
tp296
g3
s(L12L
L19L
Ntp297
Ns(V14*D
p298
L5L
L-8L
tp299
g3
s(L12L
L26L
Ntp300
Ns(V12*
p301
L6L
L-8L
tp302
g3
s(V19*AD
p303
L7L
L-8L
tp304
g15
s(V8*D
p305
L7L
L-8L
tp306
g3
s(V18*DS
p307
L7L
L-8L
tp308
g15
s(L17L
L17L
Ntp309
Ns(V12*
p310
L10L
L-8L
tp311
g3
s(L21L
L11L
L-8L
tp312
g15
s(V17*D
p313
L3L
L-8L
tp314
g15
s(V16*D
p315
L9L
L-8L
tp316
g3
s(V10*D
p317
L5L
L-8L
tp318
g67
s(V5*D
p319
L6L
L-8L
tp320
g3
s(V17*D
p321
L9L
L-8L
tp322
g15
s(V16*DS
p323
L6L
L-8L
tp324
g15
s(V12*ADS
p325
L5L
L-8L
tp326
g3
s(V14*
p327
L21L
Ntp328
Ns(V10*D
p329
L3L
L-8L
tp330
g67
s(L21L
L7L
L-8L
tp331
g15
s(V14*DS
p332
L8L
L-8L
tp333
g3
s(V16*DS
p334
L8L
L-8L
tp335
g3
s(V12*ADS
p336
L3L
L-8L
tp337
g3
s(L10L
L22L
Ntp338
Ns(V9*D
p339
L7L
L-8L
tp340
g3
s(V10*DS
p341
L2L
L-8L
tp342
g67
s(V20*D
p343
L5L
L-8L
tp344
g15
s(L6L
L18L
Ntp345
Ns(V20*A
p346
L8L
L-8L
tp347
g15
s(g189
L21L
Ntp348
Ns(V13*
p349
L11L
L-8L
tp350
g3
s(V13*AD
p351
L9L
L-8L
tp352
g3
s(V18*AD
p353
L6L
L-8L
tp354
g67
s(V13*AD
p355
L7L
L-8L
tp356
g3
s(V15*AD
p357
L10L
L-8L
tp358
g3
s(V13*
p359
L7L
L-8L
tp360
g3
s(g243
L21L
Ntp361
Ns(g241
L21L
Ntp362
Ns(L13L
L25L
Ntp363
Ns(V21*A
p364
L11L
L-8L
tp365
g15
s(V6*DS
p366
L4L
L-8L
tp367
g3
s(L4L
L22L
Ntp368
Ns(V21*A
p369
L5L
L-8L
tp370
g15
s(V13*D
p371
L7L
L-8L
tp372
g3
s(L18L
L20L
Ntp373
Ns(V4*DS
p374
L6L
L-8L
tp375
g3
s(L18L
L26L
Ntp376
Ns(V11*
p377
L4L
L-8L
tp378
g3
s(L11L
L26L
Ntp379
Ns(g112
L21L
Ntp380
Ns(V17*
p381
L10L
L-8L
tp382
g15
s(V11*
p383
L2L
L-8L
tp384
g3
s(L11L
L25L
Ntp385
Ns(V19*AD
p386
L11L
L-8L
tp387
g15
s(V20*
p388
L7L
L-8L
tp389
g15
s(V17*A
p390
L3L
L-8L
tp391
g3
s(L10L
L26L
Ntp392
Ns(V13*A
p393
L4L
L-8L
tp394
g3
s(L10L
L25L
Ntp395
Ns(V19*
p396
L2L
L-8L
tp397
g15
s(V14*A
p398
L6L
L-8L
tp399
g3
s(V19*
p400
L8L
L-8L
tp401
g15
s(V10*DS
p402
L8L
L-8L
tp403
g3
s(V20*D
p404
L3L
L-8L
tp405
g15
s(V10*
p406
L6L
L-8L
tp407
g3
s(V15*AD
p408
L6L
L-8L
tp409
g67
s(V15*AD
p410
L21L
Ntp411
Ns(L13L
L20L
Ntp412
Ns(V7*D
p413
L7L
L-8L
tp414
g3
s(V15*
p415
L8L
L-8L
tp416
g3
s(V15*
p417
L2L
L-8L
tp418
g3
s(V6*DS
p419
L8L
L-8L
tp420
g3
s(V11*D
p421
L2L
L-8L
tp422
g67
s(V15*
p423
L4L
L-8L
tp424
g15
s(V6*DS
p425
L2L
L-8L
tp426
g3
s(V13*D
p427
L11L
L-8L
tp428
g3
s(V4*DS
p429
L10L
L-8L
tp430
g3
s(L14L
L23L
Ntp431
Ns(V16*A
p432
L10L
L-8L
tp433
g3
s(V7*
p434
L10L
L-8L
tp435
g3
s(V
p436
g436
L-8L
tp437
VBegin
p438
s(L28L
NNtp439
Ns(L12L
L18L
Ntp440
Ns(L16L
L18L
Ntp441
Ns(V20*
p442
L11L
L-8L
tp443
g15
s(V12*D
p444
L10L
L-8L
tp445
g3
s(V12*D
p446
L4L
L-8L
tp447
g3
s(V22*
p448
NNtp449
Ns(V18*
p450
L2L
L-8L
tp451
g15
s(V20*DS
p452
L5L
L-8L
tp453
g15
s(V20*AD
p454
L4L
L-8L
tp455
g15
s(V18*
p456
L4L
L-8L
tp457
g15
s(V13*A
p458
L2L
L-8L
tp459
g3
s(V17*AD
p460
L5L
L-8L
tp461
g67
s(L9L
L19L
Ntp462
Ns(V19*A
p463
L3L
L-8L
tp464
g15
s(V17*AD
p465
L3L
L-8L
tp466
g3
s(V20*DS
p467
L9L
L-8L
tp468
g15
s(V16*AD
p469
L2L
L-8L
tp470
g3
s(V12*DS
p471
L21L
Ntp472
Ns(V14*
p473
L7L
L-8L
tp474
g3
s(V19*A
p475
L9L
L-8L
tp476
g15
s(V8*DS
p477
L8L
L-8L
tp478
g3
s(V16*AD
p479
L4L
L-8L
tp480
g3
s(V19*
p481
L4L
L-8L
tp482
g15
s(V8*DS
p483
L6L
L-8L
tp484
g3
s(L14L
L24L
Ntp485
Ns(g327
L11L
L-8L
tp486
g3
s(g105
L11L
L-8L
tp487
g3
s(V7*D
p488
L11L
L-8L
tp489
g3
s(V18*A
p490
L5L
L-8L
tp491
g15
s(L13L
L17L
Ntp492
Ns(V8*D
p493
L8L
L-8L
tp494
g3
s(V18*DS
p495
L8L
L-8L
tp496
g15
s(V18*A
p497
L3L
L-8L
tp498
g15
s(L13L
L23L
Ntp499
Ns(L6L
L23L
Ntp500
Ns(V26*
p501
NNtp502
Ns(V10*D
p503
L2L
L-8L
tp504
g67
s(V11*D
p505
L8L
L-8L
tp506
g3
s(L21L
L6L
L-8L
tp507
g15
s(V12*ADS
p508
L2L
L-8L
tp509
g3
s(V6*
p510
L7L
L-8L
tp511
g3
s(V16*D
p512
L2L
L-8L
tp513
g15
s(V8*
p514
L10L
L-8L
tp515
g3
s(V7*
p516
L6L
L-8L
tp517
g3
s(L11L
L18L
Ntp518
Ns(V14*DS
p519
L5L
L-8L
tp520
g3
s(g427
L21L
Ntp521
Ns(V9*D
p522
L8L
L-8L
tp523
g3
s(V14*AD
p524
L2L
L-8L
tp525
g3
s(V20*A
p526
L5L
L-8L
tp527
g15
s(V18*AD
p528
L3L
L-8L
tp529
g15
s(L18L
L23L
Ntp530
Ns(V13*
p531
L6L
L-8L
tp532
g3
s(L15L
L17L
Ntp533
Ns(V20*AD
p534
L8L
L-8L
tp535
g15
s(L10L
L24L
Ntp536
Ns(V11*
p537
L3L
L-8L
tp538
g3
s(V18*D
p539
L7L
L-8L
tp540
g15
s(V19*A
p541
L5L
L-8L
tp542
g15
s(V9*
p543
L2L
L-8L
tp544
g3
s(L17L
L20L
Ntp545
Ns(L12L
L23L
Ntp546
Ns(V14*D
p547
L6L
L-8L
tp548
g15
s(L12L
L25L
Ntp549
Ns(V12*
p550
L7L
L-8L
tp551
g3
s(V19*AD
p552
L4L
L-8L
tp553
g15
s(V8*D
p554
L4L
L-8L
tp555
g3
s(V18*DS
p556
L4L
L-8L
tp557
g15
s(V8*D
p558
L2L
L-8L
tp559
g3
s(V18*DS
p560
L2L
L-8L
tp561
g15
s(L21L
L10L
L-8L
tp562
g15
s(V17*D
p563
L2L
L-8L
tp564
g15
s(V10*D
p565
L4L
L-8L
tp566
g67
s(V5*D
p567
L7L
L-8L
tp568
g3
s(V17*D
p569
L8L
L-8L
tp570
g15
s(V12*ADS
p571
L4L
L-8L
tp572
g3
s(V14*DS
p573
L9L
L-8L
tp574
g3
s(g252
L11L
L-8L
tp575
g3
s(L11L
L23L
Ntp576
Ns(V14*A
p577
L3L
L-8L
tp578
g3
s(V10*DS
p579
L9L
L-8L
tp580
g3
s(V10*
p581
L7L
L-8L
tp582
g3
s(L11L
L17L
Ntp583
Ns(V9*D
p584
L4L
L-8L
tp585
g3
s(L4L
L25L
Ntp586
Ns(V16*
p587
L6L
L-8L
tp588
g15
s(V10*DS
p589
L3L
L-8L
tp590
g67
s(V20*D
p591
L6L
L-8L
tp592
g15
s(V9*D
p593
L2L
L-8L
tp594
g3
s(V20*A
p595
L9L
L-8L
tp596
g15
s(L4L
L19L
Ntp597
Ns(V13*
p598
L10L
L-8L
tp599
g3
s(V20*D
p600
L8L
L-8L
tp601
g15
s(V13*AD
p602
L8L
L-8L
tp603
g3
s(L16L
L20L
Ntp604
Ns(L18L
L17L
Ntp605
Ns(V16*
p606
L10L
L-8L
tp607
g3
s(V13*AD
p608
L6L
L-8L
tp609
g3
s(L9L
L24L
Ntp610
Ns(g410
L11L
L-8L
tp611
g3
s(V15*
p612
L5L
L-8L
tp613
g15
s(L13L
L26L
Ntp614
Ns(V21*A
p615
L10L
L-8L
tp616
g15
s(V6*DS
p617
L7L
L-8L
tp618
g3
s(V21*A
p619
L4L
L-8L
tp620
g15
s(L30L
NNtp621
Ns(V13*D
p622
L6L
L-8L
tp623
g3
s(V11*
p624
L5L
L-8L
tp625
g3
s(V17*
p626
L9L
L-8L
tp627
g15
s(L16L
L24L
Ntp628
Ns(V17*
p629
L7L
L-8L
tp630
g15
s(L12L
L20L
Ntp631
Ns(V19*AD
p632
L8L
L-8L
tp633
g15
s(V17*A
p634
L10L
L-8L
tp635
g3
s(V20*
p636
L6L
L-8L
tp637
g15
s(L17L
L23L
Ntp638
Ns(V18*
p639
L5L
L-8L
tp640
g15
s(V17*A
p641
L6L
L-8L
tp642
g3
s(L6L
L21L
Ntp643
Ns(V13*A
p644
L7L
L-8L
tp645
g3
s(V17*AD
p646
L2L
L-8L
tp647
g3
s(V20*DS
p648
L8L
L-8L
tp649
g15
s(L10L
L20L
Ntp650
Ns(L10L
L19L
Ntp651
Ns(V13*A
p652
L9L
L-8L
tp653
g3
s(V16*AD
p654
L5L
L-8L
tp655
g3
s(g349
L21L
Ntp656
Ns(V14*
p657
L10L
L-8L
tp658
g3
s(V14*A
p659
L9L
L-8L
tp660
g3
s(L14L
L22L
Ntp661
Ns(V18*A
p662
L2L
L-8L
tp663
g15
s(V15*AD
p664
L7L
L-8L
tp665
g3
s(V15*
p666
L9L
L-8L
tp667
g3
s(L15L
L25L
Ntp668
Ns(V11*D
p669
L9L
L-8L
tp670
g3
s(V6*
p671
L6L
L-8L
tp672
g3
s(V15*
p673
L3L
L-8L
tp674
g3
s(g269
L11L
L-8L
tp675
g3
s(V11*D
p676
L3L
L-8L
tp677
g67
s(V13*D
p678
L10L
L-8L
tp679
g3
s(V16*A
p680
L11L
L-8L
tp681
g3
s(L18L
L24L
Ntp682
Ns(V7*
p683
L11L
L-8L
tp684
g3
s(L15L
L21L
Ntp685
Ns(V20*
p686
L10L
L-8L
tp687
g15
s(V12*D
p688
L11L
L-8L
tp689
g3
s(V12*D
p690
L5L
L-8L
tp691
g3
s(g208
L21L
Ntp692
Ns(V18*
p693
L3L
L-8L
tp694
g15
s(V20*DS
p695
L4L
L-8L
tp696
g15
s(V20*AD
p697
L3L
L-8L
tp698
g15
s(L21L
NNtp699
Ns(V18*D
p700
L6L
L-8L
tp701
g15
s(V17*AD
p702
L4L
L-8L
tp703
g3
s(V16*AD
p704
L3L
L-8L
tp705
g3
s(V14*
p706
L6L
L-8L
tp707
g15
s(V8*DS
p708
L9L
L-8L
tp709
g3
s(V8*DS
p710
L7L
L-8L
tp711
g3
s(V18*A
p712
L21L
Ntp713
Ns(V27*
p714
NNtp715
Ns(L8L
L18L
Ntp716
Ns(L8L
L21L
Ntp717
Ns(V12*
p718
L8L
L-8L
tp719
g3
s(V8*D
p720
L3L
L-8L
tp721
g3
s(V18*DS
p722
L3L
L-8L
tp723
g15
s(V18*A
p724
L4L
L-8L
tp725
g15
s(V15*A
p726
L6L
L-8L
tp727
g3
s(V8*D
p728
L9L
L-8L
tp729
g3
s(V18*DS
p730
L9L
L-8L
tp731
g15
s(L6L
L19L
Ntp732
Ns(L6L
L25L
Ntp733
Ns(V20*DS
p734
L21L
Ntp735
Ns(V5*D
p736
L2L
L-8L
tp737
g3
s(L21L
L5L
L-8L
tp738
g15
s(V15*A
p739
L10L
L-8L
tp740
g3
s(V8*
p741
L3L
L-8L
tp742
g3
s(V16*D
p743
L3L
L-8L
tp744
g15
s(V17*AD
p745
L21L
Ntp746
Ns(V8*
p747
L5L
L-8L
tp748
g3
s(V7*
p749
L7L
L-8L
tp750
g3
s(V14*DS
p751
L2L
L-8L
tp752
g3
s(V9*D
p753
L3L
L-8L
tp754
g3
s(g231
L11L
L-8L
tp755
g3
s(V9*D
p756
L9L
L-8L
tp757
g3
s(V19*D
p758
L6L
L-8L
tp759
g15
s(V16*
p760
L11L
L-8L
tp761
g3
s(V20*D
p762
L21L
Ntp763
Ns(V20*A
p764
L2L
L-8L
tp765
g15
s(V18*AD
p766
L2L
L-8L
tp767
g15
s(V13*
p768
L5L
L-8L
tp769
g3
s(V14*AD
p770
L7L
L-8L
tp771
g3
s(V19*D
p772
L10L
L-8L
tp773
g15
s(L20L
L25L
Ntp774
Ns(V6*D
p775
L7L
L-8L
tp776
g3
s(L9L
L17L
Ntp777
Ns(L9L
L22L
Ntp778
Ns(V6*D
p779
L11L
L-8L
tp780
g3
s(V15*D
p781
L8L
L-8L
tp782
g3
s(V15*D
p783
L2L
L-8L
tp784
g3
s(V15*D
p785
L4L
L-8L
tp786
g15
s(V9*
p787
L5L
L-8L
tp788
g3
s(L25L
NNtp789
Ns(V9*
p790
L9L
L-8L
tp791
g3
s(V14*D
p792
L7L
L-8L
tp793
g3
s(V12*
p794
L4L
L-8L
tp795
g3
s(L14L
L20L
Ntp796
Ns(L8L
L24L
Ntp797
Ns(V19*AD
p798
L5L
L-8L
tp799
g15
s(V17*A
p800
L7L
L-8L
tp801
g3
s(V12*
p802
L2L
L-8L
tp803
g3
s(V8*D
p804
L5L
L-8L
tp805
g3
s(V18*DS
p806
L5L
L-8L
tp807
g15
s(V24*
p808
NNtp809
Ns(V17*D
p810
L21L
Ntp811
Ns(L26L
NNtp812
Ns(L21L
L9L
L-8L
tp813
g15
s(L21L
L26L
Ntp814
Ns(L21L
L19L
Ntp815
Ns(V5*D
p816
L8L
L-8L
tp817
g3
s(V10*D
p818
L11L
L-8L
tp819
g3
s(V17*D
p820
L7L
L-8L
tp821
g15
s(V12*ADS
p822
L11L
L-8L
tp823
g3
s(V14*A
p824
L8L
L-8L
tp825
g3
s(L11L
L19L
Ntp826
Ns(V16*DS
p827
L10L
L-8L
tp828
g3
s(L11L
L20L
Ntp829
Ns(V14*A
p830
L21L
Ntp831
Ns(V10*DS
p832
L10L
L-8L
tp833
g3
s(V14*A
p834
L2L
L-8L
tp835
g3
s(V10*
p836
L4L
L-8L
tp837
g3
s(V9*D
p838
L5L
L-8L
tp839
g3
s(L14L
L18L
Ntp840
Ns(V16*
p841
L7L
L-8L
tp842
g3
s(V10*DS
p843
L4L
L-8L
tp844
g67
s(V20*D
p845
L7L
L-8L
tp846
g15
s(V10*
p847
L10L
L-8L
tp848
g3
s(L4L
L23L
Ntp849
Ns(V13*
p850
L9L
L-8L
tp851
g3
s(V20*D
p852
L9L
L-8L
tp853
g15
s(L18L
L21L
Ntp854
Ns(V15*AD
p855
L2L
L-8L
tp856
g3
s(V13*AD
p857
L5L
L-8L
tp858
g3
s(V15*
p859
L6L
L-8L
tp860
g15
s(V13*AD
p861
L3L
L-8L
tp862
g3
s(L15L
L19L
Ntp863
Ns(V6*DS
p864
L6L
L-8L
tp865
g3
s(V21*A
p866
L7L
L-8L
tp867
g15
s(g680
L21L
Ntp868
Ns(V11*
p869
L10L
L-8L
tp870
g3
s(L6L
L20L
Ntp871
Ns(V17*
p872
L8L
L-8L
tp873
g15
s(L8L
L26L
Ntp874
Ns(V17*
p875
L6L
L-8L
tp876
g15
s(L12L
L24L
Ntp877
Ns(V19*AD
p878
L9L
L-8L
tp879
g15
s(g133
L11L
L-8L
tp880
g3
s(V18*
p881
L6L
L-8L
tp882
g15
s(L27L
NNtp883
Ns(V18*
p884
L8L
L-8L
tp885
g15
s(V13*A
p886
L6L
L-8L
tp887
g3
s(g734
L11L
L-8L
tp888
g15
s(L10L
L23L
Ntp889
Ns(V13*A
p890
L8L
L-8L
tp891
g3
s(V12*DS
p892
L6L
L-8L
tp893
g3
s(V16*AD
p894
L6L
L-8L
tp895
g67
s(V16*AD
p896
L8L
L-8L
tp897
g3
s(V14*
p898
L9L
L-8L
tp899
g3
s(V12*DS
p900
L10L
L-8L
tp901
g3
s(g295
L21L
Ntp902
Ns(L9L
L25L
Ntp903
Ns(V15*
p904
L10L
L-8L
tp905
g3
s(L9L
L23L
Ntp906
Ns(V11*D
p907
L10L
L-8L
tp908
g3
s(V15*A
p909
L11L
L-8L
tp910
g3
s(L9L
L20L
Ntp911
Ns(V6*DS
p912
L10L
L-8L
tp913
g3
s(V6*
p914
L5L
L-8L
tp915
g3
s(V11*D
p916
L4L
L-8L
tp917
g67
s(V6*
p918
L11L
L-8L
tp919
g3
s(V8*
p920
L4L
L-8L
tp921
g3
s(V16*A
p922
L2L
L-8L
tp923
g3
s(L16L
L19L
Ntp924
Ns(V7*
p925
L2L
L-8L
tp926
g3
s(V16*A
p927
L4L
L-8L
tp928
g3
s(L11L
L24L
Ntp929
Ns(V14*AD
p930
L6L
L-8L
tp931
g3
s(V19*D
p932
L11L
L-8L
tp933
g15
s(V21*
p934
L21L
Ntp935
Ns(L29L
NNtp936
Ns(V6*D
p937
L10L
L-8L
tp938
g3
s(V12*D
p939
L6L
L-8L
tp940
g3
s(V12*ADS
p941
L8L
L-8L
tp942
g3
s(L21L
L24L
Ntp943
Ns(V20*DS
p944
L7L
L-8L
tp945
g15
s(V20*AD
p946
L2L
L-8L
tp947
g15
s(L14L
L25L
Ntp948
Ns(L10L
L18L
Ntp949
Ns(V18*D
p950
L5L
L-8L
tp951
g15
s(V15*D
p952
L5L
L-8L
tp953
g15
s(g745
L11L
L-8L
tp954
g3
s(L10L
L17L
Ntp955
Ns(g137
L11L
L-8L
tp956
g15
s(V14*
p957
L5L
L-8L
tp958
g3
s(V21*
p959
L6L
L-8L
tp960
g15
s(V9*
p961
L8L
L-8L
tp962
g3
s(V14*
p963
L3L
L-8L
tp964
g3
s(V8*DS
p965
L4L
L-8L
tp966
g3
s(V14*D
p967
L2L
L-8L
tp968
g3
s(V12*
p969
L3L
L-8L
tp970
g3
s(V8*DS
p971
L2L
L-8L
tp972
g3
s(V21*
p973
L10L
L-8L
tp974
g15
s(L18L
L19L
Ntp975
Ns(L8L
L17L
Ntp976
Ns(V12*
p977
L9L
L-8L
tp978
g3
s(g712
L11L
L-8L
tp979
g3
s(L21L
L23L
Ntp980
Ns(V15*A
p981
L7L
L-8L
tp982
g3
s(V5*D
p983
L9L
L-8L
tp984
g3
s(V10*D
p985
L10L
L-8L
tp986
g3
s(V17*D
p987
L6L
L-8L
tp988
g15
s(V12*ADS
p989
L10L
L-8L
tp990
g3
s(V16*D
p991
L10L
L-8L
tp992
g3
s(V5*D
p993
L3L
L-8L
tp994
g3
s(L21L
L4L
L-8L
tp995
g15
s(g364
L21L
Ntp996
Ns(V8*
p997
L2L
L-8L
tp998
g3
s(V16*D
p999
L6L
L-8L
tp1000
g15
s(V14*DS
p1001
L3L
L-8L
tp1002
g3
s(V14*AD
p1003
L10L
L-8L
tp1004
g3
s(V19*D
p1005
L7L
L-8L
tp1006
g15
s(V16*
p1007
L8L
L-8L
tp1008
g3
s(V20*A
p1009
L3L
L-8L
tp1010
g15
s(V18*AD
p1011
L5L
L-8L
tp1012
g15
s(V14*AD
p1013
L4L
L-8L
tp1014
g3
s(V13*
p1015
L4L
L-8L
tp1016
g3
s(V13*AD
p1017
L2L
L-8L
tp1018
g3
s(L16L
L26L
Ntp1019
Ns(V6*D
p1020
L6L
L-8L
tp1021
g3
s(L9L
L18L
Ntp1022
Ns(V18*AD
p1023
L9L
L-8L
tp1024
g3
s(V15*D
p1025
L9L
L-8L
tp1026
g3
s(V16*D
p1027
L21L
Ntp1028
Ns(V11*
p1029
L11L
L-8L
tp1030
g3
s(V15*D
p1031
L3L
L-8L
tp1032
g3
s(V9*
p1033
L4L
L-8L
tp1034
g3
s(L23L
NNtp1035
Ns(L8L
L20L
Ntp1036
Ns(V14*D
p1037
L8L
L-8L
tp1038
g3
s(V12*
p1039
L5L
L-8L
tp1040
g3
s(L8L
L23L
Ntp1041
Ns(V19*AD
p1042
L2L
L-8L
tp1043
g15
s(V17*A
p1044
L4L
L-8L
tp1045
g3
s(L21L
L8L
L-8L
tp1046
g15
s(L21L
L20L
Ntp1047
Ns(V16*DS
p1048
L3L
L-8L
tp1049
g15
s(L16L
L21L
Ntp1050
Ns(g830
L11L
L-8L
tp1051
g3
s(g471
L11L
L-8L
tp1052
g3
s(V16*DS
p1053
L5L
L-8L
tp1054
g15
s(L19L
L17L
Ntp1055
Ns(V14*A
p1056
L5L
L-8L
tp1057
g3
s(g130
L11L
L-8L
tp1058
g3
s(V10*
p1059
L5L
L-8L
tp1060
g3
s(V16*
p1061
L4L
L-8L
tp1062
g15
s(V10*DS
p1063
L5L
L-8L
tp1064
g67
s(V10*
p1065
L11L
L-8L
tp1066
g3
s(V13*AD
p1067
L21L
Ntp1068
Ns(V16*
p1069
L2L
L-8L
tp1070
g15
s(V13*
p1071
L8L
L-8L
tp1072
g3
s(V20*D
p1073
L10L
L-8L
tp1074
g15
s(V15*AD
p1075
L3L
L-8L
tp1076
g3
s(L20L
L24L
Ntp1077
Ns(V13*AD
p1078
L4L
L-8L
tp1079
g3
s(L20L
L18L
Ntp1080
Ns(V15*
p1081
L7L
L-8L
tp1082
g3
s(L15L
L23L
Ntp1083
Ns(g386
L21L
Ntp1084
Ns(V16*A
p1085
L5L
L-8L
tp1086
g3
s(V21*A
p1087
L6L
L-8L
tp1088
g15
s(V4*DS
p1089
L9L
L-8L
tp1090
g3
s(V4*DS
p1091
L3L
L-8L
tp1092
g3
s(V4*DS
p1093
L5L
L-8L
tp1094
g3
s(L17L
L22L
Ntp1095
Ns(L8L
L25L
Ntp1096
Ns(L20L
L20L
Ntp1097
Ns(V17*
p1098
L5L
L-8L
tp1099
g15
s(V17*
p1100
L3L
L-8L
tp1101
g15
s(L14L
L26L
Ntp1102
Ns(V17*A
p1103
L8L
L-8L
tp1104
g3
s(g266
L21L
Ntp1105
Ns(V18*
p1106
L7L
L-8L
tp1107
g15
s(V17*AD
p1108
L10L
L-8L
tp1109
g3
s(g822
L21L
Ntp1110
Ns(L21L
L17L
Ntp1111
Ns(V20*DS
p1112
L10L
L-8L
tp1113
g15
s(V18*
p1114
L9L
L-8L
tp1115
g15
s(g818
L21L
Ntp1116
Ns(V13*A
p1117
L11L
L-8L
tp1118
g3
s(V12*DS
p1119
L7L
L-8L
tp1120
g3
s(V16*AD
p1121
L7L
L-8L
tp1122
g3
s(V14*
p1123
L2L
L-8L
tp1124
g3
s(L15L
L24L
Ntp1125
Ns(V16*AD
p1126
L9L
L-8L
tp1127
g3
s(V19*
p1128
L7L
L-8L
tp1129
g15
s(V14*
p1130
L8L
L-8L
tp1131
g3
s(L19L
L24L
Ntp1132
Ns(V8*DS
p1133
L3L
L-8L
tp1134
g3
s(g934
L11L
L-8L
tp1135
g15
s(L4L
L17L
Ntp1136
Ns(L19L
L18L
Ntp1137
Ns(V18*A
p1138
L10L
L-8L
tp1139
g3
s(g282
L11L
L-8L
tp1140
g15
s(V7*D
p1141
L8L
L-8L
tp1142
g3
s(L9L
L26L
Ntp1143
Ns(L18L
L25L
Ntp1144
Ns(V15*
p1145
L11L
L-8L
tp1146
g3
s(V7*D
p1147
L2L
L-8L
tp1148
g3
s(g25
L11L
L-8L
tp1149
g3
s(V15*A
p1150
L8L
L-8L
tp1151
g3
s(V6*
p1152
L4L
L-8L
tp1153
g3
s(V7*D
p1154
L4L
L-8L
tp1155
g3
s(g1117
L21L
Ntp1156
Ns(V11*D
p1157
L5L
L-8L
tp1158
g67
s(V6*
p1159
L10L
L-8L
tp1160
g3
s(V8*
p1161
L7L
L-8L
tp1162
g3
s(V16*D
p1163
L7L
L-8L
tp1164
g3
s(V16*A
p1165
L3L
L-8L
tp1166
g3
s(V8*
p1167
L9L
L-8L
tp1168
g3
s(V7*
p1169
L3L
L-8L
tp1170
g3
s(L16L
L25L
Ntp1171
Ns(V23*
p1172
NNtp1173
Ns(V14*AD
p1174
L5L
L-8L
tp1175
g3
s(V19*D
p1176
L8L
L-8L
tp1177
g15
s(L8L
L22L
Ntp1178
Ns(V18*AD
p1179
L8L
L-8L
tp1180
g15
s(L20L
L23L
Ntp1181
Ns(V6*D
p1182
L9L
L-8L
tp1183
g3
s(V12*D
p1184
L7L
L-8L
tp1185
g3
s(V20*AD
p1186
L11L
L-8L
tp1187
g15
s(g1186
L21L
Ntp1188
Ns(V20*DS
p1189
L6L
L-8L
tp1190
g15
s(L10L
L21L
Ntp1191
Ns(V18*D
p1192
L4L
L-8L
tp1193
g15
s(V15*D
p1194
L6L
L-8L
tp1195
g15
s(L18L
L18L
Ntp1196
Ns(V20*AD
p1197
L7L
L-8L
tp1198
g15
s(V18*D
p1199
L10L
L-8L
tp1200
g15
s(V19*A
p1201
L6L
L-8L
tp1202
g15
s(V14*
p1203
L4L
L-8L
tp1204
g3
s(V21*
p1205
L7L
L-8L
tp1206
g15
s(L17L
L26L
Ntp1207
Ns(V14*D
p1208
L9L
L-8L
tp1209
g3
s(V19*A
p1210
L10L
L-8L
tp1211
g15
s(V8*DS
p1212
L5L
L-8L
tp1213
g3
s(g932
L21L
Ntp1214
Ns(L19L
L23L
Ntp1215
Ns(V9*
p1216
L11L
L-8L
tp1217
g3
s(V14*D
p1218
L3L
L-8L
tp1219
g3
s(L20L
L26L
Ntp1220
Ns(V15*A
p1221
L4L
L-8L
tp1222
g3
s(L9L
L21L
Ntp1223
Ns(V10*D
p1224
L9L
L-8L
tp1225
g3
s(V5*D
p1226
L10L
L-8L
tp1227
g3
s(V17*D
p1228
L5L
L-8L
tp1229
g15
s(V12*ADS
p1230
L9L
L-8L
tp1231
g3
s(V15*A
p1232
L2L
L-8L
tp1233
g3
s(g1027
L11L
L-8L
tp1234
g3
s(L21L
L3L
L-8L
tp1235
g15
s(V5*D
p1236
L4L
L-8L
tp1237
g3
s(V10*D
p1238
L7L
L-8L
tp1239
g3
s(g810
L11L
L-8L
tp1240
g3
s(V16*DS
p1241
L4L
L-8L
tp1242
g15
s(V12*ADS
p1243
L7L
L-8L
tp1244
g3
s(g909
L21L
Ntp1245
Ns(V14*DS
p1246
L10L
L-8L
tp1247
g3
s(g224
L21L
Ntp1248
Ns(L15L
L20L
Ntp1249
Ns(V16*
p1250
L3L
L-8L
tp1251
g15
s(V14*DS
p1252
L6L
L-8L
tp1253
g15
s(V14*AD
p1254
L9L
L-8L
tp1255
g3
s(V19*D
p1256
L4L
L-8L
tp1257
g15
s(V20*A
p1258
L10L
L-8L
tp1259
g15
s(V16*
p1260
L9L
L-8L
tp1261
g3
s(V19*D
p1262
L2L
L-8L
tp1263
g15
s(V18*AD
p1264
L4L
L-8L
tp1265
g15
s(V13*
p1266
L3L
L-8L
tp1267
g3
s(V20*A
p1268
L6L
L-8L
tp1269
g15
s(V6*D
p1270
L5L
L-8L
tp1271
g3
s(V6*D
p1272
L3L
L-8L
tp1273
g3
s(L21L
L25L
Ntp1274
Ns(V21*A
p1275
L3L
L-8L
tp1276
g15
s(V15*D
p1277
L10L
L-8L
tp1278
g3
s(V11*
p1279
L8L
L-8L
tp1280
g3
s(V4*DS
p1281
L4L
L-8L
tp1282
g3
s(L14L
L21L
Ntp1283
Ns(g442
L21L
Ntp1284
Ns(V11*
p1285
L6L
L-8L
tp1286
g3
s(V9*
p1287
L7L
L-8L
tp1288
g3
s(L19L
L26L
Ntp1289
Ns(V17*
p1290
L2L
L-8L
tp1291
g15
s(L8L
L19L
Ntp1292
Ns(V19*AD
p1293
L3L
L-8L
tp1294
g15
s(V17*A
p1295
L5L
L-8L
tp1296
g3
s(g688
L21L
Ntp1297
Ns(L16L
L17L
Ntp1298
Ns(V16*DS
p1299
L2L
L-8L
tp1300
g15
s(V14*A
p1301
L10L
L-8L
tp1302
g3
s(V12*DS
p1303
L8L
L-8L
tp1304
g3
s(V19*A
p1305
L21L
Ntp1306
Ns(V14*A
p1307
L4L
L-8L
tp1308
g3
s(V10*
p1309
L2L
L-8L
tp1310
g3
s(V19*
p1311
L10L
L-8L
tp1312
g15
s(L15L
L18L
Ntp1313
Ns(V16*
p1314
L5L
L-8L
tp1315
g15
s(V10*DS
p1316
L6L
L-8L
tp1317
g67
s(V10*
p1318
L8L
L-8L
tp1319
g3
s(g762
L11L
L-8L
tp1320
g15
s(V15*AD
p1321
L4L
L-8L
tp1322
g3
s(V7*D
p1323
L5L
L-8L
tp1324
g3
s(g1067
L11L
L-8L
tp1325
g3
s(L20L
L22L
Ntp1326
Ns(L20L
L17L
Ntp1327
Ns(L22L
NNtp1328
Ns(V15*AD
p1329
L8L
L-8L
tp1330
g3
s(V13*D
p1331
L9L
L-8L
tp1332
g3
s(V16*A
p1333
L6L
L-8L
tp1334
g3
s(V21*A
p1335
L9L
L-8L
tp1336
g15
s(V13*D
p1337
L3L
L-8L
tp1338
g3
s(V4*DS
p1339
L8L
L-8L
tp1340
g3
s(V16*A
p1341
L8L
L-8L
tp1342
g3
s(V13*D
p1343
L5L
L-8L
tp1344
g3
s(V4*DS
p1345
L2L
L-8L
tp1346
g3
s(L17L
L18L
Ntp1347
Ns(L17L
L24L
Ntp1348
Ns(L19L
L25L
Ntp1349
Ns(V17*
p1350
L4L
L-8L
tp1351
g15
s(V20*
p1352
L9L
L-8L
tp1353
g15
s(V17*A
p1354
L9L
L-8L
tp1355
g3
s(V20*
p1356
L3L
L-8L
tp1357
g15
s(g779
L21L
Ntp1358
Ns(V12*D
p1359
L2L
L-8L
tp1360
g3
s(g1145
L21L
Ntp1361
Ns(V20*
p1362
L5L
L-8L
tp1363
g15
s(V17*AD
p1364
L9L
L-8L
tp1365
g3
s(V20*AD
p1366
L6L
L-8L
tp1367
g15
s(V20*DS
p1368
L3L
L-8L
tp1369
g15
s(L21L
L21L
Ntp1370
Ns(L21L
L18L
Ntp1371
Ns(V18*
p1372
L10L
L-8L
tp1373
g15
s(V17*AD
p1374
L7L
L-8L
tp1375
g3
s(L14L
L19L
Ntp1376
Ns(L16L
L23L
Ntp1377
Ns(V13*A
p1378
L10L
L-8L
tp1379
g3
s(V12*DS
p1380
L4L
L-8L
tp1381
g3
s(g1305
L11L
L-8L
tp1382
g15
s(V12*DS
p1383
L2L
L-8L
tp1384
g3
s(V16*AD
p1385
L10L
L-8L
tp1386
g3
s(V19*
p1387
L6L
L-8L
tp1388
g15
s(V21*
p1389
L8L
L-8L
tp1390
g15
s(L12L
L22L
Ntp1391
Ns(g760
L21L
Ntp1392
Ns(L4L
L21L
Ntp1393
Ns(L12L
L17L
Ntp1394
Ns(V18*A
p1395
L9L
L-8L
tp1396
g3
s(V7*D
p1397
L9L
L-8L
tp1398
g3
s(V18*A
p1399
L7L
L-8L
tp1400
g15
s(g488
L21L
Ntp1401
Ns(V15*A
p1402
L3L
L-8L
tp1403
g3
s(V7*D
p1404
L3L
L-8L
tp1405
g3
s(V6*
p1406
L3L
L-8L
tp1407
g3
s(V15*A
p1408
L9L
L-8L
tp1409
g3
s(V11*D
p1410
L6L
L-8L
tp1411
g67
s(V6*
p1412
L9L
L-8L
tp1413
g3
s(V8*
p1414
L6L
L-8L
tp1415
g3
s(V16*D
p1416
L4L
L-8L
tp1417
g15
s(V8*
p1418
L8L
L-8L
tp1419
g3
s(V7*
p1420
L4L
L-8L
tp1421
g3
s(V14*DS
p1422
L7L
L-8L
tp1423
g3
s(L6L
L22L
Ntp1424
Ns(V19*D
p1425
L3L
L-8L
tp1426
g15
s(V7*
p1427
L8L
L-8L
tp1428
g3
s(V19*D
p1429
L9L
L-8L
tp1430
g15
s(V20*A
p1431
L7L
L-8L
tp1432
g15
s.