(dp0
(L13L
L21L
Ntp1
Ns(V12*
p2
L11L
L5L
tp3
VDraw
p4
s(L13L
L18L
Ntp5
Ns(V20*
p6
L7L
L5L
tp7
VStay
p8
s(L13L
L24L
Ntp9
Ns(V10*D
p10
L11L
L5L
tp11
VDouble
p12
s(V19*
p13
L5L
L5L
tp14
g8
s(V7*
p15
L7L
L5L
tp16
g4
s(V18*
p17
L10L
L5L
tp18
g8
s(V16*A
p19
L3L
L5L
tp20
g4
s(L6L
L26L
Ntp21
Ns(V16*AD
p22
L8L
L5L
tp23
g4
s(V14*A
p24
L9L
L5L
tp25
g4
s(V11*D
p26
L4L
L5L
tp27
g12
s(V20*
p28
L21L
Ntp29
Ns(L15L
L26L
Ntp30
Ns(V19*A
p31
L21L
Ntp32
Ns(V16*D
p33
L7L
L5L
tp34
g4
s(V15*A
p35
L6L
L5L
tp36
g4
s(V6*
p37
L9L
L5L
tp38
g4
s(V14*DS
p39
L2L
L5L
tp40
g8
s(L19L
L19L
Ntp41
Ns(V14*
p42
L10L
L5L
tp43
g4
s(L19L
L20L
Ntp44
Ns(g10
L21L
Ntp45
Ns(V8*D
p46
L4L
L5L
tp47
g4
s(V18*
p48
L7L
L5L
tp49
g8
s(L17L
L21L
Ntp50
Ns(V10*
p51
L2L
L5L
tp52
g4
s(V16*D
p53
L10L
L5L
tp54
g8
s(V15*A
p55
L11L
L5L
tp56
g4
s(V24*
p57
NNtp58
Ns(V17*
p59
L3L
L5L
tp60
g8
s(V10*DS
p61
L5L
L5L
tp62
g12
s(V13*AD
p63
L7L
L5L
tp64
g4
s(V17*D
p65
L7L
L5L
tp66
g8
s(V9*
p67
L3L
L5L
tp68
g4
s(V16*DS
p69
L3L
L5L
tp70
g8
s(V9*D
p71
L3L
L5L
tp72
g12
s(V14*D
p73
L7L
L5L
tp74
g4
s(V16*A
p75
L6L
L5L
tp76
g4
s(V16*DS
p77
L6L
L5L
tp78
g8
s(L4L
L24L
Ntp79
Ns(V19*
p80
L9L
L5L
tp81
g8
s(V7*
p82
L11L
L5L
tp83
g4
s(L4L
L18L
Ntp84
Ns(V13*
p85
L21L
Ntp86
Ns(V14*DS
p87
L7L
L5L
tp88
g4
s(V17*D
p89
L21L
Ntp90
Ns(V13*AD
p91
L21L
Ntp92
Ns(L14L
L17L
Ntp93
Ns(V20*DS
p94
L4L
L5L
tp95
g8
s(V16*DS
p96
L21L
Ntp97
Ns(L18L
L22L
Ntp98
Ns(V16*AD
p99
L4L
L5L
tp100
g12
s(V14*D
p101
L10L
L5L
tp102
g4
s(V6*
p103
L5L
L5L
tp104
g4
s(V20*AD
p105
L10L
L5L
tp106
g8
s(V18*D
p107
L5L
L5L
tp108
g8
s(V17*AD
p109
L3L
L5L
tp110
g12
s(V8*D
p111
L8L
L5L
tp112
g4
s(V17*
p113
L6L
L5L
tp114
g8
s(L4L
L20L
Ntp115
Ns(V20*AD
p116
L3L
L5L
tp117
g8
s(V18*DS
p118
L9L
L5L
tp119
g8
s(V17*A
p120
L4L
L5L
tp121
g4
s(V18*AD
p122
L4L
L5L
tp123
g12
s(L21L
L2L
L5L
tp124
g8
s(V8*
p125
L9L
L5L
tp126
g4
s(V6*DS
p127
L6L
L5L
tp128
g4
s(V15*AD
p129
L8L
L5L
tp130
g4
s(V16*
p131
L5L
L5L
tp132
g8
s(V12*ADS
p133
L5L
L5L
tp134
g4
s(V18*AD
p135
L8L
L5L
tp136
g8
s(V20*AD
p137
L21L
Ntp138
Ns(V17*A
p139
L9L
L5L
tp140
g4
s(V6*D
p141
L9L
L5L
tp142
g4
s(L15L
L22L
Ntp143
Ns(V20*D
p144
L6L
L5L
tp145
g8
s(V13*A
p146
L2L
L5L
tp147
g4
s(V15*AD
p148
L5L
L5L
tp149
g12
s(V13*
p150
L10L
L5L
tp151
g4
s(L13L
L19L
Ntp152
Ns(L20L
L21L
Ntp153
Ns(L6L
L17L
Ntp154
Ns(L17L
L25L
Ntp155
Ns(V13*
p156
L3L
L5L
tp157
g8
s(V19*AD
p158
L11L
L5L
tp159
g8
s(V12*
p160
L5L
L5L
tp161
g8
s(V21*A
p162
L8L
L5L
tp163
g8
s(V12*DS
p164
L4L
L5L
tp165
g8
s(V7*D
p166
L7L
L5L
tp167
g4
s(L19L
L21L
Ntp168
Ns(V19*D
p169
L2L
L5L
tp170
g8
s(V21*
p171
L4L
L5L
tp172
g8
s(V14*AD
p173
L5L
L5L
tp174
g12
s(L19L
L22L
Ntp175
Ns(L16L
L22L
Ntp176
Ns(V18*AD
p177
L21L
Ntp178
Ns(V18*DS
p179
L5L
L5L
tp180
g8
s(V21*
p181
L8L
L5L
tp182
g8
s(V19*AD
p183
L6L
L5L
tp184
g12
s(V15*D
p185
L11L
L5L
tp186
g4
s(V17*A
p187
L21L
Ntp188
Ns(V8*DS
p189
L7L
L5L
tp190
g4
s(V21*A
p191
L5L
L5L
tp192
g8
s(V18*A
p193
L5L
L5L
tp194
g8
s(L21L
L22L
Ntp195
Ns(V6*DS
p196
L10L
L5L
tp197
g4
s(V15*D
p198
L7L
L5L
tp199
g4
s(V16*
p200
L9L
L5L
tp201
g8
s(V7*D
p202
L10L
L5L
tp203
g4
s(V6*D
p204
L5L
L5L
tp205
g4
s(V20*D
p206
L10L
L5L
tp207
g8
s(L12L
L21L
Ntp208
Ns(V15*D
p209
L2L
L5L
tp210
g8
s(V9*D
p211
L21L
Ntp212
Ns(V19*A
p213
L3L
L5L
tp214
g8
s(V11*D
p215
L2L
L5L
tp216
g12
s(L20L
L19L
Ntp217
Ns(L4L
L26L
Ntp218
Ns(V14*
p219
L8L
L5L
tp220
g4
s(L17L
L19L
Ntp221
Ns(V4*DS
p222
L3L
L5L
tp223
g4
s(V10*DS
p224
L21L
Ntp225
Ns(V10*DS
p226
L2L
L5L
tp227
g12
s(V25*
p228
NNtp229
Ns(L11L
L21L
Ntp230
Ns(V13*AD
p231
L8L
L5L
tp232
g4
s(V17*D
p233
L8L
L5L
tp234
g8
s(V12*
p235
L9L
L5L
tp236
g4
s(L11L
L22L
Ntp237
Ns(V12*DS
p238
L8L
L5L
tp239
g4
s(L6L
L24L
Ntp240
Ns(V10*D
p241
L9L
L5L
tp242
g12
s(V8*DS
p243
L2L
L5L
tp244
g4
s(V19*A
p245
L10L
L5L
tp246
g8
s(V7*
p247
L5L
L5L
tp248
g4
s(L13L
L22L
Ntp249
Ns(V20*
p250
L4L
L5L
tp251
g8
s(V8*DS
p252
L11L
L5L
tp253
g4
s(V16*AD
p254
L10L
L5L
tp255
g4
s(V14*A
p256
L7L
L5L
tp257
g4
s(V19*
p258
L2L
L5L
tp259
g8
s(V6*
p260
L11L
L5L
tp261
g4
s(V8*D
p262
L6L
L5L
tp263
g12
s(V16*AD
p264
L3L
L5L
tp265
g12
s(V26*
p266
NNtp267
Ns(V6*
p268
L2L
L5L
tp269
g4
s(L24L
NNtp270
Ns(V14*A
p271
L10L
L5L
tp272
g4
s(L12L
L19L
Ntp273
Ns(L12L
L26L
Ntp274
Ns(V10*DS
p275
L7L
L5L
tp276
g12
s(V18*
p277
L4L
L5L
tp278
g8
s(V18*D
p279
L7L
L5L
tp280
g8
s(L17L
L17L
Ntp281
Ns(V16*D
p282
L9L
L5L
tp283
g8
s(V15*A
p284
L8L
L5L
tp285
g4
s(V13*AD
p286
L4L
L5L
tp287
g12
s(V17*D
p288
L4L
L5L
tp289
g8
s(V5*D
p290
L2L
L5L
tp291
g4
s(V16*DS
p292
L4L
L5L
tp293
g8
s(L10L
L22L
Ntp294
Ns(V7*
p295
L9L
L5L
tp296
g4
s(L6L
L18L
Ntp297
Ns(V18*AD
p298
L10L
L5L
tp299
g4
s(V16*A
p300
L9L
L5L
tp301
g4
s(V20*DS
p302
L10L
L5L
tp303
g8
s(V16*AD
p304
L6L
L5L
tp305
g12
s(V6*
p306
L7L
L5L
tp307
g4
s(L13L
L25L
Ntp308
Ns(L4L
L22L
Ntp309
Ns(V14*DS
p310
L8L
L5L
tp311
g4
s(L18L
L20L
Ntp312
Ns(V8*D
p313
L10L
L5L
tp314
g4
s(L18L
L26L
Ntp315
Ns(V20*DS
p316
L7L
L5L
tp317
g8
s(V20*AD
p318
L5L
L5L
tp319
g8
s(V14*D
p320
L9L
L5L
tp321
g4
s(L11L
L26L
Ntp322
Ns(V18*D
p323
L2L
L5L
tp324
g8
s(V8*
p325
L11L
L5L
tp326
g4
s(V17*
p327
L9L
L5L
tp328
g8
s(L11L
L25L
Ntp329
Ns(V12*ADS
p330
L11L
L5L
tp331
g4
s(V17*
p332
L21L
Ntp333
Ns(g187
L11L
L5L
tp334
g4
s(V18*A
p335
L2L
L5L
tp336
g8
s(V8*
p337
L2L
L5L
tp338
g4
s(V20*D
p339
L4L
L5L
tp340
g8
s(V16*
p341
L2L
L5L
tp342
g8
s(V14*AD
p343
L3L
L5L
tp344
g4
s(L10L
L26L
Ntp345
Ns(L10L
L25L
Ntp346
Ns(V20*A
p347
L2L
L5L
tp348
g8
s(V15*AD
p349
L7L
L5L
tp350
g4
s(V18*DS
p351
L3L
L5L
tp352
g8
s(V12*ADS
p353
L6L
L5L
tp354
g4
s(V21*
p355
L10L
L5L
tp356
g8
s(V17*A
p357
L6L
L5L
tp358
g4
s(V13*A
p359
L5L
L5L
tp360
g4
s(V15*D
p361
L5L
L5L
tp362
g8
s(V13*
p363
L5L
L5L
tp364
g8
s(V18*AD
p365
L6L
L5L
tp366
g12
s(V13*A
p367
L9L
L5L
tp368
g4
s(V15*AD
p369
L10L
L5L
tp370
g4
s(L13L
L20L
Ntp371
Ns(V6*D
p372
L3L
L5L
tp373
g4
s(V20*DS
p374
L21L
Ntp375
Ns(V12*DS
p376
L6L
L5L
tp377
g8
s(V13*D
p378
L11L
L5L
tp379
g4
s(g55
L21L
Ntp380
Ns(L14L
L23L
Ntp381
Ns(V12*
p382
L2L
L5L
tp383
g8
s(V13*D
p384
L7L
L5L
tp385
g4
s(V21*A
p386
L7L
L5L
tp387
g8
s(V12*D
p388
L6L
L5L
tp389
g8
s(V18*A
p390
L7L
L5L
tp391
g8
s(V14*AD
p392
L10L
L5L
tp393
g4
s(L28L
NNtp394
Ns(L12L
L18L
Ntp395
Ns(L16L
L18L
Ntp396
Ns(V12*D
p397
L10L
L5L
tp398
g4
s(V20*
p399
L3L
L5L
tp400
g8
s(V13*D
p401
L2L
L5L
tp402
g8
s(V19*AD
p403
L5L
L5L
tp404
g12
s(V8*DS
p405
L4L
L5L
tp406
g4
s(V20*D
p407
L8L
L5L
tp408
g8
s(V21*A
p409
L10L
L5L
tp410
g8
s(L9L
L19L
Ntp411
Ns(V7*D
p412
L9L
L5L
tp413
g4
s(V21*
p414
L6L
L5L
tp415
g8
s(V4*DS
p416
L9L
L5L
tp417
g4
s(V18*A
p418
L21L
Ntp419
Ns(V15*D
p420
L9L
L5L
tp421
g4
s(V14*
p422
L6L
L5L
tp423
g8
s(L14L
L24L
Ntp424
Ns(V4*DS
p425
L5L
L5L
tp426
g4
s(V15*
p427
L10L
L5L
tp428
g8
s(V18*
p429
L3L
L5L
tp430
g8
s(L13L
L17L
Ntp431
Ns(V13*AD
p432
L10L
L5L
tp433
g4
s(V17*D
p434
L10L
L5L
tp435
g8
s(V12*DS
p436
L10L
L5L
tp437
g4
s(L13L
L23L
Ntp438
Ns(V19*
p439
L21L
Ntp440
Ns(V15*
p441
L6L
L5L
tp442
g8
s(L6L
L23L
Ntp443
Ns(V11*
p444
L6L
L5L
tp445
g4
s(V14*
p446
L11L
L5L
tp447
g4
s(V19*A
p448
L8L
L5L
tp449
g8
s(V7*D
p450
L21L
Ntp451
Ns(V
p452
g452
L5L
tp453
VBegin
p454
s(V21*
p455
L21L
Ntp456
Ns(V13*AD
p457
L3L
L5L
tp458
g4
s(V17*D
p459
L3L
L5L
tp460
g8
s(V11*
p461
L10L
L5L
tp462
g4
s(V8*D
p463
L21L
Ntp464
Ns(L11L
L18L
Ntp465
Ns(V20*
p466
L6L
L5L
tp467
g8
s(V10*D
p468
L6L
L5L
tp469
g12
s(V15*
p470
L3L
L5L
tp471
g8
s(V6*DS
p472
L21L
Ntp473
Ns(V7*
p474
L2L
L5L
tp475
g4
s(V16*
p476
L21L
Ntp477
Ns(L18L
L23L
Ntp478
Ns(V16*A
p479
L2L
L5L
tp480
g4
s(V16*DS
p481
L2L
L5L
tp482
g8
s(V10*D
p483
L3L
L5L
tp484
g12
s(V8*DS
p485
L8L
L5L
tp486
g4
s(V14*A
p487
L8L
L5L
tp488
g4
s(L15L
L17L
Ntp489
Ns(V18*D
p490
L21L
Ntp491
Ns(L10L
L24L
Ntp492
Ns(V14*DS
p493
L3L
L5L
tp494
g8
s(V16*A
p495
L11L
L5L
tp496
g4
s(V18*
p497
L6L
L5L
tp498
g8
s(V18*D
p499
L9L
L5L
tp500
g8
s(V14*DS
p501
L10L
L5L
tp502
g4
s(L17L
L20L
Ntp503
Ns(V27*
p504
NNtp505
Ns(V14*A
p506
L5L
L5L
tp507
g4
s(L12L
L23L
Ntp508
Ns(V16*D
p509
L11L
L5L
tp510
g4
s(V10*DS
p511
L8L
L5L
tp512
g12
s(L12L
L25L
Ntp513
Ns(V15*A
p514
L10L
L5L
tp515
g4
s(V17*
p516
L2L
L5L
tp517
g8
s(V20*AD
p518
L7L
L5L
tp519
g8
s(V13*AD
p520
L6L
L5L
tp521
g12
s(V17*D
p522
L6L
L5L
tp523
g8
s(V9*D
p524
L6L
L5L
tp525
g12
s(V18*D
p526
L4L
L5L
tp527
g8
s(V10*
p528
L10L
L5L
tp529
g4
s(V16*D
p530
L2L
L5L
tp531
g8
s(V15*A
p532
L3L
L5L
tp533
g4
s(g332
L11L
L5L
tp534
g8
s(V9*D
p535
L10L
L5L
tp536
g4
s(V10*
p537
L6L
L5L
tp538
g4
s(V5*D
p539
L5L
L5L
tp540
g4
s(V9*
p541
L11L
L5L
tp542
g4
s(g96
L11L
L5L
tp543
g4
s(L11L
L23L
Ntp544
Ns(V5*D
p545
L9L
L5L
tp546
g4
s(L11L
L17L
Ntp547
Ns(V9*
p548
L7L
L5L
tp549
g4
s(L4L
L25L
Ntp550
Ns(L4L
L19L
Ntp551
Ns(V10*
p552
L3L
L5L
tp553
g4
s(L16L
L20L
Ntp554
Ns(V18*AD
p555
L9L
L5L
tp556
g4
s(L18L
L17L
Ntp557
Ns(V20*DS
p558
L5L
L5L
tp559
g8
s(L9L
L24L
Ntp560
Ns(V14*D
p561
L11L
L5L
tp562
g4
s(L13L
L26L
Ntp563
Ns(V9*
p564
L2L
L5L
tp565
g4
s(V13*
p566
L7L
L5L
tp567
g4
s(L30L
NNtp568
Ns(V13*A
p569
L11L
L5L
tp570
g4
s(V14*D
p571
L2L
L5L
tp572
g8
s(V20*AD
p573
L2L
L5L
tp574
g8
s(V20*DS
p575
L8L
L5L
tp576
g8
s(V17*AD
p577
L11L
L5L
tp578
g4
s(L21L
L7L
L5L
tp579
g8
s(V20*A
p580
L8L
L5L
tp581
g8
s(g569
L21L
Ntp582
Ns(L16L
L24L
Ntp583
Ns(V8*
p584
L4L
L5L
tp585
g4
s(V17*AD
p586
L7L
L5L
tp587
g4
s(L21L
L11L
L5L
tp588
g8
s(L12L
L20L
Ntp589
Ns(V12*ADS
p590
L4L
L5L
tp591
g4
s(V20*A
p592
L4L
L5L
tp593
g8
s(V13*D
p594
L5L
L5L
tp595
g8
s(V19*AD
p596
L2L
L5L
tp597
g8
s(V20*D
p598
L3L
L5L
tp599
g8
s(L17L
L23L
Ntp600
Ns(V14*AD
p601
L8L
L5L
tp602
g4
s(L6L
L21L
Ntp603
Ns(V12*D
p604
L8L
L5L
tp605
g4
s(L10L
L20L
Ntp606
Ns(V17*AD
p607
L2L
L5L
tp608
g12
s(L10L
L19L
Ntp609
Ns(V21*
p610
L9L
L5L
tp611
g8
s(g2
L21L
Ntp612
Ns(V12*ADS
p613
L9L
L5L
tp614
g4
s(V17*A
p615
L5L
L5L
tp616
g4
s(V15*D
p617
L6L
L5L
tp618
g8
s(V13*
p619
L2L
L5L
tp620
g8
s(V18*AD
p621
L5L
L5L
tp622
g12
s(V6*DS
p623
L3L
L5L
tp624
g4
s(L14L
L22L
Ntp625
Ns(V15*AD
p626
L9L
L5L
tp627
g4
s(L15L
L25L
Ntp628
Ns(V19*D
p629
L7L
L5L
tp630
g8
s(V4*DS
p631
L7L
L5L
tp632
g4
s(V13*A
p633
L7L
L5L
tp634
g4
s(V19*D
p635
L11L
L5L
tp636
g8
s(L18L
L24L
Ntp637
Ns(V15*
p638
L4L
L5L
tp639
g8
s(V19*AD
p640
L7L
L5L
tp641
g8
s(V18*A
p642
L8L
L5L
tp643
g8
s(V8*DS
p644
L6L
L5L
tp645
g12
s(V11*
p646
L8L
L5L
tp647
g4
s(g450
L11L
L5L
tp648
g4
s(L15L
L21L
Ntp649
Ns(V13*D
p650
L9L
L5L
tp651
g4
s(V10*D
p652
L4L
L5L
tp653
g12
s(V21*A
p654
L9L
L5L
tp655
g8
s(V7*D
p656
L2L
L5L
tp657
g4
s(V12*D
p658
L4L
L5L
tp659
g8
s(L21L
NNtp660
Ns(V21*
p661
L5L
L5L
tp662
g8
s(V11*D
p663
L7L
L5L
tp664
g12
s(g158
L21L
Ntp665
Ns(V11*D
p666
L11L
L5L
tp667
g12
s(V15*D
p668
L10L
L5L
tp669
g8
s(V14*
p670
L9L
L5L
tp671
g4
s(L8L
L18L
Ntp672
Ns(V4*DS
p673
L2L
L5L
tp674
g4
s(L8L
L21L
Ntp675
Ns(V10*DS
p676
L3L
L5L
tp677
g12
s(L6L
L19L
Ntp678
Ns(V19*A
p679
L7L
L5L
tp680
g8
s(V4*DS
p681
L11L
L5L
tp682
g4
s(L6L
L25L
Ntp683
Ns(g681
L21L
Ntp684
Ns(V10*DS
p685
L10L
L5L
tp686
g12
s(V14*
p687
L4L
L5L
tp688
g8
s(V20*
p689
L9L
L5L
tp690
g8
s(V15*
p691
L8L
L5L
tp692
g4
s(V8*DS
p693
L10L
L5L
tp694
g4
s(V19*A
p695
L2L
L5L
tp696
g8
s(V14*DS
p697
L21L
Ntp698
Ns(V9*D
p699
L8L
L5L
tp700
g4
s(V10*
p701
L4L
L5L
tp702
g4
s(V16*AD
p703
L21L
Ntp704
Ns(V11*
p705
L4L
L5L
tp706
g4
s(V16*A
p707
L5L
L5L
tp708
g4
s(V16*DS
p709
L9L
L5L
tp710
g8
s(L20L
L25L
Ntp711
Ns(V16*AD
p712
L2L
L5L
tp713
g4
s(V19*
p714
L10L
L5L
tp715
g8
s(V6*
p716
L3L
L5L
tp717
g4
s(V5*D
p718
L11L
L5L
tp719
g4
s(V9*
p720
L5L
L5L
tp721
g4
s(L9L
L17L
Ntp722
Ns(L9L
L22L
Ntp723
Ns(V14*DS
p724
L4L
L5L
tp725
g8
s(V19*
p726
L6L
L5L
tp727
g8
s(V14*A
p728
L3L
L5L
tp729
g4
s(V16*A
p730
L8L
L5L
tp731
g4
s(V18*
p732
L9L
L5L
tp733
g8
s(V20*AD
p734
L9L
L5L
tp735
g8
s(V18*D
p736
L6L
L5L
tp737
g8
s(V14*DS
p738
L9L
L5L
tp739
g4
s(V16*D
p740
L4L
L5L
tp741
g8
s(V14*A
p742
L6L
L5L
tp743
g4
s(V15*A
p744
L5L
L5L
tp745
g4
s(V19*
p746
L3L
L5L
tp747
g8
s(V17*
p748
L5L
L5L
tp749
g8
s(L25L
NNtp750
Ns(L8L
L24L
Ntp751
Ns(V8*D
p752
L3L
L5L
tp753
g4
s(L14L
L20L
Ntp754
Ns(V20*AD
p755
L4L
L5L
tp756
g8
s(V8*
p757
L6L
L5L
tp758
g4
s(L26L
NNtp759
Ns(L21L
L26L
Ntp760
Ns(g490
L11L
L5L
tp761
g8
s(V20*A
p762
L21L
Ntp763
Ns(L21L
L19L
Ntp764
Ns(V17*
p765
L8L
L5L
tp766
g8
s(V17*AD
p767
L5L
L5L
tp768
g12
s(L21L
L9L
L5L
tp769
g8
s(V20*A
p770
L6L
L5L
tp771
g8
s(g509
L21L
Ntp772
Ns(g177
L11L
L5L
tp773
g8
s(L11L
L19L
Ntp774
Ns(L11L
L20L
Ntp775
Ns(V17*A
p776
L2L
L5L
tp777
g4
s(L14L
L18L
Ntp778
Ns(V9*D
p779
L4L
L5L
tp780
g12
s(V10*
p781
L8L
L5L
tp782
g4
s(V13*
p783
L9L
L5L
tp784
g4
s(L4L
L23L
Ntp785
Ns(V18*AD
p786
L2L
L5L
tp787
g12
s(L18L
L21L
Ntp788
Ns(V20*DS
p789
L2L
L5L
tp790
g8
s(V14*D
p791
L4L
L5L
tp792
g8
s(V5*D
p793
L7L
L5L
tp794
g4
s(V9*
p795
L9L
L5L
tp796
g4
s(L15L
L19L
Ntp797
Ns(g446
L21L
Ntp798
Ns(V13*
p799
L4L
L5L
tp800
g8
s(V13*A
p801
L8L
L5L
tp802
g4
s(g374
L11L
L5L
tp803
g8
s(L6L
L20L
Ntp804
Ns(V18*A
p805
L3L
L5L
tp806
g8
s(V14*AD
p807
L6L
L5L
tp808
g12
s(L8L
L26L
Ntp809
Ns(V8*
p810
L3L
L5L
tp811
g4
s(V18*DS
p812
L6L
L5L
tp813
g8
s(V12*ADS
p814
L3L
L5L
tp815
g4
s(V19*D
p816
L9L
L5L
tp817
g8
s(L12L
L24L
Ntp818
Ns(V20*A
p819
L3L
L5L
tp820
g8
s(g455
L11L
L5L
tp821
g8
s(V13*D
p822
L6L
L5L
tp823
g8
s(V18*A
p824
L10L
L5L
tp825
g4
s(V18*DS
p826
L10L
L5L
tp827
g8
s(V6*DS
p828
L9L
L5L
tp829
g4
s(V14*AD
p830
L11L
L5L
tp831
g4
s(V16*
p832
L10L
L5L
tp833
g8
s(V17*A
p834
L7L
L5L
tp835
g4
s(L27L
NNtp836
Ns(V17*AD
p837
L9L
L5L
tp838
g4
s(V15*D
p839
L4L
L5L
tp840
g8
s(L21L
L5L
L5L
tp841
g8
s(V12*D
p842
L11L
L5L
tp843
g4
s(V20*A
p844
L10L
L5L
tp845
g8
s(V18*AD
p846
L7L
L5L
tp847
g8
s(V6*DS
p848
L5L
L5L
tp849
g4
s(V16*
p850
L6L
L5L
tp851
g8
s(V21*
p852
L2L
L5L
tp853
g8
s(L10L
L23L
Ntp854
Ns(V6*D
p855
L6L
L5L
tp856
g4
s(V15*AD
p857
L11L
L5L
tp858
g4
s(V12*ADS
p859
L10L
L5L
tp860
g4
s(V6*D
p861
L10L
L5L
tp862
g4
s(V16*
p863
L3L
L5L
tp864
g8
s(V15*AD
p865
L2L
L5L
tp866
g4
s(L9L
L25L
Ntp867
Ns(V15*
p868
L21L
Ntp869
Ns(L9L
L23L
Ntp870
Ns(V11*D
p871
L9L
L5L
tp872
g12
s(L9L
L20L
Ntp873
Ns(V4*DS
p874
L4L
L5L
tp875
g4
s(V13*A
p876
L4L
L5L
tp877
g4
s(L16L
L19L
Ntp878
Ns(V12*
p879
L10L
L5L
tp880
g4
s(V19*AD
p881
L8L
L5L
tp882
g8
s(g378
L21L
Ntp883
Ns(V20*
p884
L2L
L5L
tp885
g8
s(V10*D
p886
L10L
L5L
tp887
g12
s(V15*
p888
L7L
L5L
tp889
g4
s(V19*A
p890
L5L
L5L
tp891
g8
s(L11L
L24L
Ntp892
Ns(V12*
p893
L6L
L5L
tp894
g8
s(V12*DS
p895
L3L
L5L
tp896
g8
s(V21*A
p897
L11L
L5L
tp898
g8
s(V12*D
p899
L2L
L5L
tp900
g8
s(V7*D
p901
L4L
L5L
tp902
g4
s(V19*D
p903
L5L
L5L
tp904
g8
s(V11*
p905
L11L
L5L
tp906
g4
s(g28
L11L
L5L
tp907
g8
s(V21*
p908
L7L
L5L
tp909
g8
s(V13*D
p910
L10L
L5L
tp911
g4
s(L29L
NNtp912
Ns(V10*D
p913
L7L
L5L
tp914
g12
s(V12*
p915
L3L
L5L
tp916
g8
s(V21*A
p917
L2L
L5L
tp918
g8
s(g561
L21L
Ntp919
Ns(V15*D
p920
L8L
L5L
tp921
g4
s(L21L
L24L
Ntp922
Ns(V12*D
p923
L7L
L5L
tp924
g4
s(L14L
L25L
Ntp925
Ns(L10L
L18L
Ntp926
Ns(L10L
L17L
Ntp927
Ns(V18*
p928
L2L
L5L
tp929
g8
s(V14*A
p930
L21L
Ntp931
Ns(V22*
p932
NNtp933
Ns(V19*
p934
L4L
L5L
tp935
g8
s(V10*DS
p936
L4L
L5L
tp937
g12
s(L8L
L17L
Ntp938
Ns(V18*
p939
L11L
L5L
tp940
g8
s(V14*
p941
L2L
L5L
tp942
g8
s(L18L
L19L
Ntp943
Ns(V13*AD
p944
L2L
L5L
tp945
g4
s(V17*D
p946
L2L
L5L
tp947
g8
s(L21L
L23L
Ntp948
Ns(V11*D
p949
L5L
L5L
tp950
g12
s(g252
L21L
Ntp951
Ns(V16*D
p952
L6L
L5L
tp953
g8
s(V15*A
p954
L7L
L5L
tp955
g4
s(V4*DS
p956
L8L
L5L
tp957
g4
s(V10*DS
p958
L9L
L5L
tp959
g12
s(V11*
p960
L2L
L5L
tp961
g4
s(V14*
p962
L7L
L5L
tp963
g4
s(V16*DS
p964
L7L
L5L
tp965
g4
s(g868
L11L
L5L
tp966
g4
s(V7*
p967
L10L
L5L
tp968
g4
s(g211
L11L
L5L
tp969
g4
s(V10*
p970
L7L
L5L
tp971
g4
s(V7*
p972
L6L
L5L
tp973
g4
s(V11*
p974
L7L
L5L
tp975
g4
s(V16*A
p976
L10L
L5L
tp977
g4
s(V16*AD
p978
L5L
L5L
tp979
g12
s(V16*DS
p980
L10L
L5L
tp981
g8
s(L16L
L26L
Ntp982
Ns(V6*
p983
L4L
L5L
tp984
g4
s(V5*D
p985
L8L
L5L
tp986
g4
s(V9*
p987
L6L
L5L
tp988
g4
s(L9L
L18L
Ntp989
Ns(V16*AD
p990
L9L
L5L
tp991
g4
s(V6*
p992
L8L
L5L
tp993
g4
s(g697
L11L
L5L
tp994
g4
s(V8*D
p995
L9L
L5L
tp996
g4
s(V14*A
p997
L4L
L5L
tp998
g4
s(V23*
p999
NNtp1000
Ns(V7*
p1001
L3L
L5L
tp1002
g4
s(V14*D
p1003
L6L
L5L
tp1004
g8
s(V8*D
p1005
L5L
L5L
tp1006
g12
s(g939
L21L
Ntp1007
Ns(V16*A
p1008
L7L
L5L
tp1009
g4
s(V20*AD
p1010
L6L
L5L
tp1011
g8
s(V19*
p1012
L8L
L5L
tp1013
g8
s(V8*
p1014
L8L
L5L
tp1015
g4
s(V16*D
p1016
L3L
L5L
tp1017
g8
s(V15*A
p1018
L2L
L5L
tp1019
g4
s(V14*DS
p1020
L6L
L5L
tp1021
g8
s(V17*
p1022
L10L
L5L
tp1023
g8
s(L23L
NNtp1024
Ns(L8L
L20L
Ntp1025
Ns(L8L
L23L
Ntp1026
Ns(g137
L11L
L5L
tp1027
g8
s(V8*
p1028
L5L
L5L
tp1029
g4
s(V9*D
p1030
L2L
L5L
tp1031
g12
s(V18*D
p1032
L8L
L5L
tp1033
g8
s(L21L
L20L
Ntp1034
Ns(V17*AD
p1035
L6L
L5L
tp1036
g12
s(L21L
L10L
L5L
tp1037
g8
s(V20*A
p1038
L5L
L5L
tp1039
g8
s(L16L
L21L
Ntp1040
Ns(V17*
p1041
L7L
L5L
tp1042
g8
s(V18*DS
p1043
L8L
L5L
tp1044
g8
s(L19L
L17L
Ntp1045
Ns(V20*D
p1046
L21L
Ntp1047
Ns(V9*D
p1048
L7L
L5L
tp1049
g12
s(V10*
p1050
L11L
L5L
tp1051
g4
s(V13*
p1052
L6L
L5L
tp1053
g8
s(V6*DS
p1054
L7L
L5L
tp1055
g4
s(V16*
p1056
L4L
L5L
tp1057
g8
s(V13*A
p1058
L10L
L5L
tp1059
g4
s(L20L
L24L
Ntp1060
Ns(V14*D
p1061
L3L
L5L
tp1062
g8
s(V5*D
p1063
L4L
L5L
tp1064
g4
s(L20L
L18L
Ntp1065
Ns(V9*
p1066
L10L
L5L
tp1067
g4
s(V28*
p1068
NNtp1069
Ns(V6*D
p1070
L8L
L5L
tp1071
g4
s(V20*DS
p1072
L9L
L5L
tp1073
g8
s(L15L
L23L
Ntp1074
Ns(V13*A
p1075
L3L
L5L
tp1076
g4
s(g85
L11L
L5L
tp1077
g4
s(V13*D
p1078
L4L
L5L
tp1079
g8
s(V19*AD
p1080
L3L
L5L
tp1081
g8
s(V18*A
p1082
L4L
L5L
tp1083
g8
s(L17L
L22L
Ntp1084
Ns(V14*AD
p1085
L9L
L5L
tp1086
g4
s(L8L
L25L
Ntp1087
Ns(L21L
L3L
L5L
tp1088
g8
s(L20L
L20L
Ntp1089
Ns(V12*D
p1090
L9L
L5L
tp1091
g4
s(V19*D
p1092
L10L
L5L
tp1093
g8
s(V19*AD
p1094
L10L
L5L
tp1095
g8
s(L14L
L26L
Ntp1096
Ns(g1046
L11L
L5L
tp1097
g8
s(V18*A
p1098
L9L
L5L
tp1099
g4
s(V12*
p1100
L4L
L5L
tp1101
g8
s(V12*ADS
p1102
L8L
L5L
tp1103
g4
s(V17*A
p1104
L8L
L5L
tp1105
g4
s(V15*D
p1106
L3L
L5L
tp1107
g8
s(V7*D
p1108
L6L
L5L
tp1109
g4
s(V20*D
p1110
L7L
L5L
tp1111
g8
s(V17*AD
p1112
L10L
L5L
tp1113
g4
s(V14*AD
p1114
L4L
L5L
tp1115
g12
s(L21L
L6L
L5L
tp1116
g8
s(L21L
L17L
Ntp1117
Ns(V20*A
p1118
L9L
L5L
tp1119
g8
s(V6*DS
p1120
L2L
L5L
tp1121
g4
s(V15*AD
p1122
L4L
L5L
tp1123
g12
s(V18*DS
p1124
L4L
L5L
tp1125
g8
s(L15L
L24L
Ntp1126
Ns(L19L
L24L
Ntp1127
Ns(V20*D
p1128
L2L
L5L
tp1129
g8
s(g472
L11L
L5L
tp1130
g4
s(V4*DS
p1131
L6L
L5L
tp1132
g4
s(L19L
L18L
Ntp1133
Ns(V16*
p1134
L8L
L5L
tp1135
g4
s(L4L
L17L
Ntp1136
Ns(V13*A
p1137
L6L
L5L
tp1138
g4
s(V12*DS
p1139
L9L
L5L
tp1140
g4
s(L9L
L26L
Ntp1141
Ns(L18L
L25L
Ntp1142
Ns(V6*D
p1143
L4L
L5L
tp1144
g4
s(V15*
p1145
L5L
L5L
tp1146
g8
s(g31
L11L
L5L
tp1147
g8
s(V11*D
p1148
L10L
L5L
tp1149
g12
s(V18*DS
p1150
L21L
Ntp1151
Ns(V12*DS
p1152
L5L
L5L
tp1153
g8
s(g830
L21L
Ntp1154
Ns(V19*D
p1155
L3L
L5L
tp1156
g8
s(V11*
p1157
L9L
L5L
tp1158
g4
s(V20*
p1159
L5L
L5L
tp1160
g8
s(L16L
L25L
Ntp1161
Ns(V13*D
p1162
L8L
L5L
tp1163
g4
s(V10*D
p1164
L5L
L5L
tp1165
g12
s(V19*A
p1166
L6L
L5L
tp1167
g8
s(V21*A
p1168
L4L
L5L
tp1169
g8
s(V6*D
p1170
L21L
Ntp1171
Ns(V7*D
p1172
L3L
L5L
tp1173
g4
s(V12*D
p1174
L5L
L5L
tp1175
g8
s(V19*D
p1176
L6L
L5L
tp1177
g8
s(L8L
L22L
Ntp1178
Ns(V20*
p1179
L8L
L5L
tp1180
g8
s(V12*
p1181
L8L
L5L
tp1182
g4
s(L20L
L23L
Ntp1183
Ns(V10*D
p1184
L8L
L5L
tp1185
g12
s(V8*DS
p1186
L3L
L5L
tp1187
g4
s(V7*
p1188
L4L
L5L
tp1189
g4
s(L10L
L21L
Ntp1190
Ns(L18L
L18L
Ntp1191
Ns(V18*
p1192
L5L
L5L
tp1193
g8
s(g703
L11L
L5L
tp1194
g4
s(V6*
p1195
L10L
L5L
tp1196
g4
s(V11*D
p1197
L3L
L5L
tp1198
g12
s(g842
L21L
Ntp1199
Ns(V16*D
p1200
L8L
L5L
tp1201
g4
s(L17L
L26L
Ntp1202
Ns(V15*A
p1203
L9L
L5L
tp1204
g4
s(V4*DS
p1205
L10L
L5L
tp1206
g4
s(V19*
p1207
L7L
L5L
tp1208
g8
s(V14*A
p1209
L2L
L5L
tp1210
g4
s(L19L
L23L
Ntp1211
Ns(g224
L11L
L5L
tp1212
g12
s(V13*AD
p1213
L5L
L5L
tp1214
g12
s(V17*D
p1215
L5L
L5L
tp1216
g8
s(V8*D
p1217
L7L
L5L
tp1218
g4
s(V18*
p1219
L8L
L5L
tp1220
g8
s(V14*
p1221
L5L
L5L
tp1222
g8
s(L20L
L26L
Ntp1223
Ns(V15*
p1224
L9L
L5L
tp1225
g4
s(V13*AD
p1226
L9L
L5L
tp1227
g4
s(V11*D
p1228
L6L
L5L
tp1229
g12
s(V17*D
p1230
L9L
L5L
tp1231
g8
s(g330
L21L
Ntp1232
Ns(L9L
L21L
Ntp1233
Ns(V16*D
p1234
L5L
L5L
tp1235
g8
s(V15*A
p1236
L4L
L5L
tp1237
g4
s(g666
L21L
Ntp1238
Ns(V9*D
p1239
L9L
L5L
tp1240
g4
s(V10*
p1241
L5L
L5L
tp1242
g4
s(V11*
p1243
L5L
L5L
tp1244
g4
s(V10*DS
p1245
L6L
L5L
tp1246
g12
s(V16*DS
p1247
L8L
L5L
tp1248
g4
s(V5*D
p1249
L10L
L5L
tp1250
g4
s(V9*
p1251
L4L
L5L
tp1252
g4
s(L15L
L20L
Ntp1253
Ns(V14*D
p1254
L8L
L5L
tp1255
g4
s(V5*D
p1256
L3L
L5L
tp1257
g4
s(V16*DS
p1258
L5L
L5L
tp1259
g8
s(g930
L11L
L5L
tp1260
g4
s(L21L
L25L
Ntp1261
Ns(g577
L21L
Ntp1262
Ns(V7*
p1263
L8L
L5L
tp1264
g4
s(V14*D
p1265
L5L
L5L
tp1266
g8
s(g635
L21L
Ntp1267
Ns(V8*D
p1268
L2L
L5L
tp1269
g4
s(L14L
L21L
Ntp1270
Ns(V16*A
p1271
L4L
L5L
tp1272
g4
s(V16*AD
p1273
L7L
L5L
tp1274
g4
s(V6*
p1275
L6L
L5L
tp1276
g4
s(g439
L11L
L5L
tp1277
g8
s(L19L
L26L
Ntp1278
Ns(V8*
p1279
L7L
L5L
tp1280
g4
s(V18*D
p1281
L10L
L5L
tp1282
g8
s(V14*DS
p1283
L5L
L5L
tp1284
g8
s(g463
L11L
L5L
tp1285
g4
s(V17*AD
p1286
L4L
L5L
tp1287
g12
s(L21L
L8L
L5L
tp1288
g8
s(V20*A
p1289
L7L
L5L
tp1290
g8
s(L8L
L19L
Ntp1291
Ns(g495
L21L
Ntp1292
Ns(V20*AD
p1293
L8L
L5L
tp1294
g8
s(V18*D
p1295
L3L
L5L
tp1296
g8
s(V17*A
p1297
L3L
L5L
tp1298
g4
s(V9*D
p1299
L5L
L5L
tp1300
g12
s(V10*
p1301
L9L
L5L
tp1302
g4
s(V8*
p1303
L10L
L5L
tp1304
g4
s(V18*AD
p1305
L3L
L5L
tp1306
g12
s(L16L
L17L
Ntp1307
Ns(V17*
p1308
L4L
L5L
tp1309
g8
s(g1150
L11L
L5L
tp1310
g8
s(V17*A
p1311
L10L
L5L
tp1312
g4
s(V5*D
p1313
L6L
L5L
tp1314
g4
s(V9*
p1315
L8L
L5L
tp1316
g4
s(V20*D
p1317
L5L
L5L
tp1318
g8
s(L15L
L18L
Ntp1319
Ns(g185
L21L
Ntp1320
Ns(V6*DS
p1321
L4L
L5L
tp1322
g4
s(V15*AD
p1323
L6L
L5L
tp1324
g12
s(V16*
p1325
L7L
L5L
tp1326
g4
s(L20L
L22L
Ntp1327
Ns(V20*DS
p1328
L6L
L5L
tp1329
g8
s(L20L
L17L
Ntp1330
Ns(L22L
NNtp1331
Ns(g1170
L11L
L5L
tp1332
g4
s(V13*
p1333
L8L
L5L
tp1334
g4
s(V19*D
p1335
L8L
L5L
tp1336
g8
s(V13*D
p1337
L3L
L5L
tp1338
g8
s(V19*AD
p1339
L4L
L5L
tp1340
g12
s(V20*DS
p1341
L3L
L5L
tp1342
g8
s(g418
L11L
L5L
tp1343
g8
s(L17L
L18L
Ntp1344
Ns(V12*DS
p1345
L7L
L5L
tp1346
g4
s(g897
L21L
Ntp1347
Ns(L17L
L24L
Ntp1348
Ns(V7*D
p1349
L8L
L5L
tp1350
g4
s(V17*AD
p1351
L8L
L5L
tp1352
g4
s(V14*AD
p1353
L2L
L5L
tp1354
g4
s(L21L
L4L
L5L
tp1355
g8
s(g762
L11L
L5L
tp1356
g8
s(L19L
L25L
Ntp1357
Ns(V21*
p1358
L3L
L5L
tp1359
g8
s(V19*AD
p1360
L9L
L5L
tp1361
g8
s(V18*DS
p1362
L2L
L5L
tp1363
g8
s(V12*ADS
p1364
L7L
L5L
tp1365
g4
s(V12*
p1366
L7L
L5L
tp1367
g4
s(V21*A
p1368
L6L
L5L
tp1369
g8
s(V18*A
p1370
L6L
L5L
tp1371
g8
s(V12*D
p1372
L3L
L5L
tp1373
g8
s(V7*D
p1374
L5L
L5L
tp1375
g4
s(L21L
L21L
Ntp1376
Ns(V14*AD
p1377
L7L
L5L
tp1378
g4
s(L21L
L18L
Ntp1379
Ns(L14L
L19L
Ntp1380
Ns(V15*AD
p1381
L3L
L5L
tp1382
g4
s(L16L
L23L
Ntp1383
Ns(V18*DS
p1384
L7L
L5L
tp1385
g8
s(V12*ADS
p1386
L2L
L5L
tp1387
g4
s(V6*D
p1388
L2L
L5L
tp1389
g4
s(V20*D
p1390
L9L
L5L
tp1391
g8
s(V11*D
p1392
L8L
L5L
tp1393
g12
s(L4L
L21L
Ntp1394
Ns(L12L
L22L
Ntp1395
Ns(V6*DS
p1396
L8L
L5L
tp1397
g4
s(L12L
L17L
Ntp1398
Ns(g476
L11L
L5L
tp1399
g4
s(g857
L21L
Ntp1400
Ns(V15*
p1401
L2L
L5L
tp1402
g8
s(V6*D
p1403
L7L
L5L
tp1404
g4
s(V19*A
p1405
L4L
L5L
tp1406
g8
s(V12*DS
p1407
L2L
L5L
tp1408
g8
s(V14*
p1409
L3L
L5L
tp1410
g8
s(V19*D
p1411
L4L
L5L
tp1412
g8
s(V20*
p1413
L10L
L5L
tp1414
g8
s(V10*D
p1415
L2L
L5L
tp1416
g12
s(V8*DS
p1417
L9L
L5L
tp1418
g4
s(g91
L11L
L5L
tp1419
g4
s(g89
L11L
L5L
tp1420
g8
s(V12*DS
p1421
L11L
L5L
tp1422
g4
s(g1421
L21L
Ntp1423
Ns(L6L
L22L
Ntp1424
Ns(V21*A
p1425
L3L
L5L
tp1426
g8
s(V8*DS
p1427
L5L
L5L
tp1428
g12
s(V19*A
p1429
L9L
L5L
tp1430
g8
s(V11*
p1431
L3L
L5L
tp1432
g4
s.