(dp0
(V12*D
p1
L3L
L-5L
tp2
VDraw
p3
s(L13L
L21L
Ntp4
Ns(L13L
L18L
Ntp5
Ns(V17*AD
p6
L8L
L-5L
tp7
g3
s(V20*DS
p8
L2L
L-5L
tp9
VStay
p10
s(L13L
L24L
Ntp11
Ns(V6*D
p12
L5L
L-5L
tp13
g3
s(V18*
p14
L11L
L-5L
tp15
g10
s(V16*
p16
L6L
L-5L
tp17
g10
s(V12*DS
p18
L5L
L-5L
tp19
g3
s(V9*D
p20
L2L
L-5L
tp21
g3
s(V21*A
p22
L3L
L-5L
tp23
g10
s(V20*D
p24
L8L
L-5L
tp25
g10
s(V15*D
p26
L10L
L-5L
tp27
g3
s(V16*AD
p28
L11L
L-5L
tp29
g3
s(V16*
p30
L10L
L-5L
tp31
g3
s(V15*A
p32
L11L
L-5L
tp33
g3
s(V11*
p34
L8L
L-5L
tp35
g3
s(V21*
p36
L9L
L-5L
tp37
g10
s(L6L
L26L
Ntp38
Ns(L15L
L26L
Ntp39
Ns(V11*D
p40
L21L
Ntp41
Ns(V8*
p42
L4L
L-5L
tp43
g3
s(V18*A
p44
L8L
L-5L
tp45
g10
s(L19L
L19L
Ntp46
Ns(V9*
p47
L7L
L-5L
tp48
g3
s(L19L
L20L
Ntp49
Ns(V20*A
p50
L21L
Ntp51
Ns(V11*D
p52
L7L
L-5L
tp53
VDouble
p54
s(L17L
L21L
Ntp55
Ns(V14*AD
p56
L6L
L-5L
tp57
g3
s(V19*D
p58
L11L
L-5L
tp59
g10
s(V16*D
p60
L5L
L-5L
tp61
g10
s(V6*
p62
L8L
L-5L
tp63
g3
s(V17*
p64
L7L
L-5L
tp65
g10
s(V6*D
p66
L10L
L-5L
tp67
g3
s(V17*A
p68
L10L
L-5L
tp69
g3
s(V12*DS
p70
L8L
L-5L
tp71
g3
s(V20*AD
p72
L2L
L-5L
tp73
g10
s(V17*A
p74
L6L
L-5L
tp75
g3
s(V15*D
p76
L5L
L-5L
tp77
g10
s(V18*AD
p78
L10L
L-5L
tp79
g3
s(V10*DS
p80
L6L
L-5L
tp81
g54
s(V10*
p82
L8L
L-5L
tp83
g3
s(V25*
p84
NNtp85
Ns(V13*A
p86
L9L
L-5L
tp87
g3
s(V8*DS
p88
L21L
Ntp89
Ns(V9*
p90
L8L
L-5L
tp91
g3
s(L4L
L24L
Ntp92
Ns(V12*
p93
L21L
Ntp94
Ns(V14*A
p95
L9L
L-5L
tp96
g3
s(V12*
p97
L3L
L-5L
tp98
g3
s(L4L
L18L
Ntp99
Ns(V18*D
p100
L8L
L-5L
tp101
g10
s(L14L
L17L
Ntp102
Ns(V16*A
p103
L6L
L-5L
tp104
g3
s(V15*A
p105
L7L
L-5L
tp106
g3
s(V13*D
p107
L3L
L-5L
tp108
g3
s(L18L
L22L
Ntp109
Ns(V21*
p110
L5L
L-5L
tp111
g10
s(V5*D
p112
L9L
L-5L
tp113
g3
s(V10*D
p114
L10L
L-5L
tp115
g3
s(V14*D
p116
L11L
L-5L
tp117
g3
s(V17*D
p118
L6L
L-5L
tp119
g10
s(V12*ADS
p120
L10L
L-5L
tp121
g3
s(V14*DS
p122
L3L
L-5L
tp123
g10
s(V4*DS
p124
L21L
Ntp125
Ns(V10*DS
p126
L21L
Ntp127
Ns(L4L
L20L
Ntp128
Ns(V17*A
p129
L21L
Ntp130
Ns(V18*D
p131
L21L
Ntp132
Ns(V14*AD
p133
L10L
L-5L
tp134
g3
s(V19*D
p135
L7L
L-5L
tp136
g10
s(V16*D
p137
L9L
L-5L
tp138
g3
s(V20*
p139
L3L
L-5L
tp140
g10
s(V12*D
p141
L2L
L-5L
tp142
g3
s(V16*DS
p143
L6L
L-5L
tp144
g10
s(V20*A
p145
L3L
L-5L
tp146
g10
s(V13*AD
p147
L2L
L-5L
tp148
g3
s(V17*AD
p149
L9L
L-5L
tp150
g3
s(V20*DS
p151
L3L
L-5L
tp152
g10
s(V6*D
p153
L6L
L-5L
tp154
g3
s(V18*
p155
L10L
L-5L
tp156
g10
s(V12*DS
p157
L4L
L-5L
tp158
g3
s(L15L
L22L
Ntp159
Ns(V15*D
p160
L9L
L-5L
tp161
g3
s(V16*AD
p162
L10L
L-5L
tp163
g3
s(V18*AD
p164
L6L
L-5L
tp165
g54
s(V11*
p166
L11L
L-5L
tp167
g3
s(V21*
p168
L8L
L-5L
tp169
g10
s(V20*AD
p170
L3L
L-5L
tp171
g10
s(L13L
L19L
Ntp172
Ns(L20L
L21L
Ntp173
Ns(V18*A
p174
L9L
L-5L
tp175
g3
s(V9*
p176
L4L
L-5L
tp177
g3
s(L6L
L17L
Ntp178
Ns(L17L
L25L
Ntp179
Ns(V28*
p180
NNtp181
Ns(V4*DS
p182
L6L
L-5L
tp183
g3
s(V11*D
p184
L6L
L-5L
tp185
g54
s(V6*
p186
L9L
L-5L
tp187
g3
s(V16*D
p188
L4L
L-5L
tp189
g10
s(V18*AD
p190
L21L
Ntp191
Ns(V15*A
p192
L6L
L-5L
tp193
g3
s(L19L
L21L
Ntp194
Ns(L19L
L22L
Ntp195
Ns(L16L
L22L
Ntp196
Ns(V12*DS
p197
L11L
L-5L
tp198
g3
s(V15*A
p199
L10L
L-5L
tp200
g3
s(V8*
p201
L5L
L-5L
tp202
g3
s(g190
L11L
L-5L
tp203
g3
s(V14*DS
p204
L2L
L-5L
tp205
g3
s(V10*DS
p206
L5L
L-5L
tp207
g54
s(V10*
p208
L11L
L-5L
tp209
g3
s(L21L
L22L
Ntp210
Ns(V14*AD
p211
L11L
L-5L
tp212
g3
s(V19*D
p213
L6L
L-5L
tp214
g10
s(V20*A
p215
L2L
L-5L
tp216
g10
s(V14*A
p217
L6L
L-5L
tp218
g3
s(V14*AD
p219
L7L
L-5L
tp220
g3
s(V19*D
p221
L10L
L-5L
tp222
g10
s(V14*DS
p223
L21L
Ntp224
Ns(V19*
p225
L8L
L-5L
tp226
g10
s(V6*D
p227
L7L
L-5L
tp228
g3
s(V18*D
p229
L9L
L-5L
tp230
g10
s(V20*D
p231
L3L
L-5L
tp232
g10
s(V16*A
p233
L5L
L-5L
tp234
g3
s(L12L
L21L
Ntp235
Ns(g211
L21L
Ntp236
Ns(V21*
p237
L4L
L-5L
tp238
g10
s(V6*D
p239
L11L
L-5L
tp240
g3
s(V14*D
p241
L10L
L-5L
tp242
g3
s(V7*D
p243
L7L
L-5L
tp244
g3
s(V15*D
p245
L8L
L-5L
tp246
g3
s(L20L
L19L
Ntp247
Ns(V6*DS
p248
L2L
L-5L
tp249
g3
s(V15*D
p250
L4L
L-5L
tp251
g10
s(L4L
L26L
Ntp252
Ns(V9*
p253
L5L
L-5L
tp254
g3
s(L17L
L19L
Ntp255
Ns(V4*DS
p256
L10L
L-5L
tp257
g3
s(V16*DS
p258
L21L
Ntp259
Ns(V16*D
p260
L8L
L-5L
tp261
g3
s(V9*
p262
L9L
L-5L
tp263
g3
s(V16*DS
p264
L7L
L-5L
tp265
g3
s(L11L
L21L
Ntp266
Ns(L11L
L22L
Ntp267
Ns(V12*
p268
L2L
L-5L
tp269
g3
s(V17*AD
p270
L10L
L-5L
tp271
g3
s(L6L
L24L
Ntp272
Ns(V18*
p273
L9L
L-5L
tp274
g10
s(V6*DS
p275
L21L
Ntp276
Ns(V12*DS
p277
L7L
L-5L
tp278
g3
s(V5*D
p279
L8L
L-5L
tp280
g3
s(V10*D
p281
L11L
L-5L
tp282
g3
s(V17*D
p283
L7L
L-5L
tp284
g10
s(V12*ADS
p285
L11L
L-5L
tp286
g3
s(L13L
L22L
Ntp287
Ns(V16*AD
p288
L9L
L-5L
tp289
g3
s(V18*AD
p290
L7L
L-5L
tp291
g10
s(L16L
L24L
Ntp292
Ns(V14*
p293
L2L
L-5L
tp294
g3
s(V8*DS
p295
L3L
L-5L
tp296
g3
s(V21*
p297
L11L
L-5L
tp298
g10
s(V20*AD
p299
L4L
L-5L
tp300
g10
s(V13*A
p301
L2L
L-5L
tp302
g3
s(V18*A
p303
L10L
L-5L
tp304
g3
s(V10*DS
p305
L4L
L-5L
tp306
g54
s(V10*
p307
L10L
L-5L
tp308
g3
s(V19*
p309
L21L
Ntp310
Ns(V19*A
p311
L9L
L-5L
tp312
g10
s(V19*
p313
L4L
L-5L
tp314
g10
s(V4*DS
p315
L7L
L-5L
tp316
g3
s(L24L
NNtp317
Ns(V11*D
p318
L5L
L-5L
tp319
g54
s(V6*
p320
L10L
L-5L
tp321
g3
s(V13*AD
p322
L3L
L-5L
tp323
g3
s(V16*D
p324
L7L
L-5L
tp325
g3
s(L12L
L19L
Ntp326
Ns(V7*D
p327
L11L
L-5L
tp328
g3
s(L12L
L26L
Ntp329
Ns(L17L
L17L
Ntp330
Ns(V11*
p331
L10L
L-5L
tp332
g3
s(V8*
p333
L10L
L-5L
tp334
g3
s(V14*
p335
L21L
Ntp336
Ns(V18*AD
p337
L8L
L-5L
tp338
g10
s(V14*DS
p339
L5L
L-5L
tp340
g10
s(L10L
L22L
Ntp341
Ns(V20*A
p342
L5L
L-5L
tp343
g10
s(V14*A
p344
L7L
L-5L
tp345
g3
s(L6L
L18L
Ntp346
Ns(V17*
p347
L21L
Ntp348
Ns(V19*
p349
L9L
L-5L
tp350
g10
s(V18*
p351
L8L
L-5L
tp352
g10
s(V18*D
p353
L10L
L-5L
tp354
g10
s(V20*D
p355
L2L
L-5L
tp356
g10
s(V12*DS
p357
L6L
L-5L
tp358
g3
s(V21*
p359
L7L
L-5L
tp360
g10
s(V18*DS
p361
L21L
Ntp362
Ns(V20*AD
p363
L8L
L-5L
tp364
g10
s(L13L
L25L
Ntp365
Ns(V14*D
p366
L9L
L-5L
tp367
g3
s(V7*D
p368
L6L
L-5L
tp369
g3
s(V8*D
p370
L21L
Ntp371
Ns(V16*AD
p372
L8L
L-5L
tp373
g3
s(L4L
L22L
Ntp374
Ns(V12*DS
p375
L10L
L-5L
tp376
g3
s(L18L
L20L
Ntp377
Ns(V6*DS
p378
L3L
L-5L
tp379
g3
s(V19*A
p380
L5L
L-5L
tp381
g10
s(L18L
L26L
Ntp382
Ns(V9*
p383
L2L
L-5L
tp384
g3
s(g124
L11L
L-5L
tp385
g3
s(L11L
L26L
Ntp386
Ns(V15*D
p387
L21L
Ntp388
Ns(V16*D
p389
L11L
L-5L
tp390
g3
s(V16*DS
p391
L4L
L-5L
tp392
g10
s(V11*D
p393
L4L
L-5L
tp394
g54
s(V6*
p395
L11L
L-5L
tp396
g3
s(L11L
L25L
Ntp397
Ns(V16*A
p398
L4L
L-5L
tp399
g3
s(V16*
p400
L3L
L-5L
tp401
g10
s(V10*D
p402
L4L
L-5L
tp403
g54
s(V5*D
p404
L7L
L-5L
tp405
g3
s(V17*D
p406
L8L
L-5L
tp407
g10
s(V12*ADS
p408
L4L
L-5L
tp409
g3
s(L10L
L26L
Ntp410
Ns(V18*AD
p411
L4L
L-5L
tp412
g54
s(L10L
L25L
Ntp413
Ns(V14*DS
p414
L9L
L-5L
tp415
g3
s(V20*AD
p416
L5L
L-5L
tp417
g10
s(V13*A
p418
L3L
L-5L
tp419
g3
s(V10*DS
p420
L3L
L-5L
tp421
g54
s(V20*A
p422
L9L
L-5L
tp423
g10
s(V19*A
p424
L8L
L-5L
tp425
g10
s(V13*AD
p426
L8L
L-5L
tp427
g3
s(V19*
p428
L5L
L-5L
tp429
g10
s(V4*DS
p430
L4L
L-5L
tp431
g3
s(V15*AD
p432
L11L
L-5L
tp433
g3
s(g432
L21L
Ntp434
Ns(V17*AD
p435
L11L
L-5L
tp436
g3
s(L13L
L20L
Ntp437
Ns(V21*A
p438
L10L
L-5L
tp439
g10
s(g131
L11L
L-5L
tp440
g10
s(V7*D
p441
L10L
L-5L
tp442
g3
s(V17*
p443
L2L
L-5L
tp444
g10
s(V13*D
p445
L6L
L-5L
tp446
g10
s(V21*
p447
L6L
L-5L
tp448
g10
s(V14*
p449
L3L
L-5L
tp450
g10
s(V19*AD
p451
L3L
L-5L
tp452
g10
s(L14L
L23L
Ntp453
Ns(V8*DS
p454
L2L
L-5L
tp455
g3
s(V21*
p456
L10L
L-5L
tp457
g10
s(V11*
p458
L5L
L-5L
tp459
g3
s(V8*
p460
L11L
L-5L
tp461
g3
s(V18*A
p462
L11L
L-5L
tp463
g3
s(V14*DS
p464
L4L
L-5L
tp465
g10
s(L28L
NNtp466
Ns(L12L
L18L
Ntp467
Ns(V20*
p468
L6L
L-5L
tp469
g10
s(V16*D
p470
L10L
L-5L
tp471
g3
s(L16L
L18L
Ntp472
Ns(V20*A
p473
L4L
L-5L
tp474
g10
s(V14*A
p475
L4L
L-5L
tp476
g3
s(V16*D
p477
L6L
L-5L
tp478
g10
s(V19*
p479
L10L
L-5L
tp480
g10
s(V22*
p481
NNtp482
Ns(V20*AD
p483
L9L
L-5L
tp484
g10
s(L9L
L19L
Ntp485
Ns(V7*D
p486
L5L
L-5L
tp487
g3
s(V18*AD
p488
L5L
L-5L
tp489
g54
s(g197
L21L
Ntp490
Ns(V19*A
p491
L4L
L-5L
tp492
g10
s(V18*AD
p493
L9L
L-5L
tp494
g3
s(V9*
p495
L3L
L-5L
tp496
g3
s(L14L
L24L
Ntp497
Ns(V4*DS
p498
L8L
L-5L
tp499
g3
s(V15*AD
p500
L7L
L-5L
tp501
g3
s(V15*
p502
L3L
L-5L
tp503
g10
s(L13L
L17L
Ntp504
Ns(V11*D
p505
L3L
L-5L
tp506
g54
s(L13L
L23L
Ntp507
Ns(V13*D
p508
L10L
L-5L
tp509
g3
s(L6L
L23L
Ntp510
Ns(V26*
p511
NNtp512
Ns(V16*A
p513
L11L
L-5L
tp514
g3
s(V7*
p515
L11L
L-5L
tp516
g3
s(V10*D
p517
L5L
L-5L
tp518
g54
s(V5*D
p519
L6L
L-5L
tp520
g3
s(V14*D
p521
L8L
L-5L
tp522
g3
s(V17*D
p523
L9L
L-5L
tp524
g10
s(V12*ADS
p525
L5L
L-5L
tp526
g3
s(L11L
L18L
Ntp527
Ns(V19*AD
p528
L2L
L-5L
tp529
g10
s(V14*DS
p530
L8L
L-5L
tp531
g3
s(V13*D
p532
L21L
Ntp533
Ns(V20*AD
p534
L6L
L-5L
tp535
g10
s(V20*
p536
L10L
L-5L
tp537
g10
s(V10*DS
p538
L2L
L-5L
tp539
g54
s(V12*D
p540
L11L
L-5L
tp541
g3
s(L18L
L23L
Ntp542
Ns(V20*A
p543
L8L
L-5L
tp544
g10
s(V19*A
p545
L11L
L-5L
tp546
g10
s(V13*AD
p547
L9L
L-5L
tp548
g3
s(V19*
p549
L6L
L-5L
tp550
g10
s(V18*
p551
L3L
L-5L
tp552
g10
s(V16*DS
p553
L5L
L-5L
tp554
g10
s(V15*AD
p555
L10L
L-5L
tp556
g3
s(L15L
L17L
Ntp557
Ns(V14*A
p558
L5L
L-5L
tp559
g3
s(V17*AD
p560
L4L
L-5L
tp561
g54
s(L10L
L24L
Ntp562
Ns(V21*A
p563
L11L
L-5L
tp564
g10
s(V7*D
p565
L9L
L-5L
tp566
g3
s(V16*AD
p567
L3L
L-5L
tp568
g3
s(V16*
p569
L2L
L-5L
tp570
g10
s(V15*A
p571
L3L
L-5L
tp572
g3
s(V13*D
p573
L7L
L-5L
tp574
g3
s(V8*DS
p575
L9L
L-5L
tp576
g3
s(L17L
L20L
Ntp577
Ns(V11*
p578
L4L
L-5L
tp579
g3
s(L12L
L23L
Ntp580
Ns(V8*
p581
L8L
L-5L
tp582
g3
s(L12L
L25L
Ntp583
Ns(V18*A
p584
L4L
L-5L
tp585
g10
s(V14*DS
p586
L7L
L-5L
tp587
g3
s(V8*D
p588
L9L
L-5L
tp589
g3
s(V4*DS
p590
L9L
L-5L
tp591
g3
s(V18*DS
p592
L9L
L-5L
tp593
g10
s(V19*D
p594
L3L
L-5L
tp595
g10
s(V20*
p596
L7L
L-5L
tp597
g10
s(V4*DS
p598
L5L
L-5L
tp599
g3
s(V20*A
p600
L7L
L-5L
tp601
g10
s(V7*
p602
L7L
L-5L
tp603
g3
s(V6*D
p604
L2L
L-5L
tp605
g3
s(V17*
p606
L3L
L-5L
tp607
g10
s(L11L
L23L
Ntp608
Ns(V9*D
p609
L9L
L-5L
tp610
g3
s(V20*AD
p611
L10L
L-5L
tp612
g10
s(L11L
L17L
Ntp613
Ns(L4L
L25L
Ntp614
Ns(V18*AD
p615
L2L
L-5L
tp616
g10
s(L4L
L19L
Ntp617
Ns(L16L
L20L
Ntp618
Ns(L18L
L17L
Ntp619
Ns(V19*A
p620
L7L
L-5L
tp621
g10
s(L9L
L24L
Ntp622
Ns(V15*AD
p623
L6L
L-5L
tp624
g54
s(L13L
L26L
Ntp625
Ns(V19*
p626
L7L
L-5L
tp627
g10
s(V15*
p628
L2L
L-5L
tp629
g10
s(L30L
NNtp630
Ns(V11*D
p631
L2L
L-5L
tp632
g54
s(g532
L11L
L-5L
tp633
g3
s(g309
L11L
L-5L
tp634
g10
s(V7*D
p635
L8L
L-5L
tp636
g3
s(V16*A
p637
L10L
L-5L
tp638
g3
s(V7*
p639
L10L
L-5L
tp640
g3
s(V5*D
p641
L5L
L-5L
tp642
g3
s(V10*D
p643
L6L
L-5L
tp644
g54
s(V14*D
p645
L7L
L-5L
tp646
g3
s(V7*D
p647
L4L
L-5L
tp648
g3
s(V17*D
p649
L10L
L-5L
tp650
g10
s(L21L
L2L
L-5L
tp651
g10
s(V19*AD
p652
L5L
L-5L
tp653
g10
s(V12*ADS
p654
L6L
L-5L
tp655
g3
s(g223
L11L
L-5L
tp656
g3
s(L12L
L20L
Ntp657
Ns(V8*D
p658
L5L
L-5L
tp659
g3
s(V18*DS
p660
L5L
L-5L
tp661
g10
s(V8*
p662
L9L
L-5L
tp663
g3
s(V20*
p664
L11L
L-5L
tp665
g10
s(V12*D
p666
L10L
L-5L
tp667
g3
s(L17L
L23L
Ntp668
Ns(g50
L11L
L-5L
tp669
g10
s(L6L
L21L
Ntp670
Ns(V13*AD
p671
L10L
L-5L
tp672
g3
s(L10L
L20L
Ntp673
Ns(V13*
p674
L2L
L-5L
tp675
g3
s(V18*
p676
L2L
L-5L
tp677
g10
s(V16*DS
p678
L10L
L-5L
tp679
g3
s(L10L
L19L
Ntp680
Ns(V15*AD
p681
L9L
L-5L
tp682
g3
s(V14*A
p683
L2L
L-5L
tp684
g3
s(V17*AD
p685
L5L
L-5L
tp686
g54
s(V9*D
p687
L5L
L-5L
tp688
g3
s(V21*A
p689
L8L
L-5L
tp690
g10
s(V20*D
p691
L7L
L-5L
tp692
g10
s(V13*
p693
L21L
Ntp694
Ns(V16*AD
p695
L2L
L-5L
tp696
g3
s(V13*D
p697
L4L
L-5L
tp698
g3
s(V8*DS
p699
L8L
L-5L
tp700
g3
s(V20*AD
p701
L11L
L-5L
tp702
g10
s(L14L
L22L
Ntp703
Ns(V11*
p704
L7L
L-5L
tp705
g3
s(V20*AD
p706
L7L
L-5L
tp707
g10
s(L15L
L25L
Ntp708
Ns(V6*DS
p709
L6L
L-5L
tp710
g3
s(V19*A
p711
L6L
L-5L
tp712
g10
s(V18*A
p713
L5L
L-5L
tp714
g10
s(V8*D
p715
L8L
L-5L
tp716
g3
s(V18*DS
p717
L8L
L-5L
tp718
g10
s(V19*A
p719
L10L
L-5L
tp720
g10
s(V20*
p721
L4L
L-5L
tp722
g10
s(L18L
L24L
Ntp723
Ns(V17*
p724
L8L
L-5L
tp725
g10
s(V7*
p726
L6L
L-5L
tp727
g3
s(V19*AD
p728
L9L
L-5L
tp729
g10
s(V15*A
p730
L2L
L-5L
tp731
g3
s(V12*DS
p732
L3L
L-5L
tp733
g3
s(V9*D
p734
L8L
L-5L
tp735
g3
s(V5*D
p736
L4L
L-5L
tp737
g3
s(V10*D
p738
L7L
L-5L
tp739
g54
s(V17*D
p740
L11L
L-5L
tp741
g10
s(L21L
L3L
L-5L
tp742
g10
s(V12*ADS
p743
L7L
L-5L
tp744
g3
s(L15L
L21L
Ntp745
Ns(V18*AD
p746
L3L
L-5L
tp747
g10
s(V14*DS
p748
L10L
L-5L
tp749
g3
s(V10*
p750
L3L
L-5L
tp751
g3
s(g14
L21L
Ntp752
Ns(V13*A
p753
L6L
L-5L
tp754
g3
s(V14*DS
p755
L6L
L-5L
tp756
g10
s(L21L
NNtp757
Ns(V20*A
p758
L10L
L-5L
tp759
g10
s(V15*AD
p760
L5L
L-5L
tp761
g3
s(V19*D
p762
L2L
L-5L
tp763
g10
s(V13*
p764
L3L
L-5L
tp765
g3
s(V20*A
p766
L6L
L-5L
tp767
g10
s(V13*D
p768
L8L
L-5L
tp769
g3
s(V6*D
p770
L3L
L-5L
tp771
g3
s(g462
L21L
Ntp772
Ns(V27*
p773
NNtp774
Ns(L8L
L18L
Ntp775
Ns(V16*A
p776
L9L
L-5L
tp777
g3
s(L8L
L21L
Ntp778
Ns(V7*
p779
L9L
L-5L
tp780
g3
s(V14*D
p781
L6L
L-5L
tp782
g10
s(V6*DS
p783
L10L
L-5L
tp784
g3
s(V19*AD
p785
L4L
L-5L
tp786
g10
s(L6L
L19L
Ntp787
Ns(V11*
p788
L6L
L-5L
tp789
g3
s(V8*D
p790
L4L
L-5L
tp791
g3
s(V18*DS
p792
L4L
L-5L
tp793
g10
s(L6L
L25L
Ntp794
Ns(V20*DS
p795
L21L
Ntp796
Ns(V20*
p797
L8L
L-5L
tp798
g10
s(g435
L21L
Ntp799
Ns(V12*D
p800
L9L
L-5L
tp801
g3
s(g258
L11L
L-5L
tp802
g3
s(V14*A
p803
L3L
L-5L
tp804
g3
s(V20*D
p805
L21L
Ntp806
Ns(V17*AD
p807
L6L
L-5L
tp808
g54
s(V9*D
p809
L4L
L-5L
tp810
g3
s(V20*D
p811
L6L
L-5L
tp812
g10
s(L20L
L25L
Ntp813
Ns(g88
L11L
L-5L
tp814
g3
s(V21*
p815
L3L
L-5L
tp816
g10
s(L9L
L17L
Ntp817
Ns(L9L
L22L
Ntp818
Ns(V10*
p819
L2L
L-5L
tp820
g3
s(V6*DS
p821
L7L
L-5L
tp822
g3
s(V18*A
p823
L6L
L-5L
tp824
g10
s(g370
L11L
L-5L
tp825
g3
s(g361
L11L
L-5L
tp826
g10
s(V15*AD
p827
L4L
L-5L
tp828
g3
s(V6*
p829
L2L
L-5L
tp830
g3
s(V13*AD
p831
L11L
L-5L
tp832
g3
s(V15*AD
p833
L8L
L-5L
tp834
g3
s(V17*
p835
L9L
L-5L
tp836
g10
s(V12*
p837
L9L
L-5L
tp838
g3
s(V13*D
p839
L9L
L-5L
tp840
g3
s(L25L
NNtp841
Ns(L8L
L24L
Ntp842
Ns(V7*
p843
L5L
L-5L
tp844
g3
s(L14L
L20L
Ntp845
Ns(V21*A
p846
L9L
L-5L
tp847
g10
s(V16*A
p848
L8L
L-5L
tp849
g3
s(V24*
p850
NNtp851
Ns(V19*AD
p852
L8L
L-5L
tp853
g10
s(V13*D
p854
L5L
L-5L
tp855
g10
s(V9*D
p856
L11L
L-5L
tp857
g3
s(V5*D
p858
L3L
L-5L
tp859
g3
s(L21L
L4L
L-5L
tp860
g10
s(L26L
NNtp861
Ns(g740
L21L
Ntp862
Ns(L21L
L26L
Ntp863
Ns(V8*
p864
L2L
L-5L
tp865
g3
s(L21L
L19L
Ntp866
Ns(V13*A
p867
L7L
L-5L
tp868
g3
s(V20*
p869
L9L
L-5L
tp870
g10
s(L11L
L19L
Ntp871
Ns(L11L
L20L
Ntp872
Ns(V14*A
p873
L21L
Ntp874
Ns(L14L
L18L
Ntp875
Ns(V20*
p876
L5L
L-5L
tp877
g10
s(L4L
L23L
Ntp878
Ns(V13*
p879
L4L
L-5L
tp880
g3
s(V18*D
p881
L2L
L-5L
tp882
g10
s(L18L
L21L
Ntp883
Ns(V17*AD
p884
L7L
L-5L
tp885
g3
s(V12*DS
p886
L2L
L-5L
tp887
g3
s(L15L
L19L
Ntp888
Ns(V14*D
p889
L5L
L-5L
tp890
g10
s(g275
L11L
L-5L
tp891
g3
s(V15*D
p892
L3L
L-5L
tp893
g10
s(V14*AD
p894
L9L
L-5L
tp895
g3
s(V19*AD
p896
L7L
L-5L
tp897
g10
s(V8*D
p898
L7L
L-5L
tp899
g3
s(V18*DS
p900
L7L
L-5L
tp901
g10
s(g513
L21L
Ntp902
Ns(V18*A
p903
L7L
L-5L
tp904
g10
s(L6L
L20L
Ntp905
Ns(L8L
L26L
Ntp906
Ns(V6*
p907
L3L
L-5L
tp908
g3
s(V12*
p909
L5L
L-5L
tp910
g3
s(L12L
L24L
Ntp911
Ns(V16*DS
p912
L8L
L-5L
tp913
g3
s(V7*
p914
L4L
L-5L
tp915
g3
s(V9*D
p916
L7L
L-5L
tp917
g3
s(L21L
L8L
L-5L
tp918
g10
s(V20*D
p919
L5L
L-5L
tp920
g10
s(L27L
NNtp921
Ns(V7*
p922
L8L
L-5L
tp923
g3
s(L10L
L23L
Ntp924
Ns(g126
L11L
L-5L
tp925
g3
s(V10*
p926
L5L
L-5L
tp927
g3
s(V6*DS
p928
L4L
L-5L
tp929
g3
s(V13*
p930
L8L
L-5L
tp931
g3
s(V12*D
p932
L8L
L-5L
tp933
g3
s(V15*AD
p934
L3L
L-5L
tp935
g3
s(V13*AD
p936
L4L
L-5L
tp937
g3
s(g116
L21L
Ntp938
Ns(V15*
p939
L7L
L-5L
tp940
g3
s(V18*D
p941
L3L
L-5L
tp942
g10
s(L9L
L25L
Ntp943
Ns(V17*
p944
L10L
L-5L
tp945
g10
s(V12*
p946
L8L
L-5L
tp947
g3
s(L9L
L23L
Ntp948
Ns(L9L
L20L
Ntp949
Ns(V21*A
p950
L6L
L-5L
tp951
g10
s(V19*AD
p952
L11L
L-5L
tp953
g10
s(V8*DS
p954
L10L
L-5L
tp955
g3
s(L16L
L19L
Ntp956
Ns(V5*D
p957
L2L
L-5L
tp958
g3
s(L21L
L5L
L-5L
tp959
g10
s(V14*D
p960
L4L
L-5L
tp961
g10
s(V17*A
p962
L3L
L-5L
tp963
g3
s(V21*
p964
L2L
L-5L
tp965
g10
s(V8*
p966
L3L
L-5L
tp967
g3
s(L11L
L24L
Ntp968
Ns(V8*D
p969
L6L
L-5L
tp970
g3
s(V18*DS
p971
L6L
L-5L
tp972
g10
s(V13*A
p973
L4L
L-5L
tp974
g3
s(V8*D
p975
L10L
L-5L
tp976
g3
s(V18*DS
p977
L10L
L-5L
tp978
g10
s(g297
L21L
Ntp979
Ns(L29L
NNtp980
Ns(V19*
p981
L2L
L-5L
tp982
g10
s(V13*
p983
L5L
L-5L
tp984
g10
s(V18*
p985
L7L
L-5L
tp986
g10
s(V16*DS
p987
L9L
L-5L
tp988
g3
s(V20*DS
p989
L10L
L-5L
tp990
g10
s(V9*D
p991
L6L
L-5L
tp992
g54
s(L21L
L24L
Ntp993
Ns(L14L
L25L
Ntp994
Ns(L10L
L18L
Ntp995
Ns(V16*AD
p996
L7L
L-5L
tp997
g3
s(L10L
L17L
Ntp998
Ns(V9*D
p999
L10L
L-5L
tp1000
g3
s(V14*
p1001
L8L
L-5L
tp1002
g3
s(V6*DS
p1003
L8L
L-5L
tp1004
g3
s(V15*D
p1005
L2L
L-5L
tp1006
g10
s(L8L
L17L
Ntp1007
Ns(V15*
p1008
L11L
L-5L
tp1009
g3
s(L18L
L19L
Ntp1010
Ns(g40
L11L
L-5L
tp1011
g3
s(V6*
p1012
L4L
L-5L
tp1013
g3
s(L21L
L23L
Ntp1014
Ns(V12*
p1015
L4L
L-5L
tp1016
g3
s(V16*A
p1017
L3L
L-5L
tp1018
g3
s(g563
L21L
Ntp1019
Ns(V7*
p1020
L3L
L-5L
tp1021
g3
s(L21L
L9L
L-5L
tp1022
g10
s(V19*AD
p1023
L10L
L-5L
tp1024
g10
s(V17*A
p1025
L2L
L-5L
tp1026
g3
s(V19*AD
p1027
L6L
L-5L
tp1028
g10
s(V10*DS
p1029
L10L
L-5L
tp1030
g3
s(V10*
p1031
L4L
L-5L
tp1032
g3
s(V19*A
p1033
L3L
L-5L
tp1034
g10
s(L16L
L26L
Ntp1035
Ns(V13*
p1036
L9L
L-5L
tp1037
g3
s(V12*D
p1038
L7L
L-5L
tp1039
g3
s(V15*AD
p1040
L2L
L-5L
tp1041
g3
s(L9L
L18L
Ntp1042
Ns(V13*AD
p1043
L5L
L-5L
tp1044
g3
s(V20*DS
p1045
L6L
L-5L
tp1046
g10
s(V15*
p1047
L6L
L-5L
tp1048
g10
s(V18*D
p1049
L4L
L-5L
tp1050
g10
s(g93
L11L
L-5L
tp1051
g3
s(g389
L21L
Ntp1052
Ns(V21*A
p1053
L7L
L-5L
tp1054
g10
s(V14*
p1055
L4L
L-5L
tp1056
g10
s(V20*D
p1057
L4L
L-5L
tp1058
g10
s(V8*DS
p1059
L5L
L-5L
tp1060
g3
s(V10*D
p1061
L2L
L-5L
tp1062
g54
s(L21L
L6L
L-5L
tp1063
g10
s(V14*D
p1064
L3L
L-5L
tp1065
g10
s(V6*DS
p1066
L9L
L-5L
tp1067
g3
s(V12*ADS
p1068
L2L
L-5L
tp1069
g3
s(L23L
NNtp1070
Ns(L8L
L20L
Ntp1071
Ns(L8L
L23L
Ntp1072
Ns(V6*DS
p1073
L5L
L-5L
tp1074
g3
s(V14*AD
p1075
L2L
L-5L
tp1076
g3
s(L21L
L20L
Ntp1077
Ns(V13*
p1078
L6L
L-5L
tp1079
g10
s(V18*
p1080
L6L
L-5L
tp1081
g10
s(L16L
L21L
Ntp1082
Ns(g347
L11L
L-5L
tp1083
g10
s(g795
L11L
L-5L
tp1084
g10
s(L19L
L17L
Ntp1085
Ns(V16*AD
p1086
L6L
L-5L
tp1087
g54
s(V16*
p1088
L9L
L-5L
tp1089
g3
s(g831
L21L
Ntp1090
Ns(V14*
p1091
L9L
L-5L
tp1092
g3
s(V11*
p1093
L3L
L-5L
tp1094
g3
s(L20L
L24L
Ntp1095
Ns(L20L
L18L
Ntp1096
Ns(V13*A
p1097
L5L
L-5L
tp1098
g3
s(L15L
L23L
Ntp1099
Ns(V15*
p1100
L10L
L-5L
tp1101
g3
s(g952
L21L
Ntp1102
Ns(V11*D
p1103
L10L
L-5L
tp1104
g3
s(V6*
p1105
L5L
L-5L
tp1106
g3
s(V12*
p1107
L7L
L-5L
tp1108
g3
s(V19*
p1109
L3L
L-5L
tp1110
g10
s(V16*A
p1111
L2L
L-5L
tp1112
g3
s(V7*
p1113
L2L
L-5L
tp1114
g3
s(V17*D
p1115
L2L
L-5L
tp1116
g10
s(L21L
L10L
L-5L
tp1117
g10
s(L17L
L22L
Ntp1118
Ns(L8L
L25L
Ntp1119
Ns(L20L
L20L
Ntp1120
Ns(V17*A
p1121
L5L
L-5L
tp1122
g3
s(g856
L21L
Ntp1123
Ns(L14L
L26L
Ntp1124
Ns(V10*DS
p1125
L9L
L-5L
tp1126
g3
s(V10*
p1127
L7L
L-5L
tp1128
g3
s(V13*
p1129
L10L
L-5L
tp1130
g3
s(V12*D
p1131
L6L
L-5L
tp1132
g3
s(V16*DS
p1133
L2L
L-5L
tp1134
g10
s(g285
L21L
Ntp1135
Ns(L21L
L17L
Ntp1136
Ns(g281
L21L
Ntp1137
Ns(V14*A
p1138
L10L
L-5L
tp1139
g3
s(V14*AD
p1140
L3L
L-5L
tp1141
g3
s(V13*AD
p1142
L6L
L-5L
tp1143
g3
s(V20*DS
p1144
L7L
L-5L
tp1145
g10
s(V15*
p1146
L5L
L-5L
tp1147
g10
s(V18*D
p1148
L5L
L-5L
tp1149
g10
s(L15L
L24L
Ntp1150
Ns(V16*
p1151
L5L
L-5L
tp1152
g10
s(L19L
L24L
Ntp1153
Ns(V21*A
p1154
L4L
L-5L
tp1155
g10
s(V14*
p1156
L5L
L-5L
tp1157
g10
s(g805
L11L
L-5L
tp1158
g10
s(L4L
L17L
Ntp1159
Ns(L19L
L18L
Ntp1160
Ns(V8*DS
p1161
L4L
L-5L
tp1162
g3
s(V14*D
p1163
L2L
L-5L
tp1164
g3
s(L9L
L26L
Ntp1165
Ns(L18L
L25L
Ntp1166
Ns(V13*A
p1167
L21L
Ntp1168
Ns(V19*A
p1169
L2L
L-5L
tp1170
g10
s(V4*DS
p1171
L2L
L-5L
tp1172
g3
s(L16L
L25L
Ntp1173
Ns(V12*
p1174
L6L
L-5L
tp1175
g3
s(V18*
p1176
L5L
L-5L
tp1177
g10
s(V23*
p1178
NNtp1179
Ns(V17*
p1180
L4L
L-5L
tp1181
g10
s(V12*
p1182
L10L
L-5L
tp1183
g3
s(V17*AD
p1184
L2L
L-5L
tp1185
g3
s(V20*DS
p1186
L8L
L-5L
tp1187
g10
s(V17*D
p1188
L3L
L-5L
tp1189
g10
s(L21L
L11L
L-5L
tp1190
g10
s(V17*A
p1191
L9L
L-5L
tp1192
g3
s(L8L
L22L
Ntp1193
Ns(V16*AD
p1194
L5L
L-5L
tp1195
g54
s(V16*
p1196
L8L
L-5L
tp1197
g3
s(V10*D
p1198
L3L
L-5L
tp1199
g54
s(L21L
L7L
L-5L
tp1200
g10
s(V12*ADS
p1201
L3L
L-5L
tp1202
g3
s(L20L
L23L
Ntp1203
Ns(V14*
p1204
L10L
L-5L
tp1205
g3
s(g701
L21L
Ntp1206
Ns(V13*A
p1207
L10L
L-5L
tp1208
g3
s(V18*A
p1209
L2L
L-5L
tp1210
g10
s(L18L
L18L
Ntp1211
Ns(L10L
L21L
Ntp1212
Ns(g693
L11L
L-5L
tp1213
g3
s(V15*
p1214
L9L
L-5L
tp1215
g3
s(V11*D
p1216
L9L
L-5L
tp1217
g54
s(V6*
p1218
L6L
L-5L
tp1219
g3
s(V13*AD
p1220
L7L
L-5L
tp1221
g3
s(V13*
p1222
L7L
L-5L
tp1223
g3
s(L17L
L26L
Ntp1224
Ns(g58
L21L
Ntp1225
Ns(L19L
L23L
Ntp1226
Ns(V21*A
p1227
L5L
L-5L
tp1228
g10
s(V7*D
p1229
L3L
L-5L
tp1230
g3
s(L20L
L26L
Ntp1231
Ns(V15*A
p1232
L9L
L-5L
tp1233
g3
s(L9L
L21L
Ntp1234
Ns(V17*A
p1235
L4L
L-5L
tp1236
g3
s(V8*
p1237
L6L
L-5L
tp1238
g3
s(V11*
p1239
L2L
L-5L
tp1240
g3
s(g32
L21L
Ntp1241
Ns(g28
L21L
Ntp1242
Ns(V12*D
p1243
L5L
L-5L
tp1244
g3
s(V16*DS
p1245
L3L
L-5L
tp1246
g10
s(g873
L11L
L-5L
tp1247
g3
s(V14*AD
p1248
L4L
L-5L
tp1249
g3
s(V19*D
p1250
L9L
L-5L
tp1251
g10
s(V20*DS
p1252
L4L
L-5L
tp1253
g10
s(L15L
L20L
Ntp1254
Ns(V18*D
p1255
L6L
L-5L
tp1256
g10
s(V16*
p1257
L4L
L-5L
tp1258
g10
s(V6*D
p1259
L8L
L-5L
tp1260
g3
s(V14*
p1261
L6L
L-5L
tp1262
g10
s(V20*D
p1263
L10L
L-5L
tp1264
g10
s(V8*DS
p1265
L7L
L-5L
tp1266
g3
s(L21L
L25L
Ntp1267
Ns(V15*D
p1268
L7L
L-5L
tp1269
g3
s(V10*DS
p1270
L8L
L-5L
tp1271
g3
s(V8*D
p1272
L3L
L-5L
tp1273
g3
s(V18*DS
p1274
L3L
L-5L
tp1275
g10
s(V10*
p1276
L6L
L-5L
tp1277
g3
s(L14L
L21L
Ntp1278
Ns(g664
L21L
Ntp1279
Ns(V9*
p1280
L10L
L-5L
tp1281
g3
s(V15*
p1282
L8L
L-5L
tp1283
g3
s(V4*DS
p1284
L3L
L-5L
tp1285
g3
s(L19L
L26L
Ntp1286
Ns(V16*D
p1287
L3L
L-5L
tp1288
g10
s(V15*
p1289
L4L
L-5L
tp1290
g10
s(L8L
L19L
Ntp1291
Ns(V17*
p1292
L5L
L-5L
tp1293
g10
s(V15*A
p1294
L5L
L-5L
tp1295
g3
s(V9*D
p1296
L3L
L-5L
tp1297
g3
s(V10*D
p1298
L8L
L-5L
tp1299
g3
s(V5*D
p1300
L11L
L-5L
tp1301
g3
s(V17*D
p1302
L4L
L-5L
tp1303
g10
s(V12*ADS
p1304
L8L
L-5L
tp1305
g3
s(V17*A
p1306
L8L
L-5L
tp1307
g3
s(g540
L21L
Ntp1308
Ns(V16*
p1309
L11L
L-5L
tp1310
g3
s(V
p1311
g1311
L-5L
tp1312
VBegin
p1313
s(L16L
L17L
Ntp1314
Ns(g545
L21L
Ntp1315
Ns(g1167
L11L
L-5L
tp1316
g3
s(V14*AD
p1317
L8L
L-5L
tp1318
g3
s(V19*D
p1319
L5L
L-5L
tp1320
g10
s(V12*D
p1321
L4L
L-5L
tp1322
g3
s(L15L
L18L
Ntp1323
Ns(V20*DS
p1324
L5L
L-5L
tp1325
g10
s(V6*D
p1326
L4L
L-5L
tp1327
g3
s(V18*
p1328
L4L
L-5L
tp1329
g10
s(L20L
L22L
Ntp1330
Ns(L20L
L17L
Ntp1331
Ns(V17*AD
p1332
L3L
L-5L
tp1333
g3
s(V20*DS
p1334
L9L
L-5L
tp1335
g10
s(L22L
NNtp1336
Ns(V21*A
p1337
L2L
L-5L
tp1338
g10
s(V14*
p1339
L7L
L-5L
tp1340
g3
s(V7*D
p1341
L2L
L-5L
tp1342
g3
s(g387
L11L
L-5L
tp1343
g3
s(V16*AD
p1344
L4L
L-5L
tp1345
g3
s(V15*A
p1346
L8L
L-5L
tp1347
g3
s(V11*
p1348
L9L
L-5L
tp1349
g3
s(V8*DS
p1350
L6L
L-5L
tp1351
g3
s(g335
L11L
L-5L
tp1352
g3
s(V17*A
p1353
L7L
L-5L
tp1354
g3
s(V8*
p1355
L7L
L-5L
tp1356
g3
s(V9*
p1357
L6L
L-5L
tp1358
g3
s(L17L
L18L
Ntp1359
Ns(V18*A
p1360
L3L
L-5L
tp1361
g10
s(L17L
L24L
Ntp1362
Ns(L19L
L25L
Ntp1363
Ns(V11*D
p1364
L8L
L-5L
tp1365
g54
s(V14*A
p1366
L8L
L-5L
tp1367
g3
s(V14*AD
p1368
L5L
L-5L
tp1369
g3
s(V19*D
p1370
L8L
L-5L
tp1371
g10
s(V16*D
p1372
L2L
L-5L
tp1373
g10
s(V6*
p1374
L7L
L-5L
tp1375
g3
s(g239
L21L
Ntp1376
Ns(g1008
L21L
Ntp1377
Ns(V16*
p1378
L7L
L-5L
tp1379
g3
s(V6*D
p1380
L9L
L-5L
tp1381
g3
s(L21L
L21L
Ntp1382
Ns(V20*D
p1383
L9L
L-5L
tp1384
g10
s(L21L
L18L
Ntp1385
Ns(V12*DS
p1386
L9L
L-5L
tp1387
g3
s(L14L
L19L
Ntp1388
Ns(L16L
L23L
Ntp1389
Ns(V15*D
p1390
L6L
L-5L
tp1391
g10
s(V10*DS
p1392
L7L
L-5L
tp1393
g54
s(V10*
p1394
L9L
L-5L
tp1395
g3
s(L4L
L21L
Ntp1396
Ns(L12L
L22L
Ntp1397
Ns(g1309
L21L
Ntp1398
Ns(L12L
L17L
Ntp1399
Ns(V9*
p1400
L11L
L-5L
tp1401
g3
s(g327
L21L
Ntp1402
Ns(V18*D
p1403
L7L
L-5L
tp1404
g10
s(V16*A
p1405
L7L
L-5L
tp1406
g3
s(V17*
p1407
L6L
L-5L
tp1408
g10
s(V15*A
p1409
L4L
L-5L
tp1410
g3
s(V13*D
p1411
L2L
L-5L
tp1412
g3
s(V10*D
p1413
L9L
L-5L
tp1414
g3
s(V5*D
p1415
L10L
L-5L
tp1416
g3
s(V17*D
p1417
L5L
L-5L
tp1418
g10
s(V12*ADS
p1419
L9L
L-5L
tp1420
g3
s(g129
L11L
L-5L
tp1421
g3
s(L6L
L22L
Ntp1422
Ns(V8*D
p1423
L2L
L-5L
tp1424
g3
s(V18*DS
p1425
L2L
L-5L
tp1426
g10
s(V13*A
p1427
L8L
L-5L
tp1428
g3
s(V19*D
p1429
L4L
L-5L
tp1430
g10
s(V20*
p1431
L2L
L-5L
tp1432
g10
s.