(dp0
(V17*D
p1
L7L
L-12L
tp2
VStay
p3
s(L13L
L21L
Ntp4
Ns(L13L
L18L
Ntp5
Ns(V10*DS
p6
L3L
L-12L
tp7
VDraw
p8
s(V18*AD
p9
L6L
L-12L
tp10
g3
s(V19*AD
p11
L10L
L-12L
tp12
g3
s(V8*DS
p13
L10L
L-12L
tp14
g8
s(L13L
L24L
Ntp15
Ns(V11*D
p16
L10L
L-12L
tp17
g8
s(V20*AD
p18
L4L
L-12L
tp19
g3
s(V6*D
p20
L10L
L-12L
tp21
g8
s(V12*
p22
L6L
L-12L
tp23
g8
s(V12*D
p24
L21L
Ntp25
Ns(V11*
p26
L10L
L-12L
tp27
g8
s(V9*
p28
L2L
L-12L
tp29
g8
s(g24
L11L
L-12L
tp30
g8
s(V20*A
p31
L4L
L-12L
tp32
g3
s(L6L
L26L
Ntp33
Ns(V14*A
p34
L4L
L-12L
tp35
g8
s(V19*
p36
L21L
Ntp37
Ns(L15L
L26L
Ntp38
Ns(V18*A
p39
L5L
L-12L
tp40
g3
s(V12*DS
p41
L9L
L-12L
tp42
g8
s(L19L
L19L
Ntp43
Ns(V8*
p44
L8L
L-12L
tp45
g8
s(L19L
L20L
Ntp46
Ns(V16*AD
p47
L8L
L-12L
tp48
g8
s(V15*
p49
L11L
L-12L
tp50
g8
s(V16*D
p51
L3L
L-12L
tp52
g8
s(V20*DS
p53
L11L
L-12L
tp54
g3
s(V17*A
p55
L9L
L-12L
tp56
g8
s(V6*D
p57
L6L
L-12L
tp58
g8
s(V5*D
p59
L2L
L-12L
tp60
g8
s(V9*D
p61
L8L
L-12L
tp62
g8
s(V20*D
p63
L2L
L-12L
tp64
g3
s(L17L
L21L
Ntp65
Ns(V14*
p66
L21L
Ntp67
Ns(V6*
p68
L2L
L-12L
tp69
g8
s(V18*
p70
L6L
L-12L
tp71
g3
s(V4*DS
p72
L10L
L-12L
tp73
g8
s(V6*DS
p74
L7L
L-12L
tp75
g8
s(V8*D
p76
L8L
L-12L
tp77
g8
s(V15*D
p78
L8L
L-12L
tp79
g8
s(V15*A
p80
L2L
L-12L
tp81
g8
s(V12*ADS
p82
L4L
L-12L
tp83
g8
s(V10*D
p84
L9L
L-12L
tp85
g8
s(V20*D
p86
L4L
L-12L
tp87
g3
s(V13*D
p88
L4L
L-12L
tp89
g8
s(V13*A
p90
L10L
L-12L
tp91
g8
s(L4L
L24L
Ntp92
Ns(L4L
L18L
Ntp93
Ns(V13*AD
p94
L9L
L-12L
tp95
g8
s(L14L
L17L
Ntp96
Ns(V19*D
p97
L5L
L-12L
tp98
g3
s(L18L
L22L
Ntp99
Ns(V20*
p100
L8L
L-12L
tp101
g3
s(V18*DS
p102
L7L
L-12L
tp103
g3
s(V18*A
p104
L11L
L-12L
tp105
g8
s(V14*D
p106
L8L
L-12L
tp107
g8
s(L21L
L9L
L-12L
tp108
g3
s(V13*A
p109
L21L
Ntp110
Ns(V12*ADS
p111
L8L
L-12L
tp112
g8
s(L4L
L20L
Ntp113
Ns(V15*
p114
L5L
L-12L
tp115
g8
s(V8*DS
p116
L7L
L-12L
tp117
g8
s(V5*D
p118
L8L
L-12L
tp119
g8
s(V7*D
p120
L21L
Ntp121
Ns(V12*
p122
L10L
L-12L
tp123
g8
s(V13*AD
p124
L5L
L-12L
tp125
g8
s(V11*
p126
L4L
L-12L
tp127
g8
s(V14*AD
p128
L7L
L-12L
tp129
g8
s(V15*AD
p130
L4L
L-12L
tp131
g8
s(V17*AD
p132
L3L
L-12L
tp133
g8
s(V8*
p134
L5L
L-12L
tp135
g8
s(L15L
L22L
Ntp136
Ns(V7*D
p137
L9L
L-12L
tp138
g8
s(V8*D
p139
L21L
Ntp140
Ns(V17*D
p141
L10L
L-12L
tp142
g3
s(V6*D
p143
L11L
L-12L
tp144
g8
s(V4*DS
p145
L21L
Ntp146
Ns(L13L
L19L
Ntp147
Ns(L20L
L21L
Ntp148
Ns(V11*D
p149
L5L
L-12L
tp150
VDouble
p151
s(V18*D
p152
L10L
L-12L
tp153
g3
s(V10*DS
p154
L8L
L-12L
tp155
g8
s(V19*AD
p156
L5L
L-12L
tp157
g3
s(V20*AD
p158
L11L
L-12L
tp159
g3
s(V14*A
p160
L21L
Ntp161
Ns(L6L
L17L
Ntp162
Ns(V10*D
p163
L3L
L-12L
tp164
g8
s(V9*D
p165
L4L
L-12L
tp166
g8
s(L17L
L25L
Ntp167
Ns(V13*A
p168
L4L
L-12L
tp169
g8
s(g160
L11L
L-12L
tp170
g8
s(V12*D
p171
L4L
L-12L
tp172
g8
s(V20*A
p173
L11L
L-12L
tp174
g3
s(V4*DS
p175
L6L
L-12L
tp176
g8
s(V14*DS
p177
L10L
L-12L
tp178
g8
s(V8*
p179
L3L
L-12L
tp180
g8
s(L19L
L21L
Ntp181
Ns(V20*DS
p182
L6L
L-12L
tp183
g3
s(L19L
L22L
Ntp184
Ns(V16*AD
p185
L5L
L-12L
tp186
g8
s(L16L
L22L
Ntp187
Ns(V6*
p188
L3L
L-12L
tp189
g8
s(V16*DS
p190
L11L
L-12L
tp191
g8
s(V17*A
p192
L2L
L-12L
tp193
g8
s(L21L
L22L
Ntp194
Ns(V13*D
p195
L10L
L-12L
tp196
g8
s(V6*DS
p197
L10L
L-12L
tp198
g8
s(V14*DS
p199
L6L
L-12L
tp200
g8
s(V17*
p201
L7L
L-12L
tp202
g3
s(V10*
p203
L8L
L-12L
tp204
g8
s(V8*D
p205
L3L
L-12L
tp206
g8
s(V17*AD
p207
L9L
L-12L
tp208
g8
s(L12L
L21L
Ntp209
Ns(V7*D
p210
L3L
L-12L
tp211
g8
s(V20*
p212
L2L
L-12L
tp213
g3
s(V12*ADS
p214
L5L
L-12L
tp215
g8
s(V15*AD
p216
L2L
L-12L
tp217
g8
s(V13*
p218
L6L
L-12L
tp219
g8
s(V6*
p220
L5L
L-12L
tp221
g8
s(V15*D
p222
L3L
L-12L
tp223
g8
s(V21*A
p224
L11L
L-12L
tp225
g3
s(V8*DS
p226
L11L
L-12L
tp227
g8
s(L20L
L19L
Ntp228
Ns(V10*DS
p229
L6L
L-12L
tp230
g151
s(V13*AD
p231
L8L
L-12L
tp232
g8
s(V18*AD
p233
L3L
L-12L
tp234
g3
s(V18*D
p235
L4L
L-12L
tp236
g3
s(L4L
L26L
Ntp237
Ns(L17L
L19L
Ntp238
Ns(V19*D
p239
L8L
L-12L
tp240
g3
s(V14*
p241
L2L
L-12L
tp242
g8
s(V17*
p243
L11L
L-12L
tp244
g8
s(V10*
p245
L4L
L-12L
tp246
g8
s(V9*
p247
L9L
L-12L
tp248
g8
s(L11L
L21L
Ntp249
Ns(V18*A
p250
L4L
L-12L
tp251
g3
s(L11L
L22L
Ntp252
Ns(V18*DS
p253
L8L
L-12L
tp254
g3
s(V16*
p255
L4L
L-12L
tp256
g8
s(L6L
L24L
Ntp257
Ns(V8*
p258
L9L
L-12L
tp259
g8
s(V14*D
p260
L5L
L-12L
tp261
g8
s(V12*DS
p262
L2L
L-12L
tp263
g8
s(L21L
L4L
L-12L
tp264
g3
s(V12*ADS
p265
L3L
L-12L
tp266
g8
s(V15*
p267
L10L
L-12L
tp268
g8
s(V17*D
p269
L6L
L-12L
tp270
g3
s(L13L
L22L
Ntp271
Ns(V6*D
p272
L7L
L-12L
tp273
g8
s(V16*D
p274
L8L
L-12L
tp275
g8
s(V17*D
p276
L21L
Ntp277
Ns(V19*AD
p278
L9L
L-12L
tp279
g3
s(V11*D
p280
L11L
L-12L
tp281
g8
s(V20*AD
p282
L5L
L-12L
tp283
g3
s(V12*
p284
L5L
L-12L
tp285
g8
s(V11*
p286
L9L
L-12L
tp287
g8
s(V9*
p288
L5L
L-12L
tp289
g8
s(V18*
p290
L3L
L-12L
tp291
g3
s(V7*
p292
L11L
L-12L
tp293
g8
s(V12*D
p294
L8L
L-12L
tp295
g8
s(V20*A
p296
L7L
L-12L
tp297
g3
s(V14*A
p298
L5L
L-12L
tp299
g8
s(V18*DS
p300
L2L
L-12L
tp301
g3
s(L24L
NNtp302
Ns(L12L
L19L
Ntp303
Ns(L12L
L26L
Ntp304
Ns(V16*AD
p305
L9L
L-12L
tp306
g8
s(V6*DS
p307
L21L
Ntp308
Ns(V16*D
p309
L4L
L-12L
tp310
g8
s(V21*
p311
L21L
Ntp312
Ns(g109
L11L
L-12L
tp313
g8
s(V5*D
p314
L5L
L-12L
tp315
g8
s(L17L
L17L
Ntp316
Ns(V9*D
p317
L11L
L-12L
tp318
g8
s(V13*
p319
L21L
Ntp320
Ns(V7*
p321
L7L
L-12L
tp322
g8
s(V14*DS
p323
L11L
L-12L
tp324
g8
s(V14*AD
p325
L10L
L-12L
tp326
g8
s(V24*
p327
NNtp328
Ns(V4*DS
p329
L9L
L-12L
tp330
g8
s(L10L
L22L
Ntp331
Ns(V14*
p332
L4L
L-12L
tp333
g8
s(V16*
p334
L2L
L-12L
tp335
g8
s(L6L
L18L
Ntp336
Ns(V12*DS
p337
L8L
L-12L
tp338
g8
s(g158
L21L
Ntp339
Ns(V12*ADS
p340
L9L
L-12L
tp341
g8
s(V19*A
p342
L11L
L-12L
tp343
g3
s(V15*A
p344
L3L
L-12L
tp345
g8
s(L13L
L25L
Ntp346
Ns(V10*D
p347
L6L
L-12L
tp348
g151
s(V20*D
p349
L11L
L-12L
tp350
g3
s(V13*D
p351
L7L
L-12L
tp352
g8
s(V13*AD
p353
L4L
L-12L
tp354
g8
s(L4L
L22L
Ntp355
Ns(V17*
p356
L6L
L-12L
tp357
g3
s(V10*
p358
L9L
L-12L
tp359
g8
s(L18L
L20L
Ntp360
Ns(V4*DS
p361
L3L
L-12L
tp362
g8
s(L18L
L26L
Ntp363
Ns(V19*D
p364
L2L
L-12L
tp365
g3
s(V14*
p366
L8L
L-12L
tp367
g8
s(V15*AD
p368
L3L
L-12L
tp369
g8
s(L11L
L26L
Ntp370
Ns(V20*
p371
L9L
L-12L
tp372
g3
s(V18*DS
p373
L4L
L-12L
tp374
g3
s(V12*ADS
p375
L21L
Ntp376
Ns(V18*A
p377
L10L
L-12L
tp378
g8
s(L21L
L8L
L-12L
tp379
g3
s(V14*D
p380
L9L
L-12L
tp381
g8
s(V19*A
p382
L7L
L-12L
tp383
g3
s(L11L
L25L
Ntp384
Ns(V10*DS
p385
L9L
L-12L
tp386
g8
s(V18*D
p387
L11L
L-12L
tp388
g3
s(V15*
p389
L4L
L-12L
tp390
g8
s(V8*DS
p391
L4L
L-12L
tp392
g8
s(V5*D
p393
L11L
L-12L
tp394
g8
s(V9*
p395
L8L
L-12L
tp396
g8
s(L10L
L26L
Ntp397
Ns(V12*
p398
L9L
L-12L
tp399
g8
s(L10L
L25L
Ntp400
Ns(V11*
p401
L3L
L-12L
tp402
g8
s(V14*AD
p403
L4L
L-12L
tp404
g8
s(V15*AD
p405
L5L
L-12L
tp406
g8
s(V17*AD
p407
L4L
L-12L
tp408
g8
s(V8*
p409
L6L
L-12L
tp410
g8
s(V7*D
p411
L6L
L-12L
tp412
g8
s(V12*
p413
L21L
Ntp414
Ns(V16*D
p415
L9L
L-12L
tp416
g8
s(V17*A
p417
L3L
L-12L
tp418
g8
s(V6*D
p419
L8L
L-12L
tp420
g8
s(L13L
L20L
Ntp421
Ns(V11*D
p422
L6L
L-12L
tp423
g151
s(V20*AD
p424
L8L
L-12L
tp425
g3
s(V19*AD
p426
L4L
L-12L
tp427
g3
s(V7*
p428
L10L
L-12L
tp429
g8
s(V9*D
p430
L7L
L-12L
tp431
g8
s(V13*A
p432
L5L
L-12L
tp433
g8
s(V26*
p434
NNtp435
Ns(V14*A
p436
L8L
L-12L
tp437
g8
s(V14*DS
p438
L7L
L-12L
tp439
g8
s(V19*AD
p440
L21L
Ntp441
Ns(V12*D
p442
L5L
L-12L
tp443
g8
s(L14L
L23L
Ntp444
Ns(V20*A
p445
L10L
L-12L
tp446
g3
s(V4*DS
p447
L5L
L-12L
tp448
g8
s(V8*D
p449
L2L
L-12L
tp450
g8
s(V20*
p451
L3L
L-12L
tp452
g3
s(L28L
NNtp453
Ns(L12L
L18L
Ntp454
Ns(g311
L11L
L-12L
tp455
g3
s(V20*DS
p456
L7L
L-12L
tp457
g3
s(V15*D
p458
L2L
L-12L
tp459
g8
s(V16*AD
p460
L2L
L-12L
tp461
g8
s(L16L
L18L
Ntp462
Ns(V13*
p463
L3L
L-12L
tp464
g8
s(V6*D
p465
L2L
L-12L
tp466
g8
s(V16*DS
p467
L4L
L-12L
tp468
g8
s(V17*
p469
L10L
L-12L
tp470
g3
s(V10*
p471
L5L
L-12L
tp472
g8
s(L9L
L19L
Ntp473
Ns(V14*
p474
L5L
L-12L
tp475
g8
s(g307
L11L
L-12L
tp476
g8
s(V21*
p477
L7L
L-12L
tp478
g3
s(V17*AD
p479
L10L
L-12L
tp480
g8
s(V19*A
p481
L10L
L-12L
tp482
g3
s(L14L
L24L
Ntp483
Ns(V12*ADS
p484
L6L
L-12L
tp485
g8
s(V13*
p486
L9L
L-12L
tp487
g8
s(V6*
p488
L10L
L-12L
tp489
g8
s(V17*D
p490
L3L
L-12L
tp491
g3
s(L13L
L17L
Ntp492
Ns(V8*DS
p493
L8L
L-12L
tp494
g8
s(V10*DS
p495
L7L
L-12L
tp496
g8
s(V13*AD
p497
L11L
L-12L
tp498
g8
s(V18*AD
p499
L2L
L-12L
tp500
g3
s(V18*D
p501
L5L
L-12L
tp502
g3
s(L13L
L23L
Ntp503
Ns(L6L
L23L
Ntp504
Ns(V9*
p505
L4L
L-12L
tp506
g8
s(V19*D
p507
L9L
L-12L
tp508
g3
s(V14*
p509
L3L
L-12L
tp510
g8
s(L11L
L18L
Ntp511
Ns(V18*A
p512
L7L
L-12L
tp513
g3
s(V18*DS
p514
L9L
L-12L
tp515
g3
s(V16*AD
p516
L21L
Ntp517
Ns(V8*
p518
L10L
L-12L
tp519
g8
s(V14*D
p520
L2L
L-12L
tp521
g8
s(V12*DS
p522
L5L
L-12L
tp523
g8
s(L21L
L3L
L-12L
tp524
g3
s(L18L
L23L
Ntp525
Ns(V16*D
p526
L5L
L-12L
tp527
g3
s(V15*
p528
L9L
L-12L
tp529
g8
s(g280
L21L
Ntp530
Ns(V6*D
p531
L4L
L-12L
tp532
g8
s(V5*D
p533
L4L
L-12L
tp534
g8
s(V16*DS
p535
L2L
L-12L
tp536
g8
s(V21*A
p537
L10L
L-12L
tp538
g3
s(V14*AD
p539
L21L
Ntp540
Ns(V19*AD
p541
L8L
L-12L
tp542
g3
s(L15L
L17L
Ntp543
Ns(V7*
p544
L6L
L-12L
tp545
g8
s(V20*AD
p546
L2L
L-12L
tp547
g3
s(V12*
p548
L4L
L-12L
tp549
g8
s(L10L
L24L
Ntp550
Ns(V11*
p551
L8L
L-12L
tp552
g8
s(g539
L11L
L-12L
tp553
g8
s(V18*
p554
L2L
L-12L
tp555
g3
s(V12*D
p556
L9L
L-12L
tp557
g8
s(V20*A
p558
L6L
L-12L
tp559
g3
s(V14*A
p560
L2L
L-12L
tp561
g8
s(g226
L21L
Ntp562
Ns(L17L
L20L
Ntp563
Ns(V16*
p564
L5L
L-12L
tp565
g3
s(L12L
L23L
Ntp566
Ns(L12L
L25L
Ntp567
Ns(V13*A
p568
L8L
L-12L
tp569
g8
s(V9*D
p570
L10L
L-12L
tp571
g8
s(g342
L21L
Ntp572
Ns(V15*A
p573
L8L
L-12L
tp574
g8
s(V14*DS
p575
L8L
L-12L
tp576
g8
s(V19*D
p577
L3L
L-12L
tp578
g3
s(V14*
p579
L9L
L-12L
tp580
g8
s(V4*DS
p581
L8L
L-12L
tp582
g8
s(V21*
p583
L10L
L-12L
tp584
g3
s(L11L
L23L
Ntp585
Ns(L11L
L17L
Ntp586
Ns(L4L
L25L
Ntp587
Ns(V18*DS
p588
L3L
L-12L
tp589
g3
s(V16*
p590
L3L
L-12L
tp591
g8
s(V19*A
p592
L6L
L-12L
tp593
g3
s(L4L
L19L
Ntp594
Ns(V12*DS
p595
L11L
L-12L
tp596
g8
s(L16L
L20L
Ntp597
Ns(V12*ADS
p598
L10L
L-12L
tp599
g8
s(L18L
L17L
Ntp600
Ns(L9L
L24L
Ntp601
Ns(V16*A
p602
L2L
L-12L
tp603
g8
s(V15*A
p604
L4L
L-12L
tp605
g8
s(L13L
L26L
Ntp606
Ns(V13*D
p607
L6L
L-12L
tp608
g8
s(V13*AD
p609
L7L
L-12L
tp610
g8
s(V17*
p611
L5L
L-12L
tp612
g3
s(V10*
p613
L10L
L-12L
tp614
g8
s(V14*DS
p615
L2L
L-12L
tp616
g8
s(L30L
NNtp617
Ns(V11*
p618
L2L
L-12L
tp619
g8
s(V17*AD
p620
L5L
L-12L
tp621
g8
s(V20*
p622
L6L
L-12L
tp623
g3
s(V18*DS
p624
L5L
L-12L
tp625
g3
s(L16L
L24L
Ntp626
Ns(L12L
L20L
Ntp627
Ns(V10*DS
p628
L10L
L-12L
tp629
g8
s(V18*D
p630
L8L
L-12L
tp631
g3
s(V15*
p632
L3L
L-12L
tp633
g8
s(V8*DS
p634
L5L
L-12L
tp635
g8
s(V19*
p636
L10L
L-12L
tp637
g3
s(L17L
L23L
Ntp638
Ns(L6L
L21L
Ntp639
Ns(V5*D
p640
L10L
L-12L
tp641
g8
s(V9*
p642
L11L
L-12L
tp643
g8
s(V10*D
p644
L7L
L-12L
tp645
g8
s(V20*D
p646
L10L
L-12L
tp647
g3
s(V12*
p648
L8L
L-12L
tp649
g8
s(L10L
L20L
Ntp650
Ns(L10L
L19L
Ntp651
Ns(V14*AD
p652
L5L
L-12L
tp653
g8
s(V4*DS
p654
L2L
L-12L
tp655
g8
s(V15*AD
p656
L10L
L-12L
tp657
g8
s(V8*
p658
L7L
L-12L
tp659
g8
s(g53
L21L
Ntp660
Ns(V16*AD
p661
L3L
L-12L
tp662
g8
s(V16*D
p663
L10L
L-12L
tp664
g8
s(V20*DS
p665
L2L
L-12L
tp666
g3
s(L14L
L22L
Ntp667
Ns(g104
L21L
Ntp668
Ns(V19*
p669
L6L
L-12L
tp670
g3
s(V6*D
p671
L9L
L-12L
tp672
g8
s(V11*D
p673
L7L
L-12L
tp674
g8
s(V20*AD
p675
L9L
L-12L
tp676
g3
s(L15L
L25L
Ntp677
Ns(V19*AD
p678
L3L
L-12L
tp679
g3
s(V7*
p680
L9L
L-12L
tp681
g8
s(V9*D
p682
L6L
L-12L
tp683
g8
s(V13*A
p684
L2L
L-12L
tp685
g8
s(V16*A
p686
L4L
L-12L
tp687
g8
s(V14*A
p688
L9L
L-12L
tp689
g8
s(V14*DS
p690
L4L
L-12L
tp691
g8
s(V12*D
p692
L2L
L-12L
tp693
g8
s(L18L
L24L
Ntp694
Ns(g349
L21L
Ntp695
Ns(V4*DS
p696
L4L
L-12L
tp697
g8
s(g387
L21L
Ntp698
Ns(V21*
p699
L6L
L-12L
tp700
g3
s(V7*D
p701
L7L
L-12L
tp702
g8
s(V20*DS
p703
L8L
L-12L
tp704
g3
s(L15L
L21L
Ntp705
Ns(V13*
p706
L2L
L-12L
tp707
g8
s(V15*A
p708
L9L
L-12L
tp709
g8
s(V21*A
p710
L7L
L-12L
tp711
g3
s(V7*
p712
L3L
L-12L
tp713
g8
s(V15*D
p714
L21L
Ntp715
Ns(V16*A
p716
L8L
L-12L
tp717
g8
s(L21L
NNtp718
Ns(V18*AD
p719
L9L
L-12L
tp720
g8
s(V17*
p721
L9L
L-12L
tp722
g3
s(V27*
p723
NNtp724
Ns(V18*DS
p725
L21L
Ntp726
Ns(V10*
p727
L6L
L-12L
tp728
g8
s(V14*
p729
L6L
L-12L
tp730
g8
s(V6*DS
p731
L4L
L-12L
tp732
g8
s(g173
L21L
Ntp733
Ns(V14*D
p734
L3L
L-12L
tp735
g8
s(V12*DS
p736
L4L
L-12L
tp737
g8
s(V17*AD
p738
L11L
L-12L
tp739
g8
s(L21L
L2L
L-12L
tp740
g3
s(V19*A
p741
L9L
L-12L
tp742
g3
s(V16*
p743
L8L
L-12L
tp744
g8
s(L8L
L18L
Ntp745
Ns(V12*ADS
p746
L7L
L-12L
tp747
g8
s(L8L
L21L
Ntp748
Ns(V17*D
p749
L2L
L-12L
tp750
g3
s(V6*D
p751
L3L
L-12L
tp752
g8
s(V16*DS
p753
L5L
L-12L
tp754
g3
s(V8*DS
p755
L9L
L-12L
tp756
g8
s(L6L
L19L
Ntp757
Ns(V20*AD
p758
L3L
L-12L
tp759
g3
s(V18*AD
p760
L5L
L-12L
tp761
g3
s(V13*AD
p762
L10L
L-12L
tp763
g8
s(V18*D
p764
L2L
L-12L
tp765
g3
s(V17*A
p766
L6L
L-12L
tp767
g8
s(L6L
L25L
Ntp768
Ns(V9*
p769
L7L
L-12L
tp770
g8
s(V19*D
p771
L6L
L-12L
tp772
g3
s(V14*A
p773
L3L
L-12L
tp774
g8
s(V20*A
p775
L3L
L-12L
tp776
g3
s(V17*A
p777
L21L
Ntp778
Ns(V18*
p779
L9L
L-12L
tp780
g3
s(V18*A
p781
L6L
L-12L
tp782
g3
s(V19*A
p783
L3L
L-12L
tp784
g3
s(V8*
p785
L11L
L-12L
tp786
g8
s(g36
L11L
L-12L
tp787
g3
s(V8*D
p788
L7L
L-12L
tp789
g8
s(V15*
p790
L8L
L-12L
tp791
g8
s(V16*D
p792
L6L
L-12L
tp793
g3
s(V28*
p794
NNtp795
Ns(L20L
L25L
Ntp796
Ns(V13*
p797
L8L
L-12L
tp798
g8
s(V6*
p799
L11L
L-12L
tp800
g8
s(V6*D
p801
L5L
L-12L
tp802
g8
s(V5*D
p803
L7L
L-12L
tp804
g8
s(V16*DS
p805
L3L
L-12L
tp806
g8
s(V17*A
p807
L10L
L-12L
tp808
g8
s(L9L
L17L
Ntp809
Ns(V21*A
p810
L9L
L-12L
tp811
g3
s(L9L
L22L
Ntp812
Ns(V15*D
p813
L7L
L-12L
tp814
g8
s(V7*
p815
L5L
L-12L
tp816
g8
s(V12*
p817
L3L
L-12L
tp818
g8
s(V11*
p819
L7L
L-12L
tp820
g8
s(V14*AD
p821
L8L
L-12L
tp822
g8
s(V18*
p823
L5L
L-12L
tp824
g3
s(g738
L21L
Ntp825
Ns(V6*DS
p826
L2L
L-12L
tp827
g8
s(V16*D
p828
L21L
Ntp829
Ns(g224
L21L
Ntp830
Ns(g139
L11L
L-12L
tp831
g8
s(V16*
p832
L6L
L-12L
tp833
g3
s(L25L
NNtp834
Ns(L8L
L24L
Ntp835
Ns(L14L
L20L
Ntp836
Ns(V15*A
p837
L5L
L-12L
tp838
g8
s(g714
L11L
L-12L
tp839
g8
s(V16*A
p840
L5L
L-12L
tp841
g8
s(V13*A
p842
L9L
L-12L
tp843
g8
s(V10*D
p844
L10L
L-12L
tp845
g8
s(V20*D
p846
L7L
L-12L
tp847
g3
s(V13*D
p848
L3L
L-12L
tp849
g8
s(L21L
L26L
Ntp850
Ns(L26L
NNtp851
Ns(L21L
L19L
Ntp852
Ns(g595
L21L
Ntp853
Ns(V14*DS
p854
L9L
L-12L
tp855
g8
s(V14*
p856
L10L
L-12L
tp857
g8
s(L11L
L19L
Ntp858
Ns(V21*
p859
L9L
L-12L
tp860
g3
s(L11L
L20L
Ntp861
Ns(L14L
L18L
Ntp862
Ns(L4L
L23L
Ntp863
Ns(V19*A
p864
L5L
L-12L
tp865
g3
s(V12*DS
p866
L10L
L-12L
tp867
g8
s(L18L
L21L
Ntp868
Ns(g375
L11L
L-12L
tp869
g8
s(V10*D
p870
L21L
Ntp871
Ns(V15*
p872
L2L
L-12L
tp873
g8
s(V18*AD
p874
L8L
L-12L
tp875
g3
s(V16*A
p876
L3L
L-12L
tp877
g8
s(L15L
L19L
Ntp878
Ns(V13*D
p879
L9L
L-12L
tp880
g8
s(V13*AD
p881
L6L
L-12L
tp882
g8
s(V17*
p883
L4L
L-12L
tp884
g3
s(V10*
p885
L11L
L-12L
tp886
g8
s(V21*
p887
L3L
L-12L
tp888
g3
s(V17*AD
p889
L6L
L-12L
tp890
g151
s(L6L
L20L
Ntp891
Ns(L8L
L26L
Ntp892
Ns(V7*D
p893
L10L
L-12L
tp894
g8
s(L12L
L24L
Ntp895
Ns(V19*
p896
L7L
L-12L
tp897
g3
s(V17*A
p898
L7L
L-12L
tp899
g8
s(V10*DS
p900
L11L
L-12L
tp901
g8
s(V18*D
p902
L9L
L-12L
tp903
g3
s(V19*AD
p904
L2L
L-12L
tp905
g3
s(V8*DS
p906
L2L
L-12L
tp907
g8
s(V11*D
p908
L2L
L-12L
tp909
g151
s(V13*A
p910
L3L
L-12L
tp911
g8
s(L27L
NNtp912
Ns(V20*D
p913
L9L
L-12L
tp914
g3
s(V9*D
p915
L3L
L-12L
tp916
g8
s(V10*D
p917
L4L
L-12L
tp918
g8
s(V18*
p919
L8L
L-12L
tp920
g3
s(L10L
L23L
Ntp921
Ns(V12*D
p922
L3L
L-12L
tp923
g8
s(V9*
p924
L10L
L-12L
tp925
g8
s(V14*DS
p926
L3L
L-12L
tp927
g8
s(V14*AD
p928
L2L
L-12L
tp929
g8
s(V8*D
p930
L6L
L-12L
tp931
g8
s(V20*
p932
L7L
L-12L
tp933
g3
s(g828
L11L
L-12L
tp934
g8
s(V20*DS
p935
L3L
L-12L
tp936
g3
s(V15*D
p937
L6L
L-12L
tp938
g8
s(V21*A
p939
L6L
L-12L
tp940
g3
s(V16*DS
p941
L8L
L-12L
tp942
g8
s(L9L
L25L
Ntp943
Ns(V11*D
p944
L8L
L-12L
tp945
g8
s(V20*AD
p946
L6L
L-12L
tp947
g3
s(L9L
L23L
Ntp948
Ns(V16*A
p949
L9L
L-12L
tp950
g8
s(L9L
L20L
Ntp951
Ns(V7*
p952
L8L
L-12L
tp953
g8
s(L16L
L19L
Ntp954
Ns(V14*DS
p955
L5L
L-12L
tp956
g8
s(V14*A
p957
L6L
L-12L
tp958
g8
s(V15*AD
p959
L21L
Ntp960
Ns(V23*
p961
NNtp962
Ns(V21*
p963
L5L
L-12L
tp964
g3
s(V16*
p965
L9L
L-12L
tp966
g8
s(L11L
L24L
Ntp967
Ns(g959
L11L
L-12L
tp968
g8
s(V7*D
p969
L4L
L-12L
tp970
g8
s(V13*
p971
L5L
L-12L
tp972
g8
s(V6*
p973
L6L
L-12L
tp974
g8
s(V15*A
p975
L10L
L-12L
tp976
g8
s(L29L
NNtp977
Ns(V18*AD
p978
L4L
L-12L
tp979
g3
s(V18*D
p980
L3L
L-12L
tp981
g3
s(V17*D
p982
L9L
L-12L
tp983
g3
s(L21L
L24L
Ntp984
Ns(L14L
L25L
Ntp985
Ns(V17*
p986
L8L
L-12L
tp987
g3
s(L10L
L18L
Ntp988
Ns(V10*
p989
L7L
L-12L
tp990
g8
s(L10L
L17L
Ntp991
Ns(V14*
p992
L7L
L-12L
tp993
g8
s(V18*A
p994
L3L
L-12L
tp995
g3
s(V12*DS
p996
L7L
L-12L
tp997
g8
s(V19*A
p998
L8L
L-12L
tp999
g3
s(L8L
L17L
Ntp1000
Ns(L18L
L19L
Ntp1001
Ns(V20*DS
p1002
L9L
L-12L
tp1003
g3
s(g777
L11L
L-12L
tp1004
g8
s(V17*D
p1005
L5L
L-12L
tp1006
g3
s(L21L
L23L
Ntp1007
Ns(V16*DS
p1008
L6L
L-12L
tp1009
g3
s(V16*AD
p1010
L6L
L-12L
tp1011
g151
s(V12*
p1012
L2L
L-12L
tp1013
g8
s(V7*
p1014
L2L
L-12L
tp1015
g8
s(V9*
p1016
L6L
L-12L
tp1017
g8
s(V18*
p1018
L4L
L-12L
tp1019
g3
s(V20*A
p1020
L2L
L-12L
tp1021
g3
s(V6*DS
p1022
L5L
L-12L
tp1023
g8
s(V18*A
p1024
L9L
L-12L
tp1025
g8
s(V8*D
p1026
L10L
L-12L
tp1027
g8
s(V19*
p1028
L8L
L-12L
tp1029
g3
s(V15*
p1030
L7L
L-12L
tp1031
g8
s(V16*D
p1032
L7L
L-12L
tp1033
g8
s(V15*D
p1034
L10L
L-12L
tp1035
g8
s(V16*AD
p1036
L10L
L-12L
tp1037
g8
s(L16L
L26L
Ntp1038
Ns(g319
L11L
L-12L
tp1039
g8
s(V6*
p1040
L8L
L-12L
tp1041
g8
s(V5*D
p1042
L6L
L-12L
tp1043
g8
s(L9L
L18L
Ntp1044
Ns(V20*D
p1045
L6L
L-12L
tp1046
g3
s(g870
L11L
L-12L
tp1047
g8
s(g49
L21L
Ntp1048
Ns(V21*A
p1049
L8L
L-12L
tp1050
g3
s(V7*
p1051
L4L
L-12L
tp1052
g8
s(V14*AD
p1053
L9L
L-12L
tp1054
g8
s(g497
L21L
Ntp1055
Ns(V19*D
p1056
L7L
L-12L
tp1057
g3
s(V6*DS
p1058
L3L
L-12L
tp1059
g8
s(V16*
p1060
L7L
L-12L
tp1061
g8
s(V19*A
p1062
L2L
L-12L
tp1063
g3
s(V19*
p1064
L2L
L-12L
tp1065
g3
s(L23L
NNtp1066
Ns(L8L
L20L
Ntp1067
Ns(L8L
L23L
Ntp1068
Ns(V14*D
p1069
L6L
L-12L
tp1070
g8
s(L21L
L7L
L-12L
tp1071
g3
s(V15*A
p1072
L6L
L-12L
tp1073
g8
s(V16*A
p1074
L6L
L-12L
tp1075
g8
s(V13*A
p1076
L6L
L-12L
tp1077
g8
s(V19*D
p1078
L21L
Ntp1079
Ns(V13*D
p1080
L2L
L-12L
tp1081
g8
s(V13*AD
p1082
L3L
L-12L
tp1083
g8
s(L21L
L20L
Ntp1084
Ns(V14*D
p1085
L21L
Ntp1086
Ns(L16L
L21L
Ntp1087
Ns(V11*
p1088
L6L
L-12L
tp1089
g8
s(g66
L11L
L-12L
tp1090
g8
s(L19L
L17L
Ntp1091
Ns(V21*
p1092
L8L
L-12L
tp1093
g3
s(g120
L11L
L-12L
tp1094
g8
s(V20*
p1095
L10L
L-12L
tp1096
g3
s(V19*A
p1097
L4L
L-12L
tp1098
g3
s(L21L
L11L
L-12L
tp1099
g3
s(V14*D
p1100
L10L
L-12L
tp1101
g8
s(V17*D
p1102
L8L
L-12L
tp1103
g3
s(L20L
L24L
Ntp1104
Ns(V8*DS
p1105
L3L
L-12L
tp1106
g8
s(V18*AD
p1107
L11L
L-12L
tp1108
g8
s(L20L
L18L
Ntp1109
Ns(V
p1110
g1110
L-12L
tp1111
VBegin
p1112
s(L15L
L23L
Ntp1113
Ns(V17*
p1114
L3L
L-12L
tp1115
g3
s(V14*AD
p1116
L3L
L-12L
tp1117
g8
s(V17*AD
p1118
L7L
L-12L
tp1119
g8
s(V15*AD
p1120
L6L
L-12L
tp1121
g8
s(L17L
L22L
Ntp1122
Ns(L8L
L25L
Ntp1123
Ns(L20L
L20L
Ntp1124
Ns(V16*AD
p1125
L7L
L-12L
tp1126
g8
s(V19*
p1127
L4L
L-12L
tp1128
g3
s(V16*DS
p1129
L9L
L-12L
tp1130
g8
s(L14L
L26L
Ntp1131
Ns(V17*A
p1132
L4L
L-12L
tp1133
g8
s(V10*DS
p1134
L4L
L-12L
tp1135
g8
s(V18*D
p1136
L6L
L-12L
tp1137
g3
s(V11*D
p1138
L3L
L-12L
tp1139
g151
s(V9*D
p1140
L2L
L-12L
tp1141
g8
s(V10*D
p1142
L5L
L-12L
tp1143
g8
s(V13*D
p1144
L8L
L-12L
tp1145
g8
s(V20*D
p1146
L8L
L-12L
tp1147
g3
s(V18*
p1148
L11L
L-12L
tp1149
g3
s(L21L
L17L
Ntp1150
Ns(g1107
L21L
Ntp1151
Ns(V8*D
p1152
L5L
L-12L
tp1153
g8
s(L15L
L24L
Ntp1154
Ns(V21*
p1155
L2L
L-12L
tp1156
g3
s(L19L
L24L
Ntp1157
Ns(V20*
p1158
L4L
L-12L
tp1159
g3
s(L4L
L17L
Ntp1160
Ns(L19L
L18L
Ntp1161
Ns(V13*
p1162
L4L
L-12L
tp1163
g8
s(V20*DS
p1164
L4L
L-12L
tp1165
g3
s(V6*
p1166
L7L
L-12L
tp1167
g8
s(V15*D
p1168
L5L
L-12L
tp1169
g8
s(V21*A
p1170
L5L
L-12L
tp1171
g3
s(L9L
L26L
Ntp1172
Ns(L18L
L25L
Ntp1173
Ns(V16*A
p1174
L10L
L-12L
tp1175
g8
s(V10*
p1176
L2L
L-12L
tp1177
g8
s(L16L
L25L
Ntp1178
Ns(V6*DS
p1179
L8L
L-12L
tp1180
g8
s(V21*
p1181
L4L
L-12L
tp1182
g3
s(V16*
p1183
L10L
L-12L
tp1184
g8
s(V15*AD
p1185
L8L
L-12L
tp1186
g8
s(V14*D
p1187
L7L
L-12L
tp1188
g8
s(L21L
L6L
L-12L
tp1189
g3
s(g1148
L21L
Ntp1190
Ns(V7*D
p1191
L5L
L-12L
tp1192
g8
s(L8L
L22L
Ntp1193
Ns(V17*D
p1194
L4L
L-12L
tp1195
g3
s(V15*A
p1196
L11L
L-12L
tp1197
g8
s(L20L
L23L
Ntp1198
Ns(V10*DS
p1199
L2L
L-12L
tp1200
g8
s(V18*AD
p1201
L7L
L-12L
tp1202
g3
s(g323
L21L
Ntp1203
Ns(V11*D
p1204
L9L
L-12L
tp1205
g8
s(V20*AD
p1206
L7L
L-12L
tp1207
g3
s(V25*
p1208
NNtp1209
Ns(V9*
p1210
L3L
L-12L
tp1211
g8
s(V19*AD
p1212
L7L
L-12L
tp1213
g3
s(L18L
L18L
Ntp1214
Ns(L10L
L21L
Ntp1215
Ns(g317
L21L
Ntp1216
Ns(V19*D
p1217
L10L
L-12L
tp1218
g3
s(g1196
L21L
Ntp1219
Ns(V14*A
p1220
L7L
L-12L
tp1221
g8
s(V18*A
p1222
L2L
L-12L
tp1223
g3
s(V12*D
p1224
L6L
L-12L
tp1225
g8
s(V12*DS
p1226
L6L
L-12L
tp1227
g8
s(L17L
L26L
Ntp1228
Ns(V20*A
p1229
L9L
L-12L
tp1230
g3
s(L19L
L23L
Ntp1231
Ns(g516
L11L
L-12L
tp1232
g8
s(V16*D
p1233
L2L
L-12L
tp1234
g8
s(V20*DS
p1235
L10L
L-12L
tp1236
g3
s(L20L
L26L
Ntp1237
Ns(V17*A
p1238
L8L
L-12L
tp1239
g8
s(V16*DS
p1240
L7L
L-12L
tp1241
g8
s(V5*D
p1242
L3L
L-12L
tp1243
g8
s(L9L
L21L
Ntp1244
Ns(g440
L11L
L-12L
tp1245
g3
s(V21*A
p1246
L3L
L-12L
tp1247
g3
s(V18*
p1248
L7L
L-12L
tp1249
g3
s(V11*
p1250
L11L
L-12L
tp1251
g8
s(g900
L21L
Ntp1252
Ns(V12*D
p1253
L10L
L-12L
tp1254
g8
s(V20*A
p1255
L5L
L-12L
tp1256
g3
s(V6*DS
p1257
L6L
L-12L
tp1258
g8
s(V8*D
p1259
L9L
L-12L
tp1260
g8
s(L15L
L20L
Ntp1261
Ns(g243
L21L
Ntp1262
Ns(V19*
p1263
L9L
L-12L
tp1264
g3
s(V15*D
p1265
L9L
L-12L
tp1266
g8
s(V13*
p1267
L10L
L-12L
tp1268
g8
s(V6*
p1269
L9L
L-12L
tp1270
g8
s(V5*D
p1271
L9L
L-12L
tp1272
g8
s(V10*D
p1273
L8L
L-12L
tp1274
g8
s(V20*D
p1275
L5L
L-12L
tp1276
g3
s(L21L
L25L
Ntp1277
Ns(V14*AD
p1278
L6L
L-12L
tp1279
g8
s(V20*
p1280
L21L
Ntp1281
Ns(g190
L21L
Ntp1282
Ns(L14L
L21L
Ntp1283
Ns(V19*D
p1284
L4L
L-12L
tp1285
g3
s(g1280
L11L
L-12L
tp1286
g3
s(V18*A
p1287
L8L
L-12L
tp1288
g3
s(L19L
L26L
Ntp1289
Ns(g1085
L11L
L-12L
tp1290
g8
s(L21L
L10L
L-12L
tp1291
g3
s(V18*DS
p1292
L10L
L-12L
tp1293
g3
s(L8L
L19L
Ntp1294
Ns(V16*A
p1295
L21L
Ntp1296
Ns(V15*
p1297
L6L
L-12L
tp1298
g8
s(V15*A
p1299
L7L
L-12L
tp1300
g8
s(V16*A
p1301
L7L
L-12L
tp1302
g8
s(V17*
p1303
L2L
L-12L
tp1304
g3
s(V13*D
p1305
L5L
L-12L
tp1306
g8
s(V13*AD
p1307
L2L
L-12L
tp1308
g8
s(V16*
p1309
L21L
Ntp1310
Ns(L16L
L17L
Ntp1311
Ns(V11*
p1312
L5L
L-12L
tp1313
g8
s(V12*
p1314
L7L
L-12L
tp1315
g8
s(V15*AD
p1316
L7L
L-12L
tp1317
g8
s(V17*AD
p1318
L2L
L-12L
tp1319
g8
s(V7*D
p1320
L8L
L-12L
tp1321
g8
s(V18*DS
p1322
L6L
L-12L
tp1323
g3
s(L15L
L18L
Ntp1324
Ns(g276
L11L
L-12L
tp1325
g8
s(V19*
p1326
L3L
L-12L
tp1327
g3
s(L20L
L22L
Ntp1328
Ns(V18*AD
p1329
L10L
L-12L
tp1330
g8
s(L20L
L17L
Ntp1331
Ns(V19*AD
p1332
L6L
L-12L
tp1333
g3
s(L22L
NNtp1334
Ns(V13*A
p1335
L7L
L-12L
tp1336
g8
s(g413
L11L
L-12L
tp1337
g8
s(V12*D
p1338
L7L
L-12L
tp1339
g8
s(V9*D
p1340
L9L
L-12L
tp1341
g8
s(V20*D
p1342
L3L
L-12L
tp1343
g3
s(V20*A
p1344
L8L
L-12L
tp1345
g3
s(g143
L21L
Ntp1346
Ns(V17*AD
p1347
L8L
L-12L
tp1348
g8
s(L17L
L18L
Ntp1349
Ns(V8*
p1350
L2L
L-12L
tp1351
g8
s(g145
L11L
L-12L
tp1352
g8
s(L17L
L24L
Ntp1353
Ns(V20*DS
p1354
L5L
L-12L
tp1355
g3
s(L19L
L25L
Ntp1356
Ns(V16*AD
p1357
L4L
L-12L
tp1358
g8
s(V19*
p1359
L5L
L-12L
tp1360
g3
s(V16*DS
p1361
L10L
L-12L
tp1362
g8
s(V17*A
p1363
L5L
L-12L
tp1364
g8
s(V21*A
p1365
L2L
L-12L
tp1366
g3
s(V11*D
p1367
L4L
L-12L
tp1368
g151
s(V20*AD
p1369
L10L
L-12L
tp1370
g3
s(L21L
L21L
Ntp1371
Ns(V10*D
p1372
L2L
L-12L
tp1373
g8
s(V9*D
p1374
L5L
L-12L
tp1375
g8
s(V13*D
p1376
L11L
L-12L
tp1377
g8
s(L21L
L18L
Ntp1378
Ns(V18*
p1379
L10L
L-12L
tp1380
g3
s(L14L
L19L
Ntp1381
Ns(V6*DS
p1382
L9L
L-12L
tp1383
g8
s(L16L
L23L
Ntp1384
Ns(V14*A
p1385
L10L
L-12L
tp1386
g8
s(V4*DS
p1387
L7L
L-12L
tp1388
g8
s(V8*D
p1389
L4L
L-12L
tp1390
g8
s(L4L
L21L
Ntp1391
Ns(L12L
L22L
Ntp1392
Ns(V20*
p1393
L5L
L-12L
tp1394
g3
s(L12L
L17L
Ntp1395
Ns(V13*
p1396
L7L
L-12L
tp1397
g8
s(V6*
p1398
L4L
L-12L
tp1399
g8
s(V15*D
p1400
L4L
L-12L
tp1401
g8
s(V21*A
p1402
L4L
L-12L
tp1403
g3
s(V10*DS
p1404
L5L
L-12L
tp1405
g8
s(V18*D
p1406
L7L
L-12L
tp1407
g3
s(g1295
L11L
L-12L
tp1408
g8
s(V8*DS
p1409
L6L
L-12L
tp1410
g8
s(g1078
L11L
L-12L
tp1411
g3
s(V10*
p1412
L3L
L-12L
tp1413
g8
s(V22*
p1414
NNtp1415
Ns(g725
L11L
L-12L
tp1416
g3
s(g1309
L11L
L-12L
tp1417
g8
s(L6L
L22L
Ntp1418
Ns(V15*AD
p1419
L9L
L-12L
tp1420
g8
s(V14*D
p1421
L4L
L-12L
tp1422
g8
s(V12*DS
p1423
L3L
L-12L
tp1424
g8
s(L21L
L5L
L-12L
tp1425
g3
s(g1376
L21L
Ntp1426
Ns(V12*ADS
p1427
L2L
L-12L
tp1428
g8
s(V7*D
p1429
L2L
L-12L
tp1430
g8
s(V8*
p1431
L4L
L-12L
tp1432
g8
s.