(dp0
(L13L
L21L
Ntp1
Ns(V14*A
p2
L4L
L14L
tp3
VDraw
p4
s(L13L
L18L
Ntp5
Ns(V8*DS
p6
L6L
L14L
tp7
VDouble
p8
s(L13L
L24L
Ntp9
Ns(V12*D
p10
L21L
Ntp11
Ns(V11*D
p12
L10L
L14L
tp13
g8
s(V17*D
p14
L8L
L14L
tp15
VStay
p16
s(V8*DS
p17
L10L
L14L
tp18
g4
s(V20*AD
p19
L4L
L14L
tp20
g16
s(L6L
L26L
Ntp21
Ns(V13*
p22
L7L
L14L
tp23
g4
s(V6*
p24
L4L
L14L
tp25
g4
s(V6*DS
p26
L3L
L14L
tp27
g4
s(V19*
p28
L21L
Ntp29
Ns(L15L
L26L
Ntp30
Ns(V7*D
p31
L2L
L14L
tp32
g4
s(V21*
p33
L8L
L14L
tp34
g16
s(V14*AD
p35
L9L
L14L
tp36
g4
s(V14*D
p37
L4L
L14L
tp38
g16
s(V12*DS
p39
L3L
L14L
tp40
g16
s(L21L
L5L
L14L
tp41
g16
s(L19L
L19L
Ntp42
Ns(L19L
L20L
Ntp43
Ns(V11*
p44
L6L
L14L
tp45
g4
s(V7*
p46
L4L
L14L
tp47
g4
s(V13*D
p48
L2L
L14L
tp49
g16
s(V10*D
p50
L11L
L14L
tp51
g8
s(V20*D
p52
L6L
L14L
tp53
g16
s(V5*D
p54
L6L
L14L
tp55
g4
s(L17L
L21L
Ntp56
Ns(V15*D
p57
L10L
L14L
tp58
g16
s(V14*
p59
L21L
Ntp60
Ns(V16*D
p61
L7L
L14L
tp62
g16
s(V19*A
p63
L2L
L14L
tp64
g16
s(V16*
p65
L7L
L14L
tp66
g16
s(V16*DS
p67
L10L
L14L
tp68
g16
s(V8*D
p69
L10L
L14L
tp70
g4
s(V4*DS
p71
L11L
L14L
tp72
g4
s(V19*D
p73
L7L
L14L
tp74
g16
s(V8*
p75
L2L
L14L
tp76
g4
s(V18*
p77
L4L
L14L
tp78
g16
s(V17*AD
p79
L8L
L14L
tp80
g4
s(V9*
p81
L6L
L14L
tp82
g4
s(V4*DS
p83
L7L
L14L
tp84
g4
s(V12*
p85
L2L
L14L
tp86
g16
s(V9*D
p87
L9L
L14L
tp88
g4
s(V20*D
p89
L3L
L14L
tp90
g16
s(V14*A
p91
L10L
L14L
tp92
g4
s(V21*A
p93
L8L
L14L
tp94
g16
s(V17*A
p95
L11L
L14L
tp96
g4
s(L4L
L24L
Ntp97
Ns(V13*D
p98
L11L
L14L
tp99
g4
s(V10*D
p100
L2L
L14L
tp101
g8
s(V9*D
p102
L5L
L14L
tp103
g8
s(L4L
L18L
Ntp104
Ns(V11*D
p105
L4L
L14L
tp106
g8
s(V20*AD
p107
L10L
L14L
tp108
g16
s(L14L
L17L
Ntp109
Ns(L18L
L22L
Ntp110
Ns(V16*AD
p111
L4L
L14L
tp112
g8
s(V6*DS
p113
L5L
L14L
tp114
g4
s(V20*A
p115
L2L
L14L
tp116
g16
s(V7*D
p117
L8L
L14L
tp118
g4
s(V17*
p119
L8L
L14L
tp120
g16
s(V10*
p121
L7L
L14L
tp122
g4
s(V13*A
p123
L21L
Ntp124
Ns(V12*
p125
L7L
L14L
tp126
g4
s(L4L
L20L
Ntp127
Ns(V7*
p128
L2L
L14L
tp129
g4
s(V18*AD
p130
L4L
L14L
tp131
g8
s(V18*D
p132
L3L
L14L
tp133
g16
s(V12*
p134
L11L
L14L
tp135
g4
s(V7*D
p136
L21L
Ntp137
Ns(V20*DS
p138
L9L
L14L
tp139
g16
s(V19*A
p140
L8L
L14L
tp141
g16
s(V16*
p142
L9L
L14L
tp143
g16
s(V18*DS
p144
L10L
L14L
tp145
g16
s(V17*D
p146
L11L
L14L
tp147
g16
s(L15L
L22L
Ntp148
Ns(V14*DS
p149
L5L
L14L
tp150
g16
s(V18*DS
p151
L6L
L14L
tp152
g16
s(V14*
p153
L7L
L14L
tp154
g4
s(V8*D
p155
L21L
Ntp156
Ns(V17*AD
p157
L2L
L14L
tp158
g8
s(g71
L21L
Ntp159
Ns(L13L
L19L
Ntp160
Ns(V14*AD
p161
L6L
L14L
tp162
g8
s(L20L
L21L
Ntp163
Ns(V16*A
p164
L9L
L14L
tp165
g4
s(V11*
p166
L5L
L14L
tp167
g4
s(V14*A
p168
L21L
Ntp169
Ns(V21*A
p170
L6L
L14L
tp171
g16
s(L6L
L17L
Ntp172
Ns(L17L
L25L
Ntp173
Ns(V13*D
p174
L5L
L14L
tp175
g16
s(V10*D
p176
L8L
L14L
tp177
g8
s(V20*D
p178
L5L
L14L
tp179
g16
s(V5*D
p180
L9L
L14L
tp181
g4
s(V15*D
p182
L9L
L14L
tp183
g16
s(V15*AD
p184
L11L
L14L
tp185
g4
s(V8*D
p186
L9L
L14L
tp187
g4
s(V12*D
p188
L3L
L14L
tp189
g16
s(L19L
L21L
Ntp190
Ns(L19L
L22L
Ntp191
Ns(L16L
L22L
Ntp192
Ns(V13*A
p193
L3L
L14L
tp194
g4
s(V19*D
p195
L4L
L14L
tp196
g16
s(V7*
p197
L8L
L14L
tp198
g4
s(V18*
p199
L7L
L14L
tp200
g16
s(V19*AD
p201
L2L
L14L
tp202
g8
s(V21*A
p203
L3L
L14L
tp204
g16
s(V10*DS
p205
L11L
L14L
tp206
g8
s(V18*D
p207
L9L
L14L
tp208
g16
s(V19*
p209
L7L
L14L
tp210
g16
s(L21L
L22L
Ntp211
Ns(V15*D
p212
L6L
L14L
tp213
g16
s(V16*D
p214
L11L
L14L
tp215
g16
s(V20*DS
p216
L3L
L14L
tp217
g16
s(V17*A
p218
L8L
L14L
tp219
g4
s(V20*
p220
L7L
L14L
tp221
g16
s(V8*D
p222
L6L
L14L
tp223
g8
s(V12*D
p224
L6L
L14L
tp225
g16
s(L12L
L21L
Ntp226
Ns(V20*A
p227
L9L
L14L
tp228
g16
s(V14*DS
p229
L3L
L14L
tp230
g16
s(V13*AD
p231
L6L
L14L
tp232
g8
s(V6*DS
p233
L6L
L14L
tp234
g4
s(V18*
p235
L8L
L14L
tp236
g16
s(V12*D
p237
L10L
L14L
tp238
g4
s(V20*A
p239
L5L
L14L
tp240
g16
s(V9*
p241
L10L
L14L
tp242
g4
s(V19*AD
p243
L7L
L14L
tp244
g16
s(V16*A
p245
L3L
L14L
tp246
g4
s(L20L
L19L
Ntp247
Ns(V11*
p248
L11L
L14L
tp249
g4
s(L4L
L26L
Ntp250
Ns(V15*
p251
L2L
L14L
tp252
g16
s(V12*ADS
p253
L11L
L14L
tp254
g4
s(L17L
L19L
Ntp255
Ns(V19*AD
p256
L11L
L14L
tp257
g16
s(V17*A
p258
L7L
L14L
tp259
g4
s(V10*DS
p260
L2L
L14L
tp261
g8
s(V18*AD
p262
L7L
L14L
tp263
g16
s(V5*D
p264
L3L
L14L
tp265
g4
s(L11L
L21L
Ntp266
Ns(V16*D
p267
L2L
L14L
tp268
g16
s(V20*DS
p269
L10L
L14L
tp270
g16
s(L11L
L22L
Ntp271
Ns(L6L
L24L
Ntp272
Ns(V16*
p273
L10L
L14L
tp274
g16
s(V17*
p275
L4L
L14L
tp276
g16
s(V10*
p277
L11L
L14L
tp278
g4
s(L13L
L22L
Ntp279
Ns(V13*A
p280
L9L
L14L
tp281
g4
s(V19*D
p282
L10L
L14L
tp283
g16
s(V15*A
p284
L5L
L14L
tp285
g4
s(g146
L21L
Ntp286
Ns(V9*
p287
L3L
L14L
tp288
g4
s(V18*AD
p289
L8L
L14L
tp290
g16
s(V16*A
p291
L10L
L14L
tp292
g4
s(V12*DS
p293
L10L
L14L
tp294
g4
s(V21*A
p295
L5L
L14L
tp296
g16
s(L24L
NNtp297
Ns(V15*AD
p298
L8L
L14L
tp299
g4
s(L12L
L19L
Ntp300
Ns(V14*DS
p301
L9L
L14L
tp302
g4
s(L12L
L26L
Ntp303
Ns(V6*DS
p304
L21L
Ntp305
Ns(V6*DS
p306
L8L
L14L
tp307
g4
s(V21*
p308
L21L
Ntp309
Ns(V6*D
p310
L5L
L14L
tp311
g8
s(V16*DS
p312
L3L
L14L
tp313
g16
s(L17L
L17L
Ntp314
Ns(V16*A
p315
L5L
L14L
tp316
g4
s(V10*
p317
L2L
L14L
tp318
g4
s(V13*
p319
L21L
Ntp320
Ns(V15*
p321
L8L
L14L
tp322
g16
s(V10*DS
p323
L4L
L14L
tp324
g8
s(V18*D
p325
L6L
L14L
tp326
g16
s(V24*
p327
NNtp328
Ns(V8*
p329
L11L
L14L
tp330
g4
s(V19*
p331
L4L
L14L
tp332
g16
s(V18*A
p333
L6L
L14L
tp334
g16
s(V15*D
p335
L5L
L14L
tp336
g16
s(L10L
L22L
Ntp337
Ns(V20*DS
p338
L4L
L14L
tp339
g16
s(V14*A
p340
L3L
L14L
tp341
g4
s(V20*
p342
L4L
L14L
tp343
g16
s(L6L
L18L
Ntp344
Ns(V20*AD
p345
L21L
Ntp346
Ns(V8*D
p347
L5L
L14L
tp348
g8
s(V20*AD
p349
L3L
L14L
tp350
g16
s(V8*DS
p351
L9L
L14L
tp352
g4
s(L13L
L25L
Ntp353
Ns(L4L
L22L
Ntp354
Ns(V18*
p355
L11L
L14L
tp356
g16
s(V13*
p357
L8L
L14L
tp358
g4
s(V6*
p359
L11L
L14L
tp360
g4
s(V
p361
g361
L14L
tp362
VBegin
p363
s(L18L
L20L
Ntp364
Ns(g28
L11L
L14L
tp365
g16
s(V14*D
p366
L3L
L14L
tp367
g16
s(V12*DS
p368
L4L
L14L
tp369
g16
s(L21L
L2L
L14L
tp370
g16
s(L18L
L26L
Ntp371
Ns(V17*A
p372
L4L
L14L
tp373
g4
s(L11L
L26L
Ntp374
Ns(g253
L21L
Ntp375
Ns(L11L
L25L
Ntp376
Ns(V15*AD
p377
L6L
L14L
tp378
g8
s(V13*AD
p379
L10L
L14L
tp380
g4
s(V6*D
p381
L3L
L14L
tp382
g4
s(V16*DS
p383
L5L
L14L
tp384
g16
s(V17*D
p385
L2L
L14L
tp386
g16
s(V17*
p387
L3L
L14L
tp388
g16
s(L10L
L26L
Ntp389
Ns(V13*A
p390
L6L
L14L
tp391
g4
s(L10L
L25L
Ntp392
Ns(V12*ADS
p393
L7L
L14L
tp394
g4
s(V15*A
p395
L6L
L14L
tp396
g4
s(V14*D
p397
L6L
L14L
tp398
g16
s(L21L
L7L
L14L
tp399
g16
s(V18*AD
p400
L11L
L14L
tp401
g16
s(V17*AD
p402
L11L
L14L
tp403
g4
s(V21*
p404
L6L
L14L
tp405
g16
s(V19*
p406
L2L
L14L
tp407
g16
s(V4*DS
p408
L4L
L14L
tp409
g4
s(V14*D
p410
L10L
L14L
tp411
g4
s(L21L
L11L
L14L
tp412
g16
s(g134
L21L
Ntp413
Ns(V14*A
p414
L9L
L14L
tp415
g4
s(V20*
p416
L10L
L14L
tp417
g16
s(V9*D
p418
L6L
L14L
tp419
g8
s(L13L
L20L
Ntp420
Ns(V11*D
p421
L7L
L14L
tp422
g8
s(V20*AD
p423
L9L
L14L
tp424
g16
s(V13*AD
p425
L3L
L14L
tp426
g8
s(V15*A
p427
L9L
L14L
tp428
g4
s(V26*
p429
NNtp430
Ns(V13*
p431
L2L
L14L
tp432
g16
s(V16*AD
p433
L3L
L14L
tp434
g8
s(g256
L21L
Ntp435
Ns(V16*A
p436
L6L
L14L
tp437
g4
s(V7*D
p438
L7L
L14L
tp439
g4
s(L14L
L23L
Ntp440
Ns(V15*
p441
L7L
L14L
tp442
g16
s(L28L
NNtp443
Ns(L12L
L18L
Ntp444
Ns(V18*A
p445
L9L
L14L
tp446
g4
s(L16L
L18L
Ntp447
Ns(V12*
p448
L8L
L14L
tp449
g4
s(V6*D
p450
L9L
L14L
tp451
g4
s(V16*AD
p452
L6L
L14L
tp453
g8
s(L9L
L19L
Ntp454
Ns(V18*DS
p455
L5L
L14L
tp456
g16
s(g319
L11L
L14L
tp457
g4
s(V6*
p458
L8L
L14L
tp459
g4
s(V16*AD
p460
L10L
L14L
tp461
g4
s(V8*
p462
L7L
L14L
tp463
g4
s(V17*AD
p464
L5L
L14L
tp465
g8
s(V19*
p466
L8L
L14L
tp467
g16
s(V4*DS
p468
L2L
L14L
tp469
g4
s(V14*AD
p470
L5L
L14L
tp471
g8
s(V12*DS
p472
L7L
L14L
tp473
g4
s(V11*
p474
L2L
L14L
tp475
g4
s(L14L
L24L
Ntp476
Ns(V13*D
p477
L6L
L14L
tp478
g16
s(V10*D
p479
L7L
L14L
tp480
g8
s(V20*D
p481
L10L
L14L
tp482
g16
s(V5*D
p483
L10L
L14L
tp484
g4
s(L13L
L17L
Ntp485
Ns(L13L
L23L
Ntp486
Ns(L6L
L23L
Ntp487
Ns(V8*DS
p488
L5L
L14L
tp489
g8
s(V17*D
p490
L9L
L14L
tp491
g16
s(V19*A
p492
L6L
L14L
tp493
g16
s(V16*
p494
L3L
L14L
tp495
g16
s(V16*DS
p496
L6L
L14L
tp497
g16
s(V17*D
p498
L5L
L14L
tp499
g16
s(L11L
L18L
Ntp500
Ns(V16*AD
p501
L21L
Ntp502
Ns(V19*D
p503
L3L
L14L
tp504
g16
s(V14*
p505
L9L
L14L
tp506
g4
s(V21*
p507
L5L
L14L
tp508
g16
s(L18L
L23L
Ntp509
Ns(V18*A
p510
L3L
L14L
tp511
g16
s(V11*D
p512
L21L
Ntp513
Ns(V14*A
p514
L6L
L14L
tp515
g4
s(V14*AD
p516
L21L
Ntp517
Ns(L15L
L17L
Ntp518
Ns(L10L
L24L
Ntp519
Ns(V11*D
p520
L8L
L14L
tp521
g8
s(V20*AD
p522
L6L
L14L
tp523
g16
s(V15*A
p524
L10L
L14L
tp525
g4
s(V18*DS
p526
L3L
L14L
tp527
g16
s(V13*
p528
L5L
L14L
tp529
g16
s(V6*
p530
L6L
L14L
tp531
g4
s(V8*DS
p532
L21L
Ntp533
Ns(V12*D
p534
L9L
L14L
tp535
g4
s(V7*D
p536
L4L
L14L
tp537
g8
s(L17L
L20L
Ntp538
Ns(V21*
p539
L10L
L14L
tp540
g16
s(V4*DS
p541
L8L
L14L
tp542
g4
s(L12L
L23L
Ntp543
Ns(g516
L11L
L14L
tp544
g4
s(V20*A
p545
L6L
L14L
tp546
g16
s(V11*
p547
L8L
L14L
tp548
g4
s(L12L
L25L
Ntp549
Ns(V7*
p550
L6L
L14L
tp551
g4
s(V19*AD
p552
L8L
L14L
tp553
g16
s(V9*D
p554
L10L
L14L
tp555
g4
s(V5*D
p556
L4L
L14L
tp557
g4
s(V19*A
p558
L21L
Ntp559
Ns(V16*D
p560
L5L
L14L
tp561
g16
s(V16*
p562
L5L
L14L
tp563
g16
s(V16*DS
p564
L8L
L14L
tp565
g16
s(L11L
L23L
Ntp566
Ns(L11L
L17L
Ntp567
Ns(L4L
L25L
Ntp568
Ns(V19*D
p569
L9L
L14L
tp570
g16
s(V14*
p571
L3L
L14L
tp572
g16
s(L4L
L19L
Ntp573
Ns(V18*
p574
L2L
L14L
tp575
g16
s(V17*AD
p576
L6L
L14L
tp577
g8
s(L16L
L20L
Ntp578
Ns(V21*
p579
L3L
L14L
tp580
g16
s(V9*
p581
L4L
L14L
tp582
g4
s(L18L
L17L
Ntp583
Ns(V14*AD
p584
L2L
L14L
tp585
g4
s(V12*
p586
L4L
L14L
tp587
g16
s(L9L
L24L
Ntp588
Ns(V21*A
p589
L10L
L14L
tp590
g16
s(L13L
L26L
Ntp591
Ns(V13*D
p592
L9L
L14L
tp593
g4
s(V20*D
p594
L9L
L14L
tp595
g16
s(V9*D
p596
L3L
L14L
tp597
g8
s(V10*D
p598
L4L
L14L
tp599
g8
s(L30L
NNtp600
Ns(V11*D
p601
L2L
L14L
tp602
g8
s(V8*DS
p603
L2L
L14L
tp604
g8
s(V18*DS
p605
L9L
L14L
tp606
g16
s(V19*A
p607
L5L
L14L
tp608
g16
s(g304
L11L
L14L
tp609
g4
s(L16L
L24L
Ntp610
Ns(V7*D
p611
L10L
L14L
tp612
g4
s(V17*
p613
L10L
L14L
tp614
g16
s(V10*
p615
L5L
L14L
tp616
g4
s(L12L
L20L
Ntp617
Ns(V14*
p618
L10L
L14L
tp619
g4
s(V10*DS
p620
L7L
L14L
tp621
g8
s(V18*AD
p622
L2L
L14L
tp623
g8
s(V18*D
p624
L5L
L14L
tp625
g16
s(L17L
L23L
Ntp626
Ns(L6L
L21L
Ntp627
Ns(V15*D
p628
L2L
L14L
tp629
g16
s(V20*DS
p630
L7L
L14L
tp631
g16
s(L10L
L20L
Ntp632
Ns(L10L
L19L
Ntp633
Ns(V20*
p634
L3L
L14L
tp635
g16
s(V19*A
p636
L10L
L14L
tp637
g16
s(V8*D
p638
L2L
L14L
tp639
g8
s(V20*DS
p640
L21L
Ntp641
Ns(V14*DS
p642
L7L
L14L
tp643
g4
s(V14*
p644
L5L
L14L
tp645
g16
s(V6*DS
p646
L2L
L14L
tp647
g4
s(L14L
L22L
Ntp648
Ns(V18*A
p649
L21L
Ntp650
Ns(V21*
p651
L9L
L14L
tp652
g16
s(V14*AD
p653
L8L
L14L
tp654
g4
s(L15L
L25L
Ntp655
Ns(V11*
p656
L7L
L14L
tp657
g4
s(V7*
p658
L5L
L14L
tp659
g4
s(V17*A
p660
L3L
L14L
tp661
g4
s(V15*D
p662
L7L
L14L
tp663
g16
s(V13*D
p664
L3L
L14L
tp665
g16
s(V10*D
p666
L10L
L14L
tp667
g8
s(V20*D
p668
L7L
L14L
tp669
g16
s(V5*D
p670
L7L
L14L
tp671
g4
s(V15*D
p672
L11L
L14L
tp673
g16
s(L18L
L24L
Ntp674
Ns(V16*D
p675
L6L
L14L
tp676
g16
s(V20*D
p677
L21L
Ntp678
Ns(V8*D
p679
L7L
L14L
tp680
g4
s(V15*AD
p681
L5L
L14L
tp682
g8
s(V18*D
p683
L21L
Ntp684
Ns(V19*A
p685
L3L
L14L
tp686
g16
s(V16*
p687
L6L
L14L
tp688
g16
s(g155
L11L
L14L
tp689
g4
s(V12*D
p690
L5L
L14L
tp691
g16
s(V20*A
p692
L10L
L14L
tp693
g16
s(V18*
p694
L9L
L14L
tp695
g16
s(L15L
L21L
Ntp696
Ns(V13*A
p697
L5L
L14L
tp698
g4
s(V19*D
p699
L6L
L14L
tp700
g16
s(V7*
p701
L10L
L14L
tp702
g4
s(V18*
p703
L5L
L14L
tp704
g16
s(V19*AD
p705
L4L
L14L
tp706
g8
s(V9*
p707
L7L
L14L
tp708
g4
s(V10*DS
p709
L9L
L14L
tp710
g8
s(g683
L11L
L14L
tp711
g16
s(V17*A
p712
L6L
L14L
tp713
g4
s(g672
L21L
Ntp714
Ns(V12*
p715
L3L
L14L
tp716
g16
s(L21L
NNtp717
Ns(V14*D
p718
L9L
L14L
tp719
g4
s(L21L
L8L
L14L
tp720
g16
s(V16*D
p721
L9L
L14L
tp722
g16
s(V17*A
p723
L10L
L14L
tp724
g4
s(V21*A
p725
L9L
L14L
tp726
g16
s(V18*DS
p727
L21L
Ntp728
Ns(V27*
p729
NNtp730
Ns(V20*
p731
L9L
L14L
tp732
g16
s(V20*A
p733
L21L
Ntp734
Ns(L8L
L18L
Ntp735
Ns(L8L
L21L
Ntp736
Ns(V13*AD
p737
L4L
L14L
tp738
g8
s(V6*DS
p739
L4L
L14L
tp740
g4
s(V20*A
p741
L3L
L14L
tp742
g16
s(V9*
p743
L8L
L14L
tp744
g4
s(V17*
p745
L9L
L14L
tp746
g16
s(V10*
p747
L6L
L14L
tp748
g4
s(V18*AD
p749
L9L
L14L
tp750
g4
s(L6L
L19L
Ntp751
Ns(V15*
p752
L4L
L14L
tp753
g16
s(L6L
L25L
Ntp754
Ns(V12*ADS
p755
L9L
L14L
tp756
g4
s(V7*
p757
L3L
L14L
tp758
g4
s(V18*AD
p759
L5L
L14L
tp760
g8
s(V18*D
p761
L2L
L14L
tp762
g16
s(V18*A
p763
L10L
L14L
tp764
g4
s(g95
L21L
Ntp765
Ns(V20*DS
p766
L8L
L14L
tp767
g16
s(V15*AD
p768
L3L
L14L
tp769
g8
s(V19*A
p770
L9L
L14L
tp771
g16
s(V16*
p772
L8L
L14L
tp773
g16
s(V28*
p774
NNtp775
Ns(V17*
p776
L6L
L14L
tp777
g16
s(L20L
L25L
Ntp778
Ns(V10*
p779
L9L
L14L
tp780
g4
s(V14*DS
p781
L4L
L14L
tp782
g16
s(g123
L11L
L14L
tp783
g4
s(V16*A
p784
L4L
L14L
tp785
g4
s(L9L
L17L
Ntp786
Ns(V14*
p787
L6L
L14L
tp788
g16
s(L9L
L22L
Ntp789
Ns(V15*A
p790
L3L
L14L
tp791
g4
s(V16*AD
p792
L9L
L14L
tp793
g4
s(V16*A
p794
L8L
L14L
tp795
g4
s(V12*DS
p796
L8L
L14L
tp797
g4
s(V21*A
p798
L7L
L14L
tp799
g16
s(g402
L21L
Ntp800
Ns(g214
L21L
Ntp801
Ns(V21*A
p802
L21L
Ntp803
Ns(V15*AD
p804
L10L
L14L
tp805
g4
s(L25L
NNtp806
Ns(V14*DS
p807
L11L
L14L
tp808
g4
s(L8L
L24L
Ntp809
Ns(L14L
L20L
Ntp810
Ns(V12*D
p811
L2L
L14L
tp812
g16
s(V6*D
p813
L7L
L14L
tp814
g4
s(V17*D
p815
L6L
L14L
tp816
g16
s(L26L
NNtp817
Ns(L21L
L26L
Ntp818
Ns(V13*A
p819
L2L
L14L
tp820
g4
s(L21L
L19L
Ntp821
Ns(V15*
p822
L10L
L14L
tp823
g16
s(V12*ADS
p824
L3L
L14L
tp825
g4
s(V19*
p826
L10L
L14L
tp827
g16
s(V12*DS
p828
L21L
Ntp829
Ns(V19*AD
p830
L3L
L14L
tp831
g8
s(V7*
p832
L9L
L14L
tp833
g4
s(V10*DS
p834
L10L
L14L
tp835
g8
s(V18*D
p836
L8L
L14L
tp837
g16
s(V8*
p838
L9L
L14L
tp839
g4
s(L11L
L19L
Ntp840
Ns(V19*
p841
L6L
L14L
tp842
g16
s(L11L
L20L
Ntp843
Ns(V18*A
p844
L4L
L14L
tp845
g16
s(V16*D
p846
L10L
L14L
tp847
g16
s(V20*DS
p848
L2L
L14L
tp849
g16
s(L14L
L18L
Ntp850
Ns(V14*A
p851
L5L
L14L
tp852
g4
s(L4L
L23L
Ntp853
Ns(V20*
p854
L6L
L14L
tp855
g16
s(L18L
L21L
Ntp856
Ns(g50
L21L
Ntp857
Ns(g512
L11L
L14L
tp858
g8
s(V20*AD
p859
L5L
L14L
tp860
g16
s(g532
L11L
L14L
tp861
g4
s(V14*DS
p862
L2L
L14L
tp863
g16
s(L15L
L19L
Ntp864
Ns(V13*AD
p865
L7L
L14L
tp866
g4
s(V13*
p867
L6L
L14L
tp868
g16
s(V9*
p869
L11L
L14L
tp870
g4
s(V6*
p871
L5L
L14L
tp872
g4
s(V16*A
p873
L2L
L14L
tp874
g4
s(V7*D
p875
L3L
L14L
tp876
g4
s(V15*
p877
L3L
L14L
tp878
g16
s(V14*D
p879
L5L
L14L
tp880
g16
s(V12*DS
p881
L2L
L14L
tp882
g16
s(L21L
L4L
L14L
tp883
g16
s(V12*ADS
p884
L10L
L14L
tp885
g4
s(L6L
L20L
Ntp886
Ns(L8L
L26L
Ntp887
Ns(L12L
L24L
Ntp888
Ns(V13*AD
p889
L8L
L14L
tp890
g4
s(V15*A
p891
L8L
L14L
tp892
g4
s(V16*DS
p893
L11L
L14L
tp894
g16
s(V17*
p895
L5L
L14L
tp896
g16
s(L27L
NNtp897
Ns(V10*
p898
L10L
L14L
tp899
g4
s(V13*A
p900
L8L
L14L
tp901
g4
s(L10L
L23L
Ntp902
Ns(V12*ADS
p903
L5L
L14L
tp904
g4
s(V15*A
p905
L4L
L14L
tp906
g4
s(V8*
p907
L3L
L14L
tp908
g4
s(V17*AD
p909
L9L
L14L
tp910
g4
s(V4*DS
p911
L6L
L14L
tp912
g4
s(g828
L11L
L14L
tp913
g4
s(g168
L11L
L14L
tp914
g4
s(V13*D
p915
L10L
L14L
tp916
g4
s(V10*D
p917
L3L
L14L
tp918
g8
s(V9*D
p919
L4L
L14L
tp920
g8
s(L9L
L25L
Ntp921
Ns(V11*D
p922
L5L
L14L
tp923
g8
s(g345
L11L
L14L
tp924
g16
s(L9L
L23L
Ntp925
Ns(V14*DS
p926
L8L
L14L
tp927
g4
s(L9L
L20L
Ntp928
Ns(V6*
p929
L3L
L14L
tp930
g4
s(V16*AD
p931
L5L
L14L
tp932
g8
s(V6*D
p933
L4L
L14L
tp934
g4
s(V16*DS
p935
L2L
L14L
tp936
g16
s(L16L
L19L
Ntp937
Ns(V7*D
p938
L9L
L14L
tp939
g4
s(g184
L21L
Ntp940
Ns(V23*
p941
NNtp942
Ns(V15*
p943
L9L
L14L
tp944
g16
s(L11L
L24L
Ntp945
Ns(V8*
p946
L10L
L14L
tp947
g4
s(V18*A
p948
L7L
L14L
tp949
g16
s(V12*
p950
L10L
L14L
tp951
g4
s(V14*A
p952
L2L
L14L
tp953
g4
s(L29L
NNtp954
Ns(L21L
L24L
Ntp955
Ns(V6*D
p956
L11L
L14L
tp957
g4
s(V20*AD
p958
L2L
L14L
tp959
g16
s(V17*D
p960
L10L
L14L
tp961
g16
s(V8*DS
p962
L8L
L14L
tp963
g4
s(L14L
L25L
Ntp964
Ns(L10L
L18L
Ntp965
Ns(L10L
L17L
Ntp966
Ns(V18*DS
p967
L7L
L14L
tp968
g16
s(V13*
p969
L9L
L14L
tp970
g4
s(V6*
p971
L10L
L14L
tp972
g4
s(V8*
p973
L5L
L14L
tp974
g4
s(V17*AD
p975
L3L
L14L
tp976
g8
s(V14*AD
p977
L7L
L14L
tp978
g4
s(V14*D
p979
L2L
L14L
tp980
g16
s(V12*DS
p981
L5L
L14L
tp982
g16
s(L21L
L3L
L14L
tp983
g16
s(V11*
p984
L4L
L14L
tp985
g4
s(L8L
L17L
Ntp986
Ns(L18L
L19L
Ntp987
Ns(V13*D
p988
L4L
L14L
tp989
g16
s(V10*D
p990
L9L
L14L
tp991
g8
s(V20*D
p992
L4L
L14L
tp993
g16
s(V5*D
p994
L8L
L14L
tp995
g4
s(L21L
L23L
Ntp996
Ns(V15*D
p997
L8L
L14L
tp998
g16
s(V8*DS
p999
L7L
L14L
tp1000
g4
s(V13*AD
p1001
L11L
L14L
tp1002
g4
s(V6*D
p1003
L2L
L14L
tp1004
g4
s(V8*D
p1005
L8L
L14L
tp1006
g4
s(V17*D
p1007
L3L
L14L
tp1008
g16
s(V16*DS
p1009
L4L
L14L
tp1010
g16
s(g308
L11L
L14L
tp1011
g16
s(V12*ADS
p1012
L6L
L14L
tp1013
g4
s(V19*D
p1014
L5L
L14L
tp1015
g16
s(V18*
p1016
L6L
L14L
tp1017
g16
s(V17*AD
p1018
L10L
L14L
tp1019
g4
s(V21*
p1020
L7L
L14L
tp1021
g16
s(V4*DS
p1022
L5L
L14L
tp1023
g4
s(L16L
L26L
Ntp1024
Ns(V14*A
p1025
L8L
L14L
tp1026
g4
s(L9L
L18L
Ntp1027
Ns(V15*
p1028
L21L
Ntp1029
Ns(V17*A
p1030
L9L
L14L
tp1031
g4
s(V9*D
p1032
L7L
L14L
tp1033
g8
s(V11*D
p1034
L6L
L14L
tp1035
g8
s(V20*AD
p1036
L8L
L14L
tp1037
g16
s(g1001
L21L
Ntp1038
Ns(V13*
p1039
L3L
L14L
tp1040
g16
s(V16*AD
p1041
L2L
L14L
tp1042
g4
s(V6*DS
p1043
L7L
L14L
tp1044
g4
s(g10
L11L
L14L
tp1045
g4
s(V7*D
p1046
L6L
L14L
tp1047
g8
s(V20*A
p1048
L4L
L14L
tp1049
g16
s(V4*DS
p1050
L10L
L14L
tp1051
g4
s(L23L
NNtp1052
Ns(L8L
L20L
Ntp1053
Ns(V11*
p1054
L10L
L14L
tp1055
g4
s(L8L
L23L
Ntp1056
Ns(V19*AD
p1057
L10L
L14L
tp1058
g16
s(V10*DS
p1059
L3L
L14L
tp1060
g8
s(V18*AD
p1061
L6L
L14L
tp1062
g8
s(V9*D
p1063
L8L
L14L
tp1064
g8
s(V20*D
p1065
L2L
L14L
tp1066
g16
s(V5*D
p1067
L2L
L14L
tp1068
g4
s(V12*
p1069
L9L
L14L
tp1070
g4
s(V19*D
p1071
L21L
Ntp1072
Ns(V16*D
p1073
L3L
L14L
tp1074
g16
s(g640
L11L
L14L
tp1075
g16
s(L21L
L20L
Ntp1076
Ns(V14*D
p1077
L21L
Ntp1078
Ns(L16L
L21L
Ntp1079
Ns(V16*
p1080
L11L
L14L
tp1081
g16
s(V6*D
p1082
L8L
L14L
tp1083
g4
s(L19L
L17L
Ntp1084
Ns(V18*DS
p1085
L4L
L14L
tp1086
g16
s(g1071
L11L
L14L
tp1087
g16
s(V8*
p1088
L6L
L14L
tp1089
g4
s(V17*AD
p1090
L4L
L14L
tp1091
g8
s(V9*
p1092
L2L
L14L
tp1093
g4
s(L20L
L24L
Ntp1094
Ns(V4*DS
p1095
L3L
L14L
tp1096
g4
s(V16*A
p1097
L11L
L14L
tp1098
g4
s(V14*AD
p1099
L4L
L14L
tp1100
g8
s(V12*
p1101
L6L
L14L
tp1102
g16
s(V11*
p1103
L3L
L14L
tp1104
g4
s(L20L
L18L
Ntp1105
Ns(L15L
L23L
Ntp1106
Ns(V21*A
p1107
L4L
L14L
tp1108
g16
s(V13*D
p1109
L7L
L14L
tp1110
g4
s(V10*D
p1111
L6L
L14L
tp1112
g8
s(g677
L11L
L14L
tp1113
g16
s(V5*D
p1114
L11L
L14L
tp1115
g4
s(g558
L11L
L14L
tp1116
g16
s(V8*DS
p1117
L4L
L14L
tp1118
g8
s(V15*AD
p1119
L9L
L14L
tp1120
g4
s(g727
L11L
L14L
tp1121
g16
s(L17L
L22L
Ntp1122
Ns(V19*A
p1123
L7L
L14L
tp1124
g16
s(V16*
p1125
L2L
L14L
tp1126
g16
s(V6*DS
p1127
L9L
L14L
tp1128
g4
s(V14*
p1129
L4L
L14L
tp1130
g16
s(L8L
L25L
Ntp1131
Ns(L20L
L20L
Ntp1132
Ns(V10*
p1133
L3L
L14L
tp1134
g4
s(L14L
L26L
Ntp1135
Ns(V19*D
p1136
L2L
L14L
tp1137
g16
s(V14*
p1138
L8L
L14L
tp1139
g4
s(V10*DS
p1140
L5L
L14L
tp1141
g8
s(V18*D
p1142
L7L
L14L
tp1143
g16
s(V19*
p1144
L5L
L14L
tp1145
g16
s(V15*D
p1146
L4L
L14L
tp1147
g16
s(L21L
L17L
Ntp1148
Ns(V20*DS
p1149
L5L
L14L
tp1150
g16
s(V20*
p1151
L5L
L14L
tp1152
g16
s(g400
L21L
Ntp1153
Ns(L15L
L24L
Ntp1154
Ns(V8*D
p1155
L4L
L14L
tp1156
g8
s(L19L
L24L
Ntp1157
Ns(L4L
L17L
Ntp1158
Ns(L19L
L18L
Ntp1159
Ns(V18*DS
p1160
L2L
L14L
tp1161
g16
s(V18*
p1162
L10L
L14L
tp1163
g16
s(V12*D
p1164
L8L
L14L
tp1165
g4
s(V20*A
p1166
L7L
L14L
tp1167
g16
s(L9L
L26L
Ntp1168
Ns(V7*
p1169
L11L
L14L
tp1170
g4
s(V4*DS
p1171
L9L
L14L
tp1172
g4
s(L18L
L25L
Ntp1173
Ns(V14*AD
p1174
L10L
L14L
tp1175
g4
s(V11*
p1176
L9L
L14L
tp1177
g4
s(V21*A
p1178
L2L
L14L
tp1179
g16
s(V7*
p1180
L7L
L14L
tp1181
g4
s(V17*A
p1182
L5L
L14L
tp1183
g4
s(V19*AD
p1184
L9L
L14L
tp1185
g16
s(V16*D
p1186
L8L
L14L
tp1187
g16
s(V9*D
p1188
L11L
L14L
tp1189
g4
s(V5*D
p1190
L5L
L14L
tp1191
g4
s(L16L
L25L
Ntp1192
Ns(V16*D
p1193
L4L
L14L
tp1194
g16
s(V15*AD
p1195
L7L
L14L
tp1196
g4
s(g355
L21L
Ntp1197
Ns(V16*
p1198
L4L
L14L
tp1199
g16
s(V12*D
p1200
L7L
L14L
tp1201
g4
s(V20*A
p1202
L8L
L14L
tp1203
g16
s(L8L
L22L
Ntp1204
Ns(V17*
p1205
L2L
L14L
tp1206
g16
s(V9*
p1207
L9L
L14L
tp1208
g4
s(V13*A
p1209
L7L
L14L
tp1210
g4
s(V19*D
p1211
L8L
L14L
tp1212
g16
s(L20L
L23L
Ntp1213
Ns(V14*
p1214
L2L
L14L
tp1215
g16
s(V15*A
p1216
L7L
L14L
tp1217
g4
s(V18*
p1218
L3L
L14L
tp1219
g16
s(V19*AD
p1220
L6L
L14L
tp1221
g8
s(g807
L21L
Ntp1222
Ns(V18*AD
p1223
L10L
L14L
tp1224
g4
s(V9*
p1225
L5L
L14L
tp1226
g4
s(V25*
p1227
NNtp1228
Ns(V12*
p1229
L5L
L14L
tp1230
g16
s(V19*
p1231
L3L
L14L
tp1232
g16
s(L10L
L21L
Ntp1233
Ns(g1077
L11L
L14L
tp1234
g4
s(L21L
L10L
L14L
tp1235
g16
s(g802
L11L
L14L
tp1236
g16
s(L18L
L18L
Ntp1237
Ns(g1188
L21L
Ntp1238
Ns(V15*A
p1239
L21L
Ntp1240
Ns(V20*
p1241
L11L
L14L
tp1242
g16
s(V15*AD
p1243
L2L
L14L
tp1244
g4
s(L17L
L26L
Ntp1245
Ns(L19L
L23L
Ntp1246
Ns(V17*
p1247
L7L
L14L
tp1248
g16
s(V10*
p1249
L8L
L14L
tp1250
g4
s(V18*DS
p1251
L8L
L14L
tp1252
g16
s(V13*AD
p1253
L2L
L14L
tp1254
g8
s(V6*DS
p1255
L10L
L14L
tp1256
g4
s(L20L
L26L
Ntp1257
Ns(V17*
p1258
L11L
L14L
tp1259
g16
s(V16*A
p1260
L7L
L14L
tp1261
g4
s(V10*
p1262
L4L
L14L
tp1263
g4
s(L9L
L21L
Ntp1264
Ns(V15*
p1265
L6L
L14L
tp1266
g16
s(V10*DS
p1267
L6L
L14L
tp1268
g8
s(V18*AD
p1269
L3L
L14L
tp1270
g8
s(V18*D
p1271
L4L
L14L
tp1272
g16
s(g205
L21L
Ntp1273
Ns(V18*A
p1274
L8L
L14L
tp1275
g16
s(V15*D
p1276
L3L
L14L
tp1277
g16
s(V20*DS
p1278
L6L
L14L
tp1279
g16
s(L15L
L20L
Ntp1280
Ns(V20*
p1281
L2L
L14L
tp1282
g16
s(V14*DS
p1283
L10L
L14L
tp1284
g4
s(g1258
L21L
Ntp1285
Ns(V8*D
p1286
L3L
L14L
tp1287
g8
s(V14*DS
p1288
L6L
L14L
tp1289
g16
s(L21L
L25L
Ntp1290
Ns(V13*
p1291
L10L
L14L
tp1292
g4
s(g501
L11L
L14L
tp1293
g4
s(V6*
p1294
L9L
L14L
tp1295
g4
s(V19*
p1296
L9L
L14L
tp1297
g16
s(g1241
L21L
Ntp1298
Ns(g893
L21L
Ntp1299
Ns(V12*DS
p1300
L6L
L14L
tp1301
g16
s(L14L
L21L
Ntp1302
Ns(V17*A
p1303
L2L
L14L
tp1304
g4
s(L19L
L26L
Ntp1305
Ns(V15*AD
p1306
L4L
L14L
tp1307
g8
s(L8L
L19L
Ntp1308
Ns(g1097
L21L
Ntp1309
Ns(V12*D
p1310
L4L
L14L
tp1311
g16
s(g733
L11L
L14L
tp1312
g16
s(V16*DS
p1313
L7L
L14L
tp1314
g16
s(V17*D
p1315
L4L
L14L
tp1316
g16
s(V13*A
p1317
L4L
L14L
tp1318
g4
s(g1080
L21L
Ntp1319
Ns(L16L
L17L
Ntp1320
Ns(V19*AD
p1321
L5L
L14L
tp1322
g8
s(V10*DS
p1323
L8L
L14L
tp1324
g8
s(V18*D
p1325
L10L
L14L
tp1326
g16
s(V21*
p1327
L4L
L14L
tp1328
g16
s(V18*A
p1329
L2L
L14L
tp1330
g16
s(V14*D
p1331
L8L
L14L
tp1332
g4
s(L21L
L9L
L14L
tp1333
g16
s(L15L
L18L
Ntp1334
Ns(V14*A
p1335
L7L
L14L
tp1336
g4
s(V20*
p1337
L8L
L14L
tp1338
g16
s(V13*AD
p1339
L9L
L14L
tp1340
g4
s(L20L
L22L
Ntp1341
Ns(V11*D
p1342
L9L
L14L
tp1343
g8
s(V20*AD
p1344
L7L
L14L
tp1345
g16
s(L20L
L17L
Ntp1346
Ns(L22L
NNtp1347
Ns(V13*AD
p1348
L5L
L14L
tp1349
g8
s(g1239
L11L
L14L
tp1350
g4
s(V13*
p1351
L4L
L14L
tp1352
g16
s(V12*ADS
p1353
L4L
L14L
tp1354
g4
s(V6*
p1355
L7L
L14L
tp1356
g4
s(V7*D
p1357
L5L
L14L
tp1358
g8
s(V15*
p1359
L5L
L14L
tp1360
g16
s(V14*D
p1361
L7L
L14L
tp1362
g4
s(L21L
L6L
L14L
tp1363
g16
s(V12*ADS
p1364
L8L
L14L
tp1365
g4
s(g956
L21L
Ntp1366
Ns(L17L
L18L
Ntp1367
Ns(L17L
L24L
Ntp1368
Ns(g649
L11L
L14L
tp1369
g16
s(L19L
L25L
Ntp1370
Ns(V16*DS
p1371
L9L
L14L
tp1372
g16
s(V6*
p1373
L2L
L14L
tp1374
g4
s(L21L
L21L
Ntp1375
Ns(L21L
L18L
Ntp1376
Ns(V13*A
p1377
L10L
L14L
tp1378
g4
s(L14L
L19L
Ntp1379
Ns(L16L
L23L
Ntp1380
Ns(V15*A
p1381
L2L
L14L
tp1382
g4
s(V16*AD
p1383
L8L
L14L
tp1384
g4
s(V17*AD
p1385
L7L
L14L
tp1386
g4
s(V21*
p1387
L2L
L14L
tp1388
g16
s(V14*AD
p1389
L3L
L14L
tp1390
g8
s(V12*DS
p1391
L9L
L14L
tp1392
g4
s(L12L
L22L
Ntp1393
Ns(L4L
L21L
Ntp1394
Ns(L12L
L17L
Ntp1395
Ns(V13*D
p1396
L8L
L14L
tp1397
g4
s(V20*D
p1398
L8L
L14L
tp1399
g16
s(V9*D
p1400
L2L
L14L
tp1401
g8
s(V10*D
p1402
L5L
L14L
tp1403
g8
s(V11*D
p1404
L3L
L14L
tp1405
g8
s(V8*DS
p1406
L3L
L14L
tp1407
g8
s(V6*D
p1408
L10L
L14L
tp1409
g4
s(V19*A
p1410
L4L
L14L
tp1411
g16
s(V16*AD
p1412
L7L
L14L
tp1413
g4
s(V6*D
p1414
L6L
L14L
tp1415
g4
s(V17*D
p1416
L7L
L14L
tp1417
g16
s(g136
L11L
L14L
tp1418
g4
s(V8*
p1419
L4L
L14L
tp1420
g4
s(V22*
p1421
NNtp1422
Ns(g1028
L11L
L14L
tp1423
g16
s(V12*ADS
p1424
L2L
L14L
tp1425
g4
s(L6L
L22L
Ntp1426
Ns(g59
L11L
L14L
tp1427
g4
s(V8*
p1428
L8L
L14L
tp1429
g4
s(g98
L21L
Ntp1430
Ns(V18*A
p1431
L5L
L14L
tp1432
g16
s.