(dp0
(L13L
L21L
Ntp1
L0L
s(V14*A
p2
L4L
L14L
tp3
F0.18701801948779995
s(L13L
L18L
Ntp4
L0L
s(V8*DS
p5
L6L
L14L
tp6
F0.5716536264552948
s(L13L
L24L
Ntp7
L0L
s(V12*D
p8
L21L
Ntp9
L0L
s(V11*D
p10
L10L
L14L
tp11
F0.24120178128678396
s(V17*D
p12
L8L
L14L
tp13
F-0.4486722561287999
s(V8*DS
p14
L10L
L14L
tp15
F-0.41725641027653443
s(V20*AD
p16
L4L
L14L
tp17
F0.6836625807186008
s(L6L
L26L
Ntp18
L0L
s(V13*
p19
L7L
L14L
tp20
F-0.39278542872826994
s(V6*
p21
L4L
L14L
tp22
F0.10946795336683521
s(V6*DS
p23
L3L
L14L
tp24
F0.034469709136865215
s(V19*
p25
L21L
Ntp26
L0L
s(L15L
L26L
Ntp27
L0L
s(V7*D
p28
L2L
L14L
tp29
F0.008228938773363784
s(V21*
p30
L8L
L14L
tp31
F0.9501985765449636
s(V14*AD
p32
L9L
L14L
tp33
F-0.27084858270919426
s(V14*D
p34
L4L
L14L
tp35
F0.01878378220339441
s(V12*DS
p36
L3L
L14L
tp37
F-0.061676675906486095
s(L21L
L5L
L14L
tp38
F1.5
s(L19L
L19L
Ntp39
L0L
s(L19L
L20L
Ntp40
L0L
s(V11*
p41
L6L
L14L
tp42
F0.545521035983424
s(V7*
p43
L4L
L14L
tp44
F0.15198833512486898
s(V13*D
p45
L2L
L14L
tp46
F-0.1398323290267473
s(V10*D
p47
L11L
L14L
tp48
F-0.16098023043419785
s(V20*D
p49
L6L
L14L
tp50
F0.771564704351406
s(V5*D
p51
L6L
L14L
tp52
F0.13925737212212985
s(L17L
L21L
Ntp53
L0L
s(V15*D
p54
L10L
L14L
tp55
F-0.6687405670604988
s(V14*
p56
L21L
Ntp57
L0L
s(V16*D
p58
L7L
L14L
tp59
F-0.5003237241549772
s(V19*A
p60
L2L
L14L
tp61
F0.39474550175812184
s(V16*
p62
L7L
L14L
tp63
F-0.5003237241549772
s(V16*DS
p64
L10L
L14L
tp65
F-0.6687405670604988
s(V8*D
p66
L10L
L14L
tp67
F-0.41725641027653443
s(V4*DS
p68
L11L
L14L
tp69
F-0.61821101531632
s(V19*D
p70
L7L
L14L
tp71
F0.7306603798507489
s(V8*
p72
L2L
L14L
tp73
F0.1074508730861973
s(V18*
p74
L4L
L14L
tp75
F0.3108144844188142
s(V17*AD
p76
L8L
L14L
tp77
F-0.21860729700804943
s(V9*
p78
L6L
L14L
tp79
F0.4240582412356762
s(V4*DS
p80
L7L
L14L
tp81
F-0.20091377063201132
s(V12*
p82
L2L
L14L
tp83
F-0.1398323290267473
s(V9*D
p84
L9L
L14L
tp85
F-0.0299047537446004
s(V20*D
p86
L3L
L14L
tp87
F0.6472648098580892
s(V14*A
p88
L10L
L14L
tp89
F-0.4077085477693114
s(V21*A
p90
L8L
L14L
tp91
F0.9501985765449636
s(V17*A
p92
L11L
L14L
tp93
F-0.5692965313075724
s(L4L
L24L
Ntp94
L0L
s(V13*D
p95
L11L
L14L
tp96
F-0.7044821273544408
s(V10*D
p97
L2L
L14L
tp98
F0.7239552626014788
s(V9*D
p99
L5L
L14L
tp100
F0.7596924474895537
s(L4L
L18L
Ntp101
L0L
s(V11*D
p102
L4L
L14L
tp103
F0.9908224613301108
s(V20*AD
p104
L10L
L14L
tp105
F0.3219010009371389
s(L14L
L17L
Ntp106
L0L
s(L18L
L22L
Ntp107
L0L
s(V16*AD
p108
L4L
L14L
tp109
F0.2887151466781356
s(V6*DS
p110
L5L
L14L
tp111
F0.17775418713191046
s(V20*A
p112
L2L
L14L
tp113
F0.6363081392105484
s(V7*D
p114
L8L
L14L
tp115
F-0.29588459571512965
s(V17*
p116
L8L
L14L
tp117
F-0.4486722561287999
s(V10*
p118
L7L
L14L
tp119
F0.4313464381944079
s(V13*A
p120
L21L
Ntp121
L0L
s(V12*
p122
L7L
L14L
tp123
F-0.31165404717696477
s(L4L
L20L
Ntp124
L0L
s(V7*
p125
L2L
L14L
tp126
F0.008228938773363784
s(V18*AD
p127
L4L
L14L
tp128
F0.5482953058442607
s(V18*D
p129
L3L
L14L
tp130
F0.24122930769463272
s(V12*
p131
L11L
L14L
tp132
F-0.6673793209701331
s(V7*D
p133
L21L
Ntp134
L0L
s(V20*DS
p135
L9L
L14L
tp136
F0.7881874742993551
s(V19*A
p137
L8L
L14L
tp138
F0.6749371994941911
s(V16*
p139
L9L
L14L
tp140
F-0.6115378932076727
s(V18*DS
p141
L10L
L14L
tp142
F-0.3876308954009621
s(V17*D
p143
L11L
L14L
tp144
F-0.6583450687361632
s(L15L
L22L
Ntp145
L0L
s(V14*DS
p146
L5L
L14L
tp147
F0.0903193926158212
s(V18*DS
p148
L6L
L14L
tp149
F0.46799221920247613
s(V14*
p150
L7L
L14L
tp151
F-0.4703387942890987
s(V8*D
p152
L21L
Ntp153
L0L
s(V17*AD
p154
L2L
L14L
tp155
F0.10761769564543962
s(g68
L21L
Ntp156
L0L
s(L13L
L19L
Ntp157
L0L
s(V14*AD
p158
L6L
L14L
tp159
F0.3883818899914474
s(L20L
L21L
Ntp160
L0L
s(V16*A
p161
L9L
L14L
tp162
F-0.35389884164040664
s(V11*
p163
L5L
L14L
tp164
F0.543431852949368
s(V14*A
p165
L21L
Ntp166
L0L
s(V21*A
p167
L6L
L14L
tp168
F0.9239331136649338
s(L6L
L17L
Ntp169
L0L
s(L17L
L25L
Ntp170
L0L
s(V13*D
p171
L5L
L14L
tp172
F0.0903193926158212
s(V10*D
p173
L8L
L14L
tp174
F0.678746550431075
s(V20*D
p175
L5L
L14L
tp176
F0.7331362980987478
s(V5*D
p177
L9L
L14L
tp178
F-0.41968049826639675
s(V15*D
p179
L9L
L14L
tp180
F-0.6115378932076727
s(V15*AD
p181
L11L
L14L
tp182
F-0.5930033874678468
s(V8*D
p183
L9L
L14L
tp184
F-0.2911103317774402
s(V12*D
p185
L3L
L14L
tp186
F-0.061676675906486095
s(L19L
L21L
Ntp187
L0L
s(L19L
L22L
Ntp188
L0L
s(L16L
L22L
Ntp189
L0L
s(V13*A
p190
L3L
L14L
tp191
F0.14746840459155552
s(V19*D
p192
L4L
L14L
tp193
F0.4972352544485217
s(V7*
p194
L8L
L14L
tp195
F-0.29588459571512965
s(V18*
p196
L7L
L14L
tp197
F0.5421646523492403
s(V19*AD
p198
L2L
L14L
tp199
F0.492462707745389
s(V21*A
p200
L3L
L14L
tp201
F0.8812560633229914
s(V10*DS
p202
L11L
L14L
tp203
F-0.16098023043419785
s(V18*D
p204
L9L
L14L
tp205
F-0.311587174579588
s(V19*
p206
L7L
L14L
tp207
F0.7306603798507489
s(L21L
L22L
Ntp208
L0L
s(V15*D
p209
L6L
L14L
tp210
F0.027216626688085804
s(V16*D
p211
L11L
L14L
tp212
F-0.7437681964293172
s(V20*DS
p213
L3L
L14L
tp214
F0.6472648098580892
s(V17*A
p215
L8L
L14L
tp216
F-0.21860729700804943
s(V20*
p217
L7L
L14L
tp218
F0.8369271933502098
s(V8*D
p219
L6L
L14L
tp220
F0.5716536264552948
s(V12*D
p221
L6L
L14L
tp222
F0.027216626688085804
s(L12L
L21L
Ntp223
L0L
s(V20*A
p224
L9L
L14L
tp225
F0.7881874742993551
s(V14*DS
p226
L3L
L14L
tp227
F-0.061676675906486095
s(V13*AD
p228
L6L
L14L
tp229
F0.4284621710963955
s(V6*DS
p230
L6L
L14L
tp231
F0.1374915204057537
s(V18*
p232
L8L
L14L
tp233
F0.10093734573912133
s(V12*D
p234
L10L
L14L
tp235
F-0.5568996147153267
s(V20*A
p236
L5L
L14L
tp237
F0.7331362980987478
s(V9*
p238
L10L
L14L
tp239
F-0.29637219860056285
s(V19*AD
p240
L7L
L14L
tp241
F0.7306603798507489
s(V16*A
p242
L3L
L14L
tp243
F0.07976601010166035
s(L20L
L19L
Ntp244
L0L
s(V11*
p245
L11L
L14L
tp246
F-0.25209949623482814
s(L4L
L26L
Ntp247
L0L
s(V15*
p248
L2L
L14L
tp249
F-0.1398323290267473
s(V12*ADS
p250
L11L
L14L
tp251
F-0.4815935228033434
s(L17L
L19L
Ntp252
L0L
s(V19*AD
p253
L11L
L14L
tp254
F-0.2489229855466417
s(V17*A
p255
L7L
L14L
tp256
F0.013854048900469068
s(V10*DS
p257
L2L
L14L
tp258
F0.7239552626014788
s(V18*AD
p259
L7L
L14L
tp260
F0.5421646523492403
s(V5*D
p261
L3L
L14L
tp262
F0.037283156436422174
s(L11L
L21L
Ntp263
L0L
s(V16*D
p264
L2L
L14L
tp265
F-0.1398323290267473
s(V20*DS
p266
L10L
L14L
tp267
F0.3219010009371389
s(L11L
L22L
Ntp268
L0L
s(L6L
L24L
Ntp269
L0L
s(V16*
p270
L10L
L14L
tp271
F-0.6687405670604988
s(V17*
p272
L4L
L14L
tp273
F0.11818615796059592
s(V10*
p274
L11L
L14L
tp275
F-0.2823895801373681
s(L13L
L22L
Ntp276
L0L
s(V13*A
p277
L9L
L14L
tp278
F-0.19094314931051581
s(V19*D
p279
L10L
L14L
tp280
F-0.2035117667585388
s(V15*A
p281
L5L
L14L
tp282
F0.22274189146091095
s(g143
L21L
Ntp283
L0L
s(V9*
p284
L3L
L14L
tp285
F0.27515861353646687
s(V18*AD
p286
L8L
L14L
tp287
F0.10093734573912133
s(V16*A
p288
L10L
L14L
tp289
F-0.47333171405568975
s(V12*DS
p290
L10L
L14L
tp291
F-0.5568996147153267
s(V21*A
p292
L5L
L14L
tp293
F0.9110347205412794
s(L24L
NNtp294
L0L
s(V15*AD
p295
L8L
L14L
tp296
F-0.24317054228934057
s(L12L
L19L
Ntp297
L0L
s(V14*DS
p298
L9L
L14L
tp299
F-0.5801544779834699
s(L12L
L26L
Ntp300
L0L
s(V6*DS
p301
L21L
Ntp302
L0L
s(V6*DS
p303
L8L
L14L
tp304
F-0.3449931945596487
s(V21*
p305
L21L
Ntp306
L0L
s(V6*D
p307
L5L
L14L
tp308
F0.20113760709099116
s(V16*DS
p309
L3L
L14L
tp310
F-0.061676675906486095
s(L17L
L17L
Ntp311
L0L
s(V16*A
p312
L5L
L14L
tp313
F0.21843978016364918
s(V10*
p314
L2L
L14L
tp315
F0.36197763130073934
s(V13*
p316
L21L
Ntp317
L0L
s(V15*
p318
L8L
L14L
tp319
F-0.5562893275688905
s(V10*DS
p320
L4L
L14L
tp321
F0.9043792783138315
s(V18*D
p322
L6L
L14L
tp323
F0.46799221920247613
s(V24*
p324
NNtp325
L0L
s(V8*
p326
L11L
L14L
tp327
F-0.5171501023914654
s(V19*
p328
L4L
L14L
tp329
F0.4972352544485217
s(V18*A
p330
L6L
L14L
tp331
F0.46799221920247613
s(V15*D
p332
L5L
L14L
tp333
F0.0903193926158212
s(L10L
L22L
Ntp334
L0L
s(V20*DS
p335
L4L
L14L
tp336
F0.6836625807186008
s(V14*A
p337
L3L
L14L
tp338
F0.11764044764234526
s(V20*
p339
L4L
L14L
tp340
F0.6836625807186008
s(L6L
L18L
Ntp341
L0L
s(V20*AD
p342
L21L
Ntp343
L0L
s(V8*D
p344
L5L
L14L
tp345
F0.5305619727041926
s(V20*AD
p346
L3L
L14L
tp347
F0.6472648098580892
s(V8*DS
p348
L9L
L14L
tp349
F-0.2911103317774402
s(L13L
L25L
Ntp350
L0L
s(L4L
L22L
Ntp351
L0L
s(V18*
p352
L11L
L14L
tp353
F-0.4664009096969802
s(V13*
p354
L8L
L14L
tp355
F-0.4470954132637737
s(V6*
p356
L11L
L14L
tp357
F-0.6428828373500488
s(V
p358
g358
L14L
tp359
F0.04724571308882719
s(L18L
L20L
Ntp360
L0L
s(g25
L11L
L14L
tp361
F-0.2489229855466417
s(V14*D
p362
L3L
L14L
tp363
F-0.061676675906486095
s(V12*DS
p364
L4L
L14L
tp365
F0.01878378220339441
s(L21L
L2L
L14L
tp366
F1.5
s(L18L
L26L
Ntp367
L0L
s(V17*A
p368
L4L
L14L
tp369
F0.19104996667502624
s(L11L
L26L
Ntp370
L0L
s(g250
L21L
Ntp371
L0L
s(L11L
L25L
Ntp372
L0L
s(V15*AD
p373
L6L
L14L
tp374
F0.3400971560773093
s(V13*AD
p375
L10L
L14L
tp376
F-0.34798295524700584
s(V6*D
p377
L3L
L14L
tp378
F0.034469709136865215
s(V16*DS
p379
L5L
L14L
tp380
F0.0903193926158212
s(V17*D
p381
L2L
L14L
tp382
F-0.03281539361535436
s(V17*
p383
L3L
L14L
tp384
F0.04131294735842171
s(L10L
L26L
Ntp385
L0L
s(V13*A
p386
L6L
L14L
tp387
F0.2528824481873504
s(L10L
L25L
Ntp388
L0L
s(V12*ADS
p389
L7L
L14L
tp390
F0.06872768607598762
s(V15*A
p391
L6L
L14L
tp392
F0.1889524716914961
s(V14*D
p393
L6L
L14L
tp394
F0.027216626688085804
s(L21L
L7L
L14L
tp395
F1.5
s(V18*AD
p396
L11L
L14L
tp397
F-0.4664009096969802
s(V17*AD
p398
L11L
L14L
tp399
F-0.5692965313075724
s(V21*
p400
L6L
L14L
tp401
F0.9239331136649338
s(V19*
p402
L2L
L14L
tp403
F0.39474550175812184
s(V4*DS
p404
L4L
L14L
tp405
F0.12990413244249135
s(V14*D
p406
L10L
L14L
tp407
F-0.6547742413670609
s(L21L
L11L
L14L
tp408
F0.876923076923077
s(g131
L21L
Ntp409
L0L
s(V14*A
p410
L9L
L14L
tp411
F-0.27084858270919426
s(V20*
p412
L10L
L14L
tp413
F0.3219010009371389
s(V9*D
p414
L6L
L14L
tp415
F0.7962860415418185
s(L13L
L20L
Ntp416
L0L
s(V11*D
p417
L7L
L14L
tp418
F0.8015206590096025
s(V20*AD
p419
L9L
L14L
tp420
F0.7881874742993551
s(V13*AD
p421
L3L
L14L
tp422
F0.22104704950901743
s(V15*A
p423
L9L
L14L
tp424
F-0.3382315720179562
s(V26*
p425
NNtp426
L0L
s(V13*
p427
L2L
L14L
tp428
F-0.1398323290267473
s(V16*AD
p429
L3L
L14L
tp430
F0.14319116605325083
s(g253
L21L
Ntp431
L0L
s(V16*A
p432
L6L
L14L
tp433
F0.1851331850770681
s(V7*D
p434
L7L
L14L
tp435
F-0.0525071154488425
s(L14L
L23L
Ntp436
L0L
s(V15*
p437
L7L
L14L
tp438
F-0.5003237241549772
s(L28L
NNtp439
L0L
s(L12L
L18L
Ntp440
L0L
s(V18*A
p441
L9L
L14L
tp442
F-0.22915118522405592
s(L16L
L18L
Ntp443
L0L
s(V12*
p444
L8L
L14L
tp445
F-0.370285895292638
s(V6*D
p446
L9L
L14L
tp447
F-0.43161677082514827
s(V16*AD
p448
L6L
L14L
tp449
F0.3598615403450367
s(L9L
L19L
Ntp450
L0L
s(V18*DS
p451
L5L
L14L
tp452
F0.3770117614744573
s(g316
L11L
L14L
tp453
F-0.7044821273544408
s(V6*
p454
L8L
L14L
tp455
F-0.3449931945596487
s(V16*AD
p456
L10L
L14L
tp457
F-0.47333171405568975
s(V8*
p458
L7L
L14L
tp459
F0.20464415919272466
s(V17*AD
p460
L5L
L14L
tp461
F0.5150247175892556
s(V19*
p462
L8L
L14L
tp463
F0.6749371994941911
s(V4*DS
p464
L2L
L14L
tp465
F-0.012687051465938437
s(V14*AD
p466
L5L
L14L
tp467
F0.45621703428053517
s(V12*DS
p468
L7L
L14L
tp469
F-0.31165404717696477
s(V11*
p470
L2L
L14L
tp471
F0.4139383598242585
s(L14L
L24L
Ntp472
L0L
s(V13*D
p473
L6L
L14L
tp474
F0.027216626688085804
s(V10*D
p475
L7L
L14L
tp476
F0.8300735861617559
s(V20*D
p477
L10L
L14L
tp478
F0.3219010009371389
s(V5*D
p479
L10L
L14L
tp480
F-0.5244907057564699
s(L13L
L17L
Ntp481
L0L
s(L13L
L23L
Ntp482
L0L
s(L6L
L23L
Ntp483
L0L
s(V8*DS
p484
L5L
L14L
tp485
F0.5305619727041926
s(V17*D
p486
L9L
L14L
tp487
F-0.5103003943190421
s(V19*A
p488
L6L
L14L
tp489
F0.6184890712017248
s(V16*
p490
L3L
L14L
tp491
F-0.061676675906486095
s(V16*DS
p492
L6L
L14L
tp493
F0.027216626688085804
s(V17*D
p494
L5L
L14L
tp495
F0.189017423790463
s(L11L
L18L
Ntp496
L0L
s(V16*AD
p497
L21L
Ntp498
L0L
s(V19*D
p499
L3L
L14L
tp500
F0.4350867689180703
s(V14*
p501
L9L
L14L
tp502
F-0.5801544779834699
s(V21*
p503
L5L
L14L
tp504
F0.9110347205412794
s(L18L
L23L
Ntp505
L0L
s(V18*A
p506
L3L
L14L
tp507
F0.24122930769463272
s(V11*D
p508
L21L
Ntp509
L0L
s(V14*A
p510
L6L
L14L
tp511
F0.22138728479335865
s(V14*AD
p512
L21L
Ntp513
L0L
s(L15L
L17L
Ntp514
L0L
s(L10L
L24L
Ntp515
L0L
s(V11*D
p516
L8L
L14L
tp517
F0.65717505940784
s(V20*AD
p518
L6L
L14L
tp519
F0.771564704351406
s(V15*A
p520
L10L
L14L
tp521
F-0.46219129016677124
s(V18*DS
p522
L3L
L14L
tp523
F0.24122930769463272
s(V13*
p524
L5L
L14L
tp525
F0.0903193926158212
s(V6*
p526
L6L
L14L
tp527
F0.1374915204057537
s(V8*DS
p528
L21L
Ntp529
L0L
s(V12*D
p530
L9L
L14L
tp531
F-0.44804625173292445
s(V7*D
p532
L4L
L14L
tp533
F0.18080053011135877
s(L17L
L20L
Ntp534
L0L
s(V21*
p535
L10L
L14L
tp536
F0.7734444098481102
s(V4*DS
p537
L8L
L14L
tp538
F-0.28303913747830184
s(L12L
L23L
Ntp539
L0L
s(g512
L11L
L14L
tp540
F-0.5614870119647899
s(V20*A
p541
L6L
L14L
tp542
F0.771564704351406
s(V11*
p543
L8L
L14L
tp544
F0.35504353843398606
s(L12L
L25L
Ntp545
L0L
s(V7*
p546
L6L
L14L
tp547
F0.21977168278070935
s(V19*AD
p548
L8L
L14L
tp549
F0.6749371994941911
s(V9*D
p550
L10L
L14L
tp551
F-0.29637219860056285
s(V5*D
p552
L4L
L14L
tp553
F0.11206512058886148
s(V19*A
p554
L21L
Ntp555
L0L
s(V16*D
p556
L5L
L14L
tp557
F0.0903193926158212
s(V16*
p558
L5L
L14L
tp559
F0.0903193926158212
s(V16*DS
p560
L8L
L14L
tp561
F-0.5562893275688905
s(L11L
L23L
Ntp562
L0L
s(L11L
L17L
Ntp563
L0L
s(L4L
L25L
Ntp564
L0L
s(V19*D
p565
L9L
L14L
tp566
F0.22331175232915984
s(V14*
p567
L3L
L14L
tp568
F-0.061676675906486095
s(L4L
L19L
Ntp569
L0L
s(V18*
p570
L2L
L14L
tp571
F0.17495604107164037
s(V17*AD
p572
L6L
L14L
tp573
F0.521680761483492
s(L16L
L20L
Ntp574
L0L
s(V21*
p575
L3L
L14L
tp576
F0.8812560633229914
s(V9*
p577
L4L
L14L
tp578
F0.3405118781720034
s(L18L
L17L
Ntp579
L0L
s(V14*AD
p580
L2L
L14L
tp581
F0.05352701147917565
s(V12*
p582
L4L
L14L
tp583
F0.01878378220339441
s(L9L
L24L
Ntp584
L0L
s(V21*A
p585
L10L
L14L
tp586
F0.7734444098481102
s(L13L
L26L
Ntp587
L0L
s(V13*D
p588
L9L
L14L
tp589
F-0.509328816754819
s(V20*D
p590
L9L
L14L
tp591
F0.7881874742993551
s(V9*D
p592
L3L
L14L
tp593
F0.4990296042948443
s(V10*D
p594
L4L
L14L
tp595
F0.9043792783138315
s(L30L
NNtp596
L0L
s(V11*D
p597
L2L
L14L
tp598
F0.8278767196485172
s(V8*DS
p599
L2L
L14L
tp600
F0.10934368125454541
s(V18*DS
p601
L9L
L14L
tp602
F-0.311587174579588
s(V19*A
p603
L5L
L14L
tp604
F0.5552556115493757
s(g301
L11L
L14L
tp605
F-0.6428828373500488
s(L16L
L24L
Ntp606
L0L
s(V7*D
p607
L10L
L14L
tp608
F-0.49969898628711534
s(V17*
p609
L10L
L14L
tp610
F-0.5738789749297978
s(V10*
p611
L5L
L14L
tp612
F0.5079735157907447
s(L12L
L20L
Ntp613
L0L
s(V14*
p614
L10L
L14L
tp615
F-0.6547742413670609
s(V10*DS
p616
L7L
L14L
tp617
F0.8300735861617559
s(V18*AD
p618
L2L
L14L
tp619
F0.2888827517435549
s(V18*D
p620
L5L
L14L
tp621
F0.3770117614744573
s(L17L
L23L
Ntp622
L0L
s(L6L
L21L
Ntp623
L0L
s(V15*D
p624
L2L
L14L
tp625
F-0.1398323290267473
s(V20*DS
p626
L7L
L14L
tp627
F0.8369271933502098
s(L10L
L20L
Ntp628
L0L
s(L10L
L19L
Ntp629
L0L
s(V20*
p630
L3L
L14L
tp631
F0.6472648098580892
s(V19*A
p632
L10L
L14L
tp633
F-0.2035117667585388
s(V8*D
p634
L2L
L14L
tp635
F0.10934368125454541
s(V20*DS
p636
L21L
Ntp637
L0L
s(V14*DS
p638
L7L
L14L
tp639
F-0.4703387942890987
s(V14*
p640
L5L
L14L
tp641
F0.0903193926158212
s(V6*DS
p642
L2L
L14L
tp643
F-0.036440759744647805
s(L14L
L22L
Ntp644
L0L
s(V18*A
p645
L21L
Ntp646
L0L
s(V21*
p647
L9L
L14L
tp648
F0.9578199951058128
s(V14*AD
p649
L8L
L14L
tp650
F-0.1746356864085097
s(L15L
L25L
Ntp651
L0L
s(V11*
p652
L7L
L14L
tp653
F0.4272291110709935
s(V7*
p654
L5L
L14L
tp655
F0.22023638806023593
s(V17*A
p656
L3L
L14L
tp657
F0.11999113400690689
s(V15*D
p658
L7L
L14L
tp659
F-0.5003237241549772
s(V13*D
p660
L3L
L14L
tp661
F-0.061676675906486095
s(V10*D
p662
L10L
L14L
tp663
F0.018305673587627674
s(V20*D
p664
L7L
L14L
tp665
F0.8369271933502098
s(V5*D
p666
L7L
L14L
tp667
F-0.24935633647319205
s(V15*D
p668
L11L
L14L
tp669
F-0.7437681964293172
s(L18L
L24L
Ntp670
L0L
s(V16*D
p671
L6L
L14L
tp672
F0.027216626688085804
s(V20*D
p673
L21L
Ntp674
L0L
s(V8*D
p675
L7L
L14L
tp676
F0.20464415919272466
s(V15*AD
p677
L5L
L14L
tp678
F0.41202467046916436
s(V18*D
p679
L21L
Ntp680
L0L
s(V19*A
p681
L3L
L14L
tp682
F0.4350867689180703
s(V16*
p683
L6L
L14L
tp684
F0.027216626688085804
s(g152
L11L
L14L
tp685
F-0.5171501023914654
s(V12*D
p686
L5L
L14L
tp687
F0.0903193926158212
s(V20*A
p688
L10L
L14L
tp689
F0.3219010009371389
s(V18*
p690
L9L
L14L
tp691
F-0.311587174579588
s(L15L
L21L
Ntp692
L0L
s(V13*A
p693
L5L
L14L
tp694
F0.27862482244110326
s(V19*D
p695
L6L
L14L
tp696
F0.6184890712017248
s(V7*
p697
L10L
L14L
tp698
F-0.49969898628711534
s(V18*
p699
L5L
L14L
tp700
F0.3770117614744573
s(V19*AD
p701
L4L
L14L
tp702
F0.7203273876605012
s(V9*
p703
L7L
L14L
tp704
F0.32758568978576597
s(V10*DS
p705
L9L
L14L
tp706
F0.4558762130946087
s(g679
L11L
L14L
tp707
F-0.4664009096969802
s(V17*A
p708
L6L
L14L
tp709
F0.26084038074174604
s(g668
L21L
Ntp710
L0L
s(V12*
p711
L3L
L14L
tp712
F-0.061676675906486095
s(L21L
NNtp713
L0L
s(V14*D
p714
L9L
L14L
tp715
F-0.5801544779834699
s(L21L
L8L
L14L
tp716
F1.5
s(V16*D
p717
L9L
L14L
tp718
F-0.6115378932076727
s(V17*A
p719
L10L
L14L
tp720
F-0.4428520724930272
s(V21*A
p721
L9L
L14L
tp722
F0.9578199951058128
s(V18*DS
p723
L21L
Ntp724
L0L
s(V27*
p725
NNtp726
L0L
s(V20*
p727
L9L
L14L
tp728
F0.7881874742993551
s(V20*A
p729
L21L
Ntp730
L0L
s(L8L
L18L
Ntp731
L0L
s(L8L
L21L
Ntp732
L0L
s(V13*AD
p733
L4L
L14L
tp734
F0.3606394902196111
s(V6*DS
p735
L4L
L14L
tp736
F0.10946795336683521
s(V20*A
p737
L3L
L14L
tp738
F0.6472648098580892
s(V9*
p739
L8L
L14L
tp740
F0.2224033869038992
s(V17*
p741
L9L
L14L
tp742
F-0.5103003943190421
s(V10*
p743
L6L
L14L
tp744
F0.5230336527782309
s(V18*AD
p745
L9L
L14L
tp746
F-0.22915118522405592
s(L6L
L19L
Ntp747
L0L
s(V15*
p748
L4L
L14L
tp749
F0.01878378220339441
s(L6L
L25L
Ntp750
L0L
s(V12*ADS
p751
L9L
L14L
tp752
F-0.13025407504026687
s(V7*
p753
L3L
L14L
tp754
F0.07813675819554984
s(V18*AD
p755
L5L
L14L
tp756
F0.6769151960450309
s(V18*D
p757
L2L
L14L
tp758
F0.17495604107164037
s(V18*A
p759
L10L
L14L
tp760
F-0.3650525115077314
s(g92
L21L
Ntp761
L0L
s(V20*DS
p762
L8L
L14L
tp763
F0.853670837955679
s(V15*AD
p764
L3L
L14L
tp765
F0.1320999758554915
s(V19*A
p766
L9L
L14L
tp767
F0.22331175232915984
s(V16*
p768
L8L
L14L
tp769
F-0.5562893275688905
s(V28*
p770
NNtp771
L0L
s(V17*
p772
L6L
L14L
tp773
F0.21074305203126756
s(L20L
L25L
Ntp774
L0L
s(V10*
p775
L9L
L14L
tp776
F0.24279231320489475
s(V14*DS
p777
L4L
L14L
tp778
F0.01878378220339441
s(g120
L11L
L14L
tp779
F-0.5180779301008935
s(V16*A
p780
L4L
L14L
tp781
F0.15192419962864323
s(L9L
L17L
Ntp782
L0L
s(V14*
p783
L6L
L14L
tp784
F0.027216626688085804
s(L9L
L22L
Ntp785
L0L
s(V15*A
p786
L3L
L14L
tp787
F0.08467217619178517
s(V16*AD
p788
L9L
L14L
tp789
F-0.35389884164040664
s(V16*A
p790
L8L
L14L
tp791
F-0.260692085148678
s(V12*DS
p792
L8L
L14L
tp793
F-0.370285895292638
s(V21*A
p794
L7L
L14L
tp795
F0.94579695283644
s(g398
L21L
Ntp796
L0L
s(g211
L21L
Ntp797
L0L
s(V21*A
p798
L21L
Ntp799
L0L
s(V15*AD
p800
L10L
L14L
tp801
F-0.46219129016677124
s(L25L
NNtp802
L0L
s(V14*DS
p803
L11L
L14L
tp804
F-0.743586285522602
s(L8L
L24L
Ntp805
L0L
s(L14L
L20L
Ntp806
L0L
s(V12*D
p807
L2L
L14L
tp808
F-0.1398323290267473
s(V6*D
p809
L7L
L14L
tp810
F-0.2573111318000067
s(V17*D
p811
L6L
L14L
tp812
F0.21074305203126756
s(L26L
NNtp813
L0L
s(L21L
L26L
Ntp814
L0L
s(V13*A
p815
L2L
L14L
tp816
F0.08600900415701425
s(L21L
L19L
Ntp817
L0L
s(V15*
p818
L10L
L14L
tp819
F-0.6687405670604988
s(V12*ADS
p820
L3L
L14L
tp821
F0.17290617981284545
s(V19*
p822
L10L
L14L
tp823
F-0.2035117667585388
s(V12*DS
p824
L21L
Ntp825
L0L
s(V19*AD
p826
L3L
L14L
tp827
F0.5933228782177923
s(V7*
p828
L9L
L14L
tp829
F-0.39850018679275223
s(V10*DS
p830
L10L
L14L
tp831
F0.018305673587627674
s(V18*D
p832
L8L
L14L
tp833
F0.10093734573912133
s(V8*
p834
L9L
L14L
tp835
F-0.2911103317774402
s(L11L
L19L
Ntp836
L0L
s(V19*
p837
L6L
L14L
tp838
F0.6184890712017248
s(L11L
L20L
Ntp839
L0L
s(V18*A
p840
L4L
L14L
tp841
F0.3108144844188142
s(V16*D
p842
L10L
L14L
tp843
F-0.6687405670604988
s(V20*DS
p844
L2L
L14L
tp845
F0.6363081392105484
s(L14L
L18L
Ntp846
L0L
s(V14*A
p847
L5L
L14L
tp848
F0.25169085045562645
s(L4L
L23L
Ntp849
L0L
s(V20*
p850
L6L
L14L
tp851
F0.771564704351406
s(L18L
L21L
Ntp852
L0L
s(g47
L21L
Ntp853
L0L
s(g508
L11L
L14L
tp854
F-0.108626556909338
s(V20*AD
p855
L5L
L14L
tp856
F0.7331362980987478
s(g528
L11L
L14L
tp857
F-0.5171501023914654
s(V14*DS
p858
L2L
L14L
tp859
F-0.1398323290267473
s(L15L
L19L
Ntp860
L0L
s(V13*AD
p861
L7L
L14L
tp862
F-0.012501368649611174
s(V13*
p863
L6L
L14L
tp864
F0.027216626688085804
s(V9*
p865
L11L
L14L
tp866
F-0.40520123688480764
s(V6*
p867
L5L
L14L
tp868
F0.17775418713191046
s(V16*A
p869
L2L
L14L
tp870
F0.012514407703980327
s(V7*D
p871
L3L
L14L
tp872
F0.07813675819554984
s(V15*
p873
L3L
L14L
tp874
F-0.061676675906486095
s(V14*D
p875
L5L
L14L
tp876
F0.0903193926158212
s(V12*DS
p877
L2L
L14L
tp878
F-0.1398323290267473
s(L21L
L4L
L14L
tp879
F1.5
s(V12*ADS
p880
L10L
L14L
tp881
F-0.30641477915010873
s(L6L
L20L
Ntp882
L0L
s(L8L
L26L
Ntp883
L0L
s(L12L
L24L
Ntp884
L0L
s(V13*AD
p885
L8L
L14L
tp886
F-0.09090601914725224
s(V15*A
p887
L8L
L14L
tp888
F-0.24317054228934057
s(V16*DS
p889
L11L
L14L
tp890
F-0.7437681964293172
s(V17*
p891
L5L
L14L
tp892
F0.189017423790463
s(L27L
NNtp893
L0L
s(V10*
p894
L10L
L14L
tp895
F-0.03310141178333453
s(V13*A
p896
L8L
L14L
tp897
F-0.09090601914725224
s(L10L
L23L
Ntp898
L0L
s(V12*ADS
p899
L5L
L14L
tp900
F0.302007898318258
s(V15*A
p901
L4L
L14L
tp902
F0.15647444842817734
s(V8*
p903
L3L
L14L
tp904
F0.1723908046258705
s(V17*AD
p905
L9L
L14L
tp906
F-0.32388021493567987
s(V4*DS
p907
L6L
L14L
tp908
F0.15912208451438606
s(g824
L11L
L14L
tp909
F-0.6673793209701331
s(g165
L11L
L14L
tp910
F-0.5614870119647899
s(V13*D
p911
L10L
L14L
tp912
F-0.6011712781805366
s(V10*D
p913
L3L
L14L
tp914
F0.8003239209222717
s(V9*D
p915
L4L
L14L
tp916
F0.6333610114978409
s(L9L
L25L
Ntp917
L0L
s(V11*D
p918
L5L
L14L
tp919
F1.0868637058987363
s(g342
L11L
L14L
tp920
F-0.024120559596899117
s(L9L
L23L
Ntp921
L0L
s(V14*DS
p922
L8L
L14L
tp923
F-0.5226778881541303
s(L9L
L20L
Ntp924
L0L
s(V6*
p925
L3L
L14L
tp926
F0.034469709136865215
s(V16*AD
p927
L5L
L14L
tp928
F0.42265368921104884
s(V6*D
p929
L4L
L14L
tp930
F0.10946795336683521
s(V16*DS
p931
L2L
L14L
tp932
F-0.1398323290267473
s(L16L
L19L
Ntp933
L0L
s(V7*D
p934
L9L
L14L
tp935
F-0.39850018679275223
s(g181
L21L
Ntp936
L0L
s(V23*
p937
NNtp938
L0L
s(V15*
p939
L9L
L14L
tp940
F-0.6115378932076727
s(L11L
L24L
Ntp941
L0L
s(V8*
p942
L10L
L14L
tp943
F-0.41725641027653443
s(V18*A
p944
L7L
L14L
tp945
F0.5421646523492403
s(V12*
p946
L10L
L14L
tp947
F-0.5568996147153267
s(V14*A
p948
L2L
L14L
tp949
F0.05352701147917565
s(L29L
NNtp950
L0L
s(L21L
L24L
Ntp951
L0L
s(V6*D
p952
L11L
L14L
tp953
F-0.6428828373500488
s(V20*AD
p954
L2L
L14L
tp955
F0.6363081392105484
s(V17*D
p956
L10L
L14L
tp957
F-0.5738789749297978
s(V8*DS
p958
L8L
L14L
tp959
F-0.03953886833868889
s(L14L
L25L
Ntp960
L0L
s(L10L
L18L
Ntp961
L0L
s(L10L
L17L
Ntp962
L0L
s(V18*DS
p963
L7L
L14L
tp964
F0.5421646523492403
s(V13*
p965
L9L
L14L
tp966
F-0.509328816754819
s(V6*
p967
L10L
L14L
tp968
F-0.5327888130596015
s(V8*
p969
L5L
L14L
tp970
F0.30881931552751973
s(V17*AD
p971
L3L
L14L
tp972
F0.23998226801381384
s(V14*AD
p973
L7L
L14L
tp974
F-0.09623520745006346
s(V14*D
p975
L2L
L14L
tp976
F-0.1398323290267473
s(V12*DS
p977
L5L
L14L
tp978
F0.0903193926158212
s(L21L
L3L
L14L
tp979
F1.5
s(V11*
p980
L4L
L14L
tp981
F0.4954112306650553
s(L8L
L17L
Ntp982
L0L
s(L18L
L19L
Ntp983
L0L
s(V13*D
p984
L4L
L14L
tp985
F0.01878378220339441
s(V10*D
p986
L9L
L14L
tp987
F0.4558762130946087
s(V20*D
p988
L4L
L14L
tp989
F0.6836625807186008
s(V5*D
p990
L8L
L14L
tp991
F-0.33133552134076005
s(L21L
L23L
Ntp992
L0L
s(V15*D
p993
L8L
L14L
tp994
F-0.5562893275688905
s(V8*DS
p995
L7L
L14L
tp996
F0.20464415919272466
s(V13*AD
p997
L11L
L14L
tp998
F-0.5180779301008935
s(V6*D
p999
L2L
L14L
tp1000
F-0.036440759744647805
s(V8*D
p1001
L8L
L14L
tp1002
F-0.03953886833868889
s(V17*D
p1003
L3L
L14L
tp1004
F0.04131294735842171
s(V16*DS
p1005
L4L
L14L
tp1006
F0.01878378220339441
s(g305
L11L
L14L
tp1007
F0.1294778713896539
s(V12*ADS
p1008
L6L
L14L
tp1009
F0.2817805061819727
s(V19*D
p1010
L5L
L14L
tp1011
F0.5552556115493757
s(V18*
p1012
L6L
L14L
tp1013
F0.46799221920247613
s(V17*AD
p1014
L10L
L14L
tp1015
F-0.4428520724930272
s(V21*
p1016
L7L
L14L
tp1017
F0.94579695283644
s(V4*DS
p1018
L5L
L14L
tp1019
F0.19721017895426057
s(L16L
L26L
Ntp1020
L0L
s(V14*A
p1021
L8L
L14L
tp1022
F-0.1746356864085097
s(L9L
L18L
Ntp1023
L0L
s(V15*
p1024
L21L
Ntp1025
L0L
s(V17*A
p1026
L9L
L14L
tp1027
F-0.32388021493567987
s(V9*D
p1028
L7L
L14L
tp1029
F0.529796805821875
s(V11*D
p1030
L6L
L14L
tp1031
F1.091042071966848
s(V20*AD
p1032
L8L
L14L
tp1033
F0.853670837955679
s(g997
L21L
Ntp1034
L0L
s(V13*
p1035
L3L
L14L
tp1036
F-0.061676675906486095
s(V16*AD
p1037
L2L
L14L
tp1038
F0.012514407703980327
s(V6*DS
p1039
L7L
L14L
tp1040
F-0.2573111318000067
s(g8
L11L
L14L
tp1041
F-0.6673793209701331
s(V7*D
p1042
L6L
L14L
tp1043
F0.2984470605681113
s(V20*A
p1044
L4L
L14L
tp1045
F0.6836625807186008
s(V4*DS
p1046
L10L
L14L
tp1047
F-0.4915327987751107
s(L23L
NNtp1048
L0L
s(L8L
L20L
Ntp1049
L0L
s(V11*
p1050
L10L
L14L
tp1051
F0.08436884719252208
s(L8L
L23L
Ntp1052
L0L
s(V19*AD
p1053
L10L
L14L
tp1054
F-0.2035117667585388
s(V10*DS
p1055
L3L
L14L
tp1056
F0.8003239209222717
s(V18*AD
p1057
L6L
L14L
tp1058
F0.7357600829193117
s(V9*D
p1059
L8L
L14L
tp1060
F0.3207926086078978
s(V20*D
p1061
L2L
L14L
tp1062
F0.6363081392105484
s(V5*D
p1063
L2L
L14L
tp1064
F-0.033325965136203665
s(V12*
p1065
L9L
L14L
tp1066
F-0.44804625173292445
s(V19*D
p1067
L21L
Ntp1068
L0L
s(V16*D
p1069
L3L
L14L
tp1070
F-0.061676675906486095
s(g636
L11L
L14L
tp1071
F-0.024120559596899117
s(L21L
L20L
Ntp1072
L0L
s(V14*D
p1073
L21L
Ntp1074
L0L
s(L16L
L21L
Ntp1075
L0L
s(V16*
p1076
L11L
L14L
tp1077
F-0.7437681964293172
s(V6*D
p1078
L8L
L14L
tp1079
F-0.3449931945596487
s(L19L
L17L
Ntp1080
L0L
s(V18*DS
p1081
L4L
L14L
tp1082
F0.3108144844188142
s(g1067
L11L
L14L
tp1083
F-0.2489229855466417
s(V8*
p1084
L6L
L14L
tp1085
F0.3365328849969217
s(V17*AD
p1086
L4L
L14L
tp1087
F0.38209993335005255
s(V9*
p1088
L2L
L14L
tp1089
F0.22295737648260477
s(L20L
L24L
Ntp1090
L0L
s(V4*DS
p1091
L3L
L14L
tp1092
F0.05640816829974216
s(V16*A
p1093
L11L
L14L
tp1094
F-0.6005392327048882
s(V14*AD
p1095
L4L
L14L
tp1096
F0.3248383241457155
s(V12*
p1097
L6L
L14L
tp1098
F0.027216626688085804
s(V11*
p1099
L3L
L14L
tp1100
F0.45119955187440774
s(L20L
L18L
Ntp1101
L0L
s(L15L
L23L
Ntp1102
L0L
s(V21*A
p1103
L4L
L14L
tp1104
F0.8884475438299976
s(V13*D
p1105
L7L
L14L
tp1106
F-0.39278542872826994
s(V10*D
p1107
L6L
L14L
tp1108
F1.0460673055564615
s(g673
L11L
L14L
tp1109
F-0.024120559596899117
s(V5*D
p1110
L11L
L14L
tp1111
F-0.6373371844744012
s(g554
L11L
L14L
tp1112
F-0.2489229855466417
s(V8*DS
p1113
L4L
L14L
tp1114
F0.3948410498300796
s(V15*AD
p1115
L9L
L14L
tp1116
F-0.3382315720179562
s(g723
L11L
L14L
tp1117
F-0.4664009096969802
s(L17L
L22L
Ntp1118
L0L
s(V19*A
p1119
L7L
L14L
tp1120
F0.7306603798507489
s(V16*
p1121
L2L
L14L
tp1122
F-0.1398323290267473
s(V6*DS
p1123
L9L
L14L
tp1124
F-0.43161677082514827
s(V14*
p1125
L4L
L14L
tp1126
F0.01878378220339441
s(L8L
L25L
Ntp1127
L0L
s(L20L
L20L
Ntp1128
L0L
s(V10*
p1129
L3L
L14L
tp1130
F0.40016196046113583
s(L14L
L26L
Ntp1131
L0L
s(V19*D
p1132
L2L
L14L
tp1133
F0.39474550175812184
s(V14*
p1134
L8L
L14L
tp1135
F-0.5226778881541303
s(V10*DS
p1136
L5L
L14L
tp1137
F1.0159470315814894
s(V18*D
p1138
L7L
L14L
tp1139
F0.5421646523492403
s(V19*
p1140
L5L
L14L
tp1141
F0.5552556115493757
s(V15*D
p1142
L4L
L14L
tp1143
F0.01878378220339441
s(L21L
L17L
Ntp1144
L0L
s(V20*DS
p1145
L5L
L14L
tp1146
F0.7331362980987478
s(V20*
p1147
L5L
L14L
tp1148
F0.7331362980987478
s(g396
L21L
Ntp1149
L0L
s(L15L
L24L
Ntp1150
L0L
s(V8*D
p1151
L4L
L14L
tp1152
F0.3948410498300796
s(L19L
L24L
Ntp1153
L0L
s(L4L
L17L
Ntp1154
L0L
s(L19L
L18L
Ntp1155
L0L
s(V18*DS
p1156
L2L
L14L
tp1157
F0.17495604107164037
s(V18*
p1158
L10L
L14L
tp1159
F-0.3876308954009621
s(V12*D
p1160
L8L
L14L
tp1161
F-0.370285895292638
s(V20*A
p1162
L7L
L14L
tp1163
F0.8369271933502098
s(L9L
L26L
Ntp1164
L0L
s(V7*
p1165
L11L
L14L
tp1166
F-0.6091027282372442
s(V4*DS
p1167
L9L
L14L
tp1168
F-0.3748623031215825
s(L18L
L25L
Ntp1169
L0L
s(V14*AD
p1170
L10L
L14L
tp1171
F-0.4077085477693114
s(V11*
p1172
L9L
L14L
tp1173
F0.26403222513258684
s(V21*A
p1174
L2L
L14L
tp1175
F0.8794179076260521
s(V7*
p1176
L7L
L14L
tp1177
F-0.0525071154488425
s(V17*A
p1178
L5L
L14L
tp1179
F0.2575123587946278
s(V19*AD
p1180
L9L
L14L
tp1181
F0.22331175232915984
s(V16*D
p1182
L8L
L14L
tp1183
F-0.5562893275688905
s(V9*D
p1184
L11L
L14L
tp1185
F-0.40520123688480764
s(V5*D
p1186
L5L
L14L
tp1187
F0.18019249989245265
s(L16L
L25L
Ntp1188
L0L
s(V16*D
p1189
L4L
L14L
tp1190
F0.01878378220339441
s(V15*AD
p1191
L7L
L14L
tp1192
F-0.162801085051151
s(g352
L21L
Ntp1193
L0L
s(V16*
p1194
L4L
L14L
tp1195
F0.01878378220339441
s(V12*D
p1196
L7L
L14L
tp1197
F-0.31165404717696477
s(V20*A
p1198
L8L
L14L
tp1199
F0.853670837955679
s(L8L
L22L
Ntp1200
L0L
s(V17*
p1201
L2L
L14L
tp1202
F-0.03281539361535436
s(V9*
p1203
L9L
L14L
tp1204
F-0.0299047537446004
s(V13*A
p1205
L7L
L14L
tp1206
F-0.012501368649611174
s(V19*D
p1207
L8L
L14L
tp1208
F0.6749371994941911
s(L20L
L23L
Ntp1209
L0L
s(V14*
p1210
L2L
L14L
tp1211
F-0.1398323290267473
s(V15*A
p1212
L7L
L14L
tp1213
F-0.162801085051151
s(V18*
p1214
L3L
L14L
tp1215
F0.24122930769463272
s(V19*AD
p1216
L6L
L14L
tp1217
F0.8859576902395032
s(g803
L21L
Ntp1218
L0L
s(V18*AD
p1219
L10L
L14L
tp1220
F-0.3650525115077314
s(V9*
p1221
L5L
L14L
tp1222
F0.4025018467614542
s(V25*
p1223
NNtp1224
L0L
s(V12*
p1225
L5L
L14L
tp1226
F0.0903193926158212
s(V19*
p1227
L3L
L14L
tp1228
F0.4350867689180703
s(L10L
L21L
Ntp1229
L0L
s(g1073
L11L
L14L
tp1230
F-0.743586285522602
s(L21L
L10L
L14L
tp1231
F1.3442307692307693
s(g798
L11L
L14L
tp1232
F0.1294778713896539
s(L18L
L18L
Ntp1233
L0L
s(g1184
L21L
Ntp1234
L0L
s(V15*A
p1235
L21L
Ntp1236
L0L
s(V20*
p1237
L11L
L14L
tp1238
F-0.024120559596899117
s(V15*AD
p1239
L2L
L14L
tp1240
F0.017908197764892286
s(L17L
L26L
Ntp1241
L0L
s(L19L
L23L
Ntp1242
L0L
s(V17*
p1243
L7L
L14L
tp1244
F-0.04752734906522778
s(V10*
p1245
L8L
L14L
tp1246
F0.35581371451534394
s(V18*DS
p1247
L8L
L14L
tp1248
F0.10093734573912133
s(V13*AD
p1249
L2L
L14L
tp1250
F0.09218761017444675
s(V6*DS
p1251
L10L
L14L
tp1252
F-0.5327888130596015
s(L20L
L26L
Ntp1253
L0L
s(V17*
p1254
L11L
L14L
tp1255
F-0.6583450687361632
s(V16*A
p1256
L7L
L14L
tp1257
F-0.17407394279286928
s(V10*
p1258
L4L
L14L
tp1259
F0.45218963915691573
s(L9L
L21L
Ntp1260
L0L
s(V15*
p1261
L6L
L14L
tp1262
F0.027216626688085804
s(V10*DS
p1263
L6L
L14L
tp1264
F1.0460673055564615
s(V18*AD
p1265
L3L
L14L
tp1266
F0.4124975453362948
s(V18*D
p1267
L4L
L14L
tp1268
F0.3108144844188142
s(g202
L21L
Ntp1269
L0L
s(V18*A
p1270
L8L
L14L
tp1271
F0.10093734573912133
s(V15*D
p1272
L3L
L14L
tp1273
F-0.061676675906486095
s(V20*DS
p1274
L6L
L14L
tp1275
F0.771564704351406
s(L15L
L20L
Ntp1276
L0L
s(V20*
p1277
L2L
L14L
tp1278
F0.6363081392105484
s(V14*DS
p1279
L10L
L14L
tp1280
F-0.6547742413670609
s(g1254
L21L
Ntp1281
L0L
s(V8*D
p1282
L3L
L14L
tp1283
F0.24731012283688947
s(V14*DS
p1284
L6L
L14L
tp1285
F0.027216626688085804
s(L21L
L25L
Ntp1286
L0L
s(V13*
p1287
L10L
L14L
tp1288
F-0.6011712781805366
s(g497
L11L
L14L
tp1289
F-0.6005392327048882
s(V6*
p1290
L9L
L14L
tp1291
F-0.43161677082514827
s(V19*
p1292
L9L
L14L
tp1293
F0.22331175232915984
s(g1237
L21L
Ntp1294
L0L
s(g889
L21L
Ntp1295
L0L
s(V12*DS
p1296
L6L
L14L
tp1297
F0.027216626688085804
s(L14L
L21L
Ntp1298
L0L
s(V17*A
p1299
L2L
L14L
tp1300
F0.05380884782271978
s(L19L
L26L
Ntp1301
L0L
s(V15*AD
p1302
L4L
L14L
tp1303
F0.2780102754427447
s(L8L
L19L
Ntp1304
L0L
s(g1093
L21L
Ntp1305
L0L
s(V12*D
p1306
L4L
L14L
tp1307
F0.01878378220339441
s(g729
L11L
L14L
tp1308
F-0.024120559596899117
s(V16*DS
p1309
L7L
L14L
tp1310
F-0.5003237241549772
s(V17*D
p1311
L4L
L14L
tp1312
F0.11818615796059592
s(V13*A
p1313
L4L
L14L
tp1314
F0.2149749682152555
s(g1076
L21L
Ntp1315
L0L
s(L16L
L17L
Ntp1316
L0L
s(V19*AD
p1317
L5L
L14L
tp1318
F0.8417639802820996
s(V10*DS
p1319
L8L
L14L
tp1320
F0.678746550431075
s(V18*D
p1321
L10L
L14L
tp1322
F-0.3876308954009621
s(V21*
p1323
L4L
L14L
tp1324
F0.8884475438299976
s(V18*A
p1325
L2L
L14L
tp1326
F0.17495604107164037
s(V14*D
p1327
L8L
L14L
tp1328
F-0.5226778881541303
s(L21L
L9L
L14L
tp1329
F1.5
s(L15L
L18L
Ntp1330
L0L
s(V14*A
p1331
L7L
L14L
tp1332
F-0.09623520745006346
s(V20*
p1333
L8L
L14L
tp1334
F0.853670837955679
s(V13*AD
p1335
L9L
L14L
tp1336
F-0.19094314931051581
s(L20L
L22L
Ntp1337
L0L
s(V11*D
p1338
L9L
L14L
tp1339
F0.4807492447911741
s(V20*AD
p1340
L7L
L14L
tp1341
F0.8369271933502098
s(L20L
L17L
Ntp1342
L0L
s(L22L
NNtp1343
L0L
s(V13*AD
p1344
L5L
L14L
tp1345
F0.4908302522680773
s(g1235
L11L
L14L
tp1346
F-0.5930033874678468
s(V13*
p1347
L4L
L14L
tp1348
F0.01878378220339441
s(V12*ADS
p1349
L4L
L14L
tp1350
F0.2391712874693111
s(V6*
p1351
L7L
L14L
tp1352
F-0.2573111318000067
s(V7*D
p1353
L5L
L14L
tp1354
F0.3221778723550616
s(V15*
p1355
L5L
L14L
tp1356
F0.0903193926158212
s(V14*D
p1357
L7L
L14L
tp1358
F-0.4703387942890987
s(L21L
L6L
L14L
tp1359
F1.5
s(V12*ADS
p1360
L8L
L14L
tp1361
F-0.012382642450671175
s(g952
L21L
Ntp1362
L0L
s(L17L
L18L
Ntp1363
L0L
s(L17L
L24L
Ntp1364
L0L
s(g645
L11L
L14L
tp1365
F-0.4664009096969802
s(L19L
L25L
Ntp1366
L0L
s(V16*DS
p1367
L9L
L14L
tp1368
F-0.6115378932076727
s(V6*
p1369
L2L
L14L
tp1370
F-0.036440759744647805
s(L21L
L21L
Ntp1371
L0L
s(L21L
L18L
Ntp1372
L0L
s(V13*A
p1373
L10L
L14L
tp1374
F-0.34798295524700584
s(L14L
L19L
Ntp1375
L0L
s(L16L
L23L
Ntp1376
L0L
s(V15*A
p1377
L2L
L14L
tp1378
F0.017908197764892286
s(V16*AD
p1379
L8L
L14L
tp1380
F-0.260692085148678
s(V17*AD
p1381
L7L
L14L
tp1382
F0.013854048900469068
s(V21*
p1383
L2L
L14L
tp1384
F0.8794179076260521
s(V14*AD
p1385
L3L
L14L
tp1386
F0.18287327719861718
s(V12*DS
p1387
L9L
L14L
tp1388
F-0.44804625173292445
s(L12L
L22L
Ntp1389
L0L
s(L4L
L21L
Ntp1390
L0L
s(L12L
L17L
Ntp1391
L0L
s(V13*D
p1392
L8L
L14L
tp1393
F-0.4470954132637737
s(V20*D
p1394
L8L
L14L
tp1395
F0.853670837955679
s(V9*D
p1396
L2L
L14L
tp1397
F0.3905376840801091
s(V10*D
p1398
L5L
L14L
tp1399
F1.0159470315814894
s(V11*D
p1400
L3L
L14L
tp1401
F0.9023991037488154
s(V8*DS
p1402
L3L
L14L
tp1403
F0.24731012283688947
s(V6*D
p1404
L10L
L14L
tp1405
F-0.5327888130596015
s(V19*A
p1406
L4L
L14L
tp1407
F0.4972352544485217
s(V16*AD
p1408
L7L
L14L
tp1409
F-0.17407394279286928
s(V6*D
p1410
L6L
L14L
tp1411
F0.1374915204057537
s(V17*D
p1412
L7L
L14L
tp1413
F-0.04752734906522778
s(g133
L11L
L14L
tp1414
F-0.6091027282372442
s(V8*
p1415
L4L
L14L
tp1416
F0.24292219018579897
s(V22*
p1417
NNtp1418
L0L
s(g1024
L11L
L14L
tp1419
F-0.7437681964293172
s(V12*ADS
p1420
L2L
L14L
tp1421
F0.1134425812507555
s(L6L
L22L
Ntp1422
L0L
s(g56
L11L
L14L
tp1423
F-0.743586285522602
s(V8*
p1424
L8L
L14L
tp1425
F-0.03953886833868889
s(g95
L21L
Ntp1426
L0L
s(V18*A
p1427
L5L
L14L
tp1428
F0.3770117614744573
s.