(dp0
(V14*DS
p1
L10L
L13L
tp2
VDraw
p3
s(V19*AD
p4
L2L
L13L
tp5
VDouble
p6
s(L13L
L21L
Ntp7
Ns(V8*D
p8
L3L
L13L
tp9
g6
s(L13L
L18L
Ntp10
Ns(V19*
p11
L7L
L13L
tp12
VStay
p13
s(L13L
L24L
Ntp14
Ns(V14*DS
p15
L6L
L13L
tp16
g13
s(V15*D
p17
L6L
L13L
tp18
g13
s(V12*D
p19
L21L
Ntp20
Ns(V13*D
p21
L10L
L13L
tp22
g3
s(V20*
p23
L7L
L13L
tp24
g13
s(V17*AD
p25
L6L
L13L
tp26
g6
s(L6L
L26L
Ntp27
Ns(V8*D
p28
L6L
L13L
tp29
g6
s(V19*
p30
L21L
Ntp31
Ns(L15L
L26L
Ntp32
Ns(V14*DS
p33
L3L
L13L
tp34
g13
s(V17*A
p35
L2L
L13L
tp36
g3
s(L19L
L19L
Ntp37
Ns(V16*AD
p38
L5L
L13L
tp39
g6
s(L19L
L20L
Ntp40
Ns(V20*D
p41
L9L
L13L
tp42
g13
s(V9*D
p43
L3L
L13L
tp44
g6
s(V10*D
p45
L4L
L13L
tp46
g6
s(V7*D
p47
L9L
L13L
tp48
g3
s(V18*
p49
L8L
L13L
tp50
g13
s(V11*D
p51
L2L
L13L
tp52
g6
s(V15*
p53
L2L
L13L
tp54
g13
s(V17*A
p55
L7L
L13L
tp56
g3
s(L17L
L21L
Ntp57
Ns(V14*
p58
L21L
Ntp59
Ns(V19*A
p60
L5L
L13L
tp61
g13
s(V14*
p62
L10L
L13L
tp63
g3
s(V10*DS
p64
L8L
L13L
tp65
g6
s(V18*D
p66
L10L
L13L
tp67
g13
s(V17*D
p68
L10L
L13L
tp69
g13
s(V15*A
p70
L5L
L13L
tp71
g3
s(V17*AD
p72
L3L
L13L
tp73
g6
s(V18*AD
p74
L8L
L13L
tp75
g13
s(V13*AD
p76
L9L
L13L
tp77
g3
s(L4L
L24L
Ntp78
Ns(V11*
p79
L4L
L13L
tp80
g3
s(L4L
L18L
Ntp81
Ns(V13*AD
p82
L5L
L13L
tp83
g6
s(V20*D
p84
L4L
L13L
tp85
g13
s(V10*D
p86
L9L
L13L
tp87
g6
s(V12*ADS
p88
L4L
L13L
tp89
g3
s(V6*DS
p90
L2L
L13L
tp91
g3
s(L14L
L17L
Ntp92
Ns(L18L
L22L
Ntp93
Ns(V21*
p94
L9L
L13L
tp95
g13
s(V15*D
p96
L8L
L13L
tp97
g13
s(V14*AD
p98
L8L
L13L
tp99
g3
s(V12*ADS
p100
L8L
L13L
tp101
g3
s(V7*
p102
L5L
L13L
tp103
g3
s(V13*D
p104
L3L
L13L
tp105
g13
s(V8*D
p106
L8L
L13L
tp107
g3
s(V13*A
p108
L21L
Ntp109
Ns(V5*D
p110
L7L
L13L
tp111
g3
s(L4L
L20L
Ntp112
Ns(V16*A
p113
L5L
L13L
tp114
g3
s(V16*D
p115
L6L
L13L
tp116
g13
s(V19*D
p117
L5L
L13L
tp118
g13
s(V18*
p119
L6L
L13L
tp120
g13
s(V7*D
p121
L21L
Ntp122
Ns(V16*
p123
L6L
L13L
tp124
g13
s(V6*
p125
L2L
L13L
tp126
g3
s(V13*A
p127
L10L
L13L
tp128
g3
s(V17*A
p129
L9L
L13L
tp130
g3
s(V14*A
p131
L3L
L13L
tp132
g3
s(L15L
L22L
Ntp133
Ns(V9*
p134
L7L
L13L
tp135
g3
s(V12*DS
p136
L9L
L13L
tp137
g3
s(V20*AD
p138
L3L
L13L
tp139
g13
s(V8*D
p140
L21L
Ntp141
Ns(V21*A
p142
L9L
L13L
tp143
g13
s(V4*DS
p144
L21L
Ntp145
Ns(L13L
L19L
Ntp146
Ns(L20L
L21L
Ntp147
Ns(V6*DS
p148
L7L
L13L
tp149
g3
s(V13*
p150
L8L
L13L
tp151
g3
s(V6*
p152
L11L
L13L
tp153
g3
s(V14*A
p154
L21L
Ntp155
Ns(L6L
L17L
Ntp156
Ns(L17L
L25L
Ntp157
Ns(g30
L11L
L13L
tp158
g13
s(V6*D
p159
L10L
L13L
tp160
g3
s(V14*D
p161
L3L
L13L
tp162
g13
s(V12*DS
p163
L4L
L13L
tp164
g13
s(L21L
L2L
L13L
tp165
g13
s(V10*DS
p166
L3L
L13L
tp167
g6
s(V18*AD
p168
L6L
L13L
tp169
g6
s(V5*D
p170
L2L
L13L
tp171
g3
s(V6*D
p172
L6L
L13L
tp173
g3
s(V20*A
p174
L3L
L13L
tp175
g13
s(V8*
p176
L4L
L13L
tp177
g3
s(V17*
p178
L9L
L13L
tp179
g13
s(V16*D
p180
L3L
L13L
tp181
g13
s(V20*DS
p182
L11L
L13L
tp183
g13
s(V15*
p184
L11L
L13L
tp185
g13
s(V10*
p186
L6L
L13L
tp187
g3
s(L19L
L21L
Ntp188
Ns(L19L
L22L
Ntp189
Ns(V8*
p190
L8L
L13L
tp191
g3
s(L16L
L22L
Ntp192
Ns(V16*
p193
L11L
L13L
tp194
g13
s(V18*A
p195
L5L
L13L
tp196
g13
s(V6*D
p197
L3L
L13L
tp198
g3
s(V16*DS
p199
L5L
L13L
tp200
g13
s(V8*DS
p201
L6L
L13L
tp202
g6
s(L21L
L22L
Ntp203
Ns(V9*
p204
L2L
L13L
tp205
g3
s(V19*A
p206
L9L
L13L
tp207
g13
s(V16*A
p208
L11L
L13L
tp209
g3
s(V21*
p210
L6L
L13L
tp211
g13
s(V8*DS
p212
L10L
L13L
tp213
g3
s(V21*A
p214
L4L
L13L
tp215
g13
s(V14*DS
p216
L4L
L13L
tp217
g13
s(V14*
p218
L6L
L13L
tp219
g13
s(L12L
L21L
Ntp220
Ns(V7*D
p221
L2L
L13L
tp222
g3
s(V15*AD
p223
L9L
L13L
tp224
g3
s(L20L
L19L
Ntp225
Ns(V15*A
p226
L9L
L13L
tp227
g3
s(L4L
L26L
Ntp228
Ns(V16*AD
p229
L3L
L13L
tp230
g6
s(V10*
p231
L3L
L13L
tp232
g3
s(L17L
L19L
Ntp233
Ns(V7*D
p234
L7L
L13L
tp235
g3
s(L11L
L21L
Ntp236
Ns(L11L
L22L
Ntp237
Ns(V19*
p238
L5L
L13L
tp239
g13
s(L6L
L24L
Ntp240
Ns(V15*D
p241
L4L
L13L
tp242
g13
s(g144
L11L
L13L
tp243
g3
s(V20*
p244
L5L
L13L
tp245
g13
s(V7*
p246
L9L
L13L
tp247
g3
s(V17*AD
p248
L8L
L13L
tp249
g3
s(L13L
L22L
Ntp250
Ns(V10*DS
p251
L10L
L13L
tp252
g6
s(V8*D
p253
L4L
L13L
tp254
g6
s(V4*DS
p255
L7L
L13L
tp256
g3
s(V18*D
p257
L8L
L13L
tp258
g13
s(V9*D
p259
L9L
L13L
tp260
g3
s(V20*D
p261
L3L
L13L
tp262
g13
s(V17*D
p263
L21L
Ntp264
Ns(V14*A
p265
L10L
L13L
tp266
g3
s(V16*D
p267
L10L
L13L
tp268
g13
s(V20*DS
p269
L2L
L13L
tp270
g13
s(V18*
p271
L10L
L13L
tp272
g13
s(V9*D
p273
L5L
L13L
tp274
g6
s(V10*D
p275
L2L
L13L
tp276
g6
s(V17*AD
p277
L5L
L13L
tp278
g6
s(V11*D
p279
L4L
L13L
tp280
g6
s(V4*DS
p281
L2L
L13L
tp282
g3
s(V20*AD
p283
L10L
L13L
tp284
g13
s(L24L
NNtp285
Ns(V11*
p286
L2L
L13L
tp287
g3
s(V17*A
p288
L5L
L13L
tp289
g3
s(V13*AD
p290
L7L
L13L
tp291
g3
s(L12L
L19L
Ntp292
Ns(V10*D
p293
L7L
L13L
tp294
g6
s(V20*D
p295
L10L
L13L
tp296
g13
s(L12L
L26L
Ntp297
Ns(V9*
p298
L11L
L13L
tp299
g3
s(V6*DS
p300
L21L
Ntp301
Ns(V16*A
p302
L2L
L13L
tp303
g3
s(V21*
p304
L21L
Ntp305
Ns(V12*
p306
L7L
L13L
tp307
g3
s(V12*ADS
p308
L10L
L13L
tp309
g3
s(L17L
L17L
Ntp310
Ns(V13*
p311
L21L
Ntp312
Ns(V19*A
p313
L6L
L13L
tp314
g13
s(V12*
p315
L11L
L13L
tp316
g3
s(V24*
p317
NNtp318
Ns(V15*A
p319
L7L
L13L
tp320
g3
s(V19*D
p321
L3L
L13L
tp322
g13
s(V14*
p323
L9L
L13L
tp324
g3
s(V18*AD
p325
L10L
L13L
tp326
g3
s(L10L
L22L
Ntp327
Ns(V18*DS
p328
L10L
L13L
tp329
g13
s(L6L
L18L
Ntp330
Ns(V17*
p331
L5L
L13L
tp332
g13
s(V20*AD
p333
L21L
Ntp334
Ns(V10*
p335
L10L
L13L
tp336
g3
s(V13*A
p337
L8L
L13L
tp338
g3
s(V18*DS
p339
L6L
L13L
tp340
g13
s(L13L
L25L
Ntp341
Ns(V14*AD
p342
L6L
L13L
tp343
g6
s(L4L
L22L
Ntp344
Ns(V12*DS
p345
L11L
L13L
tp346
g3
s(L18L
L20L
Ntp347
Ns(V13*AD
p348
L2L
L13L
tp349
g3
s(V13*D
p350
L5L
L13L
tp351
g13
s(V18*DS
p352
L3L
L13L
tp353
g13
s(V5*D
p354
L9L
L13L
tp355
g3
s(L18L
L26L
Ntp356
Ns(V16*A
p357
L7L
L13L
tp358
g3
s(V21*
p359
L10L
L13L
tp360
g13
s(L11L
L26L
Ntp361
Ns(V14*AD
p362
L11L
L13L
tp363
g3
s(V12*ADS
p364
L21L
Ntp365
Ns(V14*DS
p366
L8L
L13L
tp367
g3
s(V7*
p368
L6L
L13L
tp369
g3
s(L11L
L25L
Ntp370
Ns(V5*D
p371
L4L
L13L
tp372
g3
s(V6*D
p373
L4L
L13L
tp374
g3
s(V16*DS
p375
L2L
L13L
tp376
g13
s(V16*D
p377
L5L
L13L
tp378
g13
s(V15*
p379
L9L
L13L
tp380
g13
s(V21*A
p381
L3L
L13L
tp382
g13
s(L10L
L26L
Ntp383
Ns(V8*
p384
L10L
L13L
tp385
g3
s(L10L
L25L
Ntp386
Ns(V16*
p387
L5L
L13L
tp388
g13
s(V18*A
p389
L7L
L13L
tp390
g13
s(V13*
p391
L10L
L13L
tp392
g3
s(V6*
p393
L9L
L13L
tp394
g3
s(V9*
p395
L4L
L13L
tp396
g3
s(g315
L21L
Ntp397
Ns(V19*
p398
L9L
L13L
tp399
g13
s(V12*DS
p400
L6L
L13L
tp401
g13
s(V12*D
p402
L6L
L13L
tp403
g13
s(V20*A
p404
L9L
L13L
tp405
g13
s(V8*DS
p406
L8L
L13L
tp407
g3
s(V21*A
p408
L10L
L13L
tp409
g13
s(L13L
L20L
Ntp410
Ns(V12*D
p411
L10L
L13L
tp412
g3
s(V20*A
p413
L5L
L13L
tp414
g13
s(V19*AD
p415
L7L
L13L
tp416
g13
s(V11*
p417
L11L
L13L
tp418
g3
s(V26*
p419
NNtp420
Ns(V19*AD
p421
L21L
Ntp422
Ns(g421
L11L
L13L
tp423
g13
s(L14L
L23L
Ntp424
Ns(V16*DS
p425
L7L
L13L
tp426
g13
s(V17*
p427
L10L
L13L
tp428
g13
s(V10*
p429
L5L
L13L
tp430
g3
s(L28L
NNtp431
Ns(L12L
L18L
Ntp432
Ns(L16L
L18L
Ntp433
Ns(V13*AD
p434
L11L
L13L
tp435
g3
s(V21*
p436
L4L
L13L
tp437
g13
s(V18*A
p438
L2L
L13L
tp439
g13
s(V17*D
p440
L3L
L13L
tp441
g13
s(V15*D
p442
L2L
L13L
tp443
g13
s(V19*D
p444
L10L
L13L
tp445
g13
s(V12*ADS
p446
L6L
L13L
tp447
g3
s(V20*
p448
L3L
L13L
tp449
g13
s(L9L
L19L
Ntp450
Ns(V19*A
p451
L10L
L13L
tp452
g13
s(V17*AD
p453
L10L
L13L
tp454
g3
s(V8*D
p455
L2L
L13L
tp456
g3
s(V4*DS
p457
L5L
L13L
tp458
g3
s(V14*DS
p459
L7L
L13L
tp460
g3
s(V14*A
p461
L8L
L13L
tp462
g3
s(V15*A
p463
L11L
L13L
tp464
g3
s(V14*
p465
L5L
L13L
tp466
g13
s(V9*D
p467
L7L
L13L
tp468
g6
s(V7*D
p469
L5L
L13L
tp470
g6
s(L14L
L24L
Ntp471
Ns(V11*D
p472
L6L
L13L
tp473
g6
s(V20*AD
p474
L8L
L13L
tp475
g13
s(L13L
L17L
Ntp476
Ns(V17*A
p477
L3L
L13L
tp478
g3
s(V6*DS
p479
L8L
L13L
tp480
g3
s(L13L
L23L
Ntp481
Ns(V13*
p482
L3L
L13L
tp483
g13
s(L6L
L23L
Ntp484
Ns(L11L
L18L
Ntp485
Ns(V10*DS
p486
L4L
L13L
tp487
g6
s(V18*D
p488
L6L
L13L
tp489
g13
s(V16*AD
p490
L21L
Ntp491
Ns(V12*
p492
L9L
L13L
tp493
g3
s(V20*DS
p494
L4L
L13L
tp495
g13
s(L18L
L23L
Ntp496
Ns(V11*D
p497
L21L
Ntp498
Ns(V7*
p499
L10L
L13L
tp500
g3
s(V17*AD
p501
L7L
L13L
tp502
g3
s(V10*DS
p503
L9L
L13L
tp504
g6
s(V18*D
p505
L11L
L13L
tp506
g13
s(V6*D
p507
L8L
L13L
tp508
g3
s(g362
L21L
Ntp509
Ns(L15L
L17L
Ntp510
Ns(V16*D
p511
L9L
L13L
tp512
g13
s(L10L
L24L
Ntp513
Ns(V18*DS
p514
L4L
L13L
tp515
g13
s(V9*D
p516
L2L
L13L
tp517
g6
s(V10*D
p518
L5L
L13L
tp519
g6
s(V20*D
p520
L8L
L13L
tp521
g13
s(V8*
p522
L6L
L13L
tp523
g3
s(V
p524
g524
L13L
tp525
VBegin
p526
s(V11*D
p527
L3L
L13L
tp528
g6
s(V14*AD
p529
L4L
L13L
tp530
g6
s(V8*DS
p531
L21L
Ntp532
Ns(L17L
L20L
Ntp533
Ns(L12L
L23L
Ntp534
Ns(V19*A
p535
L4L
L13L
tp536
g13
s(V13*AD
p537
L4L
L13L
tp538
g6
s(V13*D
p539
L7L
L13L
tp540
g3
s(L12L
L25L
Ntp541
Ns(V5*D
p542
L11L
L13L
tp543
g3
s(V9*
p544
L8L
L13L
tp545
g3
s(V15*AD
p546
L6L
L13L
tp547
g6
s(V8*DS
p548
L4L
L13L
tp549
g6
s(g58
L11L
L13L
tp550
g3
s(V12*ADS
p551
L9L
L13L
tp552
g3
s(V19*A
p553
L21L
Ntp554
Ns(V16*
p555
L2L
L13L
tp556
g13
s(V17*
p557
L3L
L13L
tp558
g13
s(V13*A
p559
L6L
L13L
tp560
g3
s(V15*AD
p561
L3L
L13L
tp562
g6
s(L11L
L23L
Ntp563
Ns(V14*D
p564
L6L
L13L
tp565
g13
s(L21L
L7L
L13L
tp566
g13
s(L11L
L17L
Ntp567
Ns(L4L
L25L
Ntp568
Ns(V19*
p569
L2L
L13L
tp570
g13
s(L4L
L19L
Ntp571
Ns(V14*D
p572
L10L
L13L
tp573
g3
s(L21L
L11L
L13L
tp574
g13
s(V17*
p575
L6L
L13L
tp576
g13
s(V10*
p577
L9L
L13L
tp578
g3
s(L16L
L20L
Ntp579
Ns(g108
L11L
L13L
tp580
g3
s(L18L
L17L
Ntp581
Ns(V20*
p582
L10L
L13L
tp583
g13
s(V6*DS
p584
L3L
L13L
tp585
g3
s(L9L
L24L
Ntp586
Ns(V21*
p587
L8L
L13L
tp588
g13
s(L13L
L26L
Ntp589
Ns(V14*AD
p590
L9L
L13L
tp591
g3
s(V12*DS
p592
L8L
L13L
tp593
g3
s(L30L
NNtp594
Ns(V7*
p595
L4L
L13L
tp596
g3
s(V13*D
p597
L2L
L13L
tp598
g13
s(V5*D
p599
L6L
L13L
tp600
g3
s(V12*D
p601
L8L
L13L
tp602
g3
s(V20*A
p603
L7L
L13L
tp604
g13
s(V4*DS
p605
L9L
L13L
tp606
g3
s(V16*D
p607
L7L
L13L
tp608
g13
s(V15*
p609
L7L
L13L
tp610
g13
s(V11*
p611
L9L
L13L
tp612
g3
s(L16L
L24L
Ntp613
Ns(V14*DS
p614
L11L
L13L
tp615
g3
s(V19*AD
p616
L9L
L13L
tp617
g13
s(V16*
p618
L7L
L13L
tp619
g13
s(L12L
L20L
Ntp620
Ns(V9*D
p621
L11L
L13L
tp622
g3
s(V18*A
p623
L9L
L13L
tp624
g3
s(V6*D
p625
L7L
L13L
tp626
g3
s(L17L
L23L
Ntp627
Ns(V15*
p628
L10L
L13L
tp629
g13
s(L6L
L21L
Ntp630
Ns(V9*
p631
L6L
L13L
tp632
g3
s(V8*
p633
L9L
L13L
tp634
g3
s(L10L
L20L
Ntp635
Ns(L10L
L19L
Ntp636
Ns(V16*AD
p637
L6L
L13L
tp638
g6
s(V18*A
p639
L4L
L13L
tp640
g13
s(V21*A
p641
L8L
L13L
tp642
g13
s(V19*D
p643
L8L
L13L
tp644
g13
s(V14*
p645
L2L
L13L
tp646
g13
s(V16*AD
p647
L10L
L13L
tp648
g3
s(g182
L21L
Ntp649
Ns(V18*
p650
L3L
L13L
tp651
g13
s(V12*
p652
L5L
L13L
tp653
g13
s(L14L
L22L
Ntp654
Ns(g531
L11L
L13L
tp655
g3
s(V18*A
p656
L21L
Ntp657
Ns(L15L
L25L
Ntp658
Ns(V20*A
p659
L2L
L13L
tp660
g13
s(V17*
p661
L8L
L13L
tp662
g13
s(V10*
p663
L7L
L13L
tp664
g3
s(V7*D
p665
L3L
L13L
tp666
g3
s(V17*D
p667
L9L
L13L
tp668
g13
s(V18*DS
p669
L8L
L13L
tp670
g13
s(L18L
L24L
Ntp671
Ns(V20*D
p672
L21L
Ntp673
Ns(g505
L21L
Ntp674
Ns(V6*DS
p675
L10L
L13L
tp676
g3
s(V17*D
p677
L5L
L13L
tp678
g13
s(V19*A
p679
L8L
L13L
tp680
g13
s(L15L
L21L
Ntp681
Ns(V13*AD
p682
L8L
L13L
tp683
g3
s(V10*DS
p684
L6L
L13L
tp685
g6
s(V18*AD
p686
L3L
L13L
tp687
g6
s(V18*D
p688
L4L
L13L
tp689
g13
s(V14*DS
p690
L5L
L13L
tp691
g13
s(V14*A
p692
L6L
L13L
tp693
g3
s(V20*DS
p694
L6L
L13L
tp695
g13
s(V14*
p696
L7L
L13L
tp697
g3
s(V15*D
p698
L21L
Ntp699
Ns(V12*ADS
p700
L5L
L13L
tp701
g3
s(L21L
NNtp702
Ns(V27*
p703
NNtp704
Ns(V18*DS
p705
L21L
Ntp706
Ns(V17*AD
p707
L9L
L13L
tp708
g3
s(V11*D
p709
L8L
L13L
tp710
g6
s(V4*DS
p711
L6L
L13L
tp712
g3
s(V20*AD
p713
L6L
L13L
tp714
g13
s(V20*A
p715
L21L
Ntp716
Ns(g154
L11L
L13L
tp717
g3
s(V13*
p718
L5L
L13L
tp719
g13
s(V6*
p720
L6L
L13L
tp721
g3
s(V10*D
p722
L3L
L13L
tp723
g6
s(V9*D
p724
L4L
L13L
tp725
g6
s(L8L
L18L
Ntp726
Ns(L8L
L21L
Ntp727
Ns(V11*D
p728
L5L
L13L
tp729
g6
s(g333
L11L
L13L
tp730
g13
s(L6L
L19L
Ntp731
Ns(V6*
p732
L3L
L13L
tp733
g3
s(L6L
L25L
Ntp734
Ns(V15*AD
p735
L4L
L13L
tp736
g6
s(V7*
p737
L8L
L13L
tp738
g3
s(V10*DS
p739
L11L
L13L
tp740
g6
s(V18*D
p741
L9L
L13L
tp742
g13
s(V17*A
p743
L21L
Ntp744
Ns(V16*DS
p745
L8L
L13L
tp746
g13
s(V12*D
p747
L4L
L13L
tp748
g13
s(g715
L11L
L13L
tp749
g13
s(V12*
p750
L10L
L13L
tp751
g3
s(V16*D
p752
L11L
L13L
tp753
g13
s(V20*DS
p754
L3L
L13L
tp755
g13
s(V13*A
p756
L4L
L13L
tp757
g3
s(V28*
p758
NNtp759
Ns(L20L
L25L
Ntp760
Ns(V19*AD
p761
L5L
L13L
tp762
g6
s(V21*
p763
L3L
L13L
tp764
g13
s(L9L
L17L
Ntp765
Ns(V14*AD
p766
L2L
L13L
tp767
g3
s(V6*D
p768
L11L
L13L
tp769
g3
s(L9L
L22L
Ntp770
Ns(V14*D
p771
L8L
L13L
tp772
g3
s(L21L
L9L
L13L
tp773
g13
s(V13*AD
p774
L6L
L13L
tp775
g6
s(V13*D
p776
L9L
L13L
tp777
g3
s(V18*DS
p778
L7L
L13L
tp779
g13
s(V20*
p780
L8L
L13L
tp781
g13
s(V9*
p782
L10L
L13L
tp783
g3
s(V17*AD
p784
L21L
Ntp785
Ns(V8*
p786
L5L
L13L
tp787
g3
s(V16*A
p788
L3L
L13L
tp789
g3
s(V8*DS
p790
L2L
L13L
tp791
g3
s(V14*AD
p792
L7L
L13L
tp793
g3
s(V21*A
p794
L21L
Ntp795
Ns(g364
L11L
L13L
tp796
g3
s(g752
L21L
Ntp797
Ns(V13*D
p798
L4L
L13L
tp799
g13
s(L25L
NNtp800
Ns(V7*D
p801
L10L
L13L
tp802
g3
s(V5*D
p803
L8L
L13L
tp804
g3
s(L14L
L20L
Ntp805
Ns(L8L
L24L
Ntp806
Ns(V8*DS
p807
L7L
L13L
tp808
g3
s(V15*
p809
L5L
L13L
tp810
g13
s(L26L
NNtp811
Ns(L21L
L26L
Ntp812
Ns(L21L
L19L
Ntp813
Ns(g345
L21L
Ntp814
Ns(V17*
p815
L4L
L13L
tp816
g13
s(V10*
p817
L11L
L13L
tp818
g3
s(g656
L11L
L13L
tp819
g13
s(V13*A
p820
L9L
L13L
tp821
g3
s(L11L
L19L
Ntp822
Ns(L11L
L20L
Ntp823
Ns(L14L
L18L
Ntp824
Ns(L4L
L23L
Ntp825
Ns(V12*DS
p826
L10L
L13L
tp827
g3
s(L18L
L21L
Ntp828
Ns(V10*D
p829
L21L
Ntp830
Ns(V15*A
p831
L2L
L13L
tp832
g3
s(V16*AD
p833
L8L
L13L
tp834
g3
s(L15L
L19L
Ntp835
Ns(V11*
p836
L7L
L13L
tp837
g3
s(V14*DS
p838
L9L
L13L
tp839
g3
s(V15*D
p840
L7L
L13L
tp841
g13
s(V10*D
p842
L10L
L13L
tp843
g6
s(V20*D
p844
L7L
L13L
tp845
g13
s(V6*D
p846
L5L
L13L
tp847
g3
s(V16*DS
p848
L3L
L13L
tp849
g13
s(g19
L11L
L13L
tp850
g3
s(V20*A
p851
L4L
L13L
tp852
g13
s(g698
L11L
L13L
tp853
g13
s(V4*DS
p854
L10L
L13L
tp855
g3
s(L6L
L20L
Ntp856
Ns(V15*
p857
L8L
L13L
tp858
g13
s(V8*D
p859
L7L
L13L
tp860
g3
s(V11*
p861
L10L
L13L
tp862
g3
s(L8L
L26L
Ntp863
Ns(V8*
p864
L11L
L13L
tp865
g3
s(L12L
L24L
Ntp866
Ns(V19*AD
p867
L10L
L13L
tp868
g13
s(V19*A
p869
L3L
L13L
tp870
g13
s(g140
L11L
L13L
tp871
g3
s(V9*D
p872
L8L
L13L
tp873
g6
s(V20*D
p874
L2L
L13L
tp875
g13
s(V18*A
p876
L6L
L13L
tp877
g13
s(V18*
p878
L9L
L13L
tp879
g13
s(V17*D
p880
L7L
L13L
tp881
g13
s(V19*D
p882
L6L
L13L
tp883
g13
s(V12*ADS
p884
L2L
L13L
tp885
g3
s(L27L
NNtp886
Ns(V18*
p887
L5L
L13L
tp888
g13
s(V17*A
p889
L6L
L13L
tp890
g3
s(L10L
L23L
Ntp891
Ns(V12*
p892
L3L
L13L
tp893
g13
s(V8*DS
p894
L9L
L13L
tp895
g3
s(V17*A
p896
L10L
L13L
tp897
g3
s(V14*A
p898
L4L
L13L
tp899
g3
s(V19*D
p900
L11L
L13L
tp901
g13
s(V12*
p902
L6L
L13L
tp903
g13
s(V11*D
p904
L10L
L13L
tp905
g6
s(V20*AD
p906
L4L
L13L
tp907
g13
s(L9L
L25L
Ntp908
Ns(V6*DS
p909
L4L
L13L
tp910
g3
s(L9L
L23L
Ntp911
Ns(V13*
p912
L7L
L13L
tp913
g3
s(L9L
L20L
Ntp914
Ns(V6*
p915
L4L
L13L
tp916
g3
s(V18*AD
p917
L9L
L13L
tp918
g3
s(V14*D
p919
L4L
L13L
tp920
g13
s(V12*DS
p921
L3L
L13L
tp922
g13
s(L21L
L5L
L13L
tp923
g13
s(L16L
L19L
Ntp924
Ns(V7*
p925
L3L
L13L
tp926
g3
s(V13*AD
p927
L10L
L13L
tp928
g3
s(V18*AD
p929
L5L
L13L
tp930
g6
s(V18*D
p931
L2L
L13L
tp932
g13
s(g705
L11L
L13L
tp933
g13
s(V23*
p934
NNtp935
Ns(V15*AD
p936
L21L
Ntp937
Ns(V6*DS
p938
L9L
L13L
tp939
g3
s(L11L
L24L
Ntp940
Ns(V17*D
p941
L2L
L13L
tp942
g13
s(V20*DS
p943
L8L
L13L
tp944
g13
s(V12*ADS
p945
L7L
L13L
tp946
g3
s(g784
L11L
L13L
tp947
g3
s(V16*
p948
L8L
L13L
tp949
g13
s(V10*DS
p950
L5L
L13L
tp951
g6
s(V18*D
p952
L7L
L13L
tp953
g13
s(V4*DS
p954
L4L
L13L
tp955
g3
s(L29L
NNtp956
Ns(V16*DS
p957
L10L
L13L
tp958
g13
s(V14*A
p959
L9L
L13L
tp960
g3
s(V16*A
p961
L4L
L13L
tp962
g3
s(V20*DS
p963
L5L
L13L
tp964
g13
s(L21L
L24L
Ntp965
Ns(V9*D
p966
L6L
L13L
tp967
g6
s(L14L
L25L
Ntp968
Ns(L10L
L18L
Ntp969
Ns(V8*
p970
L2L
L13L
tp971
g3
s(L10L
L17L
Ntp972
Ns(V16*A
p973
L8L
L13L
tp974
g3
s(V11*D
p975
L7L
L13L
tp976
g6
s(V20*AD
p977
L9L
L13L
tp978
g13
s(V21*A
p979
L7L
L13L
tp980
g13
s(V13*
p981
L2L
L13L
tp982
g13
s(V13*D
p983
L11L
L13L
tp984
g3
s(L8L
L17L
Ntp985
Ns(L18L
L19L
Ntp986
Ns(V15*AD
p987
L10L
L13L
tp988
g3
s(L21L
L23L
Ntp989
Ns(V21*A
p990
L2L
L13L
tp991
g13
s(V12*D
p992
L2L
L13L
tp993
g13
s(V16*AD
p994
L4L
L13L
tp995
g6
s(V12*
p996
L8L
L13L
tp997
g3
s(V7*D
p998
L8L
L13L
tp999
g3
s(V13*A
p1000
L2L
L13L
tp1001
g3
s(V19*
p1002
L10L
L13L
tp1003
g13
s(V15*AD
p1004
L7L
L13L
tp1005
g3
s(V19*AD
p1006
L3L
L13L
tp1007
g6
s(V6*D
p1008
L9L
L13L
tp1009
g3
s(V19*
p1010
L6L
L13L
tp1011
g13
s(V12*D
p1012
L7L
L13L
tp1013
g3
s(V20*A
p1014
L8L
L13L
tp1015
g13
s(V17*
p1016
L2L
L13L
tp1017
g13
s(V13*A
p1018
L7L
L13L
tp1019
g3
s(V18*DS
p1020
L5L
L13L
tp1021
g13
s(V20*
p1022
L6L
L13L
tp1023
g13
s(L16L
L26L
Ntp1024
Ns(V8*
p1025
L7L
L13L
tp1026
g3
s(V19*AD
p1027
L6L
L13L
tp1028
g6
s(L9L
L18L
Ntp1029
Ns(g184
L21L
Ntp1030
Ns(V14*AD
p1031
L5L
L13L
tp1032
g6
s(V19*
p1033
L3L
L13L
tp1034
g13
s(g263
L11L
L13L
tp1035
g13
s(V14*DS
p1036
L2L
L13L
tp1037
g13
s(V14*D
p1038
L11L
L13L
tp1039
g3
s(L21L
L10L
L13L
tp1040
g13
s(V13*D
p1041
L6L
L13L
tp1042
g13
s(g434
L21L
Ntp1043
Ns(V20*
p1044
L11L
L13L
tp1045
g13
s(V5*D
p1046
L10L
L13L
tp1047
g3
s(V17*AD
p1048
L2L
L13L
tp1049
g6
s(V8*DS
p1050
L5L
L13L
tp1051
g6
s(V15*
p1052
L3L
L13L
tp1053
g13
s(V11*
p1054
L5L
L13L
tp1055
g3
s(V16*
p1056
L3L
L13L
tp1057
g13
s(L23L
NNtp1058
Ns(L8L
L20L
Ntp1059
Ns(V20*D
p1060
L5L
L13L
tp1061
g13
s(V10*D
p1062
L8L
L13L
tp1063
g6
s(L8L
L23L
Ntp1064
Ns(V15*D
p1065
L9L
L13L
tp1066
g13
s(V15*
p1067
L6L
L13L
tp1068
g13
s(g900
L21L
Ntp1069
Ns(L21L
L20L
Ntp1070
Ns(V15*A
p1071
L8L
L13L
tp1072
g3
s(g1038
L21L
Ntp1073
Ns(V8*D
p1074
L9L
L13L
tp1075
g3
s(L16L
L21L
Ntp1076
Ns(V18*A
p1077
L8L
L13L
tp1078
g13
s(L19L
L17L
Ntp1079
Ns(V15*A
p1080
L4L
L13L
tp1081
g3
s(V19*D
p1082
L4L
L13L
tp1083
g13
s(V18*
p1084
L7L
L13L
tp1085
g13
s(L20L
L24L
Ntp1086
Ns(V17*A
p1087
L8L
L13L
tp1088
g3
s(L20L
L18L
Ntp1089
Ns(V12*D
p1090
L9L
L13L
tp1091
g3
s(V20*A
p1092
L6L
L13L
tp1093
g13
s(g490
L11L
L13L
tp1094
g3
s(L15L
L23L
Ntp1095
Ns(V4*DS
p1096
L8L
L13L
tp1097
g3
s(V11*
p1098
L8L
L13L
tp1099
g3
s(V19*AD
p1100
L8L
L13L
tp1101
g13
s(V9*D
p1102
L10L
L13L
tp1103
g3
s(V6*DS
p1104
L6L
L13L
tp1105
g3
s(L17L
L22L
Ntp1106
Ns(L8L
L25L
Ntp1107
Ns(L20L
L20L
Ntp1108
Ns(V10*DS
p1109
L2L
L13L
tp1110
g6
s(V18*AD
p1111
L7L
L13L
tp1112
g13
s(L14L
L26L
Ntp1113
Ns(V5*D
p1114
L3L
L13L
tp1115
g3
s(V17*D
p1116
L4L
L13L
tp1117
g13
s(V14*A
p1118
L2L
L13L
tp1119
g3
s(V16*D
p1120
L2L
L13L
tp1121
g13
s(V19*D
p1122
L9L
L13L
tp1123
g13
s(V20*DS
p1124
L10L
L13L
tp1125
g13
s(V14*
p1126
L3L
L13L
tp1127
g13
s(V18*
p1128
L2L
L13L
tp1129
g13
s(L21L
L17L
Ntp1130
Ns(V16*
p1131
L10L
L13L
tp1132
g13
s(V12*
p1133
L4L
L13L
tp1134
g13
s(V20*AD
p1135
L2L
L13L
tp1136
g13
s(V18*AD
p1137
L21L
Ntp1138
Ns(L15L
L24L
Ntp1139
Ns(V14*A
p1140
L7L
L13L
tp1141
g3
s(V13*
p1142
L9L
L13L
tp1143
g3
s(L19L
L24L
Ntp1144
Ns(V6*
p1145
L10L
L13L
tp1146
g3
s(L4L
L17L
Ntp1147
Ns(V9*
p1148
L3L
L13L
tp1149
g3
s(L19L
L18L
Ntp1150
Ns(V16*A
p1151
L10L
L13L
tp1152
g3
s(V14*D
p1153
L2L
L13L
tp1154
g13
s(V11*D
p1155
L9L
L13L
tp1156
g6
s(V12*DS
p1157
L5L
L13L
tp1158
g13
s(V20*AD
p1159
L7L
L13L
tp1160
g13
s(L21L
L3L
L13L
tp1161
g13
s(L9L
L26L
Ntp1162
Ns(V21*A
p1163
L5L
L13L
tp1164
g13
s(V18*DS
p1165
L9L
L13L
tp1166
g13
s(L18L
L25L
Ntp1167
Ns(g300
L11L
L13L
tp1168
g3
s(V13*
p1169
L4L
L13L
tp1170
g13
s(V6*
p1171
L7L
L13L
tp1172
g3
s(L21L
L6L
L13L
tp1173
g13
s(V14*D
p1174
L7L
L13L
tp1175
g3
s(V15*AD
p1176
L8L
L13L
tp1177
g3
s(L16L
L25L
Ntp1178
Ns(V10*DS
p1179
L7L
L13L
tp1180
g6
s(V18*AD
p1181
L2L
L13L
tp1182
g6
s(V18*D
p1183
L5L
L13L
tp1184
g13
s(V6*D
p1185
L2L
L13L
tp1186
g3
s(V16*DS
p1187
L4L
L13L
tp1188
g13
s(V10*
p1189
L2L
L13L
tp1190
g3
s(V20*DS
p1191
L7L
L13L
tp1192
g13
s(g304
L11L
L13L
tp1193
g13
s(V18*
p1194
L21L
Ntp1195
Ns(L8L
L22L
Ntp1196
Ns(V21*
p1197
L7L
L13L
tp1198
g13
s(L20L
L23L
Ntp1199
Ns(V16*DS
p1200
L9L
L13L
tp1201
g13
s(V19*
p1202
L4L
L13L
tp1203
g13
s(g614
L21L
Ntp1204
Ns(V15*D
p1205
L5L
L13L
tp1206
g13
s(V25*
p1207
NNtp1208
Ns(V20*
p1209
L4L
L13L
tp1210
g13
s(L10L
L21L
Ntp1211
Ns(L18L
L18L
Ntp1212
Ns(g621
L21L
Ntp1213
Ns(g463
L21L
Ntp1214
Ns(V8*D
p1215
L5L
L13L
tp1216
g6
s(V21*
p1217
L2L
L13L
tp1218
g13
s(V14*AD
p1219
L3L
L13L
tp1220
g6
s(L17L
L26L
Ntp1221
Ns(V16*AD
p1222
L2L
L13L
tp1223
g3
s(V13*D
p1224
L8L
L13L
tp1225
g3
s(g1194
L11L
L13L
tp1226
g13
s(L19L
L23L
Ntp1227
Ns(V7*D
p1228
L6L
L13L
tp1229
g6
s(L20L
L26L
Ntp1230
Ns(V15*AD
p1231
L5L
L13L
tp1232
g6
s(V8*DS
p1233
L3L
L13L
tp1234
g6
s(V17*A
p1235
L4L
L13L
tp1236
g3
s(L9L
L21L
Ntp1237
Ns(V12*D
p1238
L5L
L13L
tp1239
g13
s(V20*A
p1240
L10L
L13L
tp1241
g13
s(V16*AD
p1242
L7L
L13L
tp1243
g3
s(g121
L11L
L13L
tp1244
g3
s(V13*A
p1245
L5L
L13L
tp1246
g3
s(g739
L21L
Ntp1247
Ns(V19*AD
p1248
L4L
L13L
tp1249
g6
s(L15L
L20L
Ntp1250
Ns(V14*D
p1251
L9L
L13L
tp1252
g3
s(L21L
L8L
L13L
tp1253
g13
s(V17*
p1254
L21L
Ntp1255
Ns(V20*
p1256
L9L
L13L
tp1257
g13
s(V15*A
p1258
L6L
L13L
tp1259
g3
s(V17*AD
p1260
L4L
L13L
tp1261
g6
s(g1137
L11L
L13L
tp1262
g13
s(V4*DS
p1263
L3L
L13L
tp1264
g3
s(V11*
p1265
L3L
L13L
tp1266
g3
s(V17*D
p1267
L8L
L13L
tp1268
g13
s(L21L
L25L
Ntp1269
Ns(g1044
L21L
Ntp1270
Ns(V10*D
p1271
L6L
L13L
tp1272
g6
s(g672
L11L
L13L
tp1273
g13
s(V16*DS
p1274
L21L
Ntp1275
Ns(L14L
L21L
Ntp1276
Ns(g553
L11L
L13L
tp1277
g13
s(V15*
p1278
L4L
L13L
tp1279
g13
s(V11*
p1280
L6L
L13L
tp1281
g3
s(L19L
L26L
Ntp1282
Ns(V19*A
p1283
L7L
L13L
tp1284
g13
s(V13*AD
p1285
L3L
L13L
tp1286
g6
s(L8L
L19L
Ntp1287
Ns(V14*
p1288
L4L
L13L
tp1289
g13
s(g829
L11L
L13L
tp1290
g6
s(V20*D
p1291
L6L
L13L
tp1292
g13
s(g208
L21L
Ntp1293
Ns(V18*A
p1294
L10L
L13L
tp1295
g3
s(V16*A
p1296
L6L
L13L
tp1297
g3
s(V15*D
p1298
L10L
L13L
tp1299
g13
s(V19*D
p1300
L2L
L13L
tp1301
g13
s(V14*
p1302
L8L
L13L
tp1303
g3
s(V19*A
p1304
L2L
L13L
tp1305
g13
s(V8*D
p1306
L10L
L13L
tp1307
g3
s(g193
L21L
Ntp1308
Ns(L16L
L17L
Ntp1309
Ns(V15*A
p1310
L3L
L13L
tp1311
g3
s(V19*D
p1312
L7L
L13L
tp1313
g13
s(V16*AD
p1314
L9L
L13L
tp1315
g3
s(V18*
p1316
L4L
L13L
tp1317
g13
s(L15L
L18L
Ntp1318
Ns(V12*
p1319
L2L
L13L
tp1320
g13
s(V18*DS
p1321
L2L
L13L
tp1322
g13
s(g743
L11L
L13L
tp1323
g3
s(L20L
L22L
Ntp1324
Ns(L20L
L17L
Ntp1325
Ns(g311
L11L
L13L
tp1326
g3
s(L22L
NNtp1327
Ns(V7*
p1328
L11L
L13L
tp1329
g3
s(V6*
p1330
L8L
L13L
tp1331
g3
s(V14*AD
p1332
L10L
L13L
tp1333
g3
s(V19*
p1334
L8L
L13L
tp1335
g13
s(V12*DS
p1336
L7L
L13L
tp1337
g3
s(V7*
p1338
L7L
L13L
tp1339
g3
s(V16*D
p1340
L8L
L13L
tp1341
g13
s(g768
L21L
Ntp1342
Ns(V5*D
p1343
L5L
L13L
tp1344
g3
s(V6*DS
p1345
L5L
L13L
tp1346
g3
s(V17*D
p1347
L6L
L13L
tp1348
g13
s(L17L
L18L
Ntp1349
Ns(V16*D
p1350
L4L
L13L
tp1351
g13
s(V12*ADS
p1352
L3L
L13L
tp1353
g3
s(L17L
L24L
Ntp1354
Ns(L19L
L25L
Ntp1355
Ns(V7*
p1356
L2L
L13L
tp1357
g3
s(V16*
p1358
L4L
L13L
tp1359
g13
s(V18*AD
p1360
L4L
L13L
tp1361
g6
s(V18*D
p1362
L3L
L13L
tp1363
g13
s(V16*DS
p1364
L6L
L13L
tp1365
g13
s(V9*
p1366
L9L
L13L
tp1367
g3
s(V14*A
p1368
L5L
L13L
tp1369
g3
s(V20*DS
p1370
L9L
L13L
tp1371
g13
s(L21L
L21L
Ntp1372
Ns(V9*
p1373
L5L
L13L
tp1374
g3
s(L21L
L18L
Ntp1375
Ns(L14L
L19L
Ntp1376
Ns(V16*
p1377
L9L
L13L
tp1378
g13
s(g497
L11L
L13L
tp1379
g6
s(V20*AD
p1380
L5L
L13L
tp1381
g13
s(L16L
L23L
Ntp1382
Ns(V21*
p1383
L5L
L13L
tp1384
g13
s(V18*A
p1385
L3L
L13L
tp1386
g13
s(g794
L11L
L13L
tp1387
g13
s(V13*
p1388
L6L
L13L
tp1389
g13
s(V15*AD
p1390
L2L
L13L
tp1391
g3
s(L4L
L21L
Ntp1392
Ns(L12L
L22L
Ntp1393
Ns(V6*
p1394
L5L
L13L
tp1395
g3
s(L12L
L17L
Ntp1396
Ns(V16*A
p1397
L9L
L13L
tp1398
g3
s(V14*D
p1399
L5L
L13L
tp1400
g13
s(V12*DS
p1401
L2L
L13L
tp1402
g13
s(L21L
L4L
L13L
tp1403
g13
s(V17*
p1404
L7L
L13L
tp1405
g13
s(V21*A
p1406
L6L
L13L
tp1407
g13
s(V10*
p1408
L8L
L13L
tp1409
g3
s(V15*A
p1410
L10L
L13L
tp1411
g3
s(g1254
L11L
L13L
tp1412
g13
s(V10*
p1413
L4L
L13L
tp1414
g3
s(V7*D
p1415
L4L
L13L
tp1416
g6
s(g936
L11L
L13L
tp1417
g3
s(V22*
p1418
NNtp1419
Ns(g1274
L11L
L13L
tp1420
g13
s(L6L
L22L
Ntp1421
Ns(V12*D
p1422
L3L
L13L
tp1423
g13
s(V15*D
p1424
L3L
L13L
tp1425
g13
s(g983
L21L
Ntp1426
Ns(V13*A
p1427
L3L
L13L
tp1428
g3
s(V20*
p1429
L2L
L13L
tp1430
g13
s(V8*
p1431
L3L
L13L
tp1432
g3
s.