(dp0
(L13L
L21L
Ntp1
Ns(L13L
L18L
Ntp2
Ns(V16*A
p3
L10L
L-10L
tp4
VDraw
p5
s(V13*
p6
L8L
L-10L
tp7
g5
s(L13L
L24L
Ntp8
Ns(L6L
L26L
Ntp9
Ns(V11*D
p10
L21L
Ntp11
Ns(V20*DS
p12
L10L
L-10L
tp13
VStay
p14
s(L15L
L26L
Ntp15
Ns(V20*D
p16
L5L
L-10L
tp17
g14
s(V19*AD
p18
L11L
L-10L
tp19
g14
s(L19L
L19L
Ntp20
Ns(V13*AD
p21
L9L
L-10L
tp22
g5
s(L19L
L20L
Ntp23
Ns(V14*
p24
L8L
L-10L
tp25
g5
s(V20*A
p26
L21L
Ntp27
Ns(V4*DS
p28
L5L
L-10L
tp29
g5
s(V11*D
p30
L2L
L-10L
tp31
VDouble
p32
s(V10*DS
p33
L11L
L-10L
tp34
g5
s(V17*AD
p35
L5L
L-10L
tp36
g5
s(V10*
p37
L5L
L-10L
tp38
g5
s(V21*A
p39
L11L
L-10L
tp40
g14
s(L17L
L21L
Ntp41
Ns(V17*
p42
L3L
L-10L
tp43
g14
s(V12*D
p44
L7L
L-10L
tp45
g5
s(V7*
p46
L10L
L-10L
tp47
g5
s(V15*AD
p48
L3L
L-10L
tp49
g5
s(V17*
p50
L10L
L-10L
tp51
g14
s(V8*
p52
L9L
L-10L
tp53
g5
s(V18*A
p54
L5L
L-10L
tp55
g14
s(V4*DS
p56
L9L
L-10L
tp57
g5
s(V15*AD
p58
L6L
L-10L
tp59
g32
s(V8*DS
p60
L5L
L-10L
tp61
g5
s(V25*
p62
NNtp63
Ns(V6*DS
p64
L8L
L-10L
tp65
g5
s(V8*DS
p66
L21L
Ntp67
Ns(V13*D
p68
L11L
L-10L
tp69
g5
s(L4L
L24L
Ntp70
Ns(V19*
p71
L11L
L-10L
tp72
g14
s(V12*
p73
L21L
Ntp74
Ns(V13*A
p75
L4L
L-10L
tp76
g5
s(L4L
L18L
Ntp77
Ns(V15*A
p78
L2L
L-10L
tp79
g5
s(V15*
p80
L11L
L-10L
tp81
g5
s(L14L
L17L
Ntp82
Ns(V14*AD
p83
L2L
L-10L
tp84
g5
s(V7*D
p85
L4L
L-10L
tp86
g5
s(L18L
L22L
Ntp87
Ns(V19*
p88
L2L
L-10L
tp89
g14
s(V18*
p90
L7L
L-10L
tp91
g14
s(V16*A
p92
L3L
L-10L
tp93
g5
s(g73
L11L
L-10L
tp94
g5
s(V20*
p95
L11L
L-10L
tp96
g14
s(V8*D
p97
L8L
L-10L
tp98
g5
s(V18*DS
p99
L8L
L-10L
tp100
g14
s(V16*AD
p101
L7L
L-10L
tp102
g5
s(V19*D
p103
L2L
L-10L
tp104
g14
s(V10*D
p105
L2L
L-10L
tp106
g5
s(L21L
L6L
L-10L
tp107
g14
s(V14*D
p108
L3L
L-10L
tp109
g5
s(V12*ADS
p110
L2L
L-10L
tp111
g5
s(V17*A
p112
L21L
Ntp113
Ns(V19*
p114
L7L
L-10L
tp115
g14
s(V18*
p116
L2L
L-10L
tp117
g14
s(V18*D
p118
L21L
Ntp119
Ns(g33
L21L
Ntp120
Ns(V4*DS
p121
L21L
Ntp122
Ns(V6*D
p123
L3L
L-10L
tp124
g5
s(V7*D
p125
L8L
L-10L
tp126
g5
s(V16*AD
p127
L2L
L-10L
tp128
g5
s(V9*D
p129
L8L
L-10L
tp130
g5
s(V5*D
p131
L4L
L-10L
tp132
g5
s(V10*D
p133
L7L
L-10L
tp134
g5
s(g10
L11L
L-10L
tp135
g5
s(V14*D
p136
L6L
L-10L
tp137
g5
s(V17*D
p138
L11L
L-10L
tp139
g5
s(L21L
L3L
L-10L
tp140
g14
s(V20*DS
p141
L6L
L-10L
tp142
g14
s(V12*ADS
p143
L7L
L-10L
tp144
g5
s(V13*
p145
L6L
L-10L
tp146
g5
s(V6*
p147
L4L
L-10L
tp148
g5
s(L15L
L22L
Ntp149
Ns(V20*AD
p150
L7L
L-10L
tp151
g14
s(V7*
p152
L3L
L-10L
tp153
g5
s(V14*
p154
L4L
L-10L
tp155
g5
s(V12*D
p156
L10L
L-10L
tp157
g5
s(V16*
p158
L9L
L-10L
tp159
g5
s(L13L
L19L
Ntp160
Ns(L20L
L21L
Ntp161
Ns(V19*A
p162
L10L
L-10L
tp163
g14
s(V13*
p164
L3L
L-10L
tp165
g5
s(V16*DS
p166
L11L
L-10L
tp167
g5
s(L6L
L17L
Ntp168
Ns(L17L
L25L
Ntp169
Ns(V11*
p170
L3L
L-10L
tp171
g5
s(V7*
p172
L6L
L-10L
tp173
g5
s(V28*
p174
NNtp175
Ns(V19*A
p176
L3L
L-10L
tp177
g14
s(V8*DS
p178
L8L
L-10L
tp179
g5
s(V20*AD
p180
L11L
L-10L
tp181
g14
s(V13*AD
p182
L6L
L-10L
tp183
g5
s(V18*AD
p184
L21L
Ntp185
Ns(V19*AD
p186
L4L
L-10L
tp187
g14
s(V11*
p188
L6L
L-10L
tp189
g5
s(V18*D
p190
L4L
L-10L
tp191
g14
s(L19L
L21L
Ntp192
Ns(L19L
L22L
Ntp193
Ns(V19*A
p194
L6L
L-10L
tp195
g14
s(L16L
L22L
Ntp196
Ns(V21*A
p197
L4L
L-10L
tp198
g14
s(V14*DS
p199
L6L
L-10L
tp200
g5
s(V20*D
p201
L11L
L-10L
tp202
g14
s(V13*AD
p203
L11L
L-10L
tp204
g5
s(V17*A
p205
L5L
L-10L
tp206
g5
s(L21L
L22L
Ntp207
Ns(V20*A
p208
L6L
L-10L
tp209
g14
s(V14*A
p210
L3L
L-10L
tp211
g5
s(V21*A
p212
L9L
L-10L
tp213
g14
s(V14*DS
p214
L21L
Ntp215
Ns(V4*DS
p216
L2L
L-10L
tp217
g5
s(V12*
p218
L7L
L-10L
tp219
g5
s(L12L
L21L
Ntp220
Ns(V14*AD
p221
L21L
Ntp222
Ns(V18*AD
p223
L3L
L-10L
tp224
g14
s(V15*
p225
L5L
L-10L
tp226
g5
s(V14*DS
p227
L10L
L-10L
tp228
g5
s(V8*D
p229
L4L
L-10L
tp230
g5
s(V18*DS
p231
L4L
L-10L
tp232
g14
s(V17*
p233
L4L
L-10L
tp234
g14
s(V6*DS
p235
L7L
L-10L
tp236
g5
s(V17*D
p237
L2L
L-10L
tp238
g14
s(L21L
L10L
L-10L
tp239
g14
s(L20L
L19L
Ntp240
Ns(V20*A
p241
L10L
L-10L
tp242
g14
s(L4L
L26L
Ntp243
Ns(L17L
L19L
Ntp244
Ns(g166
L21L
Ntp245
Ns(V9*D
p246
L4L
L-10L
tp247
g5
s(L11L
L21L
Ntp248
Ns(V13*A
p249
L10L
L-10L
tp250
g5
s(L11L
L22L
Ntp251
Ns(V16*A
p252
L8L
L-10L
tp253
g5
s(V13*
p254
L10L
L-10L
tp255
g5
s(V12*DS
p256
L2L
L-10L
tp257
g5
s(V16*DS
p258
L2L
L-10L
tp259
g5
s(L6L
L24L
Ntp260
Ns(V6*DS
p261
L21L
Ntp262
Ns(L13L
L22L
Ntp263
Ns(V16*
p264
L5L
L-10L
tp265
g14
s(V17*AD
p266
L2L
L-10L
tp267
g5
s(V20*DS
p268
L8L
L-10L
tp269
g14
s(V7*D
p270
L3L
L-10L
tp271
g5
s(V14*
p272
L10L
L-10L
tp273
g5
s(g71
L21L
Ntp274
Ns(V15*AD
p275
L8L
L-10L
tp276
g5
s(V10*DS
p277
L9L
L-10L
tp278
g5
s(V17*AD
p279
L7L
L-10L
tp280
g5
s(V10*
p281
L7L
L-10L
tp282
g5
s(V6*
p283
L2L
L-10L
tp284
g5
s(L24L
NNtp285
Ns(V20*D
p286
L6L
L-10L
tp287
g14
s(V18*A
p288
L2L
L-10L
tp289
g14
s(V19*AD
p290
L8L
L-10L
tp291
g14
s(V12*D
p292
L5L
L-10L
tp293
g5
s(V13*D
p294
L5L
L-10L
tp295
g5
s(L12L
L19L
Ntp296
Ns(L12L
L26L
Ntp297
Ns(V14*A
p298
L10L
L-10L
tp299
g5
s(V10*
p300
L2L
L-10L
tp301
g5
s(L17L
L17L
Ntp302
Ns(V18*A
p303
L7L
L-10L
tp304
g14
s(V12*D
p305
L8L
L-10L
tp306
g5
s(V17*A
p307
L9L
L-10L
tp308
g5
s(V15*AD
p309
L4L
L-10L
tp310
g5
s(V14*
p311
L21L
Ntp312
Ns(V15*A
p313
L9L
L-10L
tp314
g5
s(V8*DS
p315
L7L
L-10L
tp316
g5
s(V20*
p317
L5L
L-10L
tp318
g14
s(V17*
p319
L9L
L-10L
tp320
g14
s(L10L
L22L
Ntp321
Ns(V13*D
p322
L9L
L-10L
tp323
g5
s(L6L
L18L
Ntp324
Ns(V17*
p325
L21L
Ntp326
Ns(V15*
p327
L9L
L-10L
tp328
g5
s(V8*DS
p329
L10L
L-10L
tp330
g5
s(V21*
p331
L2L
L-10L
tp332
g14
s(V14*AD
p333
L4L
L-10L
tp334
g5
s(g261
L11L
L-10L
tp335
g5
s(V16*D
p336
L3L
L-10L
tp337
g14
s(V19*D
p338
L9L
L-10L
tp339
g14
s(V18*DS
p340
L21L
Ntp341
Ns(V18*
p342
L5L
L-10L
tp343
g14
s(V8*D
p344
L21L
Ntp345
Ns(L13L
L25L
Ntp346
Ns(L4L
L22L
Ntp347
Ns(V13*A
p348
L7L
L-10L
tp349
g5
s(V20*
p350
L9L
L-10L
tp351
g14
s(V6*D
p352
L8L
L-10L
tp353
g5
s(L18L
L20L
Ntp354
Ns(V16*AD
p355
L5L
L-10L
tp356
g5
s(L18L
L26L
Ntp357
Ns(V15*D
p358
L7L
L-10L
tp359
g5
s(L11L
L26L
Ntp360
Ns(V15*D
p361
L21L
Ntp362
Ns(V12*
p363
L8L
L-10L
tp364
g5
s(L11L
L25L
Ntp365
Ns(V9*
p366
L10L
L-10L
tp367
g5
s(V7*
p368
L8L
L-10L
tp369
g5
s(V5*D
p370
L2L
L-10L
tp371
g5
s(V11*D
p372
L9L
L-10L
tp373
g5
s(V14*D
p374
L4L
L-10L
tp375
g5
s(L21L
L5L
L-10L
tp376
g14
s(V15*D
p377
L2L
L-10L
tp378
g5
s(V20*DS
p379
L4L
L-10L
tp380
g14
s(V6*
p381
L6L
L-10L
tp382
g5
s(L10L
L26L
Ntp383
Ns(L10L
L25L
Ntp384
Ns(V14*
p385
L6L
L-10L
tp386
g5
s(V16*
p387
L11L
L-10L
tp388
g5
s(V6*
p389
L3L
L-10L
tp390
g5
s(V13*
p391
L5L
L-10L
tp392
g5
s(V16*DS
p393
L9L
L-10L
tp394
g5
s(V8*
p395
L6L
L-10L
tp396
g5
s(V7*
p397
L4L
L-10L
tp398
g5
s(V15*AD
p399
L21L
Ntp400
Ns(L13L
L20L
Ntp401
Ns(V8*
p402
L3L
L-10L
tp403
g5
s(V18*D
p404
L6L
L-10L
tp405
g14
s(V15*A
p406
L5L
L-10L
tp407
g5
s(L14L
L23L
Ntp408
Ns(V21*A
p409
L2L
L-10L
tp410
g14
s(V20*D
p411
L9L
L-10L
tp412
g14
s(V8*D
p413
L10L
L-10L
tp414
g5
s(V18*DS
p415
L10L
L-10L
tp416
g14
s(V13*AD
p417
L5L
L-10L
tp418
g5
s(V17*A
p419
L7L
L-10L
tp420
g5
s(V18*D
p421
L3L
L-10L
tp422
g14
s(L12L
L18L
Ntp423
Ns(L28L
NNtp424
Ns(V10*DS
p425
L7L
L-10L
tp426
g5
s(L16L
L18L
Ntp427
Ns(V8*D
p428
L3L
L-10L
tp429
g5
s(V18*DS
p430
L3L
L-10L
tp431
g14
s(V10*
p432
L9L
L-10L
tp433
g5
s(V21*A
p434
L7L
L-10L
tp435
g14
s(V20*D
p436
L4L
L-10L
tp437
g14
s(V14*AD
p438
L8L
L-10L
tp439
g5
s(V19*D
p440
L5L
L-10L
tp441
g14
s(V9*D
p442
L10L
L-10L
tp443
g5
s(V22*
p444
NNtp445
Ns(V17*A
p446
L2L
L-10L
tp447
g5
s(V6*D
p448
L4L
L-10L
tp449
g5
s(L9L
L19L
Ntp450
Ns(V8*D
p451
L6L
L-10L
tp452
g5
s(V18*DS
p453
L6L
L-10L
tp454
g14
s(V17*
p455
L6L
L-10L
tp456
g14
s(V13*D
p457
L2L
L-10L
tp458
g5
s(V12*DS
p459
L21L
Ntp460
Ns(V9*D
p461
L3L
L-10L
tp462
g5
s(V10*D
p463
L8L
L-10L
tp464
g5
s(V5*D
p465
L11L
L-10L
tp466
g5
s(V17*D
p467
L4L
L-10L
tp468
g14
s(V12*ADS
p469
L8L
L-10L
tp470
g5
s(g361
L11L
L-10L
tp471
g5
s(V12*DS
p472
L9L
L-10L
tp473
g5
s(V12*
p474
L4L
L-10L
tp475
g5
s(L14L
L24L
Ntp476
Ns(V15*
p477
L6L
L-10L
tp478
g14
s(g325
L11L
L-10L
tp479
g5
s(V9*
p480
L6L
L-10L
tp481
g5
s(V9*D
p482
L6L
L-10L
tp483
g5
s(L13L
L17L
Ntp484
Ns(L21L
L9L
L-10L
tp485
g14
s(V13*A
p486
L8L
L-10L
tp487
g5
s(V20*
p488
L2L
L-10L
tp489
g14
s(L13L
L23L
Ntp490
Ns(L6L
L23L
Ntp491
Ns(V26*
p492
NNtp493
Ns(V19*AD
p494
L6L
L-10L
tp495
g14
s(V18*
p496
L11L
L-10L
tp497
g14
s(L11L
L18L
Ntp498
Ns(V16*
p499
L7L
L-10L
tp500
g5
s(V13*A
p501
L5L
L-10L
tp502
g5
s(g68
L21L
Ntp503
Ns(V13*
p504
L9L
L-10L
tp505
g5
s(V16*AD
p506
L11L
L-10L
tp507
g5
s(V11*
p508
L9L
L-10L
tp509
g5
s(L18L
L23L
Ntp510
Ns(V19*
p511
L3L
L-10L
tp512
g14
s(L4L
L20L
Ntp513
Ns(V20*DS
p514
L11L
L-10L
tp515
g14
s(L15L
L17L
Ntp516
Ns(V19*AD
p517
L10L
L-10L
tp518
g14
s(V12*D
p519
L3L
L-10L
tp520
g5
s(L10L
L24L
Ntp521
Ns(V11*D
p522
L7L
L-10L
tp523
g5
s(V14*
p524
L9L
L-10L
tp525
g5
s(V14*A
p526
L8L
L-10L
tp527
g5
s(V6*
p528
L8L
L-10L
tp529
g5
s(V10*DS
p530
L10L
L-10L
tp531
g5
s(V10*
p532
L4L
L-10L
tp533
g5
s(V6*DS
p534
L5L
L-10L
tp535
g5
s(L17L
L20L
Ntp536
Ns(V12*D
p537
L6L
L-10L
tp538
g5
s(g112
L11L
L-10L
tp539
g5
s(L12L
L23L
Ntp540
Ns(V15*AD
p541
L2L
L-10L
tp542
g5
s(V15*A
p543
L11L
L-10L
tp544
g5
s(L12L
L25L
Ntp545
Ns(V21*
p546
L9L
L-10L
tp547
g14
s(V20*AD
p548
L2L
L-10L
tp549
g14
s(V8*DS
p550
L4L
L-10L
tp551
g5
s(V19*D
p552
L11L
L-10L
tp553
g14
s(V14*AD
p554
L6L
L-10L
tp555
g5
s(V6*DS
p556
L9L
L-10L
tp557
g5
s(V16*D
p558
L5L
L-10L
tp559
g14
s(L11L
L23L
Ntp560
Ns(V18*D
p561
L8L
L-10L
tp562
g14
s(L11L
L17L
Ntp563
Ns(L4L
L25L
Ntp564
Ns(V16*A
p565
L7L
L-10L
tp566
g5
s(V19*A
p567
L2L
L-10L
tp568
g14
s(V12*DS
p569
L5L
L-10L
tp570
g5
s(L4L
L19L
Ntp571
Ns(V6*D
p572
L10L
L-10L
tp573
g5
s(V15*
p574
L10L
L-10L
tp575
g5
s(L16L
L20L
Ntp576
Ns(L18L
L17L
Ntp577
Ns(V14*AD
p578
L3L
L-10L
tp579
g5
s(L9L
L24L
Ntp580
Ns(V18*
p581
L6L
L-10L
tp582
g14
s(V15*D
p583
L5L
L-10L
tp584
g5
s(L13L
L26L
Ntp585
Ns(V18*AD
p586
L10L
L-10L
tp587
g5
s(V16*A
p588
L2L
L-10L
tp589
g5
s(V14*DS
p590
L3L
L-10L
tp591
g5
s(L30L
NNtp592
Ns(V16*AD
p593
L6L
L-10L
tp594
g32
s(V9*
p595
L8L
L-10L
tp596
g5
s(V20*A
p597
L3L
L-10L
tp598
g14
s(V14*D
p599
L2L
L-10L
tp600
g5
s(V17*AD
p601
L8L
L-10L
tp602
g5
s(V20*DS
p603
L2L
L-10L
tp604
g14
s(L16L
L24L
Ntp605
Ns(L12L
L20L
Ntp606
Ns(V11*D
p607
L10L
L-10L
tp608
g5
s(V6*
p609
L5L
L-10L
tp610
g5
s(V20*DS
p611
L7L
L-10L
tp612
g14
s(L17L
L23L
Ntp613
Ns(L6L
L21L
Ntp614
Ns(V8*
p615
L4L
L-10L
tp616
g5
s(V18*A
p617
L8L
L-10L
tp618
g14
s(L10L
L20L
Ntp619
Ns(V7*
p620
L2L
L-10L
tp621
g5
s(L10L
L19L
Ntp622
Ns(V14*
p623
L5L
L-10L
tp624
g5
s(V16*
p625
L8L
L-10L
tp626
g5
s(V13*
p627
L21L
Ntp628
Ns(V13*AD
p629
L2L
L-10L
tp630
g5
s(L14L
L22L
Ntp631
Ns(V15*A
p632
L7L
L-10L
tp633
g5
s(V21*
p634
L5L
L-10L
tp635
g14
s(L15L
L25L
Ntp636
Ns(V13*AD
p637
L7L
L-10L
tp638
g5
s(V18*D
p639
L5L
L-10L
tp640
g14
s(V10*DS
p641
L5L
L-10L
tp642
g32
s(V12*
p643
L10L
L-10L
tp644
g5
s(V10*
p645
L11L
L-10L
tp646
g5
s(V21*A
p647
L5L
L-10L
tp648
g14
s(L18L
L24L
Ntp649
Ns(V20*D
p650
L10L
L-10L
tp651
g14
s(V14*AD
p652
L10L
L-10L
tp653
g5
s(V19*D
p654
L7L
L-10L
tp655
g14
s(V16*D
p656
L9L
L-10L
tp657
g5
s(V4*DS
p658
L6L
L-10L
tp659
g5
s(V10*D
p660
L3L
L-10L
tp661
g32
s(L21L
L7L
L-10L
tp662
g14
s(V12*ADS
p663
L3L
L-10L
tp664
g5
s(V14*A
p665
L6L
L-10L
tp666
g5
s(V17*A
p667
L4L
L-10L
tp668
g5
s(V12*
p669
L3L
L-10L
tp670
g5
s(V6*D
p671
L6L
L-10L
tp672
g5
s(V10*DS
p673
L8L
L-10L
tp674
g5
s(V10*
p675
L6L
L-10L
tp676
g5
s(L15L
L21L
Ntp677
Ns(V5*D
p678
L9L
L-10L
tp679
g5
s(V10*D
p680
L10L
L-10L
tp681
g5
s(V14*D
p682
L11L
L-10L
tp683
g5
s(V4*DS
p684
L3L
L-10L
tp685
g5
s(V15*D
p686
L9L
L-10L
tp687
g5
s(V17*D
p688
L6L
L-10L
tp689
g14
s(V18*AD
p690
L6L
L-10L
tp691
g14
s(V12*ADS
p692
L10L
L-10L
tp693
g5
s(g459
L11L
L-10L
tp694
g5
s(g496
L21L
Ntp695
Ns(V12*
p696
L6L
L-10L
tp697
g5
s(L21L
NNtp698
Ns(V13*
p699
L7L
L-10L
tp700
g5
s(V6*DS
p701
L2L
L-10L
tp702
g5
s(V17*
p703
L5L
L-10L
tp704
g14
s(V9*
p705
L4L
L-10L
tp706
g5
s(V17*D
p707
L3L
L-10L
tp708
g14
s(L21L
L11L
L-10L
tp709
g14
s(V16*DS
p710
L6L
L-10L
tp711
g14
s(V18*A
p712
L21L
Ntp713
Ns(V27*
p714
NNtp715
Ns(V
p716
g716
L-10L
tp717
VBegin
p718
s(L8L
L18L
Ntp719
Ns(L8L
L21L
Ntp720
Ns(V19*
p721
L8L
L-10L
tp722
g14
s(V18*
p723
L9L
L-10L
tp724
g14
s(V11*
p725
L2L
L-10L
tp726
g5
s(V13*A
p727
L11L
L-10L
tp728
g5
s(L6L
L19L
Ntp729
Ns(g627
L11L
L-10L
tp730
g5
s(V7*D
p731
L7L
L-10L
tp732
g5
s(V16*DS
p733
L3L
L-10L
tp734
g14
s(V16*AD
p735
L9L
L-10L
tp736
g5
s(g514
L21L
Ntp737
Ns(L6L
L25L
Ntp738
Ns(V11*
p739
L11L
L-10L
tp740
g5
s(V17*AD
p741
L21L
Ntp742
Ns(V18*
p743
L4L
L-10L
tp744
g14
s(V16*
p745
L4L
L-10L
tp746
g14
s(V7*D
p747
L2L
L-10L
tp748
g5
s(V16*AD
p749
L4L
L-10L
tp750
g5
s(g201
L21L
Ntp751
Ns(V11*D
p752
L5L
L-10L
tp753
g32
s(V6*
p754
L10L
L-10L
tp755
g5
s(L20L
L25L
Ntp756
Ns(V20*D
p757
L3L
L-10L
tp758
g14
s(L9L
L17L
Ntp759
Ns(L9L
L22L
Ntp760
Ns(V12*D
p761
L4L
L-10L
tp762
g5
s(V11*D
p763
L8L
L-10L
tp764
g5
s(V6*
p765
L7L
L-10L
tp766
g5
s(V14*A
p767
L11L
L-10L
tp768
g5
s(V8*DS
p769
L3L
L-10L
tp770
g5
s(V21*
p771
L11L
L-10L
tp772
g14
s(V20*AD
p773
L4L
L-10L
tp774
g14
s(V15*
p775
L4L
L-10L
tp776
g5
s(V8*
p777
L10L
L-10L
tp778
g5
s(V4*DS
p779
L10L
L-10L
tp780
g5
s(V19*A
p781
L9L
L-10L
tp782
g14
s(V17*A
p783
L8L
L-10L
tp784
g5
s(L25L
NNtp785
Ns(V15*A
p786
L8L
L-10L
tp787
g5
s(L8L
L24L
Ntp788
Ns(V8*DS
p789
L6L
L-10L
tp790
g5
s(L14L
L20L
Ntp791
Ns(V24*
p792
NNtp793
Ns(V16*D
p794
L7L
L-10L
tp795
g5
s(V18*D
p796
L10L
L-10L
tp797
g14
s(g138
L21L
Ntp798
Ns(L26L
NNtp799
Ns(V16*A
p800
L5L
L-10L
tp801
g5
s(L21L
L26L
Ntp802
Ns(V12*DS
p803
L7L
L-10L
tp804
g5
s(L21L
L19L
Ntp805
Ns(V15*
p806
L8L
L-10L
tp807
g5
s(L11L
L19L
Ntp808
Ns(V14*AD
p809
L5L
L-10L
tp810
g5
s(V19*D
p811
L8L
L-10L
tp812
g14
s(V16*D
p813
L2L
L-10L
tp814
g5
s(L11L
L20L
Ntp815
Ns(g767
L21L
Ntp816
Ns(V18*D
p817
L7L
L-10L
tp818
g14
s(V13*A
p819
L2L
L-10L
tp820
g5
s(V18*AD
p821
L8L
L-10L
tp822
g14
s(L14L
L18L
Ntp823
Ns(V14*DS
p824
L5L
L-10L
tp825
g5
s(L4L
L23L
Ntp826
Ns(V17*AD
p827
L3L
L-10L
tp828
g5
s(V20*DS
p829
L9L
L-10L
tp830
g14
s(V6*D
p831
L9L
L-10L
tp832
g5
s(L18L
L21L
Ntp833
Ns(V19*
p834
L4L
L-10L
tp835
g14
s(V20*A
p836
L5L
L-10L
tp837
g14
s(g311
L11L
L-10L
tp838
g5
s(V15*D
p839
L6L
L-10L
tp840
g14
s(V17*AD
p841
L10L
L-10L
tp842
g5
s(L15L
L19L
Ntp843
Ns(V8*D
p844
L2L
L-10L
tp845
g5
s(V7*D
p846
L11L
L-10L
tp847
g5
s(V18*DS
p848
L2L
L-10L
tp849
g14
s(V18*A
p850
L3L
L-10L
tp851
g14
s(V10*D
p852
L4L
L-10L
tp853
g32
s(V5*D
p854
L7L
L-10L
tp855
g5
s(V17*D
p856
L8L
L-10L
tp857
g14
s(V12*ADS
p858
L4L
L-10L
tp859
g5
s(V14*
p860
L2L
L-10L
tp861
g5
s(V9*
p862
L11L
L-10L
tp863
g5
s(V16*A
p864
L21L
Ntp865
Ns(V20*DS
p866
L5L
L-10L
tp867
g14
s(L6L
L20L
Ntp868
Ns(L8L
L26L
Ntp869
Ns(V18*A
p870
L10L
L-10L
tp871
g5
s(L12L
L24L
Ntp872
Ns(V9*D
p873
L2L
L-10L
tp874
g5
s(V14*
p875
L7L
L-10L
tp876
g5
s(V8*
p877
L7L
L-10L
tp878
g5
s(L27L
NNtp879
Ns(L10L
L23L
Ntp880
Ns(V21*
p881
L7L
L-10L
tp882
g14
s(V20*AD
p883
L8L
L-10L
tp884
g14
s(V19*AD
p885
L3L
L-10L
tp886
g14
s(V11*
p887
L5L
L-10L
tp888
g5
s(V19*A
p889
L5L
L-10L
tp890
g14
s(g682
L21L
Ntp891
Ns(V10*DS
p892
L3L
L-10L
tp893
g32
s(V15*A
p894
L4L
L-10L
tp895
g5
s(L9L
L25L
Ntp896
Ns(V21*A
p897
L3L
L-10L
tp898
g14
s(V20*D
p899
L8L
L-10L
tp900
g14
s(V16*D
p901
L11L
L-10L
tp902
g5
s(L9L
L23L
Ntp903
Ns(L9L
L20L
Ntp904
Ns(V4*DS
p905
L4L
L-10L
tp906
g5
s(g399
L11L
L-10L
tp907
g5
s(V14*A
p908
L4L
L-10L
tp909
g5
s(V10*DS
p910
L6L
L-10L
tp911
g32
s(L16L
L19L
Ntp912
Ns(V10*
p913
L8L
L-10L
tp914
g5
s(V17*
p915
L2L
L-10L
tp916
g14
s(V13*D
p917
L6L
L-10L
tp918
g5
s(V14*AD
p919
L9L
L-10L
tp920
g5
s(V19*D
p921
L4L
L-10L
tp922
g14
s(L11L
L24L
Ntp923
Ns(V14*D
p924
L9L
L-10L
tp925
g5
s(V18*AD
p926
L4L
L-10L
tp927
g14
s(V14*A
p928
L9L
L-10L
tp929
g5
s(V14*DS
p930
L9L
L-10L
tp931
g5
s(V6*D
p932
L5L
L-10L
tp933
g5
s(g771
L21L
Ntp934
Ns(V17*
p935
L7L
L-10L
tp936
g14
s(L29L
NNtp937
Ns(V13*D
p938
L3L
L-10L
tp939
g5
s(V9*
p940
L2L
L-10L
tp941
g5
s(V20*A
p942
L9L
L-10L
tp943
g14
s(V10*D
p944
L9L
L-10L
tp945
g5
s(V5*D
p946
L10L
L-10L
tp947
g5
s(V17*D
p948
L5L
L-10L
tp949
g14
s(V12*ADS
p950
L9L
L-10L
tp951
g5
s(V15*D
p952
L10L
L-10L
tp953
g5
s(V20*
p954
L6L
L-10L
tp955
g14
s(V16*
p956
L10L
L-10L
tp957
g5
s(V15*
p958
L3L
L-10L
tp959
g5
s(V12*DS
p960
L8L
L-10L
tp961
g5
s(V16*DS
p962
L4L
L-10L
tp963
g14
s(L21L
L24L
Ntp964
Ns(L14L
L25L
Ntp965
Ns(L10L
L18L
Ntp966
Ns(L10L
L17L
Ntp967
Ns(V19*
p968
L10L
L-10L
tp969
g14
s(V9*
p970
L7L
L-10L
tp971
g5
s(g864
L11L
L-10L
tp972
g5
s(V16*
p973
L3L
L-10L
tp974
g14
s(V13*A
p975
L9L
L-10L
tp976
g5
s(V20*
p977
L3L
L-10L
tp978
g14
s(V7*D
p979
L5L
L-10L
tp980
g5
s(L8L
L17L
Ntp981
Ns(L18L
L19L
Ntp982
Ns(V18*
p983
L10L
L-10L
tp984
g14
s(L21L
L23L
Ntp985
Ns(V16*
p986
L6L
L-10L
tp987
g14
s(V13*AD
p988
L8L
L-10L
tp989
g5
s(V16*AD
p990
L10L
L-10L
tp991
g5
s(g39
L21L
Ntp992
Ns(V11*
p993
L8L
L-10L
tp994
g5
s(V11*D
p995
L3L
L-10L
tp996
g32
s(V17*A
p997
L6L
L-10L
tp998
g5
s(V17*AD
p999
L4L
L-10L
tp1000
g5
s(V21*A
p1001
L10L
L-10L
tp1002
g14
s(V7*
p1003
L11L
L-10L
tp1004
g5
s(V12*D
p1005
L2L
L-10L
tp1006
g5
s(V11*D
p1007
L6L
L-10L
tp1008
g32
s(V6*
p1009
L9L
L-10L
tp1010
g5
s(L16L
L26L
Ntp1011
Ns(V20*AD
p1012
L6L
L-10L
tp1013
g14
s(V8*
p1014
L8L
L-10L
tp1015
g5
s(L9L
L18L
Ntp1016
Ns(V18*A
p1017
L4L
L-10L
tp1018
g14
s(V4*DS
p1019
L8L
L-10L
tp1020
g5
s(V15*AD
p1021
L7L
L-10L
tp1022
g5
s(V19*A
p1023
L11L
L-10L
tp1024
g14
s(V17*A
p1025
L10L
L-10L
tp1026
g5
s(g901
L21L
Ntp1027
Ns(V21*
p1028
L8L
L-10L
tp1029
g14
s(V20*AD
p1030
L3L
L-10L
tp1031
g14
s(V8*
p1032
L5L
L-10L
tp1033
g5
s(V13*D
p1034
L10L
L-10L
tp1035
g5
s(L23L
NNtp1036
Ns(L8L
L20L
Ntp1037
Ns(L8L
L23L
Ntp1038
Ns(V16*D
p1039
L4L
L-10L
tp1040
g14
s(V18*D
p1041
L9L
L-10L
tp1042
g14
s(V20*
p1043
L10L
L-10L
tp1044
g14
s(V16*A
p1045
L6L
L-10L
tp1046
g5
s(V14*DS
p1047
L7L
L-10L
tp1048
g5
s(V8*D
p1049
L9L
L-10L
tp1050
g5
s(V12*DS
p1051
L4L
L-10L
tp1052
g5
s(V18*DS
p1053
L9L
L-10L
tp1054
g14
s(L21L
L20L
Ntp1055
Ns(L16L
L21L
Ntp1056
Ns(V19*
p1057
L6L
L-10L
tp1058
g14
s(V18*
p1059
L3L
L-10L
tp1060
g14
s(L19L
L17L
Ntp1061
Ns(V20*A
p1062
L7L
L-10L
tp1063
g14
s(g184
L11L
L-10L
tp1064
g5
s(V14*DS
p1065
L2L
L-10L
tp1066
g5
s(g203
L21L
Ntp1067
Ns(V7*D
p1068
L9L
L-10L
tp1069
g5
s(V16*AD
p1070
L3L
L-10L
tp1071
g5
s(V9*D
p1072
L9L
L-10L
tp1073
g5
s(V5*D
p1074
L5L
L-10L
tp1075
g5
s(V10*D
p1076
L6L
L-10L
tp1077
g32
s(V14*D
p1078
L7L
L-10L
tp1079
g5
s(V17*D
p1080
L10L
L-10L
tp1081
g14
s(L21L
L2L
L-10L
tp1082
g14
s(V12*ADS
p1083
L6L
L-10L
tp1084
g5
s(L20L
L18L
Ntp1085
Ns(L20L
L24L
Ntp1086
Ns(V20*A
p1087
L2L
L-10L
tp1088
g14
s(V12*
p1089
L2L
L-10L
tp1090
g5
s(L15L
L23L
Ntp1091
Ns(V17*AD
p1092
L9L
L-10L
tp1093
g5
s(V20*DS
p1094
L3L
L-10L
tp1095
g14
s(g18
L21L
Ntp1096
Ns(V12*D
p1097
L11L
L-10L
tp1098
g5
s(V5*D
p1099
L8L
L-10L
tp1100
g5
s(V10*D
p1101
L11L
L-10L
tp1102
g5
s(V17*D
p1103
L7L
L-10L
tp1104
g14
s(V12*ADS
p1105
L11L
L-10L
tp1106
g5
s(V13*
p1107
L2L
L-10L
tp1108
g5
s(V15*A
p1109
L10L
L-10L
tp1110
g5
s(V16*DS
p1111
L10L
L-10L
tp1112
g5
s(L17L
L22L
Ntp1113
Ns(L8L
L25L
Ntp1114
Ns(V7*
p1115
L7L
L-10L
tp1116
g5
s(V18*A
p1117
L9L
L-10L
tp1118
g5
s(L20L
L20L
Ntp1119
Ns(V9*D
p1120
L21L
Ntp1121
Ns(L14L
L26L
Ntp1122
Ns(V15*A
p1123
L3L
L-10L
tp1124
g5
s(V8*DS
p1125
L9L
L-10L
tp1126
g5
s(V20*AD
p1127
L10L
L-10L
tp1128
g14
s(V19*AD
p1129
L5L
L-10L
tp1130
g14
s(V11*
p1131
L7L
L-10L
tp1132
g5
s(V14*AD
p1133
L7L
L-10L
tp1134
g5
s(V19*D
p1135
L10L
L-10L
tp1136
g14
s(g1105
L21L
Ntp1137
Ns(L21L
L17L
Ntp1138
Ns(V19*A
p1139
L7L
L-10L
tp1140
g14
s(g1101
L21L
Ntp1141
Ns(V15*A
p1142
L6L
L-10L
tp1143
g5
s(V21*
p1144
L4L
L-10L
tp1145
g14
s(V6*D
p1146
L11L
L-10L
tp1147
g5
s(V19*D
p1148
L3L
L-10L
tp1149
g14
s(L15L
L24L
Ntp1150
Ns(L19L
L24L
Ntp1151
Ns(V11*
p1152
L10L
L-10L
tp1153
g5
s(V15*AD
p1154
L9L
L-10L
tp1155
g5
s(L4L
L17L
Ntp1156
Ns(V14*A
p1157
L2L
L-10L
tp1158
g5
s(L19L
L18L
Ntp1159
Ns(V15*D
p1160
L4L
L-10L
tp1161
g5
s(V6*D
p1162
L2L
L-10L
tp1163
g5
s(V10*DS
p1164
L4L
L-10L
tp1165
g32
s(V10*
p1166
L10L
L-10L
tp1167
g5
s(L9L
L26L
Ntp1168
Ns(L18L
L25L
Ntp1169
Ns(V13*D
p1170
L4L
L-10L
tp1171
g5
s(g221
L11L
L-10L
tp1172
g5
s(V19*D
p1173
L6L
L-10L
tp1174
g14
s(V16*D
p1175
L8L
L-10L
tp1176
g5
s(V9*
p1177
L9L
L-10L
tp1178
g5
s(V4*DS
p1179
L7L
L-10L
tp1180
g5
s(g727
L21L
Ntp1181
Ns(V18*AD
p1182
L2L
L-10L
tp1183
g14
s(V14*A
p1184
L7L
L-10L
tp1185
g5
s(g214
L11L
L-10L
tp1186
g5
s(V8*D
p1187
L5L
L-10L
tp1188
g5
s(V18*DS
p1189
L5L
L-10L
tp1190
g14
s(V6*D
p1191
L7L
L-10L
tp1192
g5
s(V6*DS
p1193
L6L
L-10L
tp1194
g5
s(L16L
L25L
Ntp1195
Ns(V23*
p1196
NNtp1197
Ns(g26
L11L
L-10L
tp1198
g14
s(V14*D
p1199
L10L
L-10L
tp1200
g5
s(V20*
p1201
L4L
L-10L
tp1202
g14
s(V15*D
p1203
L8L
L-10L
tp1204
g5
s(V18*AD
p1205
L7L
L-10L
tp1206
g14
s(L8L
L22L
Ntp1207
Ns(V6*DS
p1208
L3L
L-10L
tp1209
g5
s(V9*D
p1210
L5L
L-10L
tp1211
g5
s(V9*
p1212
L5L
L-10L
tp1213
g5
s(L20L
L23L
Ntp1214
Ns(V16*A
p1215
L9L
L-10L
tp1216
g5
s(g180
L21L
Ntp1217
Ns(V16*DS
p1218
L7L
L-10L
tp1219
g5
s(L10L
L21L
Ntp1220
Ns(L18L
L18L
Ntp1221
Ns(V13*AD
p1222
L3L
L-10L
tp1223
g5
s(V19*
p1224
L9L
L-10L
tp1225
g14
s(V18*
p1226
L8L
L-10L
tp1227
g14
s(V16*A
p1228
L4L
L-10L
tp1229
g5
s(L17L
L26L
Ntp1230
Ns(V7*D
p1231
L6L
L-10L
tp1232
g5
s(V13*AD
p1233
L10L
L-10L
tp1234
g5
s(V16*AD
p1235
L8L
L-10L
tp1236
g5
s(L19L
L23L
Ntp1237
Ns(g552
L21L
Ntp1238
Ns(L20L
L26L
Ntp1239
Ns(V17*AD
p1240
L6L
L-10L
tp1241
g32
s(V21*A
p1242
L8L
L-10L
tp1243
g14
s(V20*D
p1244
L7L
L-10L
tp1245
g14
s(L9L
L21L
Ntp1246
Ns(V19*AD
p1247
L9L
L-10L
tp1248
g14
s(V7*
p1249
L9L
L-10L
tp1250
g5
s(g543
L21L
Ntp1251
Ns(V11*D
p1252
L4L
L-10L
tp1253
g32
s(V6*
p1254
L11L
L-10L
tp1255
g5
s(V10*
p1256
L3L
L-10L
tp1257
g5
s(g741
L11L
L-10L
tp1258
g5
s(g506
L21L
Ntp1259
Ns(V20*D
p1260
L2L
L-10L
tp1261
g14
s(V18*A
p1262
L6L
L-10L
tp1263
g14
s(L15L
L20L
Ntp1264
Ns(V15*AD
p1265
L5L
L-10L
tp1266
g5
s(V14*
p1267
L3L
L-10L
tp1268
g5
s(V12*DS
p1269
L10L
L-10L
tp1270
g5
s(V20*AD
p1271
L5L
L-10L
tp1272
g14
s(V17*
p1273
L8L
L-10L
tp1274
g14
s(V8*
p1275
L11L
L-10L
tp1276
g5
s(V13*D
p1277
L8L
L-10L
tp1278
g5
s(g712
L11L
L-10L
tp1279
g5
s(L21L
L25L
Ntp1280
Ns(g121
L11L
L-10L
tp1281
g5
s(V19*A
p1282
L8L
L-10L
tp1283
g14
s(V12*DS
p1284
L3L
L-10L
tp1285
g5
s(V6*DS
p1286
L10L
L-10L
tp1287
g5
s(L14L
L21L
Ntp1288
Ns(g95
L21L
Ntp1289
Ns(g118
L11L
L-10L
tp1290
g14
s(V13*A
p1291
L6L
L-10L
tp1292
g5
s(L19L
L26L
Ntp1293
Ns(V20*
p1294
L8L
L-10L
tp1295
g14
s(g340
L11L
L-10L
tp1296
g14
s(g344
L11L
L-10L
tp1297
g5
s(V12*DS
p1298
L6L
L-10L
tp1299
g5
s(L8L
L19L
Ntp1300
Ns(g1097
L21L
Ntp1301
Ns(V12*
p1302
L9L
L-10L
tp1303
g5
s(V13*A
p1304
L3L
L-10L
tp1305
g5
s(V14*DS
p1306
L4L
L-10L
tp1307
g5
s(L16L
L17L
Ntp1308
Ns(g1120
L11L
L-10L
tp1309
g5
s(V5*D
p1310
L3L
L-10L
tp1311
g5
s(L21L
L4L
L-10L
tp1312
g14
s(V14*D
p1313
L5L
L-10L
tp1314
g5
s(V19*
p1315
L5L
L-10L
tp1316
g14
s(V15*D
p1317
L3L
L-10L
tp1318
g5
s(g1023
L21L
Ntp1319
Ns(V20*A
p1320
L4L
L-10L
tp1321
g14
s(L15L
L18L
Ntp1322
Ns(V7*D
p1323
L10L
L-10L
tp1324
g5
s(V12*D
p1325
L9L
L-10L
tp1326
g5
s(V10*D
p1327
L5L
L-10L
tp1328
g32
s(V5*D
p1329
L6L
L-10L
tp1330
g5
s(V14*D
p1331
L8L
L-10L
tp1332
g5
s(V17*D
p1333
L9L
L-10L
tp1334
g14
s(V12*ADS
p1335
L5L
L-10L
tp1336
g5
s(L20L
L22L
Ntp1337
Ns(L20L
L17L
Ntp1338
Ns(V13*
p1339
L4L
L-10L
tp1340
g5
s(L22L
NNtp1341
Ns(V16*DS
p1342
L8L
L-10L
tp1343
g5
s(V8*DS
p1344
L2L
L-10L
tp1345
g5
s(V21*
p1346
L10L
L-10L
tp1347
g14
s(V7*
p1348
L5L
L-10L
tp1349
g5
s(g66
L11L
L-10L
tp1350
g5
s(V21*
p1351
L3L
L-10L
tp1352
g14
s(V16*DS
p1353
L5L
L-10L
tp1354
g14
s(L17L
L18L
Ntp1355
Ns(V8*
p1356
L2L
L-10L
tp1357
g5
s(V19*AD
p1358
L7L
L-10L
tp1359
g14
s(L17L
L24L
Ntp1360
Ns(V16*D
p1361
L6L
L-10L
tp1362
g14
s(L19L
L25L
Ntp1363
Ns(V16*
p1364
L2L
L-10L
tp1365
g5
s(V21*
p1366
L6L
L-10L
tp1367
g14
s(g1146
L21L
Ntp1368
Ns(V20*AD
p1369
L9L
L-10L
tp1370
g14
s(g80
L21L
Ntp1371
Ns(V13*AD
p1372
L4L
L-10L
tp1373
g5
s(V19*AD
p1374
L2L
L-10L
tp1375
g14
s(V11*
p1376
L4L
L-10L
tp1377
g5
s(V18*D
p1378
L2L
L-10L
tp1379
g14
s(L21L
L21L
Ntp1380
Ns(L21L
L18L
Ntp1381
Ns(V19*A
p1382
L4L
L-10L
tp1383
g14
s(V18*AD
p1384
L9L
L-10L
tp1385
g5
s(L14L
L19L
Ntp1386
Ns(V10*DS
p1387
L2L
L-10L
tp1388
g5
s(L16L
L23L
Ntp1389
Ns(V21*A
p1390
L6L
L-10L
tp1391
g14
s(V16*D
p1392
L10L
L-10L
tp1393
g5
s(V17*A
p1394
L3L
L-10L
tp1395
g5
s(L4L
L21L
Ntp1396
Ns(L12L
L22L
Ntp1397
Ns(V15*AD
p1398
L10L
L-10L
tp1399
g5
s(g387
L21L
Ntp1400
Ns(L12L
L17L
Ntp1401
Ns(V14*A
p1402
L5L
L-10L
tp1403
g5
s(V8*D
p1404
L7L
L-10L
tp1405
g5
s(V18*DS
p1406
L7L
L-10L
tp1407
g14
s(V6*DS
p1408
L4L
L-10L
tp1409
g5
s(g846
L21L
Ntp1410
Ns(V13*D
p1411
L7L
L-10L
tp1412
g5
s(V12*
p1413
L5L
L-10L
tp1414
g5
s(V18*AD
p1415
L5L
L-10L
tp1416
g14
s(V15*
p1417
L7L
L-10L
tp1418
g5
s(V14*DS
p1419
L8L
L-10L
tp1420
g5
s(V9*D
p1421
L7L
L-10L
tp1422
g5
s(L21L
L8L
L-10L
tp1423
g14
s(V9*
p1424
L3L
L-10L
tp1425
g5
s(V20*A
p1426
L8L
L-10L
tp1427
g14
s(L6L
L22L
Ntp1428
Ns(V20*
p1429
L7L
L-10L
tp1430
g14
s(V15*
p1431
L2L
L-10L
tp1432
g5
s.