(dp0
(L13L
L21L
Ntp1
Ns(V21*A
p2
L5L
L4L
tp3
VStay
p4
s(L13L
L18L
Ntp5
Ns(V18*A
p6
L5L
L4L
tp7
g4
s(V14*D
p8
L8L
L4L
tp9
VDraw
p10
s(V5*D
p11
L3L
L4L
tp12
g10
s(L13L
L24L
Ntp13
Ns(V6*DS
p14
L10L
L4L
tp15
g10
s(V16*DS
p16
L5L
L4L
tp17
g4
s(V16*
p18
L9L
L4L
tp19
g10
s(V14*A
p20
L11L
L4L
tp21
g10
s(V7*
p22
L8L
L4L
tp23
g10
s(V6*D
p24
L5L
L4L
tp25
g10
s(L6L
L26L
Ntp26
Ns(V20*D
p27
L10L
L4L
tp28
g4
s(L15L
L26L
Ntp29
Ns(V20*
p30
L21L
Ntp31
Ns(V16*AD
p32
L7L
L4L
tp33
g10
s(V15*D
p34
L2L
L4L
tp35
g4
s(V19*A
p36
L21L
Ntp37
Ns(V6*
p38
L6L
L4L
tp39
g10
s(L19L
L19L
Ntp40
Ns(V10*D
p41
L21L
Ntp42
Ns(L19L
L20L
Ntp43
Ns(V11*D
p44
L2L
L4L
tp45
VDouble
p46
s(V8*D
p47
L11L
L4L
tp48
g10
s(L17L
L21L
Ntp49
Ns(V18*D
p50
L3L
L4L
tp51
g4
s(V24*
p52
NNtp53
Ns(V13*AD
p54
L8L
L4L
tp55
g10
s(V17*D
p56
L8L
L4L
tp57
g4
s(V12*
p58
L9L
L4L
tp59
g10
s(V8*
p60
L10L
L4L
tp61
g10
s(V12*DS
p62
L8L
L4L
tp63
g10
s(V10*D
p64
L9L
L4L
tp65
g46
s(V8*DS
p66
L2L
L4L
tp67
g10
s(V19*A
p68
L10L
L4L
tp69
g4
s(V7*
p70
L5L
L4L
tp71
g10
s(V17*A
p72
L10L
L4L
tp73
g10
s(V20*D
p74
L5L
L4L
tp75
g4
s(V20*
p76
L4L
L4L
tp77
g4
s(V16*AD
p78
L10L
L4L
tp79
g10
s(V15*AD
p80
L6L
L4L
tp81
g46
s(V6*
p82
L11L
L4L
tp83
g10
s(L4L
L24L
Ntp84
Ns(V20*DS
p85
L6L
L4L
tp86
g4
s(L4L
L18L
Ntp87
Ns(V8*D
p88
L6L
L4L
tp89
g46
s(V13*
p90
L21L
Ntp91
Ns(V17*D
p92
L21L
Ntp93
Ns(V13*AD
p94
L21L
Ntp95
Ns(L14L
L17L
Ntp96
Ns(V14*A
p97
L10L
L4L
tp98
g10
s(V16*DS
p99
L21L
Ntp100
Ns(L18L
L22L
Ntp101
Ns(V13*D
p102
L3L
L4L
tp103
g4
s(V19*AD
p104
L4L
L4L
tp105
g46
s(V12*DS
p106
L7L
L4L
tp107
g10
s(V10*DS
p108
L7L
L4L
tp109
g46
s(V18*
p110
L4L
L4L
tp111
g4
s(V7*D
p112
L8L
L4L
tp113
g10
s(V14*AD
p114
L2L
L4L
tp115
g10
s(L4L
L20L
Ntp116
Ns(V18*DS
p117
L2L
L4L
tp118
g4
s(V12*ADS
p119
L7L
L4L
tp120
g10
s(V16*D
p121
L9L
L4L
tp122
g10
s(V15*A
p123
L8L
L4L
tp124
g10
s(V21*A
p125
L6L
L4L
tp126
g4
s(V18*A
p127
L6L
L4L
tp128
g4
s(V13*AD
p129
L4L
L4L
tp130
g46
s(V17*D
p131
L4L
L4L
tp132
g4
s(V5*D
p133
L2L
L4L
tp134
g10
s(V16*DS
p135
L4L
L4L
tp136
g4
s(V20*AD
p137
L21L
Ntp138
Ns(V7*
p139
L9L
L4L
tp140
g10
s(L15L
L22L
Ntp141
Ns(V6*D
p142
L2L
L4L
tp143
g10
s(V20*D
p144
L9L
L4L
tp145
g4
s(V16*AD
p146
L6L
L4L
tp147
g46
s(V6*
p148
L7L
L4L
tp149
g10
s(L13L
L19L
Ntp150
Ns(L20L
L21L
Ntp151
Ns(V15*
p152
L2L
L4L
tp153
g4
s(L6L
L17L
Ntp154
Ns(L17L
L25L
Ntp155
Ns(V8*D
p156
L10L
L4L
tp157
g10
s(V20*DS
p158
L7L
L4L
tp159
g4
s(V14*D
p160
L9L
L4L
tp161
g10
s(V18*D
p162
L2L
L4L
tp163
g4
s(V10*D
p164
L2L
L4L
tp165
g46
s(V8*DS
p166
L9L
L4L
tp167
g10
s(g94
L11L
L4L
tp168
g10
s(g92
L11L
L4L
tp169
g4
s(V8*
p170
L11L
L4L
tp171
g10
s(V12*DS
p172
L11L
L4L
tp173
g10
s(L19L
L21L
Ntp174
Ns(V8*DS
p175
L5L
L4L
tp176
g46
s(L19L
L22L
Ntp177
Ns(V19*A
p178
L9L
L4L
tp179
g4
s(L16L
L22L
Ntp180
Ns(V17*A
p181
L11L
L4L
tp182
g10
s(V18*AD
p183
L21L
Ntp184
Ns(V20*D
p185
L4L
L4L
tp186
g4
s(g181
L21L
Ntp187
Ns(V14*AD
p188
L3L
L4L
tp189
g10
s(V20*
p190
L7L
L4L
tp191
g4
s(V15*AD
p192
L7L
L4L
tp193
g10
s(L21L
L22L
Ntp194
Ns(V18*DS
p195
L3L
L4L
tp196
g4
s(V12*ADS
p197
L6L
L4L
tp198
g10
s(V16*A
p199
L3L
L4L
tp200
g10
s(L12L
L21L
Ntp201
Ns(V14*A
p202
L9L
L4L
tp203
g10
s(V9*D
p204
L21L
Ntp205
Ns(V14*DS
p206
L2L
L4L
tp207
g4
s(V6*D
p208
L3L
L4L
tp209
g10
s(V14*
p210
L10L
L4L
tp211
g10
s(V12*DS
p212
L6L
L4L
tp213
g4
s(L20L
L19L
Ntp214
Ns(V18*
p215
L7L
L4L
tp216
g4
s(L4L
L26L
Ntp217
Ns(L17L
L19L
Ntp218
Ns(V10*
p219
L2L
L4L
tp220
g10
s(V10*DS
p221
L21L
Ntp222
Ns(V25*
p223
NNtp224
Ns(V16*D
p225
L10L
L4L
tp226
g4
s(V15*A
p227
L11L
L4L
tp228
g10
s(V21*A
p229
L7L
L4L
tp230
g4
s(V17*
p231
L3L
L4L
tp232
g4
s(L11L
L21L
Ntp233
Ns(L11L
L22L
Ntp234
Ns(V18*A
p235
L7L
L4L
tp236
g4
s(V13*AD
p237
L7L
L4L
tp238
g10
s(V17*D
p239
L7L
L4L
tp240
g4
s(V9*
p241
L3L
L4L
tp242
g10
s(L6L
L24L
Ntp243
Ns(V16*DS
p244
L3L
L4L
tp245
g4
s(V13*D
p246
L2L
L4L
tp247
g4
s(V19*AD
p248
L5L
L4L
tp249
g46
s(L13L
L22L
Ntp250
Ns(V8*DS
p251
L4L
L4L
tp252
g10
s(V20*D
p253
L8L
L4L
tp254
g4
s(V7*D
p255
L9L
L4L
tp256
g10
s(V26*
p257
NNtp258
Ns(V20*DS
p259
L4L
L4L
tp260
g4
s(L24L
NNtp261
Ns(V14*D
p262
L10L
L4L
tp263
g10
s(V18*D
p264
L5L
L4L
tp265
g4
s(L12L
L19L
Ntp266
Ns(L12L
L26L
Ntp267
Ns(V17*AD
p268
L3L
L4L
tp269
g46
s(V13*AD
p270
L10L
L4L
tp271
g10
s(V17*D
p272
L10L
L4L
tp273
g4
s(V12*DS
p274
L10L
L4L
tp275
g10
s(V14*
p276
L11L
L4L
tp277
g10
s(L17L
L17L
Ntp278
Ns(V19*A
p279
L8L
L4L
tp280
g4
s(V20*AD
p281
L3L
L4L
tp282
g4
s(V17*A
p283
L4L
L4L
tp284
g10
s(V18*AD
p285
L4L
L4L
tp286
g46
s(V20*
p287
L6L
L4L
tp288
g4
s(V15*
p289
L3L
L4L
tp290
g4
s(V15*AD
p291
L8L
L4L
tp292
g10
s(V12*ADS
p293
L5L
L4L
tp294
g10
s(V18*AD
p295
L8L
L4L
tp296
g4
s(L10L
L22L
Ntp297
Ns(L6L
L18L
Ntp298
Ns(V16*A
p299
L2L
L4L
tp300
g10
s(V16*DS
p301
L2L
L4L
tp302
g4
s(V10*D
p303
L3L
L4L
tp304
g46
s(V8*DS
p305
L8L
L4L
tp306
g10
s(V14*A
p307
L8L
L4L
tp308
g10
s(L13L
L25L
Ntp309
Ns(V14*DS
p310
L3L
L4L
tp311
g4
s(L4L
L22L
Ntp312
Ns(L18L
L20L
Ntp313
Ns(V18*
p314
L6L
L4L
tp315
g4
s(V13*
p316
L3L
L4L
tp317
g4
s(L18L
L26L
Ntp318
Ns(L11L
L26L
Ntp319
Ns(V16*D
p320
L11L
L4L
tp321
g10
s(V15*A
p322
L10L
L4L
tp323
g10
s(V21*A
p324
L8L
L4L
tp325
g4
s(V17*
p326
L2L
L4L
tp327
g4
s(V17*D
p328
L6L
L4L
tp329
g4
s(V13*AD
p330
L6L
L4L
tp331
g46
s(L11L
L25L
Ntp332
Ns(V21*
p333
L4L
L4L
tp334
g4
s(V18*D
p335
L4L
L4L
tp336
g4
s(V17*
p337
L21L
Ntp338
Ns(V21*
p339
L8L
L4L
tp340
g4
s(V19*AD
p341
L6L
L4L
tp342
g46
s(V15*D
p343
L11L
L4L
tp344
g10
s(L10L
L26L
Ntp345
Ns(V8*DS
p346
L7L
L4L
tp347
g10
s(L10L
L25L
Ntp348
Ns(V15*D
p349
L7L
L4L
tp350
g10
s(V7*D
p351
L10L
L4L
tp352
g10
s(V10*
p353
L3L
L4L
tp354
g10
s(V18*AD
p355
L9L
L4L
tp356
g10
s(V20*DS
p357
L5L
L4L
tp358
g4
s(V14*D
p359
L11L
L4L
tp360
g10
s(V9*
p361
L2L
L4L
tp362
g10
s(L13L
L20L
Ntp363
Ns(V20*DS
p364
L21L
Ntp365
Ns(V19*A
p366
L3L
L4L
tp367
g4
s(g227
L21L
Ntp368
Ns(V14*
p369
L8L
L4L
tp370
g10
s(V20*AD
p371
L2L
L4L
tp372
g4
s(V4*DS
p373
L3L
L4L
tp374
g10
s(L14L
L23L
Ntp375
Ns(V10*DS
p376
L2L
L4L
tp377
g46
s(L28L
NNtp378
Ns(L12L
L18L
Ntp379
Ns(V12*ADS
p380
L4L
L4L
tp381
g10
s(L16L
L18L
Ntp382
Ns(V8*DS
p383
L11L
L4L
tp384
g10
s(V17*AD
p385
L2L
L4L
tp386
g46
s(V14*A
p387
L7L
L4L
tp388
g10
s(V19*
p389
L2L
L4L
tp390
g4
s(V21*
p391
L9L
L4L
tp392
g4
s(L9L
L19L
Ntp393
Ns(V17*A
p394
L5L
L4L
tp395
g10
s(V16*AD
p396
L3L
L4L
tp397
g46
s(V15*D
p398
L6L
L4L
tp399
g4
s(V18*A
p400
L21L
Ntp401
Ns(V13*
p402
L2L
L4L
tp403
g4
s(V6*
p404
L2L
L4L
tp405
g10
s(V18*AD
p406
L5L
L4L
tp407
g46
s(L14L
L24L
Ntp408
Ns(V15*AD
p409
L9L
L4L
tp410
g10
s(L13L
L17L
Ntp411
Ns(V19*
p412
L21L
Ntp413
Ns(L13L
L23L
Ntp414
Ns(L6L
L23L
Ntp415
Ns(V18*D
p416
L7L
L4L
tp417
g4
s(V7*D
p418
L21L
Ntp419
Ns(g47
L21L
Ntp420
Ns(V21*
p421
L21L
Ntp422
Ns(V19*AD
p423
L7L
L4L
tp424
g4
s(L11L
L18L
Ntp425
Ns(V8*DS
p426
L6L
L4L
tp427
g46
s(V6*DS
p428
L21L
Ntp429
Ns(V16*
p430
L21L
Ntp431
Ns(g418
L11L
L4L
tp432
g10
s(L18L
L23L
Ntp433
Ns(V18*AD
p434
L10L
L4L
tp435
g10
s(V16*A
p436
L9L
L4L
tp437
g10
s(V21*A
p438
L9L
L4L
tp439
g4
s(V20*DS
p440
L10L
L4L
tp441
g4
s(L15L
L17L
Ntp442
Ns(V18*D
p443
L21L
Ntp444
Ns(V21*
p445
L5L
L4L
tp446
g4
s(L10L
L24L
Ntp447
Ns(V14*DS
p448
L8L
L4L
tp449
g10
s(V15*D
p450
L10L
L4L
tp451
g10
s(V14*
p452
L9L
L4L
tp453
g10
s(V20*AD
p454
L5L
L4L
tp455
g4
s(V4*DS
p456
L2L
L4L
tp457
g10
s(L17L
L20L
Ntp458
Ns(V27*
p459
NNtp460
Ns(L12L
L23L
Ntp461
Ns(V10*DS
p462
L3L
L4L
tp463
g46
s(L12L
L25L
Ntp464
Ns(V17*
p465
L9L
L4L
tp466
g4
s(V12*ADS
p467
L11L
L4L
tp468
g10
s(V18*A
p469
L2L
L4L
tp470
g4
s(V8*
p471
L2L
L4L
tp472
g10
s(V16*
p473
L2L
L4L
tp474
g4
s(V8*DS
p475
L10L
L4L
tp476
g10
s(V20*A
p477
L2L
L4L
tp478
g4
s(V19*A
p479
L2L
L4L
tp480
g4
s(L11L
L23L
Ntp481
Ns(V21*
p482
L10L
L4L
tp483
g4
s(L11L
L17L
Ntp484
Ns(L4L
L25L
Ntp485
Ns(L4L
L19L
Ntp486
Ns(V17*A
p487
L6L
L4L
tp488
g10
s(V13*A
p489
L5L
L4L
tp490
g10
s(V16*AD
p491
L2L
L4L
tp492
g10
s(V15*D
p493
L5L
L4L
tp494
g4
s(L16L
L20L
Ntp495
Ns(L18L
L17L
Ntp496
Ns(V13*
p497
L5L
L4L
tp498
g4
s(V18*AD
p499
L6L
L4L
tp500
g46
s(V6*
p501
L3L
L4L
tp502
g10
s(L9L
L24L
Ntp503
Ns(V13*A
p504
L9L
L4L
tp505
g10
s(V15*AD
p506
L10L
L4L
tp507
g10
s(L13L
L26L
Ntp508
Ns(V16*A
p509
L8L
L4L
tp510
g10
s(L30L
NNtp511
Ns(V13*D
p512
L11L
L4L
tp513
g10
s(V18*D
p514
L6L
L4L
tp515
g4
s(V14*DS
p516
L9L
L4L
tp517
g10
s(V14*A
p518
L6L
L4L
tp519
g10
s(V19*
p520
L3L
L4L
tp521
g4
s(V12*
p522
L2L
L4L
tp523
g4
s(V13*D
p524
L7L
L4L
tp525
g10
s(V13*A
p526
L21L
Ntp527
Ns(L16L
L24L
Ntp528
Ns(V12*D
p529
L6L
L4L
tp530
g4
s(V20*AD
p531
L4L
L4L
tp532
g4
s(V14*AD
p533
L10L
L4L
tp534
g10
s(L12L
L20L
Ntp535
Ns(V12*D
p536
L10L
L4L
tp537
g10
s(L17L
L23L
Ntp538
Ns(V20*
p539
L3L
L4L
tp540
g4
s(V17*
p541
L8L
L4L
tp542
g4
s(L6L
L21L
Ntp543
Ns(g183
L11L
L4L
tp544
g4
s(L10L
L20L
Ntp545
Ns(V21*A
p546
L10L
L4L
tp547
g4
s(L10L
L19L
Ntp548
Ns(V12*
p549
L21L
Ntp550
Ns(V21*
p551
L6L
L4L
tp552
g4
s(V4*DS
p553
L9L
L4L
tp554
g10
s(V15*D
p555
L9L
L4L
tp556
g10
s(V14*
p557
L6L
L4L
tp558
g4
s(L14L
L22L
Ntp559
Ns(V4*DS
p560
L5L
L4L
tp561
g10
s(V15*
p562
L10L
L4L
tp563
g10
s(L15L
L25L
Ntp564
Ns(V18*
p565
L3L
L4L
tp566
g4
s(V13*
p567
L4L
L4L
tp568
g4
s(V13*A
p569
L8L
L4L
tp570
g10
s(V15*
p571
L6L
L4L
tp572
g4
s(V11*
p573
L6L
L4L
tp574
g10
s(g364
L11L
L4L
tp575
g4
s(V
p576
g576
L4L
tp577
VBegin
p578
s(L18L
L24L
Ntp579
Ns(V13*AD
p580
L3L
L4L
tp581
g10
s(V17*D
p582
L3L
L4L
tp583
g4
s(V18*A
p584
L3L
L4L
tp585
g4
s(V11*
p586
L10L
L4L
tp587
g10
s(V8*
p588
L3L
L4L
tp589
g10
s(V10*D
p590
L6L
L4L
tp591
g46
s(V20*A
p592
L3L
L4L
tp593
g4
s(V7*
p594
L2L
L4L
tp595
g10
s(g421
L11L
L4L
tp596
g4
s(V13*D
p597
L6L
L4L
tp598
g4
s(L15L
L21L
Ntp599
Ns(V14*AD
p600
L11L
L4L
tp601
g10
s(V17*A
p602
L7L
L4L
tp603
g10
s(V15*D
p604
L4L
L4L
tp605
g4
s(V12*D
p606
L11L
L4L
tp607
g10
s(V18*AD
p608
L7L
L4L
tp609
g4
s(L21L
NNtp610
Ns(V15*AD
p611
L11L
L4L
tp612
g10
s(V12*ADS
p613
L10L
L4L
tp614
g10
s(V16*A
p615
L11L
L4L
tp616
g10
s(V19*AD
p617
L21L
Ntp618
Ns(V16*
p619
L3L
L4L
tp620
g4
s(V18*D
p621
L9L
L4L
tp622
g4
s(V14*DS
p623
L10L
L4L
tp624
g10
s(L8L
L18L
Ntp625
Ns(V14*A
p626
L5L
L4L
tp627
g10
s(L8L
L21L
Ntp628
Ns(V10*DS
p629
L8L
L4L
tp630
g46
s(V20*AD
p631
L7L
L4L
tp632
g4
s(V4*DS
p633
L4L
L4L
tp634
g10
s(L6L
L19L
Ntp635
Ns(V13*A
p636
L4L
L4L
tp637
g10
s(V9*D
p638
L6L
L4L
tp639
g46
s(V10*
p640
L10L
L4L
tp641
g10
s(L6L
L25L
Ntp642
Ns(V4*DS
p643
L21L
Ntp644
Ns(V16*D
p645
L2L
L4L
tp646
g4
s(V15*A
p647
L3L
L4L
tp648
g10
s(V20*
p649
L2L
L4L
tp650
g4
s(g337
L11L
L4L
tp651
g4
s(V15*
p652
L7L
L4L
tp653
g10
s(V9*D
p654
L10L
L4L
tp655
g10
s(V10*
p656
L6L
L4L
tp657
g10
s(V5*D
p658
L5L
L4L
tp659
g10
s(V9*
p660
L11L
L4L
tp661
g10
s(g99
L11L
L4L
tp662
g10
s(V21*A
p663
L11L
L4L
tp664
g4
s(V14*DS
p665
L21L
Ntp666
Ns(V11*
p667
L11L
L4L
tp668
g10
s(V5*D
p669
L9L
L4L
tp670
g10
s(V21*
p671
L7L
L4L
tp672
g4
s(V16*AD
p673
L21L
Ntp674
Ns(V13*D
p675
L10L
L4L
tp676
g10
s(V9*
p677
L7L
L4L
tp678
g10
s(V10*D
p679
L7L
L4L
tp680
g46
s(L20L
L25L
Ntp681
Ns(V12*
p682
L3L
L4L
tp683
g4
s(L9L
L17L
Ntp684
Ns(V15*D
p685
L8L
L4L
tp686
g10
s(L9L
L22L
Ntp687
Ns(V12*D
p688
L7L
L4L
tp689
g10
s(V18*
p690
L2L
L4L
tp691
g4
s(V13*
p692
L7L
L4L
tp693
g10
s(g526
L11L
L4L
tp694
g10
s(V14*D
p695
L2L
L4L
tp696
g4
s(V20*DS
p697
L8L
L4L
tp698
g4
s(V17*AD
p699
L11L
L4L
tp700
g10
s(V13*AD
p701
L2L
L4L
tp702
g10
s(V17*D
p703
L2L
L4L
tp704
g4
s(L21L
L7L
L4L
tp705
g4
s(L25L
NNtp706
Ns(V20*A
p707
L8L
L4L
tp708
g4
s(L8L
L24L
Ntp709
Ns(L14L
L20L
Ntp710
Ns(V8*
p711
L4L
L4L
tp712
g10
s(V17*AD
p713
L7L
L4L
tp714
g10
s(L21L
L11L
L4L
tp715
g4
s(V20*A
p716
L4L
L4L
tp717
g4
s(V4*DS
p718
L8L
L4L
tp719
g10
s(V13*D
p720
L5L
L4L
tp721
g4
s(V10*DS
p722
L9L
L4L
tp723
g46
s(V19*AD
p724
L2L
L4L
tp725
g4
s(L26L
NNtp726
Ns(L21L
L26L
Ntp727
Ns(V20*A
p728
L21L
Ntp729
Ns(V20*D
p730
L3L
L4L
tp731
g4
s(L21L
L19L
Ntp732
Ns(V14*AD
p733
L8L
L4L
tp734
g10
s(V14*
p735
L7L
L4L
tp736
g10
s(g320
L21L
Ntp737
Ns(V15*
p738
L11L
L4L
tp739
g10
s(V12*D
p740
L8L
L4L
tp741
g10
s(L11L
L19L
Ntp742
Ns(L11L
L20L
Ntp743
Ns(g204
L11L
L4L
tp744
g10
s(V10*
p745
L7L
L4L
tp746
g10
s(L14L
L18L
Ntp747
Ns(V12*ADS
p748
L9L
L4L
tp749
g10
s(V11*
p750
L7L
L4L
tp751
g10
s(L4L
L23L
Ntp752
Ns(V16*A
p753
L10L
L4L
tp754
g10
s(V16*DS
p755
L10L
L4L
tp756
g4
s(L18L
L21L
Ntp757
Ns(V5*D
p758
L8L
L4L
tp759
g10
s(V9*
p760
L6L
L4L
tp761
g10
s(V6*DS
p762
L3L
L4L
tp763
g10
s(g665
L11L
L4L
tp764
g10
s(V14*A
p765
L4L
L4L
tp766
g10
s(L15L
L19L
Ntp767
Ns(g276
L21L
Ntp768
Ns(V7*
p769
L3L
L4L
tp770
g10
s(V19*D
p771
L7L
L4L
tp772
g4
s(V20*AD
p773
L6L
L4L
tp774
g4
s(V4*DS
p775
L7L
L4L
tp776
g10
s(V13*A
p777
L7L
L4L
tp778
g10
s(V19*D
p779
L11L
L4L
tp780
g4
s(V16*D
p781
L3L
L4L
tp782
g4
s(V15*A
p783
L2L
L4L
tp784
g10
s(L6L
L20L
Ntp785
Ns(V17*
p786
L10L
L4L
tp787
g4
s(V15*
p788
L4L
L4L
tp789
g4
s(L8L
L26L
Ntp790
Ns(V18*A
p791
L8L
L4L
tp792
g4
s(L12L
L24L
Ntp793
Ns(V11*
p794
L8L
L4L
tp795
g10
s(V8*
p796
L5L
L4L
tp797
g10
s(V13*D
p798
L9L
L4L
tp799
g10
s(V18*D
p800
L8L
L4L
tp801
g4
s(V10*D
p802
L4L
L4L
tp803
g46
s(V17*AD
p804
L6L
L4L
tp805
g46
s(L21L
L10L
L4L
tp806
g4
s(L27L
NNtp807
Ns(V20*A
p808
L5L
L4L
tp809
g4
s(g606
L21L
Ntp810
Ns(L10L
L23L
Ntp811
Ns(V7*D
p812
L2L
L4L
tp813
g10
s(V12*D
p814
L4L
L4L
tp815
g4
s(V9*D
p816
L7L
L4L
tp817
g46
s(V11*D
p818
L7L
L4L
tp819
g46
s(V13*
p820
L6L
L4L
tp821
g4
s(V10*
p822
L11L
L4L
tp823
g10
s(V13*A
p824
L10L
L4L
tp825
g10
s(V11*D
p826
L11L
L4L
tp827
g46
s(V14*D
p828
L3L
L4L
tp829
g4
s(V5*D
p830
L4L
L4L
tp831
g10
s(V9*
p832
L10L
L4L
tp833
g10
s(L9L
L25L
Ntp834
Ns(g738
L21L
Ntp835
Ns(V20*DS
p836
L9L
L4L
tp837
g4
s(L9L
L23L
Ntp838
Ns(L9L
L20L
Ntp839
Ns(V19*A
p840
L7L
L4L
tp841
g4
s(g643
L11L
L4L
tp842
g10
s(L16L
L19L
Ntp843
Ns(V13*D
p844
L4L
L4L
tp845
g4
s(V10*DS
p846
L10L
L4L
tp847
g46
s(V19*AD
p848
L3L
L4L
tp849
g4
s(V14*
p850
L4L
L4L
tp851
g4
s(g512
L21L
Ntp852
Ns(V14*AD
p853
L9L
L4L
tp854
g10
s(L11L
L24L
Ntp855
Ns(V20*
p856
L9L
L4L
tp857
g4
s(V15*
p858
L8L
L4L
tp859
g10
s(V12*D
p860
L9L
L4L
tp861
g10
s(V19*D
p862
L10L
L4L
tp863
g4
s(V9*D
p864
L8L
L4L
tp865
g10
s(V18*A
p866
L9L
L4L
tp867
g10
s(V10*
p868
L4L
L4L
tp869
g10
s(V12*ADS
p870
L8L
L4L
tp871
g10
s(V11*
p872
L4L
L4L
tp873
g10
s(L29L
NNtp874
Ns(V16*A
p875
L5L
L4L
tp876
g10
s(V16*DS
p877
L9L
L4L
tp878
g10
s(g359
L21L
Ntp879
Ns(V17*AD
p880
L10L
L4L
tp881
g10
s(L21L
L6L
L4L
tp882
g4
s(V19*
p883
L10L
L4L
tp884
g4
s(V5*D
p885
L11L
L4L
tp886
g10
s(V20*A
p887
L9L
L4L
tp888
g4
s(L21L
L24L
Ntp889
Ns(V6*DS
p890
L2L
L4L
tp891
g10
s(V9*
p892
L5L
L4L
tp893
g10
s(V14*DS
p894
L4L
L4L
tp895
g4
s(L14L
L25L
Ntp896
Ns(L10L
L18L
Ntp897
Ns(V19*
p898
L6L
L4L
tp899
g4
s(V14*A
p900
L3L
L4L
tp901
g10
s(L10L
L17L
Ntp902
Ns(g20
L21L
Ntp903
Ns(V18*
p904
L9L
L4L
tp905
g4
s(V20*D
p906
L2L
L4L
tp907
g4
s(V20*AD
p908
L9L
L4L
tp909
g4
s(V4*DS
p910
L6L
L4L
tp911
g10
s(V22*
p912
NNtp913
Ns(V13*A
p914
L6L
L4L
tp915
g10
s(L8L
L17L
Ntp916
Ns(V16*D
p917
L4L
L4L
tp918
g4
s(V15*A
p919
L5L
L4L
tp920
g10
s(L18L
L19L
Ntp921
Ns(V17*
p922
L5L
L4L
tp923
g4
s(V15*
p924
L5L
L4L
tp925
g4
s(V11*D
p926
L10L
L4L
tp927
g46
s(L21L
L23L
Ntp928
Ns(V8*D
p929
L3L
L4L
tp930
g10
s(g383
L21L
Ntp931
Ns(V11*
p932
L9L
L4L
tp933
g10
s(V8*
p934
L6L
L4L
tp935
g10
s(V13*D
p936
L8L
L4L
tp937
g10
s(g443
L11L
L4L
tp938
g4
s(V10*D
p939
L5L
L4L
tp940
g46
s(V17*AD
p941
L5L
L4L
tp942
g46
s(L21L
L9L
L4L
tp943
g4
s(V19*A
p944
L6L
L4L
tp945
g4
s(V20*A
p946
L6L
L4L
tp947
g4
s(V7*D
p948
L3L
L4L
tp949
g10
s(V12*D
p950
L5L
L4L
tp951
g4
s(V19*D
p952
L6L
L4L
tp953
g4
s(V17*A
p954
L2L
L4L
tp955
g10
s(V20*
p956
L8L
L4L
tp957
g4
s(V9*D
p958
L4L
L4L
tp959
g46
s(V10*
p960
L8L
L4L
tp961
g10
s(V13*
p962
L9L
L4L
tp963
g10
s(V18*AD
p964
L2L
L4L
tp965
g46
s(L16L
L26L
Ntp966
Ns(V20*DS
p967
L2L
L4L
tp968
g4
s(L9L
L18L
Ntp969
Ns(V14*D
p970
L4L
L4L
tp971
g4
s(V5*D
p972
L7L
L4L
tp973
g10
s(V9*
p974
L9L
L4L
tp975
g10
s(V23*
p976
NNtp977
Ns(V18*
p978
L21L
Ntp979
Ns(V19*
p980
L7L
L4L
tp981
g4
s(V14*A
p982
L2L
L4L
tp983
g10
s(V4*DS
p984
L10L
L4L
tp985
g10
s(g221
L11L
L4L
tp986
g46
s(V18*
p987
L8L
L4L
tp988
g4
s(V14*
p989
L5L
L4L
tp990
g4
s(V14*AD
p991
L6L
L4L
tp992
g46
s(L23L
NNtp993
Ns(L8L
L20L
Ntp994
Ns(L8L
L23L
Ntp995
Ns(V15*
p996
L9L
L4L
tp997
g10
s(V11*D
p998
L6L
L4L
tp999
g46
s(V18*DS
p1000
L6L
L4L
tp1001
g4
s(V12*ADS
p1002
L3L
L4L
tp1003
g10
s(V19*D
p1004
L9L
L4L
tp1005
g4
s(V16*D
p1006
L5L
L4L
tp1007
g4
s(V15*A
p1008
L4L
L4L
tp1009
g10
s(V9*D
p1010
L9L
L4L
tp1011
g10
s(V18*A
p1012
L10L
L4L
tp1013
g10
s(V10*
p1014
L5L
L4L
tp1015
g10
s(V18*DS
p1016
L10L
L4L
tp1017
g4
s(V11*
p1018
L5L
L4L
tp1019
g10
s(V6*DS
p1020
L9L
L4L
tp1021
g10
s(V16*DS
p1022
L8L
L4L
tp1023
g10
s(L21L
L20L
Ntp1024
Ns(V16*
p1025
L10L
L4L
tp1026
g4
s(V17*AD
p1027
L9L
L4L
tp1028
g10
s(L21L
L5L
L4L
tp1029
g4
s(L16L
L21L
Ntp1030
Ns(V5*D
p1031
L10L
L4L
tp1032
g10
s(V20*A
p1033
L10L
L4L
tp1034
g4
s(V21*
p1035
L2L
L4L
tp1036
g4
s(V6*DS
p1037
L5L
L4L
tp1038
g10
s(L19L
L17L
Ntp1039
Ns(V16*
p1040
L6L
L4L
tp1041
g4
s(V20*D
p1042
L21L
Ntp1043
Ns(V6*D
p1044
L6L
L4L
tp1045
g10
s(V9*
p1046
L4L
L4L
tp1047
g10
s(V6*D
p1048
L10L
L4L
tp1049
g10
s(L20L
L24L
Ntp1050
Ns(V15*AD
p1051
L2L
L4L
tp1052
g10
s(L20L
L18L
Ntp1053
Ns(V28*
p1054
NNtp1055
Ns(L15L
L23L
Ntp1056
Ns(V11*D
p1057
L9L
L4L
tp1058
g46
s(V14*D
p1059
L5L
L4L
tp1060
g4
s(V8*D
p1061
L2L
L4L
tp1062
g10
s(V16*A
p1063
L4L
L4L
tp1064
g10
s(g412
L11L
L4L
tp1065
g4
s(V12*
p1066
L10L
L4L
tp1067
g10
s(V8*
p1068
L7L
L4L
tp1069
g10
s(V19*AD
p1070
L8L
L4L
tp1071
g4
s(V18*D
p1072
L10L
L4L
tp1073
g4
s(L17L
L22L
Ntp1074
Ns(V14*DS
p1075
L5L
L4L
tp1076
g4
s(V10*D
p1077
L10L
L4L
tp1078
g46
s(V17*AD
p1079
L4L
L4L
tp1080
g46
s(L21L
L8L
L4L
tp1081
g4
s(V20*A
p1082
L7L
L4L
tp1083
g4
s(V12*
p1084
L6L
L4L
tp1085
g4
s(L20L
L20L
Ntp1086
Ns(V12*DS
p1087
L3L
L4L
tp1088
g4
s(V19*A
p1089
L5L
L4L
tp1090
g4
s(L8L
L25L
Ntp1091
Ns(V12*D
p1092
L2L
L4L
tp1093
g4
s(V7*D
p1094
L4L
L4L
tp1095
g10
s(V19*D
p1096
L5L
L4L
tp1097
g4
s(V20*AD
p1098
L8L
L4L
tp1099
g4
s(L14L
L26L
Ntp1100
Ns(V17*A
p1101
L3L
L4L
tp1102
g10
s(g30
L11L
L4L
tp1103
g4
s(V9*D
p1104
L5L
L4L
tp1105
g46
s(V10*
p1106
L9L
L4L
tp1107
g10
s(V18*AD
p1108
L3L
L4L
tp1109
g46
s(V21*A
p1110
L2L
L4L
tp1111
g4
s(L21L
L17L
Ntp1112
Ns(V17*
p1113
L4L
L4L
tp1114
g4
s(V18*DS
p1115
L11L
L4L
tp1116
g4
s(V5*D
p1117
L6L
L4L
tp1118
g10
s(V9*
p1119
L8L
L4L
tp1120
g10
s(L15L
L24L
Ntp1121
Ns(L19L
L24L
Ntp1122
Ns(V6*DS
p1123
L4L
L4L
tp1124
g10
s(V16*
p1125
L7L
L4L
tp1126
g10
s(L4L
L17L
Ntp1127
Ns(L19L
L18L
Ntp1128
Ns(V19*
p1129
L4L
L4L
tp1130
g4
s(V10*DS
p1131
L4L
L4L
tp1132
g46
s(g978
L11L
L4L
tp1133
g4
s(V6*D
p1134
L11L
L4L
tp1135
g10
s(L18L
L25L
Ntp1136
Ns(V14*
p1137
L2L
L4L
tp1138
g4
s(L9L
L26L
Ntp1139
Ns(g1115
L21L
Ntp1140
Ns(V11*D
p1141
L5L
L4L
tp1142
g46
s(V13*
p1143
L8L
L4L
tp1144
g10
s(g600
L21L
Ntp1145
Ns(V19*D
p1146
L8L
L4L
tp1147
g4
s(V16*D
p1148
L6L
L4L
tp1149
g4
s(V15*A
p1150
L7L
L4L
tp1151
g10
s(V20*DS
p1152
L3L
L4L
tp1153
g4
s(g400
L11L
L4L
tp1154
g4
s(L16L
L25L
Ntp1155
Ns(V11*
p1156
L2L
L4L
tp1157
g10
s(V16*DS
p1158
L7L
L4L
tp1159
g10
s(V17*AD
p1160
L8L
L4L
tp1161
g10
s(L21L
L4L
L4L
tp1162
g4
s(g728
L11L
L4L
tp1163
g4
s(g1134
L21L
Ntp1164
Ns(V21*
p1165
L3L
L4L
tp1166
g4
s(V7*
p1167
L10L
L4L
tp1168
g10
s(V19*AD
p1169
L9L
L4L
tp1170
g4
s(L8L
L22L
Ntp1171
Ns(V12*
p1172
L7L
L4L
tp1173
g10
s(V7*
p1174
L6L
L4L
tp1175
g10
s(V16*AD
p1176
L5L
L4L
tp1177
g46
s(L20L
L23L
Ntp1178
Ns(V6*
p1179
L4L
L4L
tp1180
g10
s(V12*D
p1181
L3L
L4L
tp1182
g4
s(V7*D
p1183
L5L
L4L
tp1184
g10
s(V14*AD
p1185
L7L
L4L
tp1186
g10
s(V16*AD
p1187
L9L
L4L
tp1188
g10
s(V15*AD
p1189
L3L
L4L
tp1190
g10
s(V6*
p1191
L8L
L4L
tp1192
g10
s(V18*DS
p1193
L7L
L4L
tp1194
g4
s(V8*D
p1195
L9L
L4L
tp1196
g10
s(V12*ADS
p1197
L2L
L4L
tp1198
g10
s(L18L
L18L
Ntp1199
Ns(L10L
L21L
Ntp1200
Ns(V11*D
p1201
L8L
L4L
tp1202
g46
s(V14*D
p1203
L6L
L4L
tp1204
g4
s(V8*D
p1205
L5L
L4L
tp1206
g46
s(V16*A
p1207
L7L
L4L
tp1208
g10
s(V6*DS
p1209
L8L
L4L
tp1210
g10
s(g430
L11L
L4L
tp1211
g10
s(L17L
L26L
Ntp1212
Ns(V19*
p1213
L8L
L4L
tp1214
g4
s(L19L
L23L
Ntp1215
Ns(V8*
p1216
L8L
L4L
tp1217
g10
s(V14*DS
p1218
L6L
L4L
tp1219
g4
s(V6*D
p1220
L7L
L4L
tp1221
g10
s(L20L
L26L
Ntp1222
Ns(V19*A
p1223
L4L
L4L
tp1224
g4
s(V12*DS
p1225
L2L
L4L
tp1226
g4
s(g467
L21L
Ntp1227
Ns(L9L
L21L
Ntp1228
Ns(V14*
p1229
L3L
L4L
tp1230
g4
s(g826
L21L
Ntp1231
Ns(V19*D
p1232
L4L
L4L
tp1233
g4
s(g137
L11L
L4L
tp1234
g4
s(V20*
p1235
L10L
L4L
tp1236
g4
s(V9*D
p1237
L2L
L4L
tp1238
g46
s(V21*A
p1239
L3L
L4L
tp1240
g4
s(V17*
p1241
L7L
L4L
tp1242
g4
s(V18*DS
p1243
L8L
L4L
tp1244
g4
s(L15L
L20L
Ntp1245
Ns(V11*
p1246
L3L
L4L
tp1247
g10
s(g549
L11L
L4L
tp1248
g10
s(V6*DS
p1249
L7L
L4L
tp1250
g10
s(V16*
p1251
L4L
L4L
tp1252
g4
s(g41
L11L
L4L
tp1253
g46
s(V19*
p1254
L5L
L4L
tp1255
g4
s(V7*
p1256
L7L
L4L
tp1257
g10
s(L21L
L25L
Ntp1258
Ns(g699
L21L
Ntp1259
Ns(V18*
p1260
L10L
L4L
tp1261
g4
s(V6*D
p1262
L8L
L4L
tp1263
g10
s(V13*A
p1264
L3L
L4L
tp1265
g10
s(V16*AD
p1266
L8L
L4L
tp1267
g10
s(L14L
L21L
Ntp1268
Ns(V11*D
p1269
L4L
L4L
tp1270
g46
s(g90
L11L
L4L
tp1271
g10
s(g779
L21L
Ntp1272
Ns(V6*
p1273
L9L
L4L
tp1274
g10
s(V16*D
p1275
L7L
L4L
tp1276
g10
s(V15*A
p1277
L6L
L4L
tp1278
g10
s(L19L
L26L
Ntp1279
Ns(V18*A
p1280
L4L
L4L
tp1281
g4
s(V8*D
p1282
L4L
L4L
tp1283
g10
s(L8L
L19L
Ntp1284
Ns(L21L
L3L
L4L
tp1285
g4
s(g615
L21L
Ntp1286
Ns(V19*AD
p1287
L10L
L4L
tp1288
g4
s(g1042
L11L
L4L
tp1289
g4
s(V12*
p1290
L4L
L4L
tp1291
g4
s(V17*A
p1292
L8L
L4L
tp1293
g10
s(V10*DS
p1294
L5L
L4L
tp1295
g46
s(V15*D
p1296
L3L
L4L
tp1297
g4
s(V7*D
p1298
L6L
L4L
tp1299
g10
s(L16L
L17L
Ntp1300
Ns(V20*D
p1301
L7L
L4L
tp1302
g4
s(V14*AD
p1303
L4L
L4L
tp1304
g46
s(V9*D
p1305
L3L
L4L
tp1306
g46
s(V15*AD
p1307
L4L
L4L
tp1308
g46
s(V18*DS
p1309
L4L
L4L
tp1310
g4
s(L15L
L18L
Ntp1311
Ns(g343
L21L
Ntp1312
Ns(V14*D
p1313
L7L
L4L
tp1314
g10
s(V16*A
p1315
L6L
L4L
tp1316
g10
s(g428
L11L
L4L
tp1317
g10
s(V16*DS
p1318
L6L
L4L
tp1319
g4
s(V16*
p1320
L8L
L4L
tp1321
g10
s(L20L
L22L
Ntp1322
Ns(V19*
p1323
L9L
L4L
tp1324
g4
s(L20L
L17L
Ntp1325
Ns(V7*
p1326
L11L
L4L
tp1327
g10
s(V12*DS
p1328
L9L
L4L
tp1329
g10
s(L22L
NNtp1330
Ns(V14*DS
p1331
L7L
L4L
tp1332
g10
s(V6*D
p1333
L4L
L4L
tp1334
g10
s(g36
L11L
L4L
tp1335
g4
s(V12*DS
p1336
L5L
L4L
tp1337
g4
s(V16*AD
p1338
L4L
L4L
tp1339
g46
s(V6*
p1340
L5L
L4L
tp1341
g10
s(V19*D
p1342
L3L
L4L
tp1343
g4
s(V20*AD
p1344
L10L
L4L
tp1345
g4
s(V20*
p1346
L5L
L4L
tp1347
g4
s(L17L
L18L
Ntp1348
Ns(g663
L21L
Ntp1349
Ns(V8*D
p1350
L8L
L4L
tp1351
g10
s(L17L
L24L
Ntp1352
Ns(V21*A
p1353
L4L
L4L
tp1354
g4
s(L19L
L25L
Ntp1355
Ns(V17*
p1356
L6L
L4L
tp1357
g4
s(V18*DS
p1358
L9L
L4L
tp1359
g4
s(L21L
L2L
L4L
tp1360
g4
s(V12*
p1361
L8L
L4L
tp1362
g10
s(V8*
p1363
L9L
L4L
tp1364
g10
s(V6*DS
p1365
L6L
L4L
tp1366
g10
s(V16*
p1367
L5L
L4L
tp1368
g4
s(L21L
L21L
Ntp1369
Ns(V10*D
p1370
L8L
L4L
tp1371
g46
s(V8*DS
p1372
L3L
L4L
tp1373
g10
s(L21L
L18L
Ntp1374
Ns(L14L
L19L
Ntp1375
Ns(V17*A
p1376
L9L
L4L
tp1377
g10
s(L16L
L23L
Ntp1378
Ns(V7*
p1379
L4L
L4L
tp1380
g10
s(V18*
p1381
L5L
L4L
tp1382
g4
s(V6*D
p1383
L9L
L4L
tp1384
g10
s(V20*D
p1385
L6L
L4L
tp1386
g4
s(V13*A
p1387
L2L
L4L
tp1388
g10
s(g673
L11L
L4L
tp1389
g10
s(V15*AD
p1390
L5L
L4L
tp1391
g46
s(V11*D
p1392
L3L
L4L
tp1393
g46
s(L12L
L22L
Ntp1394
Ns(L12L
L17L
Ntp1395
Ns(V13*
p1396
L10L
L4L
tp1397
g10
s(V16*D
p1398
L8L
L4L
tp1399
g10
s(V15*A
p1400
L9L
L4L
tp1401
g10
s(L4L
L21L
Ntp1402
Ns(V6*
p1403
L10L
L4L
tp1404
g10
s(g611
L21L
Ntp1405
Ns(V13*AD
p1406
L5L
L4L
tp1407
g46
s(V17*D
p1408
L5L
L4L
tp1409
g4
s(V8*D
p1410
L7L
L4L
tp1411
g10
s(V13*AD
p1412
L9L
L4L
tp1413
g10
s(V17*D
p1414
L9L
L4L
tp1415
g4
s(g617
L11L
L4L
tp1416
g4
s(V12*
p1417
L5L
L4L
tp1418
g4
s(V12*DS
p1419
L4L
L4L
tp1420
g4
s(V10*DS
p1421
L6L
L4L
tp1422
g46
s(V7*D
p1423
L7L
L4L
tp1424
g10
s(g172
L21L
Ntp1425
Ns(V19*D
p1426
L2L
L4L
tp1427
g4
s(L6L
L22L
Ntp1428
Ns(V14*AD
p1429
L5L
L4L
tp1430
g46
s(V18*DS
p1431
L5L
L4L
tp1432
g4
s.