(dp0
(L13L
L21L
Ntp1
Ns(V11*
p2
L8L
L-15L
tp3
VDraw
p4
s(V14*AD
p5
L11L
L-15L
tp6
g4
s(L13L
L18L
Ntp7
Ns(V4*DS
p8
L8L
L-15L
tp9
g4
s(V21*
p10
L10L
L-15L
tp11
VStay
p12
s(V7*D
p13
L4L
L-15L
tp14
g4
s(V12*D
p15
L9L
L-15L
tp16
g4
s(L13L
L24L
Ntp17
Ns(V20*A
p18
L6L
L-15L
tp19
g12
s(V12*D
p20
L21L
Ntp21
Ns(V13*
p22
L5L
L-15L
tp23
g4
s(V18*DS
p24
L3L
L-15L
tp25
g12
s(V15*A
p26
L10L
L-15L
tp27
g4
s(V6*
p28
L6L
L-15L
tp29
g4
s(V11*D
p30
L8L
L-15L
tp31
g4
s(V20*AD
p32
L6L
L-15L
tp33
g12
s(L6L
L26L
Ntp34
Ns(V19*
p35
L21L
Ntp36
Ns(L15L
L26L
Ntp37
Ns(L19L
L19L
Ntp38
Ns(V14*A
p39
L6L
L-15L
tp40
g4
s(L19L
L20L
Ntp41
Ns(V18*A
p42
L3L
L-15L
tp43
g12
s(V21*
p44
L5L
L-15L
tp45
g12
s(V19*D
p46
L3L
L-15L
tp47
g12
s(L17L
L21L
Ntp48
Ns(V14*
p49
L9L
L-15L
tp50
g4
s(V14*
p51
L21L
Ntp52
Ns(V17*D
p53
L5L
L-15L
tp54
g12
s(V16*DS
p55
L6L
L-15L
tp56
g4
s(V16*
p57
L3L
L-15L
tp58
g4
s(V19*A
p59
L6L
L-15L
tp60
g12
s(V17*D
p61
L9L
L-15L
tp62
g12
s(V8*DS
p63
L5L
L-15L
tp64
g4
s(V5*D
p65
L10L
L-15L
tp66
g4
s(V10*D
p67
L7L
L-15L
tp68
g4
s(V20*D
p69
L10L
L-15L
tp70
g12
s(V13*D
p71
L6L
L-15L
tp72
g4
s(V11*
p73
L2L
L-15L
tp74
g4
s(V12*DS
p75
L7L
L-15L
tp76
g4
s(V14*AD
p77
L5L
L-15L
tp78
g4
s(L4L
L24L
Ntp79
Ns(V4*DS
p80
L2L
L-15L
tp81
g4
s(V19*
p82
L8L
L-15L
tp83
g12
s(V17*AD
p84
L5L
L-15L
tp85
g4
s(L4L
L18L
Ntp86
Ns(V8*
p87
L7L
L-15L
tp88
g4
s(V16*AD
p89
L10L
L-15L
tp90
g4
s(V13*
p91
L11L
L-15L
tp92
g4
s(V18*DS
p93
L5L
L-15L
tp94
g12
s(V6*
p95
L8L
L-15L
tp96
g4
s(L14L
L17L
Ntp97
Ns(V16*AD
p98
L6L
L-15L
tp99
g4
s(L18L
L22L
Ntp100
Ns(V6*D
p101
L9L
L-15L
tp102
g4
s(V13*A
p103
L21L
Ntp104
Ns(V12*
p105
L8L
L-15L
tp106
g4
s(V18*A
p107
L9L
L-15L
tp108
g4
s(L4L
L20L
Ntp109
Ns(V7*D
p110
L21L
Ntp111
Ns(V15*
p112
L7L
L-15L
tp113
g4
s(V7*D
p114
L7L
L-15L
tp115
g4
s(V16*A
p116
L6L
L-15L
tp117
g4
s(V16*AD
p118
L3L
L-15L
tp119
g4
s(V13*
p120
L2L
L-15L
tp121
g4
s(V15*A
p122
L9L
L-15L
tp123
g4
s(V13*AD
p124
L3L
L-15L
tp125
g4
s(L15L
L22L
Ntp126
Ns(V11*D
p127
L7L
L-15L
tp128
g4
s(V20*AD
p129
L9L
L-15L
tp130
g12
s(V8*D
p131
L21L
Ntp132
Ns(V9*D
p133
L6L
L-15L
tp134
g4
s(V4*DS
p135
L21L
Ntp136
Ns(L13L
L19L
Ntp137
Ns(L20L
L21L
Ntp138
Ns(V20*
p139
L10L
L-15L
tp140
g12
s(V14*A
p141
L9L
L-15L
tp142
g4
s(V14*A
p143
L21L
Ntp144
Ns(V14*D
p145
L10L
L-15L
tp146
g4
s(L21L
L11L
L-15L
tp147
g12
s(L17L
L25L
Ntp148
Ns(V4*DS
p149
L4L
L-15L
tp150
g4
s(V19*
p151
L2L
L-15L
tp152
g12
s(V21*
p153
L6L
L-15L
tp154
g12
s(L6L
L17L
Ntp155
Ns(V17*AD
p156
L11L
L-15L
tp157
g4
s(V18*AD
p158
L11L
L-15L
tp159
g4
s(V14*D
p160
L6L
L-15L
tp161
g4
s(L21L
L7L
L-15L
tp162
g12
s(V15*A
p163
L6L
L-15L
tp164
g4
s(V12*ADS
p165
L7L
L-15L
tp166
g4
s(V13*A
p167
L6L
L-15L
tp168
g4
s(V17*D
p169
L2L
L-15L
tp170
g12
s(V17*
p171
L3L
L-15L
tp172
g12
s(V6*D
p173
L3L
L-15L
tp174
g4
s(V16*DS
p175
L5L
L-15L
tp176
g4
s(V13*AD
p177
L10L
L-15L
tp178
g4
s(L19L
L21L
Ntp179
Ns(L19L
L22L
Ntp180
Ns(L16L
L22L
Ntp181
Ns(V15*AD
p182
L6L
L-15L
tp183
g4
s(L21L
L22L
Ntp184
Ns(V17*A
p185
L4L
L-15L
tp186
g4
s(V14*D
p187
L3L
L-15L
tp188
g4
s(V12*DS
p189
L4L
L-15L
tp190
g4
s(L21L
L2L
L-15L
tp191
g12
s(g35
L11L
L-15L
tp192
g12
s(V
p193
g193
L-15L
tp194
VBegin
p195
s(V13*
p196
L8L
L-15L
tp197
g4
s(V18*
p198
L11L
L-15L
tp199
g12
s(V6*
p200
L11L
L-15L
tp201
g4
s(L12L
L21L
Ntp202
Ns(V8*DS
p203
L9L
L-15L
tp204
g4
s(V20*AD
p205
L3L
L-15L
tp206
g12
s(V8*D
p207
L5L
L-15L
tp208
g4
s(V20*
p209
L4L
L-15L
tp210
g12
s(L20L
L19L
Ntp211
Ns(V14*A
p212
L3L
L-15L
tp213
g4
s(L4L
L26L
Ntp214
Ns(V20*DS
p215
L4L
L-15L
tp216
g12
s(V15*D
p217
L5L
L-15L
tp218
g4
s(V18*A
p219
L6L
L-15L
tp220
g12
s(L17L
L19L
Ntp221
Ns(V19*
p222
L4L
L-15L
tp223
g12
s(V8*
p224
L11L
L-15L
tp225
g4
s(V10*DS
p226
L4L
L-15L
tp227
g4
s(V18*D
p228
L6L
L-15L
tp229
g12
s(L11L
L21L
Ntp230
Ns(V15*
p231
L8L
L-15L
tp232
g4
s(L11L
L22L
Ntp233
Ns(V16*A
p234
L5L
L-15L
tp235
g4
s(V10*
p236
L2L
L-15L
tp237
g4
s(V6*D
p238
L5L
L-15L
tp239
g4
s(V16*DS
p240
L3L
L-15L
tp241
g4
s(L6L
L24L
Ntp242
Ns(V6*DS
p243
L8L
L-15L
tp244
g4
s(V14*DS
p245
L9L
L-15L
tp246
g4
s(L13L
L22L
Ntp247
Ns(V15*AD
p248
L8L
L-15L
tp249
g4
s(V17*D
p250
L21L
Ntp251
Ns(V21*A
p252
L5L
L-15L
tp253
g12
s(V12*DS
p254
L10L
L-15L
tp255
g4
s(V16*A
p256
L10L
L-15L
tp257
g4
s(V18*AD
p258
L8L
L-15L
tp259
g12
s(L24L
NNtp260
Ns(V9*
p261
L3L
L-15L
tp262
g4
s(V15*A
p263
L5L
L-15L
tp264
g4
s(V19*D
p265
L10L
L-15L
tp266
g12
s(L12L
L19L
Ntp267
Ns(V13*A
p268
L9L
L-15L
tp269
g4
s(L12L
L26L
Ntp270
Ns(V17*
p271
L4L
L-15L
tp272
g12
s(V10*
p273
L11L
L-15L
tp274
g4
s(V6*DS
p275
L21L
Ntp276
Ns(V21*
p277
L21L
Ntp278
Ns(V16*
p279
L10L
L-15L
tp280
g4
s(L17L
L17L
Ntp281
Ns(g91
L21L
Ntp282
Ns(V16*D
p283
L2L
L-15L
tp284
g4
s(V20*DS
p285
L10L
L-15L
tp286
g12
s(V5*D
p287
L3L
L-15L
tp288
g4
s(V24*
p289
NNtp290
Ns(V10*DS
p291
L2L
L-15L
tp292
g4
s(V18*AD
p293
L7L
L-15L
tp294
g12
s(V19*AD
p295
L11L
L-15L
tp296
g12
s(V17*A
p297
L7L
L-15L
tp298
g4
s(V12*ADS
p299
L11L
L-15L
tp300
g4
s(L10L
L22L
Ntp301
Ns(V15*
p302
L2L
L-15L
tp303
g4
s(V11*
p304
L11L
L-15L
tp305
g4
s(V16*A
p306
L3L
L-15L
tp307
g4
s(V19*AD
p308
L7L
L-15L
tp309
g12
s(L6L
L18L
Ntp310
Ns(V20*AD
p311
L21L
Ntp312
Ns(V12*D
p313
L10L
L-15L
tp314
g4
s(V18*
p315
L8L
L-15L
tp316
g12
s(V6*DS
p317
L6L
L-15L
tp318
g4
s(V13*AD
p319
L6L
L-15L
tp320
g4
s(V20*A
p321
L5L
L-15L
tp322
g12
s(V9*
p323
L10L
L-15L
tp324
g4
s(V14*DS
p325
L3L
L-15L
tp326
g4
s(V12*D
p327
L6L
L-15L
tp328
g4
s(V20*A
p329
L9L
L-15L
tp330
g12
s(L13L
L25L
Ntp331
Ns(V8*D
p332
L6L
L-15L
tp333
g4
s(L4L
L22L
Ntp334
Ns(V20*
p335
L7L
L-15L
tp336
g12
s(L18L
L20L
Ntp337
Ns(V17*A
p338
L8L
L-15L
tp339
g4
s(V16*D
p340
L11L
L-15L
tp341
g4
s(V20*DS
p342
L3L
L-15L
tp343
g12
s(V15*D
p344
L6L
L-15L
tp345
g4
s(L18L
L26L
Ntp346
Ns(V19*
p347
L7L
L-15L
tp348
g12
s(L11L
L26L
Ntp349
Ns(g299
L21L
Ntp350
Ns(V10*DS
p351
L11L
L-15L
tp352
g4
s(V18*D
p353
L9L
L-15L
tp354
g12
s(V19*AD
p355
L2L
L-15L
tp356
g12
s(V18*
p357
L7L
L-15L
tp358
g12
s(V21*A
p359
L3L
L-15L
tp360
g12
s(V7*
p361
L8L
L-15L
tp362
g4
s(V19*D
p363
L4L
L-15L
tp364
g12
s(L11L
L25L
Ntp365
Ns(V13*A
p366
L3L
L-15L
tp367
g4
s(V12*D
p368
L3L
L-15L
tp369
g4
s(V8*D
p370
L9L
L-15L
tp371
g4
s(L10L
L26L
Ntp372
Ns(V15*AD
p373
L11L
L-15L
tp374
g4
s(L10L
L25L
Ntp375
Ns(V15*D
p376
L9L
L-15L
tp377
g4
s(V5*D
p378
L9L
L-15L
tp379
g4
s(V10*D
p380
L8L
L-15L
tp381
g4
s(V20*D
p382
L5L
L-15L
tp383
g12
s(V13*D
p384
L5L
L-15L
tp385
g4
s(V21*A
p386
L6L
L-15L
tp387
g12
s(V12*
p388
L21L
Ntp389
Ns(V11*
p390
L5L
L-15L
tp391
g4
s(V14*AD
p392
L6L
L-15L
tp393
g4
s(V16*A
p394
L9L
L-15L
tp395
g4
s(V17*AD
p396
L2L
L-15L
tp397
g4
s(L13L
L20L
Ntp398
Ns(V18*DS
p399
L6L
L-15L
tp400
g12
s(V14*
p401
L7L
L-15L
tp402
g4
s(V14*DS
p403
L5L
L-15L
tp404
g4
s(g250
L11L
L-15L
tp405
g4
s(V18*DS
p406
L10L
L-15L
tp407
g12
s(V16*
p408
L9L
L-15L
tp409
g4
s(V26*
p410
NNtp411
Ns(V19*A
p412
L8L
L-15L
tp413
g12
s(g295
L21L
Ntp414
Ns(L14L
L23L
Ntp415
Ns(V20*DS
p416
L9L
L-15L
tp417
g12
s(g388
L11L
L-15L
tp418
g4
s(V18*AD
p419
L4L
L-15L
tp420
g12
s(V18*D
p421
L3L
L-15L
tp422
g12
s(L12L
L18L
Ntp423
Ns(L28L
NNtp424
Ns(V7*
p425
L2L
L-15L
tp426
g4
s(L16L
L18L
Ntp427
Ns(V12*
p428
L7L
L-15L
tp429
g4
s(V17*
p430
L8L
L-15L
tp431
g12
s(V10*
p432
L7L
L-15L
tp433
g4
s(V7*D
p434
L8L
L-15L
tp435
g4
s(V20*A
p436
L2L
L-15L
tp437
g12
s(V6*DS
p438
L5L
L-15L
tp439
g4
s(V16*AD
p440
L4L
L-15L
tp441
g4
s(L9L
L19L
Ntp442
Ns(V11*D
p443
L4L
L-15L
tp444
g4
s(V20*AD
p445
L10L
L-15L
tp446
g12
s(V10*D
p447
L2L
L-15L
tp448
g4
s(V9*D
p449
L5L
L-15L
tp450
g4
s(V13*D
p451
L11L
L-15L
tp452
g4
s(V17*A
p453
L11L
L-15L
tp454
g4
s(V21*A
p455
L8L
L-15L
tp456
g12
s(V14*A
p457
L10L
L-15L
tp458
g4
s(L14L
L24L
Ntp459
Ns(V9*D
p460
L9L
L-15L
tp461
g4
s(V20*D
p462
L3L
L-15L
tp463
g12
s(V12*
p464
L2L
L-15L
tp465
g4
s(V4*DS
p466
L7L
L-15L
tp467
g4
s(V9*
p468
L6L
L-15L
tp469
g4
s(V17*AD
p470
L8L
L-15L
tp471
g4
s(V18*
p472
L4L
L-15L
tp473
g12
s(L13L
L17L
Ntp474
Ns(V8*
p475
L2L
L-15L
tp476
g4
s(V19*D
p477
L7L
L-15L
tp478
g12
s(g135
L11L
L-15L
tp479
g4
s(L13L
L23L
Ntp480
Ns(L6L
L23L
Ntp481
Ns(V8*D
p482
L10L
L-15L
tp483
g4
s(V16*DS
p484
L10L
L-15L
tp485
g4
s(V16*
p486
L7L
L-15L
tp487
g4
s(V19*A
p488
L2L
L-15L
tp489
g12
s(L11L
L18L
Ntp490
Ns(V16*D
p491
L7L
L-15L
tp492
g4
s(V15*D
p493
L10L
L-15L
tp494
g4
s(V16*AD
p495
L21L
Ntp496
Ns(V5*D
p497
L6L
L-15L
tp498
g4
s(V10*D
p499
L11L
L-15L
tp500
g4
s(V20*D
p501
L6L
L-15L
tp502
g12
s(V13*D
p503
L2L
L-15L
tp504
g4
s(L18L
L23L
Ntp505
Ns(V7*
p506
L4L
L-15L
tp507
g4
s(V11*D
p508
L21L
Ntp509
Ns(V11*
p510
L6L
L-15L
tp511
g4
s(V14*D
p512
L4L
L-15L
tp513
g4
s(V14*AD
p514
L9L
L-15L
tp515
g4
s(V12*DS
p516
L3L
L-15L
tp517
g4
s(L21L
L5L
L-15L
tp518
g12
s(V21*
p519
L8L
L-15L
tp520
g12
s(V7*D
p521
L2L
L-15L
tp522
g4
s(L15L
L17L
Ntp523
Ns(g5
L21L
Ntp524
Ns(V6*DS
p525
L3L
L-15L
tp526
g4
s(V13*
p527
L7L
L-15L
tp528
g4
s(L10L
L24L
Ntp529
Ns(V6*
p530
L4L
L-15L
tp531
g4
s(V8*DS
p532
L10L
L-15L
tp533
g4
s(V17*D
p534
L8L
L-15L
tp535
g12
s(V11*D
p536
L10L
L-15L
tp537
g4
s(V20*AD
p538
L4L
L-15L
tp539
g12
s(V8*DS
p540
L21L
Ntp541
Ns(L17L
L20L
Ntp542
Ns(V8*DS
p543
L6L
L-15L
tp544
g4
s(L12L
L23L
Ntp545
Ns(V14*A
p546
L4L
L-15L
tp547
g4
s(L12L
L25L
Ntp548
Ns(V18*A
p549
L5L
L-15L
tp550
g12
s(V8*
p551
L8L
L-15L
tp552
g4
s(g51
L11L
L-15L
tp553
g4
s(V12*ADS
p554
L2L
L-15L
tp555
g4
s(V19*A
p556
L21L
Ntp557
Ns(V15*
p558
L11L
L-15L
tp559
g4
s(V8*
p560
L4L
L-15L
tp561
g4
s(g110
L11L
L-15L
tp562
g4
s(V17*D
p563
L7L
L-15L
tp564
g12
s(V6*D
p565
L6L
L-15L
tp566
g4
s(V16*AD
p567
L7L
L-15L
tp568
g4
s(V19*A
p569
L4L
L-15L
tp570
g12
s(L11L
L23L
Ntp571
Ns(V6*D
p572
L10L
L-15L
tp573
g4
s(V8*DS
p574
L3L
L-15L
tp575
g4
s(L11L
L17L
Ntp576
Ns(V11*D
p577
L3L
L-15L
tp578
g4
s(L4L
L25L
Ntp579
Ns(L4L
L19L
Ntp580
Ns(V9*D
p581
L2L
L-15L
tp582
g4
s(V10*D
p583
L5L
L-15L
tp584
g4
s(V13*D
p585
L8L
L-15L
tp586
g4
s(V20*D
p587
L8L
L-15L
tp588
g12
s(L18L
L17L
Ntp589
Ns(L16L
L20L
Ntp590
Ns(L9L
L24L
Ntp591
Ns(V12*DS
p592
L9L
L-15L
tp593
g4
s(V14*AD
p594
L3L
L-15L
tp595
g4
s(L13L
L26L
Ntp596
Ns(V21*
p597
L2L
L-15L
tp598
g12
s(V17*AD
p599
L7L
L-15L
tp600
g4
s(V16*AD
p601
L8L
L-15L
tp602
g4
s(L30L
NNtp603
Ns(V15*A
p604
L2L
L-15L
tp605
g4
s(V13*A
p606
L10L
L-15L
tp607
g4
s(V6*
p608
L2L
L-15L
tp609
g4
s(V16*DS
p610
L9L
L-15L
tp611
g4
s(L16L
L24L
Ntp612
Ns(L12L
L20L
Ntp613
Ns(V18*A
p614
L11L
L-15L
tp615
g4
s(L17L
L23L
Ntp616
Ns(L6L
L21L
Ntp617
Ns(V12*ADS
p618
L8L
L-15L
tp619
g4
s(V14*D
p620
L7L
L-15L
tp621
g4
s(L21L
L6L
L-15L
tp622
g12
s(V15*
p623
L5L
L-15L
tp624
g4
s(L10L
L20L
Ntp625
Ns(L10L
L19L
Ntp626
Ns(V7*D
p627
L5L
L-15L
tp628
g4
s(V12*ADS
p629
L4L
L-15L
tp630
g4
s(V13*
p631
L4L
L-15L
tp632
g4
s(V6*
p633
L7L
L-15L
tp634
g4
s(V15*A
p635
L11L
L-15L
tp636
g4
s(V13*AD
p637
L5L
L-15L
tp638
g4
s(V20*DS
p639
L21L
Ntp640
Ns(V11*D
p641
L9L
L-15L
tp642
g4
s(V20*AD
p643
L7L
L-15L
tp644
g12
s(V13*AD
p645
L9L
L-15L
tp646
g4
s(L14L
L22L
Ntp647
Ns(g614
L21L
Ntp648
Ns(V20*
p649
L8L
L-15L
tp650
g12
s(L15L
L25L
Ntp651
Ns(V14*A
p652
L7L
L-15L
tp653
g4
s(V14*D
p654
L8L
L-15L
tp655
g4
s(L21L
L9L
L-15L
tp656
g12
s(V18*A
p657
L2L
L-15L
tp658
g12
s(V21*
p659
L4L
L-15L
tp660
g12
s(V10*DS
p661
L8L
L-15L
tp662
g4
s(V18*D
p663
L10L
L-15L
tp664
g12
s(V19*AD
p665
L5L
L-15L
tp666
g12
s(L18L
L24L
Ntp667
Ns(V20*D
p668
L21L
Ntp669
Ns(V18*D
p670
L21L
Ntp671
Ns(V13*A
p672
L4L
L-15L
tp673
g4
s(V17*D
p674
L4L
L-15L
tp675
g12
s(V16*DS
p676
L7L
L-15L
tp677
g4
s(V12*D
p678
L4L
L-15L
tp679
g4
s(V20*A
p680
L11L
L-15L
tp681
g12
s(L15L
L21L
Ntp682
Ns(V15*AD
p683
L4L
L-15L
tp684
g4
s(V15*D
p685
L21L
Ntp686
Ns(L21L
NNtp687
Ns(V17*A
p688
L2L
L-15L
tp689
g4
s(V27*
p690
NNtp691
Ns(V12*DS
p692
L6L
L-15L
tp693
g4
s(V18*DS
p694
L21L
Ntp695
Ns(V19*
p696
L9L
L-15L
tp697
g12
s(g495
L11L
L-15L
tp698
g4
s(V13*
p699
L10L
L-15L
tp700
g4
s(g680
L21L
Ntp701
Ns(V6*
p702
L9L
L-15L
tp703
g4
s(V14*DS
p704
L6L
L-15L
tp705
g4
s(L8L
L18L
Ntp706
Ns(L8L
L21L
Ntp707
Ns(V8*D
p708
L3L
L-15L
tp709
g4
s(V14*DS
p710
L10L
L-15L
tp711
g4
s(V20*
p712
L2L
L-15L
tp713
g12
s(L6L
L19L
Ntp714
Ns(V20*DS
p715
L6L
L-15L
tp716
g12
s(L6L
L25L
Ntp717
Ns(V15*D
p718
L3L
L-15L
tp719
g4
s(V18*A
p720
L8L
L-15L
tp721
g12
s(V10*DS
p722
L6L
L-15L
tp723
g4
s(V18*AD
p724
L3L
L-15L
tp725
g12
s(V18*D
p726
L4L
L-15L
tp727
g12
s(g453
L21L
Ntp728
Ns(V15*
p729
L6L
L-15L
tp730
g4
s(V16*A
p731
L7L
L-15L
tp732
g4
s(V17*
p733
L11L
L-15L
tp734
g4
s(V10*
p735
L4L
L-15L
tp736
g4
s(V6*DS
p737
L10L
L-15L
tp738
g4
s(V13*AD
p739
L2L
L-15L
tp740
g4
s(V18*DS
p741
L8L
L-15L
tp742
g12
s(V28*
p743
NNtp744
Ns(V17*
p745
L7L
L-15L
tp746
g12
s(L20L
L25L
Ntp747
Ns(V10*
p748
L8L
L-15L
tp749
g4
s(L9L
L17L
Ntp750
Ns(L9L
L22L
Ntp751
Ns(V15*AD
p752
L2L
L-15L
tp753
g4
s(V20*
p754
L11L
L-15L
tp755
g12
s(V21*A
p756
L11L
L-15L
tp757
g12
s(V14*D
p758
L11L
L-15L
tp759
g4
s(L21L
L10L
L-15L
tp760
g12
s(g156
L21L
Ntp761
Ns(V19*
p762
L3L
L-15L
tp763
g12
s(V12*
p764
L5L
L-15L
tp765
g4
s(g340
L21L
Ntp766
Ns(g756
L21L
Ntp767
Ns(V18*AD
p768
L10L
L-15L
tp769
g4
s(V9*
p770
L5L
L-15L
tp771
g4
s(V19*AD
p772
L6L
L-15L
tp773
g12
s(V18*
p774
L3L
L-15L
tp775
g12
s(V15*A
p776
L7L
L-15L
tp777
g4
s(V19*D
p778
L8L
L-15L
tp779
g12
s(V14*
p780
L2L
L-15L
tp781
g4
s(V13*A
p782
L7L
L-15L
tp783
g4
s(L25L
NNtp784
Ns(L8L
L24L
Ntp785
Ns(V17*
p786
L2L
L-15L
tp787
g12
s(L14L
L20L
Ntp788
Ns(V9*
p789
L9L
L-15L
tp790
g4
s(V12*D
p791
L7L
L-15L
tp792
g4
s(V20*A
p793
L8L
L-15L
tp794
g12
s(V16*
p795
L4L
L-15L
tp796
g4
s(L26L
NNtp797
Ns(V15*AD
p798
L7L
L-15L
tp799
g4
s(L21L
L26L
Ntp800
Ns(V16*D
p801
L4L
L-15L
tp802
g4
s(L21L
L19L
Ntp803
Ns(V12*DS
p804
L21L
Ntp805
Ns(V5*D
p806
L5L
L-15L
tp807
g4
s(V9*D
p808
L11L
L-15L
tp809
g4
s(L11L
L19L
Ntp810
Ns(V16*D
p811
L8L
L-15L
tp812
g4
s(L11L
L20L
Ntp813
Ns(V19*AD
p814
L9L
L-15L
tp815
g12
s(V17*A
p816
L5L
L-15L
tp817
g4
s(V7*
p818
L7L
L-15L
tp819
g4
s(V21*A
p820
L2L
L-15L
tp821
g12
s(L14L
L18L
Ntp822
Ns(V11*
p823
L9L
L-15L
tp824
g4
s(L4L
L23L
Ntp825
Ns(V14*AD
p826
L10L
L-15L
tp827
g4
s(V4*DS
p828
L9L
L-15L
tp829
g4
s(V7*
p830
L11L
L-15L
tp831
g4
s(V12*D
p832
L8L
L-15L
tp833
g4
s(L18L
L21L
Ntp834
Ns(V18*
p835
L10L
L-15L
tp836
g12
s(V20*A
p837
L7L
L-15L
tp838
g12
s(g499
L21L
Ntp839
Ns(V18*DS
p840
L2L
L-15L
tp841
g12
s(L15L
L19L
Ntp842
Ns(V8*D
p843
L4L
L-15L
tp844
g4
s(V20*
p845
L5L
L-15L
tp846
g12
s(V20*DS
p847
L5L
L-15L
tp848
g12
s(V15*D
p849
L4L
L-15L
tp850
g4
s(V19*
p851
L5L
L-15L
tp852
g12
s(L6L
L20L
Ntp853
Ns(V10*DS
p854
L5L
L-15L
tp855
g4
s(V18*D
p856
L7L
L-15L
tp857
g12
s(L8L
L26L
Ntp858
Ns(V19*D
p859
L2L
L-15L
tp860
g12
s(L12L
L24L
Ntp861
Ns(V14*
p862
L8L
L-15L
tp863
g4
s(V10*
p864
L3L
L-15L
tp865
g4
s(V14*
p866
L4L
L-15L
tp867
g4
s(V6*DS
p868
L9L
L-15L
tp869
g4
s(V16*
p870
L2L
L-15L
tp871
g4
s(V19*A
p872
L7L
L-15L
tp873
g12
s(g694
L11L
L-15L
tp874
g12
s(L27L
NNtp875
Ns(V15*AD
p876
L9L
L-15L
tp877
g4
s(L10L
L23L
Ntp878
Ns(V8*DS
p879
L4L
L-15L
tp880
g4
s(g556
L11L
L-15L
tp881
g12
s(V5*D
p882
L11L
L-15L
tp883
g4
s(g668
L11L
L-15L
tp884
g12
s(V10*D
p885
L6L
L-15L
tp886
g4
s(V13*D
p887
L7L
L-15L
tp888
g4
s(V21*A
p889
L4L
L-15L
tp890
g12
s(V11*
p891
L3L
L-15L
tp892
g4
s(V12*
p893
L6L
L-15L
tp894
g4
s(V14*AD
p895
L4L
L-15L
tp896
g4
s(V16*A
p897
L11L
L-15L
tp898
g4
s(V4*DS
p899
L3L
L-15L
tp900
g4
s(V9*
p901
L2L
L-15L
tp902
g4
s(V17*AD
p903
L4L
L-15L
tp904
g4
s(V8*
p905
L6L
L-15L
tp906
g4
s(L9L
L25L
Ntp907
Ns(V19*D
p908
L11L
L-15L
tp909
g12
s(V18*DS
p910
L4L
L-15L
tp911
g12
s(L9L
L23L
Ntp912
Ns(L9L
L20L
Ntp913
Ns(V6*D
p914
L8L
L-15L
tp915
g4
s(V16*
p916
L11L
L-15L
tp917
g4
s(L16L
L19L
Ntp918
Ns(g373
L21L
Ntp919
Ns(V23*
p920
NNtp921
Ns(V16*D
p922
L3L
L-15L
tp923
g4
s(g639
L11L
L-15L
tp924
g12
s(L11L
L24L
Ntp925
Ns(V12*
p926
L9L
L-15L
tp927
g4
s(V5*D
p928
L2L
L-15L
tp929
g4
s(V20*D
p930
L2L
L-15L
tp931
g12
s(V9*D
p932
L8L
L-15L
tp933
g4
s(V10*DS
p934
L3L
L-15L
tp935
g4
s(V18*AD
p936
L6L
L-15L
tp937
g12
s(V19*AD
p938
L10L
L-15L
tp939
g12
s(V11*
p940
L10L
L-15L
tp941
g4
s(L29L
NNtp942
Ns(V4*DS
p943
L10L
L-15L
tp944
g4
s(V7*D
p945
L6L
L-15L
tp946
g4
s(g20
L11L
L-15L
tp947
g4
s(V20*A
p948
L4L
L-15L
tp949
g12
s(V6*DS
p950
L7L
L-15L
tp951
g4
s(V16*AD
p952
L2L
L-15L
tp953
g4
s(V13*
p954
L3L
L-15L
tp955
g4
s(L21L
L24L
Ntp956
Ns(L14L
L25L
Ntp957
Ns(L10L
L18L
Ntp958
Ns(L10L
L17L
Ntp959
Ns(V11*D
p960
L6L
L-15L
tp961
VDouble
p962
s(V20*AD
p963
L8L
L-15L
tp964
g12
s(V9*D
p965
L7L
L-15L
tp966
g4
s(V17*A
p967
L9L
L-15L
tp968
g4
s(V14*A
p969
L8L
L-15L
tp970
g4
s(L8L
L17L
Ntp971
Ns(L18L
L19L
Ntp972
Ns(V4*DS
p973
L5L
L-15L
tp974
g4
s(V21*
p975
L7L
L-15L
tp976
g12
s(V17*AD
p977
L10L
L-15L
tp978
g4
s(V18*
p979
L6L
L-15L
tp980
g12
s(L21L
L23L
Ntp981
Ns(V19*D
p982
L5L
L-15L
tp983
g12
s(V12*ADS
p984
L6L
L-15L
tp985
g4
s(g277
L11L
L-15L
tp986
g12
s(V17*D
p987
L3L
L-15L
tp988
g12
s(V8*D
p989
L8L
L-15L
tp990
g4
s(V6*D
p991
L2L
L-15L
tp992
g4
s(V16*DS
p993
L4L
L-15L
tp994
g4
s(V13*AD
p995
L11L
L-15L
tp996
g4
s(V8*DS
p997
L7L
L-15L
tp998
g4
s(V15*D
p999
L8L
L-15L
tp1000
g4
s(V5*D
p1001
L8L
L-15L
tp1002
g4
s(V10*D
p1003
L9L
L-15L
tp1004
g4
s(V20*D
p1005
L4L
L-15L
tp1006
g12
s(V13*D
p1007
L4L
L-15L
tp1008
g4
s(L16L
L26L
Ntp1009
Ns(V11*
p1010
L4L
L-15L
tp1011
g4
s(V14*D
p1012
L2L
L-15L
tp1013
g4
s(V14*AD
p1014
L7L
L-15L
tp1015
g4
s(V12*DS
p1016
L5L
L-15L
tp1017
g4
s(L21L
L3L
L-15L
tp1018
g12
s(g558
L21L
Ntp1019
Ns(L9L
L18L
Ntp1020
Ns(V17*AD
p1021
L3L
L-15L
tp1022
g4
s(V8*
p1023
L5L
L-15L
tp1024
g4
s(V13*
p1025
L9L
L-15L
tp1026
g4
s(V18*DS
p1027
L7L
L-15L
tp1028
g12
s(V6*
p1029
L10L
L-15L
tp1030
g4
s(g995
L21L
Ntp1031
Ns(V8*DS
p1032
L8L
L-15L
tp1033
g4
s(V17*D
p1034
L10L
L-15L
tp1035
g12
s(V20*AD
p1036
L2L
L-15L
tp1037
g12
s(V6*D
p1038
L11L
L-15L
tp1039
g4
s(L23L
NNtp1040
Ns(V14*A
p1041
L2L
L-15L
tp1042
g4
s(L8L
L20L
Ntp1043
Ns(L8L
L23L
Ntp1044
Ns(V12*
p1045
L10L
L-15L
tp1046
g4
s(V18*A
p1047
L7L
L-15L
tp1048
g12
s(V8*
p1049
L10L
L-15L
tp1050
g4
s(g908
L21L
Ntp1051
Ns(V15*
p1052
L9L
L-15L
tp1053
g4
s(L21L
L20L
Ntp1054
Ns(g758
L21L
Ntp1055
Ns(V7*D
p1056
L9L
L-15L
tp1057
g4
s(L16L
L21L
Ntp1058
Ns(V6*D
p1059
L4L
L-15L
tp1060
g4
s(V16*AD
p1061
L5L
L-15L
tp1062
g4
s(V16*DS
p1063
L2L
L-15L
tp1064
g4
s(V6*
p1065
L3L
L-15L
tp1066
g4
s(L19L
L17L
Ntp1067
Ns(V14*DS
p1068
L8L
L-15L
tp1069
g4
s(V11*D
p1070
L5L
L-15L
tp1071
g4
s(g311
L11L
L-15L
tp1072
g12
s(V10*D
p1073
L3L
L-15L
tp1074
g4
s(V9*D
p1075
L4L
L-15L
tp1076
g4
s(V13*D
p1077
L10L
L-15L
tp1078
g4
s(L20L
L24L
Ntp1079
Ns(g143
L11L
L-15L
tp1080
g4
s(L20L
L18L
Ntp1081
Ns(g804
L11L
L-15L
tp1082
g4
s(L15L
L23L
Ntp1083
Ns(V4*DS
p1084
L6L
L-15L
tp1085
g4
s(V17*AD
p1086
L9L
L-15L
tp1087
g4
s(V8*
p1088
L3L
L-15L
tp1089
g4
s(V15*A
p1090
L4L
L-15L
tp1091
g4
s(V12*ADS
p1092
L5L
L-15L
tp1093
g4
s(V13*A
p1094
L8L
L-15L
tp1095
g4
s(V17*
p1096
L5L
L-15L
tp1097
g12
s(V16*DS
p1098
L11L
L-15L
tp1099
g4
s(V15*A
p1100
L8L
L-15L
tp1101
g4
s(L17L
L22L
Ntp1102
Ns(V10*
p1103
L10L
L-15L
tp1104
g4
s(V13*AD
p1105
L8L
L-15L
tp1106
g4
s(L8L
L25L
Ntp1107
Ns(L20L
L20L
Ntp1108
Ns(L14L
L26L
Ntp1109
Ns(V12*ADS
p1110
L10L
L-15L
tp1111
g4
s(V14*D
p1112
L5L
L-15L
tp1113
g4
s(V12*DS
p1114
L2L
L-15L
tp1115
g4
s(L21L
L4L
L-15L
tp1116
g12
s(L21L
L17L
Ntp1117
Ns(V15*
p1118
L3L
L-15L
tp1119
g4
s(V7*D
p1120
L3L
L-15L
tp1121
g4
s(V16*A
p1122
L2L
L-15L
tp1123
g4
s(g158
L21L
Ntp1124
Ns(V9*
p1125
L11L
L-15L
tp1126
g4
s(V13*
p1127
L6L
L-15L
tp1128
g4
s(V6*
p1129
L5L
L-15L
tp1130
g4
s(L15L
L24L
Ntp1131
Ns(V13*AD
p1132
L7L
L-15L
tp1133
g4
s(L19L
L24L
Ntp1134
Ns(V14*DS
p1135
L2L
L-15L
tp1136
g4
s(g540
L11L
L-15L
tp1137
g4
s(L4L
L17L
Ntp1138
Ns(g508
L11L
L-15L
tp1139
g4
s(V20*AD
p1140
L5L
L-15L
tp1141
g12
s(L19L
L18L
Ntp1142
Ns(L9L
L26L
Ntp1143
Ns(L18L
L25L
Ntp1144
Ns(V20*
p1145
L6L
L-15L
tp1146
g12
s(V14*A
p1147
L5L
L-15L
tp1148
g4
s(V16*D
p1149
L10L
L-15L
tp1150
g4
s(V20*DS
p1151
L2L
L-15L
tp1152
g12
s(V18*A
p1153
L4L
L-15L
tp1154
g12
s(V19*
p1155
L6L
L-15L
tp1156
g12
s(V8*
p1157
L9L
L-15L
tp1158
g4
s(V10*DS
p1159
L10L
L-15L
tp1160
g4
s(V18*D
p1161
L8L
L-15L
tp1162
g12
s(V19*AD
p1163
L3L
L-15L
tp1164
g12
s(L16L
L25L
Ntp1165
Ns(V7*
p1166
L9L
L-15L
tp1167
g4
s(V12*ADS
p1168
L3L
L-15L
tp1169
g4
s(V19*
p1170
L10L
L-15L
tp1171
g12
s(V15*
p1172
L10L
L-15L
tp1173
g4
s(V13*A
p1174
L2L
L-15L
tp1175
g4
s(V17*D
p1176
L6L
L-15L
tp1177
g12
s(V6*D
p1178
L7L
L-15L
tp1179
g4
s(V12*D
p1180
L2L
L-15L
tp1181
g4
s(g198
L21L
Ntp1182
Ns(L8L
L22L
Ntp1183
Ns(V14*DS
p1184
L11L
L-15L
tp1185
g4
s(V15*AD
p1186
L10L
L-15L
tp1187
g4
s(L20L
L23L
Ntp1188
Ns(g1184
L21L
Ntp1189
Ns(V25*
p1190
NNtp1191
Ns(L10L
L21L
Ntp1192
Ns(L18L
L18L
Ntp1193
Ns(V12*DS
p1194
L8L
L-15L
tp1195
g4
s(V21*A
p1196
L7L
L-15L
tp1197
g12
s(g808
L21L
Ntp1198
Ns(g635
L21L
Ntp1199
Ns(V16*A
p1200
L8L
L-15L
tp1201
g4
s(V16*AD
p1202
L9L
L-15L
tp1203
g4
s(V15*A
p1204
L3L
L-15L
tp1205
g4
s(L17L
L26L
Ntp1206
Ns(V14*
p1207
L6L
L-15L
tp1208
g4
s(V16*A
p1209
L4L
L-15L
tp1210
g4
s(g103
L11L
L-15L
tp1211
g4
s(V14*DS
p1212
L4L
L-15L
tp1213
g4
s(L19L
L23L
Ntp1214
Ns(V17*
p1215
L6L
L-15L
tp1216
g12
s(V10*
p1217
L9L
L-15L
tp1218
g4
s(L20L
L26L
Ntp1219
Ns(V16*
p1220
L8L
L-15L
tp1221
g4
s(V19*A
p1222
L9L
L-15L
tp1223
g12
s(L9L
L21L
Ntp1224
Ns(V15*AD
p1225
L3L
L-15L
tp1226
g4
s(V20*DS
p1227
L8L
L-15L
tp1228
g12
s(V18*A
p1229
L10L
L-15L
tp1230
g4
s(V18*AD
p1231
L5L
L-15L
tp1232
g12
s(V18*D
p1233
L2L
L-15L
tp1234
g12
s(g351
L21L
Ntp1235
Ns(V7*
p1236
L3L
L-15L
tp1237
g4
s(V12*ADS
p1238
L9L
L-15L
tp1239
g4
s(V15*
p1240
L4L
L-15L
tp1241
g4
s(L15L
L20L
Ntp1242
Ns(V18*AD
p1243
L9L
L-15L
tp1244
g4
s(V17*
p1245
L9L
L-15L
tp1246
g12
s(V10*
p1247
L6L
L-15L
tp1248
g4
s(V9*
p1249
L8L
L-15L
tp1250
g4
s(g733
L21L
Ntp1251
Ns(V20*A
p1252
L3L
L-15L
tp1253
g12
s(V6*DS
p1254
L4L
L-15L
tp1255
g4
s(V13*AD
p1256
L4L
L-15L
tp1257
g4
s(L21L
L25L
Ntp1258
Ns(V20*
p1259
L9L
L-15L
tp1260
g12
s(g754
L21L
Ntp1261
Ns(V17*A
p1262
L10L
L-15L
tp1263
g4
s(V16*D
p1264
L9L
L-15L
tp1265
g4
s(V21*A
p1266
L9L
L-15L
tp1267
g12
s(V14*D
p1268
L9L
L-15L
tp1269
g4
s(L21L
L8L
L-15L
tp1270
g12
s(L14L
L21L
Ntp1271
Ns(g1098
L21L
Ntp1272
Ns(V12*
p1273
L3L
L-15L
tp1274
g4
s(V17*A
p1275
L6L
L-15L
tp1276
g4
s(g670
L11L
L-15L
tp1277
g12
s(V10*DS
p1278
L9L
L-15L
tp1279
g4
s(V19*AD
p1280
L4L
L-15L
tp1281
g12
s(L19L
L26L
Ntp1282
Ns(V18*
p1283
L5L
L-15L
tp1284
g12
s(V9*
p1285
L7L
L-15L
tp1286
g4
s(V7*
p1287
L10L
L-15L
tp1288
g4
s(V19*D
p1289
L6L
L-15L
tp1290
g12
s(V13*A
p1291
L5L
L-15L
tp1292
g4
s(L8L
L19L
Ntp1293
Ns(g897
L21L
Ntp1294
Ns(V18*
p1295
L9L
L-15L
tp1296
g12
s(V12*D
p1297
L5L
L-15L
tp1298
g4
s(g131
L11L
L-15L
tp1299
g4
s(V20*A
p1300
L10L
L-15L
tp1301
g12
s(V16*
p1302
L6L
L-15L
tp1303
g4
s(V19*A
p1304
L3L
L-15L
tp1305
g12
s(V15*AD
p1306
L5L
L-15L
tp1307
g4
s(V8*D
p1308
L7L
L-15L
tp1309
g4
s(V16*D
p1310
L6L
L-15L
tp1311
g4
s(g685
L11L
L-15L
tp1312
g4
s(g916
L21L
Ntp1313
Ns(L16L
L17L
Ntp1314
Ns(V5*D
p1315
L7L
L-15L
tp1316
g4
s(V10*D
p1317
L10L
L-15L
tp1318
g4
s(V20*D
p1319
L7L
L-15L
tp1320
g12
s(V13*D
p1321
L3L
L-15L
tp1322
g4
s(V15*D
p1323
L7L
L-15L
tp1324
g4
s(V17*A
p1325
L3L
L-15L
tp1326
g4
s(V7*
p1327
L5L
L-15L
tp1328
g4
s(L15L
L18L
Ntp1329
Ns(V11*
p1330
L7L
L-15L
tp1331
g4
s(V14*AD
p1332
L8L
L-15L
tp1333
g4
s(V21*
p1334
L9L
L-15L
tp1335
g12
s(V6*DS
p1336
L2L
L-15L
tp1337
g4
s(V14*
p1338
L5L
L-15L
tp1339
g4
s(L20L
L22L
Ntp1340
Ns(V14*DS
p1341
L7L
L-15L
tp1342
g4
s(L20L
L17L
Ntp1343
Ns(L22L
NNtp1344
Ns(V8*D
p1345
L2L
L-15L
tp1346
g4
s(V19*A
p1347
L10L
L-15L
tp1348
g12
s(V20*
p1349
L3L
L-15L
tp1350
g12
s(V20*DS
p1351
L7L
L-15L
tp1352
g12
s(g1038
L21L
Ntp1353
Ns(V15*D
p1354
L2L
L-15L
tp1355
g4
s(L17L
L18L
Ntp1356
Ns(V10*DS
p1357
L7L
L-15L
tp1358
g4
s(V18*AD
p1359
L2L
L-15L
tp1360
g12
s(V18*D
p1361
L5L
L-15L
tp1362
g12
s(L17L
L24L
Ntp1363
Ns(L19L
L25L
Ntp1364
Ns(V14*
p1365
L10L
L-15L
tp1366
g4
s(V17*
p1367
L10L
L-15L
tp1368
g12
s(V10*
p1369
L5L
L-15L
tp1370
g4
s(V7*D
p1371
L10L
L-15L
tp1372
g4
s(g275
L11L
L-15L
tp1373
g4
s(V19*A
p1374
L5L
L-15L
tp1375
g12
s(V18*DS
p1376
L9L
L-15L
tp1377
g12
s(L21L
L21L
Ntp1378
Ns(L21L
L18L
Ntp1379
Ns(V8*DS
p1380
L2L
L-15L
tp1381
g4
s(L14L
L19L
Ntp1382
Ns(V11*D
p1383
L2L
L-15L
tp1384
g4
s(L16L
L23L
Ntp1385
Ns(V9*D
p1386
L3L
L-15L
tp1387
g4
s(V10*D
p1388
L4L
L-15L
tp1389
g4
s(V13*D
p1390
L9L
L-15L
tp1391
g4
s(V20*D
p1392
L9L
L-15L
tp1393
g12
s(V21*A
p1394
L10L
L-15L
tp1395
g12
s(L12L
L22L
Ntp1396
Ns(L4L
L21L
Ntp1397
Ns(L12L
L17L
Ntp1398
Ns(V12*
p1399
L4L
L-15L
tp1400
g4
s(V14*AD
p1401
L2L
L-15L
tp1402
g4
s(V21*
p1403
L3L
L-15L
tp1404
g12
s(V9*
p1405
L4L
L-15L
tp1406
g4
s(V17*AD
p1407
L6L
L-15L
tp1408
g4
s(V18*
p1409
L2L
L-15L
tp1410
g12
s(V19*D
p1411
L9L
L-15L
tp1412
g12
s(V14*
p1413
L3L
L-15L
tp1414
g4
s(V16*DS
p1415
L8L
L-15L
tp1416
g4
s(V16*
p1417
L5L
L-15L
tp1418
g4
s(V22*
p1419
NNtp1420
Ns(V16*D
p1421
L5L
L-15L
tp1422
g4
s(L6L
L22L
Ntp1423
Ns(V5*D
p1424
L4L
L-15L
tp1425
g4
s(V9*D
p1426
L10L
L-15L
tp1427
g4
s(g451
L21L
Ntp1428
Ns(V19*AD
p1429
L8L
L-15L
tp1430
g12
s(V7*
p1431
L6L
L-15L
tp1432
g4
s.