(dp0
(V18*
p1
L7L
L15L
tp2
VStay
p3
s(L13L
L21L
Ntp4
Ns(V21*A
p5
L3L
L15L
tp6
g3
s(L13L
L18L
Ntp7
Ns(L13L
L24L
Ntp8
Ns(V12*D
p9
L21L
Ntp10
Ns(V17*A
p11
L8L
L15L
tp12
VDraw
p13
s(V13*
p14
L10L
L15L
tp15
g13
s(V6*
p16
L9L
L15L
tp17
g13
s(V16*AD
p18
L11L
L15L
tp19
g13
s(L6L
L26L
Ntp20
Ns(V19*
p21
L9L
L15L
tp22
g3
s(V12*DS
p23
L6L
L15L
tp24
g3
s(V12*D
p25
L6L
L15L
tp26
g3
s(V19*
p27
L21L
Ntp28
Ns(L15L
L26L
Ntp29
Ns(V20*A
p30
L9L
L15L
tp31
g3
s(L19L
L19L
Ntp32
Ns(V6*DS
p33
L6L
L15L
tp34
g13
s(L19L
L20L
Ntp35
Ns(V12*D
p36
L10L
L15L
tp37
g13
s(V20*A
p38
L5L
L15L
tp39
g3
s(V19*AD
p40
L7L
L15L
tp41
g3
s(V11*
p42
L11L
L15L
tp43
g13
s(V19*AD
p44
L11L
L15L
tp45
g3
s(L17L
L21L
Ntp46
Ns(V10*DS
p47
L2L
L15L
tp48
VDouble
p49
s(V18*AD
p50
L7L
L15L
tp51
g3
s(V14*
p52
L21L
Ntp53
Ns(V5*D
p54
L3L
L15L
tp55
g13
s(V16*DS
p56
L7L
L15L
tp57
g3
s(V17*D
p58
L4L
L15L
tp59
g3
s(V16*D
p60
L2L
L15L
tp61
g3
s(V20*DS
p62
L10L
L15L
tp63
g3
s(V16*
p64
L10L
L15L
tp65
g3
s(V21*
p66
L4L
L15L
tp67
g3
s(V18*A
p68
L2L
L15L
tp69
g3
s(V14*A
p70
L7L
L15L
tp71
g13
s(V19*D
p72
L10L
L15L
tp73
g3
s(V9*
p74
L3L
L15L
tp75
g13
s(V16*A
p76
L10L
L15L
tp77
g13
s(L4L
L24L
Ntp78
Ns(V20*AD
p79
L7L
L15L
tp80
g3
s(V11*D
p81
L9L
L15L
tp82
g49
s(L4L
L18L
Ntp83
Ns(V21*A
p84
L5L
L15L
tp85
g3
s(V15*A
p86
L11L
L15L
tp87
g13
s(L14L
L17L
Ntp88
Ns(V13*
p89
L4L
L15L
tp90
g3
s(V6*
p91
L7L
L15L
tp92
g13
s(L18L
L22L
Ntp93
Ns(V7*D
p94
L5L
L15L
tp95
g49
s(V14*D
p96
L7L
L15L
tp97
g13
s(V15*AD
p98
L8L
L15L
tp99
g13
s(L21L
L6L
L15L
tp100
g3
s(V6*DS
p101
L8L
L15L
tp102
g13
s(V13*A
p103
L21L
Ntp104
Ns(V10*
p105
L2L
L15L
tp106
g13
s(L4L
L20L
Ntp107
Ns(V7*D
p108
L21L
Ntp109
Ns(V10*DS
p110
L4L
L15L
tp111
g49
s(V18*D
p112
L6L
L15L
tp113
g3
s(V16*DS
p114
L9L
L15L
tp115
g3
s(V19*
p116
L4L
L15L
tp117
g3
s(V15*D
p118
L5L
L15L
tp119
g3
s(V20*DS
p120
L4L
L15L
tp121
g3
s(V20*
p122
L4L
L15L
tp123
g3
s(L15L
L22L
Ntp124
Ns(V17*AD
p125
L7L
L15L
tp126
g13
s(V21*
p127
L2L
L15L
tp128
g3
s(V8*D
p129
L5L
L15L
tp130
g49
s(V14*AD
p131
L3L
L15L
tp132
g49
s(V8*D
p133
L21L
Ntp134
Ns(V4*DS
p135
L21L
Ntp136
Ns(L13L
L19L
Ntp137
Ns(L20L
L21L
Ntp138
Ns(V13*D
p139
L8L
L15L
tp140
g13
s(V18*
p141
L11L
L15L
tp142
g3
s(V9*D
p143
L2L
L15L
tp144
g49
s(V10*D
p145
L5L
L15L
tp146
g49
s(V20*D
p147
L8L
L15L
tp148
g3
s(V14*A
p149
L21L
Ntp150
Ns(L6L
L17L
Ntp151
Ns(V
p152
g152
L15L
tp153
VBegin
p154
s(L17L
L25L
Ntp155
Ns(V11*D
p156
L3L
L15L
tp157
g49
s(V8*DS
p158
L3L
L15L
tp159
g49
s(V17*A
p160
L4L
L15L
tp161
g13
s(V19*A
p162
L4L
L15L
tp163
g3
s(V16*AD
p164
L7L
L15L
tp165
g13
s(g108
L11L
L15L
tp166
g13
s(V15*AD
p167
L6L
L15L
tp168
g49
s(L19L
L21L
Ntp169
Ns(g52
L11L
L15L
tp170
g3
s(L19L
L22L
Ntp171
Ns(L16L
L22L
Ntp172
Ns(V17*
p173
L3L
L15L
tp174
g3
s(V13*A
p175
L6L
L15L
tp176
g13
s(V15*A
p177
L6L
L15L
tp178
g13
s(L21L
L22L
Ntp179
Ns(V14*D
p180
L6L
L15L
tp181
g3
s(L21L
L7L
L15L
tp182
g3
s(V18*AD
p183
L11L
L15L
tp184
g3
s(V19*
p185
L2L
L15L
tp186
g3
s(V17*D
p187
L8L
L15L
tp188
g3
s(V14*D
p189
L10L
L15L
tp190
g13
s(L21L
L11L
L15L
tp191
g3
s(V20*
p192
L10L
L15L
tp193
g3
s(V6*DS
p194
L3L
L15L
tp195
g13
s(L12L
L21L
Ntp196
Ns(V21*
p197
L8L
L15L
tp198
g3
s(V14*AD
p199
L9L
L15L
tp200
g13
s(V11*
p201
L6L
L15L
tp202
g13
s(V7*
p203
L4L
L15L
tp204
g13
s(L20L
L19L
Ntp205
Ns(V13*AD
p206
L3L
L15L
tp207
g49
s(V13*D
p208
L2L
L15L
tp209
g3
s(L4L
L26L
Ntp210
Ns(V10*D
p211
L11L
L15L
tp212
g49
s(V20*D
p213
L6L
L15L
tp214
g3
s(V5*D
p215
L6L
L15L
tp216
g13
s(L17L
L19L
Ntp217
Ns(V16*A
p218
L6L
L15L
tp219
g13
s(V15*D
p220
L10L
L15L
tp221
g3
s(V16*D
p222
L7L
L15L
tp223
g3
s(V15*
p224
L7L
L15L
tp225
g3
s(L11L
L21L
Ntp226
Ns(V19*A
p227
L2L
L15L
tp228
g3
s(L11L
L22L
Ntp229
Ns(V16*
p230
L7L
L15L
tp231
g3
s(V8*D
p232
L10L
L15L
tp233
g13
s(V18*A
p234
L9L
L15L
tp235
g13
s(L6L
L24L
Ntp236
Ns(V19*D
p237
L7L
L15L
tp238
g3
s(V18*
p239
L4L
L15L
tp240
g3
s(L13L
L22L
Ntp241
Ns(V9*
p242
L6L
L15L
tp243
g13
s(V12*
p244
L2L
L15L
tp245
g3
s(V17*D
p246
L21L
Ntp247
Ns(V16*AD
p248
L6L
L15L
tp249
g49
s(V21*A
p250
L8L
L15L
tp251
g3
s(V17*A
p252
L11L
L15L
tp253
g13
s(V13*
p254
L11L
L15L
tp255
g13
s(V6*
p256
L8L
L15L
tp257
g13
s(V16*AD
p258
L10L
L15L
tp259
g13
s(V19*
p260
L8L
L15L
tp261
g3
s(V12*DS
p262
L7L
L15L
tp263
g13
s(L24L
NNtp264
Ns(V6*DS
p265
L5L
L15L
tp266
g13
s(L12L
L19L
Ntp267
Ns(V20*A
p268
L2L
L15L
tp269
g3
s(L12L
L26L
Ntp270
Ns(V17*
p271
L8L
L15L
tp272
g3
s(V10*
p273
L7L
L15L
tp274
g13
s(V6*DS
p275
L21L
Ntp276
Ns(V21*
p277
L21L
Ntp278
Ns(V17*D
p279
L9L
L15L
tp280
g3
s(L17L
L17L
Ntp281
Ns(V7*
p282
L2L
L15L
tp283
g13
s(V18*AD
p284
L4L
L15L
tp285
g49
s(V18*D
p286
L3L
L15L
tp287
g3
s(g254
L21L
Ntp288
Ns(V16*DS
p289
L6L
L15L
tp290
g3
s(V17*D
p291
L5L
L15L
tp292
g3
s(V20*DS
p293
L9L
L15L
tp294
g3
s(V24*
p295
NNtp296
Ns(L10L
L22L
Ntp297
Ns(V19*A
p298
L8L
L15L
tp299
g3
s(V16*
p300
L9L
L15L
tp301
g3
s(V21*
p302
L5L
L15L
tp303
g3
s(V18*A
p304
L3L
L15L
tp305
g3
s(L6L
L18L
Ntp306
Ns(V20*AD
p307
L21L
Ntp308
Ns(V14*DS
p309
L5L
L15L
tp310
g3
s(V14*A
p311
L6L
L15L
tp312
g13
s(V14*
p313
L7L
L15L
tp314
g13
s(L13L
L25L
Ntp315
Ns(V16*A
p316
L9L
L15L
tp317
g13
s(V11*D
p318
L8L
L15L
tp319
g49
s(V20*AD
p320
L6L
L15L
tp321
g3
s(L4L
L22L
Ntp322
Ns(V21*A
p323
L6L
L15L
tp324
g3
s(L18L
L20L
Ntp325
Ns(V15*A
p326
L10L
L15L
tp327
g13
s(V13*
p328
L5L
L15L
tp329
g3
s(V6*
p330
L6L
L15L
tp331
g13
s(L18L
L26L
Ntp332
Ns(V7*D
p333
L4L
L15L
tp334
g49
s(L11L
L26L
Ntp335
Ns(V12*ADS
p336
L21L
Ntp337
Ns(V15*AD
p338
L11L
L15L
tp339
g13
s(L11L
L25L
Ntp340
Ns(V12*D
p341
L3L
L15L
tp342
g3
s(V13*A
p343
L3L
L15L
tp344
g13
s(V7*
p345
L8L
L15L
tp346
g13
s(V19*AD
p347
L2L
L15L
tp348
g49
s(L10L
L26L
Ntp349
Ns(V10*DS
p350
L11L
L15L
tp351
g49
s(V18*D
p352
L9L
L15L
tp353
g3
s(L10L
L25L
Ntp354
Ns(V16*DS
p355
L8L
L15L
tp356
g3
s(V19*
p357
L7L
L15L
tp358
g3
s(V15*D
p359
L6L
L15L
tp360
g3
s(V16*D
p361
L11L
L15L
tp362
g3
s(V20*DS
p363
L3L
L15L
tp364
g3
s(V20*
p365
L7L
L15L
tp366
g3
s(V17*AD
p367
L6L
L15L
tp368
g49
s(V12*
p369
L21L
Ntp370
Ns(V8*D
p371
L6L
L15L
tp372
g49
s(V21*
p373
L3L
L15L
tp374
g3
s(V14*AD
p375
L2L
L15L
tp376
g49
s(V14*DS
p377
L3L
L15L
tp378
g3
s(L13L
L20L
Ntp379
Ns(V13*AD
p380
L6L
L15L
tp381
g49
s(V13*D
p382
L9L
L15L
tp383
g13
s(V18*
p384
L8L
L15L
tp385
g3
s(V9*D
p386
L3L
L15L
tp387
g49
s(V10*D
p388
L4L
L15L
tp389
g49
s(V20*D
p390
L9L
L15L
tp391
g3
s(V9*
p392
L10L
L15L
tp393
g13
s(V16*A
p394
L3L
L15L
tp395
g13
s(V11*D
p396
L2L
L15L
tp397
g49
s(V26*
p398
NNtp399
Ns(V8*DS
p400
L2L
L15L
tp401
g49
s(V15*
p402
L2L
L15L
tp403
g3
s(g336
L11L
L15L
tp404
g13
s(g44
L21L
Ntp405
Ns(V17*A
p406
L7L
L15L
tp407
g13
s(L14L
L23L
Ntp408
Ns(V19*A
p409
L5L
L15L
tp410
g3
s(V7*D
p411
L10L
L15L
tp412
g13
s(L28L
NNtp413
Ns(L12L
L18L
Ntp414
Ns(V14*
p415
L10L
L15L
tp416
g13
s(L16L
L18L
Ntp417
Ns(V17*
p418
L4L
L15L
tp419
g3
s(V10*
p420
L11L
L15L
tp421
g13
s(V13*A
p422
L9L
L15L
tp423
g13
s(V15*A
p424
L5L
L15L
tp425
g13
s(V18*AD
p426
L8L
L15L
tp427
g3
s(L9L
L19L
Ntp428
Ns(V12*DS
p429
L10L
L15L
tp430
g13
s(V6*DS
p431
L2L
L15L
tp432
g13
s(L14L
L24L
Ntp433
Ns(V21*
p434
L9L
L15L
tp435
g3
s(V14*AD
p436
L8L
L15L
tp437
g13
s(V11*
p438
L7L
L15L
tp439
g13
s(V14*DS
p440
L9L
L15L
tp441
g13
s(L13L
L17L
Ntp442
Ns(V7*
p443
L5L
L15L
tp444
g13
s(V15*D
p445
L7L
L15L
tp446
g3
s(V13*D
p447
L3L
L15L
tp448
g3
s(L13L
L23L
Ntp449
Ns(V10*D
p450
L10L
L15L
tp451
g49
s(V20*D
p452
L7L
L15L
tp453
g3
s(V5*D
p454
L7L
L15L
tp455
g13
s(V6*D
p456
L5L
L15L
tp457
g49
s(V16*DS
p458
L3L
L15L
tp459
g3
s(V16*A
p460
L5L
L15L
tp461
g13
s(L6L
L23L
Ntp462
Ns(V15*D
p463
L11L
L15L
tp464
g3
s(V16*D
p465
L6L
L15L
tp466
g3
s(V15*
p467
L8L
L15L
tp468
g3
s(V8*D
p469
L7L
L15L
tp470
g49
s(L11L
L18L
Ntp471
Ns(V8*
p472
L11L
L15L
tp473
g13
s(V19*A
p474
L3L
L15L
tp475
g3
s(V16*
p476
L6L
L15L
tp477
g3
s(g133
L11L
L15L
tp478
g13
s(g18
L21L
Ntp479
Ns(V18*A
p480
L6L
L15L
tp481
g3
s(V18*
p482
L9L
L15L
tp483
g3
s(V14*A
p484
L3L
L15L
tp485
g13
s(L18L
L23L
Ntp486
Ns(V19*D
p487
L6L
L15L
tp488
g3
s(V11*D
p489
L21L
Ntp490
Ns(V18*
p491
L5L
L15L
tp492
g3
s(V9*
p493
L7L
L15L
tp494
g13
s(V17*A
p495
L6L
L15L
tp496
g13
s(V12*
p497
L3L
L15L
tp498
g3
s(V20*AD
p499
L3L
L15L
tp500
g3
s(L15L
L17L
Ntp501
Ns(V8*DS
p502
L9L
L15L
tp503
g13
s(V14*AD
p504
L21L
Ntp505
Ns(V21*A
p506
L9L
L15L
tp507
g3
s(V17*A
p508
L10L
L15L
tp509
g13
s(L10L
L24L
Ntp510
Ns(V13*
p511
L8L
L15L
tp512
g13
s(V6*
p513
L11L
L15L
tp514
g13
s(g27
L11L
L15L
tp515
g3
s(V14*D
p516
L3L
L15L
tp517
g3
s(V12*DS
p518
L4L
L15L
tp519
g3
s(L21L
L2L
L15L
tp520
g3
s(V8*DS
p521
L21L
Ntp522
Ns(L17L
L20L
Ntp523
Ns(L12L
L23L
Ntp524
Ns(V6*DS
p525
L4L
L15L
tp526
g13
s(V20*A
p527
L3L
L15L
tp528
g3
s(L12L
L25L
Ntp529
Ns(V17*
p530
L9L
L15L
tp531
g3
s(V10*
p532
L6L
L15L
tp533
g13
s(V18*AD
p534
L9L
L15L
tp535
g13
s(V7*
p536
L3L
L15L
tp537
g13
s(V13*AD
p538
L10L
L15L
tp539
g13
s(V18*AD
p540
L5L
L15L
tp541
g49
s(V18*D
p542
L2L
L15L
tp543
g3
s(V19*A
p544
L21L
Ntp545
Ns(V6*D
p546
L3L
L15L
tp547
g13
s(V16*DS
p548
L5L
L15L
tp549
g3
s(V17*D
p550
L2L
L15L
tp551
g3
s(V20*DS
p552
L8L
L15L
tp553
g3
s(V12*ADS
p554
L7L
L15L
tp555
g13
s(L11L
L23L
Ntp556
Ns(V19*A
p557
L9L
L15L
tp558
g3
s(V17*AD
p559
L11L
L15L
tp560
g13
s(V16*
p561
L8L
L15L
tp562
g3
s(V21*
p563
L6L
L15L
tp564
g3
s(L11L
L17L
Ntp565
Ns(V4*DS
p566
L4L
L15L
tp567
g13
s(L4L
L25L
Ntp568
Ns(L4L
L19L
Ntp569
Ns(V14*DS
p570
L4L
L15L
tp571
g3
s(L16L
L20L
Ntp572
Ns(V14*A
p573
L9L
L15L
tp574
g13
s(L18L
L17L
Ntp575
Ns(V14*
p576
L6L
L15L
tp577
g3
s(V16*A
p578
L4L
L15L
tp579
g13
s(L9L
L24L
Ntp580
Ns(V9*D
p581
L6L
L15L
tp582
g49
s(L13L
L26L
Ntp583
Ns(V16*A
p584
L8L
L15L
tp585
g13
s(V11*D
p586
L7L
L15L
tp587
g49
s(V20*AD
p588
L9L
L15L
tp589
g3
s(V21*A
p590
L7L
L15L
tp591
g3
s(L30L
NNtp592
Ns(V15*A
p593
L9L
L15L
tp594
g13
s(V13*
p595
L2L
L15L
tp596
g3
s(V16*AD
p597
L3L
L15L
tp598
g49
s(V7*D
p599
L7L
L15L
tp600
g13
s(V15*AD
p601
L10L
L15L
tp602
g13
s(L16L
L24L
Ntp603
Ns(L12L
L20L
Ntp604
Ns(V12*D
p605
L2L
L15L
tp606
g3
s(V12*
p607
L8L
L15L
tp608
g13
s(V13*A
p609
L2L
L15L
tp610
g13
s(L17L
L23L
Ntp611
Ns(V19*
p612
L10L
L15L
tp613
g3
s(L6L
L21L
Ntp614
Ns(V7*
p615
L9L
L15L
tp616
g13
s(V19*AD
p617
L3L
L15L
tp618
g49
s(V10*DS
p619
L10L
L15L
tp620
g49
s(V18*D
p621
L8L
L15L
tp622
g3
s(L10L
L20L
Ntp623
Ns(V6*D
p624
L9L
L15L
tp625
g13
s(V19*
p626
L6L
L15L
tp627
g3
s(L10L
L19L
Ntp628
Ns(V16*D
p629
L10L
L15L
tp630
g3
s(V20*DS
p631
L2L
L15L
tp632
g3
s(V18*DS
p633
L5L
L15L
tp634
g3
s(V20*
p635
L6L
L15L
tp636
g3
s(V20*DS
p637
L21L
Ntp638
Ns(V8*
p639
L7L
L15L
tp640
g13
s(V17*AD
p641
L5L
L15L
tp642
g49
s(V4*DS
p643
L2L
L15L
tp644
g13
s(V14*AD
p645
L5L
L15L
tp646
g49
s(V11*
p647
L2L
L15L
tp648
g13
s(L14L
L22L
Ntp649
Ns(V18*A
p650
L21L
Ntp651
Ns(V14*DS
p652
L2L
L15L
tp653
g3
s(V13*AD
p654
L7L
L15L
tp655
g13
s(V13*D
p656
L6L
L15L
tp657
g3
s(L15L
L25L
Ntp658
Ns(V10*D
p659
L7L
L15L
tp660
g49
s(V20*D
p661
L10L
L15L
tp662
g3
s(V5*D
p663
L10L
L15L
tp664
g13
s(V9*
p665
L11L
L15L
tp666
g13
s(V16*A
p667
L2L
L15L
tp668
g13
s(V8*DS
p669
L5L
L15L
tp670
g49
s(V15*
p671
L3L
L15L
tp672
g3
s(V12*ADS
p673
L10L
L15L
tp674
g13
s(L18L
L24L
Ntp675
Ns(V19*A
p676
L6L
L15L
tp677
g3
s(V20*D
p678
L21L
Ntp679
Ns(V16*
p680
L3L
L15L
tp681
g3
s(V18*D
p682
L21L
Ntp683
Ns(V19*D
p684
L3L
L15L
tp685
g3
s(V14*
p686
L9L
L15L
tp687
g13
s(L15L
L21L
Ntp688
Ns(V15*A
p689
L8L
L15L
tp690
g13
s(V17*
p691
L5L
L15L
tp692
g3
s(V10*
p693
L10L
L15L
tp694
g13
s(V13*A
p695
L8L
L15L
tp696
g13
s(g463
L21L
Ntp697
Ns(V15*A
p698
L4L
L15L
tp699
g13
s(L21L
NNtp700
Ns(V27*
p701
NNtp702
Ns(V18*DS
p703
L21L
Ntp704
Ns(V12*DS
p705
L11L
L15L
tp706
g13
s(V20*A
p707
L21L
Ntp708
Ns(V18*DS
p709
L3L
L15L
tp710
g3
s(V12*D
p711
L9L
L15L
tp712
g13
s(V20*A
p713
L6L
L15L
tp714
g3
s(V21*
p715
L10L
L15L
tp716
g3
s(L8L
L18L
Ntp717
Ns(V4*DS
p718
L8L
L15L
tp719
g13
s(L8L
L21L
Ntp720
Ns(g504
L11L
L15L
tp721
g13
s(V11*
p722
L8L
L15L
tp723
g13
s(V14*DS
p724
L8L
L15L
tp725
g13
s(V7*
p726
L6L
L15L
tp727
g13
s(V19*AD
p728
L8L
L15L
tp729
g3
s(L6L
L19L
Ntp730
Ns(V9*D
p731
L10L
L15L
tp732
g13
s(V5*D
p733
L4L
L15L
tp734
g13
s(V6*D
p735
L4L
L15L
tp736
g13
s(V16*DS
p737
L2L
L15L
tp738
g3
s(L6L
L25L
Ntp739
Ns(V16*D
p740
L5L
L15L
tp741
g3
s(V15*
p742
L9L
L15L
tp743
g3
s(g252
L21L
Ntp744
Ns(V8*
p745
L10L
L15L
tp746
g13
s(V16*
p747
L5L
L15L
tp748
g3
s(V18*A
p749
L7L
L15L
tp750
g3
s(V14*A
p751
L2L
L15L
tp752
g13
s(V19*D
p753
L9L
L15L
tp754
g3
s(V14*
p755
L3L
L15L
tp756
g3
s(V28*
p757
NNtp758
Ns(L20L
L25L
Ntp759
Ns(V18*
p760
L2L
L15L
tp761
g3
s(V9*
p762
L4L
L15L
tp763
g13
s(L9L
L17L
Ntp764
Ns(V12*
p765
L4L
L15L
tp766
g3
s(V20*AD
p767
L2L
L15L
tp768
g3
s(L9L
L22L
Ntp769
Ns(V8*DS
p770
L8L
L15L
tp771
g13
s(V21*A
p772
L10L
L15L
tp773
g3
s(V13*
p774
L9L
L15L
tp775
g13
s(V6*
p776
L10L
L15L
tp777
g13
s(g559
L21L
Ntp778
Ns(g361
L21L
Ntp779
Ns(V14*D
p780
L2L
L15L
tp781
g3
s(V12*DS
p782
L5L
L15L
tp783
g3
s(L21L
L3L
L15L
tp784
g3
s(V21*A
p785
L21L
Ntp786
Ns(V18*DS
p787
L9L
L15L
tp788
g3
s(g275
L11L
L15L
tp789
g13
s(L25L
NNtp790
Ns(L8L
L24L
Ntp791
Ns(L14L
L20L
Ntp792
Ns(V17*
p793
L10L
L15L
tp794
g3
s(V10*
p795
L5L
L15L
tp796
g13
s(L26L
NNtp797
Ns(V13*AD
p798
L11L
L15L
tp799
g13
s(V10*DS
p800
L7L
L15L
tp801
g49
s(V18*AD
p802
L2L
L15L
tp803
g49
s(V18*D
p804
L5L
L15L
tp805
g3
s(L21L
L19L
Ntp806
Ns(L21L
L26L
Ntp807
Ns(V6*D
p808
L2L
L15L
tp809
g13
s(V16*DS
p810
L4L
L15L
tp811
g3
s(V17*D
p812
L3L
L15L
tp813
g3
s(g705
L21L
Ntp814
Ns(V15*D
p815
L2L
L15L
tp816
g3
s(V20*DS
p817
L7L
L15L
tp818
g3
s(g277
L11L
L15L
tp819
g3
s(L11L
L19L
Ntp820
Ns(V12*ADS
p821
L6L
L15L
tp822
g13
s(L11L
L20L
Ntp823
Ns(V20*
p824
L3L
L15L
tp825
g3
s(V19*A
p826
L10L
L15L
tp827
g3
s(V17*AD
p828
L10L
L15L
tp829
g13
s(L14L
L18L
Ntp830
Ns(V21*
p831
L7L
L15L
tp832
g3
s(V8*D
p833
L2L
L15L
tp834
g49
s(V4*DS
p835
L5L
L15L
tp836
g13
s(L4L
L23L
Ntp837
Ns(V14*DS
p838
L7L
L15L
tp839
g13
s(L18L
L21L
Ntp840
Ns(V14*A
p841
L8L
L15L
tp842
g13
s(g211
L21L
Ntp843
Ns(V14*
p844
L5L
L15L
tp845
g3
s(V9*D
p846
L7L
L15L
tp847
g49
s(L15L
L19L
Ntp848
Ns(V20*AD
p849
L8L
L15L
tp850
g3
s(V11*D
p851
L6L
L15L
tp852
g49
s(V17*A
p853
L3L
L15L
tp854
g13
s(V13*
p855
L3L
L15L
tp856
g3
s(V16*AD
p857
L2L
L15L
tp858
g13
s(V7*D
p859
L6L
L15L
tp860
g49
s(L6L
L20L
Ntp861
Ns(V15*AD
p862
L5L
L15L
tp863
g49
s(L8L
L26L
Ntp864
Ns(L12L
L24L
Ntp865
Ns(V12*D
p866
L5L
L15L
tp867
g3
s(V20*A
p868
L10L
L15L
tp869
g3
s(V12*
p870
L9L
L15L
tp871
g13
s(V13*A
p872
L5L
L15L
tp873
g13
s(V7*
p874
L10L
L15L
tp875
g13
s(L27L
NNtp876
Ns(V19*AD
p877
L4L
L15L
tp878
g49
s(V10*DS
p879
L9L
L15L
tp880
g49
s(g682
L11L
L15L
tp881
g3
s(L10L
L23L
Ntp882
Ns(V6*D
p883
L8L
L15L
tp884
g13
s(V14*D
p885
L9L
L15L
tp886
g13
s(L21L
L8L
L15L
tp887
g3
s(V16*D
p888
L9L
L15L
tp889
g3
s(V18*DS
p890
L4L
L15L
tp891
g3
s(V20*
p892
L9L
L15L
tp893
g3
s(V8*
p894
L6L
L15L
tp895
g13
s(V17*AD
p896
L4L
L15L
tp897
g49
s(V4*DS
p898
L3L
L15L
tp899
g13
s(V14*AD
p900
L4L
L15L
tp901
g49
s(V11*
p902
L3L
L15L
tp903
g13
s(L9L
L25L
Ntp904
Ns(V13*AD
p905
L4L
L15L
tp906
g49
s(V13*D
p907
L7L
L15L
tp908
g13
s(L9L
L23L
Ntp909
Ns(V10*D
p910
L6L
L15L
tp911
g49
s(g678
L11L
L15L
tp912
g3
s(V5*D
p913
L11L
L15L
tp914
g13
s(V9*
p915
L8L
L15L
tp916
g13
s(L9L
L20L
Ntp917
Ns(g544
L11L
L15L
tp918
g3
s(V8*DS
p919
L4L
L15L
tp920
g49
s(V15*
p921
L4L
L15L
tp922
g3
s(V12*ADS
p923
L9L
L15L
tp924
g13
s(L16L
L19L
Ntp925
Ns(g338
L21L
Ntp926
Ns(V19*A
p927
L7L
L15L
tp928
g3
s(V23*
p929
NNtp930
Ns(V16*
p931
L2L
L15L
tp932
g3
s(L11L
L24L
Ntp933
Ns(V14*
p934
L4L
L15L
tp935
g3
s(V18*A
p936
L10L
L15L
tp937
g13
s(V15*AD
p938
L3L
L15L
tp939
g49
s(V19*D
p940
L2L
L15L
tp941
g3
s(V14*
p942
L8L
L15L
tp943
g13
s(L29L
NNtp944
Ns(V17*
p945
L6L
L15L
tp946
g3
s(V10*
p947
L9L
L15L
tp948
g13
s(g103
L11L
L15L
tp949
g13
s(L21L
L24L
Ntp950
Ns(V15*A
p951
L3L
L15L
tp952
g13
s(L14L
L25L
Ntp953
Ns(L10L
L18L
Ntp954
Ns(V16*AD
p955
L9L
L15L
tp956
g13
s(L10L
L17L
Ntp957
Ns(V12*DS
p958
L8L
L15L
tp959
g13
s(V18*DS
p960
L2L
L15L
tp961
g3
s(V12*D
p962
L8L
L15L
tp963
g13
s(V20*A
p964
L7L
L15L
tp965
g3
s(L8L
L17L
Ntp966
Ns(V7*
p967
L11L
L15L
tp968
g13
s(V4*DS
p969
L9L
L15L
tp970
g13
s(L18L
L19L
Ntp971
Ns(V14*AD
p972
L10L
L15L
tp973
g13
s(V11*
p974
L9L
L15L
tp975
g13
s(V14*DS
p976
L11L
L15L
tp977
g3
s(L21L
L23L
Ntp978
Ns(V7*
p979
L7L
L15L
tp980
g13
s(V19*AD
p981
L9L
L15L
tp982
g3
s(V16*D
p983
L8L
L15L
tp984
g3
s(V9*D
p985
L11L
L15L
tp986
g13
s(V5*D
p987
L5L
L15L
tp988
g13
s(V6*D
p989
L7L
L15L
tp990
g13
s(V17*D
p991
L6L
L15L
tp992
g3
s(V16*D
p993
L4L
L15L
tp994
g3
s(V15*
p995
L10L
L15L
tp996
g3
s(V12*ADS
p997
L3L
L15L
tp998
g13
s(V8*
p999
L9L
L15L
tp1000
g13
s(V16*
p1001
L4L
L15L
tp1002
g3
s(V18*A
p1003
L4L
L15L
tp1004
g3
s(V9*
p1005
L9L
L15L
tp1006
g13
s(V14*A
p1007
L5L
L15L
tp1008
g13
s(V19*D
p1009
L8L
L15L
tp1010
g3
s(V14*
p1011
L2L
L15L
tp1012
g3
s(L16L
L26L
Ntp1013
Ns(V18*
p1014
L3L
L15L
tp1015
g3
s(V9*
p1016
L5L
L15L
tp1017
g13
s(L9L
L18L
Ntp1018
Ns(V15*
p1019
L21L
Ntp1020
Ns(V12*
p1021
L5L
L15L
tp1022
g3
s(g489
L11L
L15L
tp1023
g49
s(V20*AD
p1024
L5L
L15L
tp1025
g3
s(g521
L11L
L15L
tp1026
g13
s(g785
L11L
L15L
tp1027
g3
s(g798
L21L
Ntp1028
Ns(V13*
p1029
L6L
L15L
tp1030
g3
s(V15*AD
p1031
L2L
L15L
tp1032
g13
s(V6*
p1033
L5L
L15L
tp1034
g13
s(V7*D
p1035
L3L
L15L
tp1036
g13
s(V14*D
p1037
L5L
L15L
tp1038
g3
s(V12*DS
p1039
L2L
L15L
tp1040
g3
s(L21L
L4L
L15L
tp1041
g3
s(V17*
p1042
L7L
L15L
tp1043
g3
s(V10*
p1044
L8L
L15L
tp1045
g13
s(V18*DS
p1046
L8L
L15L
tp1047
g3
s(V6*DS
p1048
L10L
L15L
tp1049
g13
s(L23L
NNtp1050
Ns(L8L
L20L
Ntp1051
Ns(L8L
L23L
Ntp1052
Ns(V17*
p1053
L11L
L15L
tp1054
g3
s(V10*
p1055
L4L
L15L
tp1056
g13
s(V19*D
p1057
L21L
Ntp1058
Ns(V13*AD
p1059
L8L
L15L
tp1060
g13
s(V10*DS
p1061
L6L
L15L
tp1062
g49
s(V18*AD
p1063
L3L
L15L
tp1064
g49
s(V18*D
p1065
L4L
L15L
tp1066
g3
s(L21L
L20L
Ntp1067
Ns(V14*D
p1068
L21L
Ntp1069
Ns(V16*DS
p1070
L11L
L15L
tp1071
g3
s(L16L
L21L
Ntp1072
Ns(V15*D
p1073
L3L
L15L
tp1074
g3
s(V20*DS
p1075
L6L
L15L
tp1076
g3
s(V12*ADS
p1077
L5L
L15L
tp1078
g13
s(L19L
L17L
Ntp1079
Ns(V20*
p1080
L2L
L15L
tp1081
g3
s(V8*
p1082
L3L
L15L
tp1083
g13
s(V14*DS
p1084
L10L
L15L
tp1085
g13
s(V17*AD
p1086
L9L
L15L
tp1087
g13
s(V8*D
p1088
L3L
L15L
tp1089
g49
s(V4*DS
p1090
L6L
L15L
tp1091
g13
s(V14*DS
p1092
L6L
L15L
tp1093
g3
s(g149
L11L
L15L
tp1094
g13
s(L20L
L24L
Ntp1095
Ns(V13*D
p1096
L10L
L15L
tp1097
g13
s(L20L
L18L
Ntp1098
Ns(V10*D
p1099
L3L
L15L
tp1100
g49
s(V9*D
p1101
L4L
L15L
tp1102
g49
s(L15L
L23L
Ntp1103
Ns(V11*D
p1104
L5L
L15L
tp1105
g49
s(g307
L11L
L15L
tp1106
g3
s(V17*A
p1107
L2L
L15L
tp1108
g13
s(V6*
p1109
L3L
L15L
tp1110
g13
s(V16*AD
p1111
L5L
L15L
tp1112
g49
s(V7*D
p1113
L9L
L15L
tp1114
g13
s(L17L
L22L
Ntp1115
Ns(V15*AD
p1116
L4L
L15L
tp1117
g49
s(L8L
L25L
Ntp1118
Ns(L20L
L20L
Ntp1119
Ns(V12*D
p1120
L4L
L15L
tp1121
g3
s(g707
L11L
L15L
tp1122
g3
s(L14L
L26L
Ntp1123
Ns(V12*
p1124
L10L
L15L
tp1125
g13
s(V13*A
p1126
L4L
L15L
tp1127
g13
s(V19*AD
p1128
L5L
L15L
tp1129
g49
s(V10*DS
p1130
L8L
L15L
tp1131
g49
s(V18*D
p1132
L10L
L15L
tp1133
g3
s(L21L
L17L
Ntp1134
Ns(V6*D
p1135
L11L
L15L
tp1136
g13
s(V17*D
p1137
L10L
L15L
tp1138
g3
s(V14*D
p1139
L8L
L15L
tp1140
g13
s(L21L
L9L
L15L
tp1141
g3
s(g183
L21L
Ntp1142
Ns(L15L
L24L
Ntp1143
Ns(V18*DS
p1144
L7L
L15L
tp1145
g3
s(V20*
p1146
L8L
L15L
tp1147
g3
s(L19L
L24L
Ntp1148
Ns(V8*
p1149
L5L
L15L
tp1150
g13
s(V17*AD
p1151
L3L
L15L
tp1152
g49
s(L4L
L17L
Ntp1153
Ns(L19L
L18L
Ntp1154
Ns(V13*AD
p1155
L9L
L15L
tp1156
g13
s(V14*AD
p1157
L7L
L15L
tp1158
g13
s(V11*
p1159
L4L
L15L
tp1160
g13
s(L9L
L26L
Ntp1161
Ns(L18L
L25L
Ntp1162
Ns(V13*AD
p1163
L5L
L15L
tp1164
g49
s(V13*D
p1165
L4L
L15L
tp1166
g3
s(V10*D
p1167
L9L
L15L
tp1168
g49
s(V20*D
p1169
L4L
L15L
tp1170
g3
s(V5*D
p1171
L8L
L15L
tp1172
g13
s(V12*ADS
p1173
L4L
L15L
tp1174
g13
s(V15*D
p1175
L8L
L15L
tp1176
g3
s(V8*DS
p1177
L7L
L15L
tp1178
g49
s(V15*
p1179
L5L
L15L
tp1180
g3
s(V12*ADS
p1181
L8L
L15L
tp1182
g13
s(L16L
L25L
Ntp1183
Ns(V8*D
p1184
L8L
L15L
tp1185
g13
s(g650
L11L
L15L
tp1186
g3
s(g141
L21L
Ntp1187
Ns(V19*D
p1188
L5L
L15L
tp1189
g3
s(L8L
L22L
Ntp1190
Ns(V18*
p1191
L6L
L15L
tp1192
g3
s(L20L
L23L
Ntp1193
Ns(V6*
p1194
L2L
L15L
tp1195
g13
s(g976
L21L
Ntp1196
Ns(V13*A
p1197
L10L
L15L
tp1198
g13
s(V25*
p1199
NNtp1200
Ns(V17*A
p1201
L9L
L15L
tp1202
g13
s(V15*A
p1203
L2L
L15L
tp1204
g13
s(L10L
L21L
Ntp1205
Ns(V16*AD
p1206
L8L
L15L
tp1207
g13
s(L18L
L18L
Ntp1208
Ns(g985
L21L
Ntp1209
Ns(g86
L21L
Ntp1210
Ns(V12*DS
p1211
L9L
L15L
tp1212
g13
s(L17L
L26L
Ntp1213
Ns(V6*DS
p1214
L7L
L15L
tp1215
g13
s(L19L
L23L
Ntp1216
Ns(g9
L11L
L15L
tp1217
g13
s(V20*A
p1218
L4L
L15L
tp1219
g3
s(V4*DS
p1220
L10L
L15L
tp1221
g13
s(L20L
L26L
Ntp1222
Ns(V11*
p1223
L10L
L15L
tp1224
g13
s(V6*D
p1225
L10L
L15L
tp1226
g13
s(L9L
L21L
Ntp1227
Ns(V19*AD
p1228
L10L
L15L
tp1229
g3
s(V10*DS
p1230
L3L
L15L
tp1231
g49
s(V18*AD
p1232
L6L
L15L
tp1233
g49
s(V9*D
p1234
L8L
L15L
tp1235
g49
s(V20*D
p1236
L2L
L15L
tp1237
g3
s(V5*D
p1238
L2L
L15L
tp1239
g13
s(V6*D
p1240
L6L
L15L
tp1241
g13
s(V17*D
p1242
L7L
L15L
tp1243
g3
s(V8*
p1244
L4L
L15L
tp1245
g13
s(V16*D
p1246
L3L
L15L
tp1247
g3
s(g637
L11L
L15L
tp1248
g3
s(g1019
L11L
L15L
tp1249
g3
s(V12*ADS
p1250
L2L
L15L
tp1251
g13
s(g350
L21L
Ntp1252
Ns(V8*
p1253
L8L
L15L
tp1254
g13
s(V16*
p1255
L11L
L15L
tp1256
g3
s(L15L
L20L
Ntp1257
Ns(V18*A
p1258
L5L
L15L
tp1259
g3
s(g1053
L21L
Ntp1260
Ns(V14*A
p1261
L4L
L15L
tp1262
g13
s(g1057
L11L
L15L
tp1263
g3
s(V8*DS
p1264
L6L
L15L
tp1265
g49
s(V9*
p1266
L2L
L15L
tp1267
g13
s(V16*A
p1268
L11L
L15L
tp1269
g13
s(V12*
p1270
L6L
L15L
tp1271
g3
s(V11*D
p1272
L10L
L15L
tp1273
g49
s(V20*AD
p1274
L4L
L15L
tp1275
g3
s(V8*DS
p1276
L10L
L15L
tp1277
g13
s(L21L
L25L
Ntp1278
Ns(V21*A
p1279
L4L
L15L
tp1280
g3
s(V20*
p1281
L21L
Ntp1282
Ns(V13*
p1283
L7L
L15L
tp1284
g13
s(g1070
L21L
Ntp1285
Ns(V6*
p1286
L4L
L15L
tp1287
g13
s(L14L
L21L
Ntp1288
Ns(V7*D
p1289
L2L
L15L
tp1290
g13
s(V14*D
p1291
L4L
L15L
tp1292
g3
s(V15*AD
p1293
L9L
L15L
tp1294
g13
s(V12*DS
p1295
L3L
L15L
tp1296
g3
s(L21L
L5L
L15L
tp1297
g3
s(L19L
L26L
Ntp1298
Ns(g703
L11L
L15L
tp1299
g3
s(V6*DS
p1300
L9L
L15L
tp1301
g13
s(L8L
L19L
Ntp1302
Ns(g1268
L21L
Ntp1303
Ns(V10*
p1304
L3L
L15L
tp1305
g13
s(V10*DS
p1306
L5L
L15L
tp1307
g49
s(V18*D
p1308
L7L
L15L
tp1309
g3
s(V16*DS
p1310
L10L
L15L
tp1311
g3
s(g1255
L21L
Ntp1312
Ns(L16L
L17L
Ntp1313
Ns(V19*
p1314
L5L
L15L
tp1315
g3
s(V15*D
p1316
L4L
L15L
tp1317
g3
s(V20*DS
p1318
L5L
L15L
tp1319
g3
s(g135
L11L
L15L
tp1320
g13
s(V20*
p1321
L5L
L15L
tp1322
g3
s(V8*
p1323
L2L
L15L
tp1324
g13
s(V17*AD
p1325
L8L
L15L
tp1326
g13
s(L15L
L18L
Ntp1327
Ns(V8*D
p1328
L4L
L15L
tp1329
g49
s(V4*DS
p1330
L7L
L15L
tp1331
g13
s(V9*D
p1332
L9L
L15L
tp1333
g13
s(V20*D
p1334
L3L
L15L
tp1335
g3
s(V14*A
p1336
L10L
L15L
tp1337
g13
s(L20L
L22L
Ntp1338
Ns(V13*D
p1339
L11L
L15L
tp1340
g13
s(L20L
L17L
Ntp1341
Ns(V10*D
p1342
L2L
L15L
tp1343
g49
s(V9*D
p1344
L5L
L15L
tp1345
g49
s(L22L
NNtp1346
Ns(V18*
p1347
L10L
L15L
tp1348
g3
s(V20*AD
p1349
L10L
L15L
tp1350
g3
s(V11*D
p1351
L4L
L15L
tp1352
g49
s(V21*A
p1353
L2L
L15L
tp1354
g3
s(V17*A
p1355
L5L
L15L
tp1356
g13
s(g1135
L21L
Ntp1357
Ns(V16*AD
p1358
L4L
L15L
tp1359
g49
s(V7*D
p1360
L8L
L15L
tp1361
g13
s(L17L
L18L
Ntp1362
Ns(V15*AD
p1363
L7L
L15L
tp1364
g13
s(L17L
L24L
Ntp1365
Ns(V12*
p1366
L7L
L15L
tp1367
g13
s(L19L
L25L
Ntp1368
Ns(V12*D
p1369
L7L
L15L
tp1370
g13
s(V20*A
p1371
L8L
L15L
tp1372
g3
s(g369
L11L
L15L
tp1373
g13
s(V17*
p1374
L2L
L15L
tp1375
g3
s(V13*A
p1376
L7L
L15L
tp1377
g13
s(V15*A
p1378
L7L
L15L
tp1379
g13
s(L21L
L21L
Ntp1380
Ns(V19*AD
p1381
L6L
L15L
tp1382
g49
s(V18*AD
p1383
L10L
L15L
tp1384
g13
s(L21L
L18L
Ntp1385
Ns(L14L
L19L
Ntp1386
Ns(V18*DS
p1387
L10L
L15L
tp1388
g3
s(L16L
L23L
Ntp1389
Ns(g246
L11L
L15L
tp1390
g3
s(V19*
p1391
L3L
L15L
tp1392
g3
s(g1068
L11L
L15L
tp1393
g3
s(L21L
L10L
L15L
tp1394
g3
s(V18*DS
p1395
L6L
L15L
tp1396
g3
s(g1281
L11L
L15L
tp1397
g3
s(L4L
L21L
Ntp1398
Ns(L12L
L22L
Ntp1399
Ns(V17*AD
p1400
L2L
L15L
tp1401
g49
s(L12L
L17L
Ntp1402
Ns(V14*AD
p1403
L6L
L15L
tp1404
g49
s(V11*
p1405
L5L
L15L
tp1406
g13
s(V13*AD
p1407
L2L
L15L
tp1408
g49
s(V13*D
p1409
L5L
L15L
tp1410
g3
s(V10*D
p1411
L8L
L15L
tp1412
g49
s(V20*D
p1413
L5L
L15L
tp1414
g3
s(V5*D
p1415
L9L
L15L
tp1416
g13
s(V16*A
p1417
L7L
L15L
tp1418
g13
s(V15*D
p1419
L9L
L15L
tp1420
g3
s(V15*
p1421
L6L
L15L
tp1422
g3
s(V22*
p1423
NNtp1424
Ns(V8*D
p1425
L9L
L15L
tp1426
g13
s(L6L
L22L
Ntp1427
Ns(V18*A
p1428
L8L
L15L
tp1429
g3
s(g1339
L21L
Ntp1430
Ns(V19*D
p1431
L4L
L15L
tp1432
g3
s.