(dp0
(L13L
L21L
Ntp1
Ns(V19*
p2
L9L
L-11L
tp3
VStay
p4
s(L13L
L18L
Ntp5
Ns(L13L
L24L
Ntp6
Ns(V13*
p7
L10L
L-11L
tp8
VDraw
p9
s(V6*
p10
L9L
L-11L
tp11
g9
s(V12*D
p12
L21L
Ntp13
Ns(V6*DS
p14
L10L
L-11L
tp15
g9
s(V14*DS
p16
L6L
L-11L
tp17
g9
s(V17*
p18
L7L
L-11L
tp19
g4
s(V10*
p20
L8L
L-11L
tp21
g9
s(V8*D
p22
L3L
L-11L
tp23
g9
s(L6L
L26L
Ntp24
Ns(V19*
p25
L21L
Ntp26
Ns(L15L
L26L
Ntp27
Ns(V20*
p28
L2L
L-11L
tp29
g4
s(V15*AD
p30
L2L
L-11L
tp31
g9
s(V20*
p32
L11L
L-11L
tp33
g4
s(L19L
L19L
Ntp34
Ns(V15*D
p35
L3L
L-11L
tp36
g9
s(L19L
L20L
Ntp37
Ns(V18*A
p38
L8L
L-11L
tp39
g4
s(V21*A
p40
L11L
L-11L
tp41
g4
s(V14*D
p42
L11L
L-11L
tp43
g9
s(L21L
L10L
L-11L
tp44
g4
s(V10*DS
p45
L6L
L-11L
tp46
VDouble
p47
s(V18*AD
p48
L3L
L-11L
tp49
g4
s(V18*D
p50
L4L
L-11L
tp51
g4
s(V15*
p52
L6L
L-11L
tp53
g9
s(L17L
L21L
Ntp54
Ns(V15*A
p55
L7L
L-11L
tp56
g9
s(V14*
p57
L21L
Ntp58
Ns(V19*D
p59
L8L
L-11L
tp60
g4
s(V16*A
p61
L7L
L-11L
tp62
g9
s(V17*
p63
L11L
L-11L
tp64
g9
s(V14*
p65
L2L
L-11L
tp66
g9
s(V10*
p67
L4L
L-11L
tp68
g9
s(V9*
p69
L9L
L-11L
tp70
g9
s(V17*
p71
L2L
L-11L
tp72
g4
s(V13*AD
p73
L2L
L-11L
tp74
g9
s(V18*DS
p75
L8L
L-11L
tp76
g4
s(V16*
p77
L4L
L-11L
tp78
g4
s(V15*AD
p79
L7L
L-11L
tp80
g9
s(V16*D
p81
L8L
L-11L
tp82
g9
s(V19*AD
p83
L9L
L-11L
tp84
g4
s(V19*
p85
L3L
L-11L
tp86
g4
s(V12*
p87
L5L
L-11L
tp88
g9
s(L4L
L24L
Ntp89
Ns(V11*
p90
L9L
L-11L
tp91
g9
s(V18*AD
p92
L10L
L-11L
tp93
g9
s(V9*
p94
L5L
L-11L
tp95
g9
s(V19*AD
p96
L6L
L-11L
tp97
g4
s(V18*
p98
L3L
L-11L
tp99
g4
s(L4L
L18L
Ntp100
Ns(V7*
p101
L11L
L-11L
tp102
g9
s(V12*D
p103
L8L
L-11L
tp104
g9
s(V20*A
p105
L7L
L-11L
tp106
g4
s(V13*A
p107
L7L
L-11L
tp108
g9
s(L14L
L17L
Ntp109
Ns(V18*DS
p110
L2L
L-11L
tp111
g4
s(L18L
L22L
Ntp112
Ns(V12*D
p113
L7L
L-11L
tp114
g9
s(V20*A
p115
L8L
L-11L
tp116
g4
s(V16*D
p117
L4L
L-11L
tp118
g4
s(V13*A
p119
L21L
Ntp120
Ns(V20*DS
p121
L5L
L-11L
tp122
g4
s(V5*D
p123
L5L
L-11L
tp124
g9
s(L4L
L20L
Ntp125
Ns(V9*D
p126
L11L
L-11L
tp127
g9
s(V19*
p128
L5L
L-11L
tp129
g4
s(V17*A
p130
L5L
L-11L
tp131
g9
s(V7*
p132
L7L
L-11L
tp133
g9
s(V21*A
p134
L2L
L-11L
tp135
g4
s(V7*D
p136
L21L
Ntp137
Ns(V14*AD
p138
L10L
L-11L
tp139
g9
s(V4*DS
p140
L9L
L-11L
tp141
g9
s(V18*
p142
L10L
L-11L
tp143
g4
s(V14*
p144
L4L
L-11L
tp145
g9
s(V6*DS
p146
L9L
L-11L
tp147
g9
s(V16*
p148
L2L
L-11L
tp149
g9
s(L15L
L22L
Ntp150
Ns(V8*D
p151
L4L
L-11L
tp152
g9
s(V19*A
p153
L11L
L-11L
tp154
g4
s(V8*D
p155
L21L
Ntp156
Ns(V20*
p157
L5L
L-11L
tp158
g4
s(V4*DS
p159
L21L
Ntp160
Ns(V10*D
p161
L6L
L-11L
tp162
g47
s(V20*D
p163
L11L
L-11L
tp164
g4
s(V13*D
p165
L7L
L-11L
tp166
g9
s(V15*D
p167
L4L
L-11L
tp168
g9
s(L13L
L19L
Ntp169
Ns(L20L
L21L
Ntp170
Ns(V14*A
p171
L21L
Ntp172
Ns(V21*A
p173
L4L
L-11L
tp174
g4
s(L6L
L17L
Ntp175
Ns(L17L
L25L
Ntp176
Ns(V10*DS
p177
L5L
L-11L
tp178
g47
s(V18*D
p179
L7L
L-11L
tp180
g4
s(V16*A
p181
L11L
L-11L
tp182
g9
s(V4*DS
p183
L3L
L-11L
tp184
g9
s(V19*D
p185
L2L
L-11L
tp186
g4
s(V14*
p187
L8L
L-11L
tp188
g9
s(V19*D
p189
L11L
L-11L
tp190
g4
s(V18*DS
p191
L4L
L-11L
tp192
g4
s(V10*
p193
L3L
L-11L
tp194
g9
s(V19*A
p195
L7L
L-11L
tp196
g4
s(V18*DS
p197
L11L
L-11L
tp198
g4
s(V16*
p199
L11L
L-11L
tp200
g9
s(L19L
L21L
Ntp201
Ns(V15*AD
p202
L9L
L-11L
tp203
g9
s(L19L
L22L
Ntp204
Ns(V8*DS
p205
L4L
L-11L
tp206
g9
s(L16L
L22L
Ntp207
Ns(V5*D
p208
L11L
L-11L
tp209
g9
s(V12*
p210
L9L
L-11L
tp211
g9
s(V10*DS
p212
L3L
L-11L
tp213
g9
s(V18*AD
p214
L6L
L-11L
tp215
g4
s(V19*AD
p216
L10L
L-11L
tp217
g4
s(L21L
L22L
Ntp218
Ns(V11*
p219
L3L
L-11L
tp220
g9
s(V12*
p221
L6L
L-11L
tp222
g9
s(V14*AD
p223
L4L
L-11L
tp224
g9
s(V11*
p225
L10L
L-11L
tp226
g9
s(V9*
p227
L2L
L-11L
tp228
g9
s(V17*AD
p229
L4L
L-11L
tp230
g9
s(V8*
p231
L6L
L-11L
tp232
g9
s(V7*D
p233
L6L
L-11L
tp234
g9
s(g12
L11L
L-11L
tp235
g9
s(V20*A
p236
L4L
L-11L
tp237
g4
s(L12L
L21L
Ntp238
Ns(V6*D
p239
L8L
L-11L
tp240
g9
s(V11*D
p241
L6L
L-11L
tp242
g47
s(V20*AD
p243
L8L
L-11L
tp244
g4
s(V9*D
p245
L7L
L-11L
tp246
g9
s(V16*D
p247
L3L
L-11L
tp248
g9
s(V20*DS
p249
L11L
L-11L
tp250
g4
s(L20L
L19L
Ntp251
Ns(L4L
L26L
Ntp252
Ns(V17*A
p253
L9L
L-11L
tp254
g9
s(V14*A
p255
L8L
L-11L
tp256
g9
s(V5*D
p257
L2L
L-11L
tp258
g9
s(L17L
L19L
Ntp259
Ns(V9*D
p260
L8L
L-11L
tp261
g9
s(V20*D
p262
L2L
L-11L
tp263
g4
s(V4*DS
p264
L5L
L-11L
tp265
g9
s(V18*
p266
L6L
L-11L
tp267
g4
s(L11L
L21L
Ntp268
Ns(L11L
L22L
Ntp269
Ns(V4*DS
p270
L10L
L-11L
tp271
g9
s(V21*
p272
L11L
L-11L
tp273
g4
s(L6L
L24L
Ntp274
Ns(V6*DS
p275
L7L
L-11L
tp276
g9
s(V16*AD
p277
L2L
L-11L
tp278
g9
s(V13*
p279
L3L
L-11L
tp280
g9
s(V8*D
p281
L8L
L-11L
tp282
g9
s(V6*D
p283
L2L
L-11L
tp284
g9
s(V16*DS
p285
L4L
L-11L
tp286
g4
s(L13L
L22L
Ntp287
Ns(V15*D
p288
L8L
L-11L
tp289
g9
s(V17*D
p290
L21L
Ntp291
Ns(V10*D
p292
L9L
L-11L
tp293
g9
s(V20*D
p294
L4L
L-11L
tp295
g4
s(V13*D
p296
L4L
L-11L
tp297
g9
s(V21*
p298
L7L
L-11L
tp299
g4
s(V17*AD
p300
L10L
L-11L
tp301
g9
s(L24L
NNtp302
Ns(V19*D
p303
L5L
L-11L
tp304
g4
s(V12*ADS
p305
L6L
L-11L
tp306
g9
s(V13*
p307
L9L
L-11L
tp308
g9
s(V18*DS
p309
L7L
L-11L
tp310
g4
s(V6*
p311
L10L
L-11L
tp312
g9
s(L12L
L19L
Ntp313
Ns(V17*D
p314
L3L
L-11L
tp315
g4
s(L12L
L26L
Ntp316
Ns(V6*DS
p317
L21L
Ntp318
Ns(V8*DS
p319
L8L
L-11L
tp320
g9
s(V13*AD
p321
L11L
L-11L
tp322
g9
s(g272
L21L
Ntp323
Ns(L17L
L17L
Ntp324
Ns(V8*DS
p325
L7L
L-11L
tp326
g9
s(V13*
p327
L21L
Ntp328
Ns(V5*D
p329
L8L
L-11L
tp330
g9
s(V12*
p331
L10L
L-11L
tp332
g9
s(V18*A
p333
L7L
L-11L
tp334
g4
s(V24*
p335
NNtp336
Ns(V8*
p337
L10L
L-11L
tp338
g9
s(V11*
p339
L4L
L-11L
tp340
g9
s(V14*D
p341
L2L
L-11L
tp342
g9
s(V14*AD
p343
L7L
L-11L
tp344
g9
s(V12*DS
p345
L5L
L-11L
tp346
g9
s(L21L
L3L
L-11L
tp347
g4
s(L10L
L22L
Ntp348
Ns(V15*
p349
L9L
L-11L
tp350
g9
s(V17*AD
p351
L3L
L-11L
tp352
g9
s(L6L
L18L
Ntp353
Ns(V8*
p354
L5L
L-11L
tp355
g9
s(V7*D
p356
L9L
L-11L
tp357
g9
s(V20*AD
p358
L21L
Ntp359
Ns(V6*D
p360
L4L
L-11L
tp361
g9
s(V16*DS
p362
L2L
L-11L
tp363
g9
s(V17*D
p364
L10L
L-11L
tp365
g4
s(V20*AD
p366
L2L
L-11L
tp367
g4
s(V6*D
p368
L11L
L-11L
tp369
g9
s(L13L
L25L
Ntp370
Ns(V11*D
p371
L5L
L-11L
tp372
g47
s(g358
L11L
L-11L
tp373
g4
s(L4L
L22L
Ntp374
Ns(V10*D
p375
L3L
L-11L
tp376
g9
s(V9*D
p377
L4L
L-11L
tp378
g9
s(L18L
L20L
Ntp379
Ns(V14*A
p380
L2L
L-11L
tp381
g9
s(L18L
L26L
Ntp382
Ns(g171
L11L
L-11L
tp383
g9
s(L11L
L26L
Ntp384
Ns(V4*DS
p385
L6L
L-11L
tp386
g9
s(V12*ADS
p387
L21L
Ntp388
Ns(V8*
p389
L3L
L-11L
tp390
g9
s(L11L
L25L
Ntp391
Ns(V13*A
p392
L8L
L-11L
tp393
g9
s(V16*AD
p394
L5L
L-11L
tp395
g9
s(V6*
p396
L3L
L-11L
tp397
g9
s(V16*DS
p398
L11L
L-11L
tp399
g9
s(V15*A
p400
L8L
L-11L
tp401
g9
s(V14*DS
p402
L8L
L-11L
tp403
g9
s(L10L
L26L
Ntp404
Ns(L10L
L25L
Ntp405
Ns(V13*D
p406
L10L
L-11L
tp407
g9
s(V12*DS
p408
L11L
L-11L
tp409
g9
s(V12*ADS
p410
L10L
L-11L
tp411
g9
s(V12*
p412
L21L
Ntp413
Ns(V17*AD
p414
L9L
L-11L
tp415
g9
s(V7*D
p416
L3L
L-11L
tp417
g9
s(V16*A
p418
L2L
L-11L
tp419
g9
s(V15*A
p420
L4L
L-11L
tp421
g9
s(V12*ADS
p422
L5L
L-11L
tp423
g9
s(L13L
L20L
Ntp424
Ns(V13*
p425
L6L
L-11L
tp426
g9
s(V6*
p427
L5L
L-11L
tp428
g9
s(V13*AD
p429
L7L
L-11L
tp430
g9
s(V17*
p431
L5L
L-11L
tp432
g4
s(V10*
p433
L10L
L-11L
tp434
g9
s(V14*DS
p435
L2L
L-11L
tp436
g9
s(V8*DS
p437
L11L
L-11L
tp438
g9
s(V13*AD
p439
L8L
L-11L
tp440
g9
s(V26*
p441
NNtp442
Ns(V19*AD
p443
L21L
Ntp444
Ns(L14L
L23L
Ntp445
Ns(V20*
p446
L6L
L-11L
tp447
g4
s(V18*A
p448
L4L
L-11L
tp449
g4
s(L28L
NNtp450
Ns(L12L
L18L
Ntp451
Ns(V8*
p452
L9L
L-11L
tp453
g9
s(V10*DS
p454
L10L
L-11L
tp455
g9
s(V14*D
p456
L5L
L-11L
tp457
g9
s(V12*DS
p458
L2L
L-11L
tp459
g9
s(V18*D
p460
L8L
L-11L
tp461
g4
s(L21L
L4L
L-11L
tp462
g4
s(V12*ADS
p463
L3L
L-11L
tp464
g9
s(L16L
L18L
Ntp465
Ns(V15*
p466
L10L
L-11L
tp467
g9
s(V19*
p468
L10L
L-11L
tp469
g4
s(V15*
p470
L3L
L-11L
tp471
g9
s(V9*
p472
L11L
L-11L
tp473
g9
s(V17*D
p474
L6L
L-11L
tp475
g4
s(V6*D
p476
L7L
L-11L
tp477
g9
s(V11*D
p478
L11L
L-11L
tp479
g9
s(V20*AD
p480
L5L
L-11L
tp481
g4
s(L9L
L19L
Ntp482
Ns(V15*AD
p483
L10L
L-11L
tp484
g9
s(V14*A
p485
L5L
L-11L
tp486
g9
s(V16*D
p487
L10L
L-11L
tp488
g9
s(V20*DS
p489
L2L
L-11L
tp490
g4
s(L14L
L24L
Ntp491
Ns(V19*
p492
L6L
L-11L
tp493
g4
s(V19*AD
p494
L3L
L-11L
tp495
g4
s(L13L
L17L
Ntp496
Ns(V16*AD
p497
L9L
L-11L
tp498
g9
s(V7*
p499
L9L
L-11L
tp500
g9
s(L13L
L23L
Ntp501
Ns(V13*A
p502
L2L
L-11L
tp503
g9
s(L6L
L23L
Ntp504
Ns(V16*A
p505
L4L
L-11L
tp506
g9
s(g119
L11L
L-11L
tp507
g9
s(V14*DS
p508
L4L
L-11L
tp509
g9
s(V12*D
p510
L2L
L-11L
tp511
g9
s(V14*DS
p512
L11L
L-11L
tp513
g9
s(L11L
L18L
Ntp514
Ns(V16*AD
p515
L21L
Ntp516
Ns(V20*DS
p517
L8L
L-11L
tp518
g4
s(L18L
L23L
Ntp519
Ns(V21*A
p520
L7L
L-11L
tp521
g4
s(V12*DS
p522
L8L
L-11L
tp523
g9
s(g478
L21L
Ntp524
Ns(V7*
p525
L3L
L-11L
tp526
g9
s(V12*ADS
p527
L9L
L-11L
tp528
g9
s(V16*A
p529
L8L
L-11L
tp530
g9
s(V14*AD
p531
L21L
Ntp532
Ns(V18*AD
p533
L9L
L-11L
tp534
g9
s(L15L
L17L
Ntp535
Ns(V17*
p536
L9L
L-11L
tp537
g4
s(V15*A
p538
L3L
L-11L
tp539
g9
s(V10*
p540
L6L
L-11L
tp541
g9
s(V14*
p542
L6L
L-11L
tp543
g9
s(L10L
L24L
Ntp544
Ns(V6*DS
p545
L4L
L-11L
tp546
g9
s(V13*AD
p547
L4L
L-11L
tp548
g9
s(V17*
p549
L6L
L-11L
tp550
g4
s(V10*
p551
L9L
L-11L
tp552
g9
s(V16*
p553
L8L
L-11L
tp554
g9
s(V19*A
p555
L9L
L-11L
tp556
g4
s(g437
L21L
Ntp557
Ns(L17L
L20L
Ntp558
Ns(V15*AD
p559
L3L
L-11L
tp560
g9
s(L12L
L23L
Ntp561
Ns(V20*
p562
L9L
L-11L
tp563
g4
s(V18*A
p564
L10L
L-11L
tp565
g9
s(L12L
L25L
Ntp566
Ns(V14*D
p567
L9L
L-11L
tp568
g9
s(L21L
L8L
L-11L
tp569
g4
s(V18*AD
p570
L5L
L-11L
tp571
g4
s(V18*D
p572
L2L
L-11L
tp573
g4
s(V17*A
p574
L6L
L-11L
tp575
g9
s(V18*D
p576
L11L
L-11L
tp577
g4
s(V10*DS
p578
L9L
L-11L
tp579
g9
s(V15*
p580
L4L
L-11L
tp581
g9
s(V9*
p582
L7L
L-11L
tp583
g9
s(g153
L21L
Ntp584
Ns(V19*D
p585
L6L
L-11L
tp586
g4
s(V9*
p587
L8L
L-11L
tp588
g9
s(V20*A
p589
L3L
L-11L
tp590
g4
s(V18*
p591
L9L
L-11L
tp592
g4
s(L11L
L23L
Ntp593
Ns(V19*A
p594
L3L
L-11L
tp595
g4
s(L11L
L17L
Ntp596
Ns(L4L
L25L
Ntp597
Ns(V15*AD
p598
L5L
L-11L
tp599
g9
s(V8*D
p600
L7L
L-11L
tp601
g9
s(V16*D
p602
L6L
L-11L
tp603
g4
s(L4L
L19L
Ntp604
Ns(L16L
L20L
Ntp605
Ns(V5*D
p606
L7L
L-11L
tp607
g9
s(L18L
L17L
Ntp608
Ns(V17*A
p609
L10L
L-11L
tp610
g9
s(V16*D
p611
L9L
L-11L
tp612
g9
s(V21*A
p613
L9L
L-11L
tp614
g4
s(L9L
L24L
Ntp615
Ns(V15*D
p616
L7L
L-11L
tp617
g9
s(V17*A
p618
L3L
L-11L
tp619
g9
s(V7*
p620
L5L
L-11L
tp621
g9
s(V12*
p622
L3L
L-11L
tp623
g9
s(L13L
L26L
Ntp624
Ns(V11*
p625
L7L
L-11L
tp626
g9
s(V14*AD
p627
L8L
L-11L
tp628
g9
s(V19*AD
p629
L4L
L-11L
tp630
g4
s(V18*
p631
L5L
L-11L
tp632
g4
s(V7*
p633
L10L
L-11L
tp634
g9
s(L30L
NNtp635
Ns(V6*DS
p636
L2L
L-11L
tp637
g9
s(V13*A
p638
L5L
L-11L
tp639
g9
s(V14*DS
p640
L7L
L-11L
tp641
g9
s(V12*D
p642
L5L
L-11L
tp643
g9
s(g155
L11L
L-11L
tp644
g9
s(V20*A
p645
L10L
L-11L
tp646
g4
s(V16*
p647
L6L
L-11L
tp648
g4
s(V8*D
p649
L2L
L-11L
tp650
g9
s(L16L
L24L
Ntp651
Ns(V20*
p652
L3L
L-11L
tp653
g4
s(V15*D
p654
L11L
L-11L
tp655
g9
s(L12L
L20L
Ntp656
Ns(V20*DS
p657
L7L
L-11L
tp658
g4
s(V15*D
p659
L2L
L-11L
tp660
g9
s(V10*D
p661
L10L
L-11L
tp662
g9
s(V20*D
p663
L7L
L-11L
tp664
g4
s(V13*D
p665
L3L
L-11L
tp666
g9
s(L17L
L23L
Ntp667
Ns(L6L
L21L
Ntp668
Ns(V14*
p669
L10L
L-11L
tp670
g9
s(L10L
L20L
Ntp671
Ns(L10L
L19L
Ntp672
Ns(V21*
p673
L9L
L-11L
tp674
g4
s(V17*
p675
L10L
L-11L
tp676
g4
s(V10*
p677
L5L
L-11L
tp678
g9
s(V14*
p679
L5L
L-11L
tp680
g9
s(g317
L11L
L-11L
tp681
g9
s(V19*A
p682
L5L
L-11L
tp683
g4
s(g249
L21L
Ntp684
Ns(V19*A
p685
L10L
L-11L
tp686
g4
s(L14L
L22L
Ntp687
Ns(V18*A
p688
L21L
Ntp689
Ns(V13*D
p690
L9L
L-11L
tp691
g9
s(L15L
L25L
Ntp692
Ns(V10*DS
p693
L7L
L-11L
tp694
g9
s(V18*AD
p695
L2L
L-11L
tp696
g4
s(V18*D
p697
L5L
L-11L
tp698
g4
s(V21*
p699
L3L
L-11L
tp700
g4
s(V9*
p701
L4L
L-11L
tp702
g9
s(V17*AD
p703
L6L
L-11L
tp704
g47
s(L18L
L24L
Ntp705
Ns(V19*D
p706
L9L
L-11L
tp707
g4
s(V14*
p708
L3L
L-11L
tp709
g9
s(g163
L21L
Ntp710
Ns(g576
L21L
Ntp711
Ns(V7*D
p712
L10L
L-11L
tp713
g9
s(V18*DS
p714
L9L
L-11L
tp715
g4
s(V8*DS
p716
L2L
L-11L
tp717
g9
s(L15L
L21L
Ntp718
Ns(V11*D
p719
L2L
L-11L
tp720
g47
s(V16*D
p721
L5L
L-11L
tp722
g4
s(V20*D
p723
L9L
L-11L
tp724
g4
s(V9*D
p725
L3L
L-11L
tp726
g9
s(V10*D
p727
L4L
L-11L
tp728
g47
s(V5*D
p729
L4L
L-11L
tp730
g9
s(g654
L21L
Ntp731
Ns(V21*A
p732
L10L
L-11L
tp733
g4
s(L21L
NNtp734
Ns(V19*AD
p735
L8L
L-11L
tp736
g4
s(V7*
p737
L6L
L-11L
tp738
g9
s(V27*
p739
NNtp740
Ns(V12*
p741
L4L
L-11L
tp742
g9
s(V14*AD
p743
L2L
L-11L
tp744
g9
s(g197
L21L
Ntp745
Ns(V11*
p746
L8L
L-11L
tp747
g9
s(g531
L11L
L-11L
tp748
g9
s(V18*
p749
L2L
L-11L
tp750
g4
s(V12*D
p751
L9L
L-11L
tp752
g9
s(V20*A
p753
L21L
Ntp754
Ns(V20*A
p755
L6L
L-11L
tp756
g4
s(L8L
L18L
Ntp757
Ns(V16*DS
p758
L8L
L-11L
tp759
g9
s(V16*
p760
L5L
L-11L
tp761
g4
s(L8L
L21L
Ntp762
Ns(V11*D
p763
L8L
L-11L
tp764
g9
s(V20*AD
p765
L6L
L-11L
tp766
g4
s(L6L
L19L
Ntp767
Ns(L6L
L25L
Ntp768
Ns(V14*A
p769
L6L
L-11L
tp770
g9
s(V9*D
p771
L10L
L-11L
tp772
g9
s(V21*
p773
L5L
L-11L
tp774
g4
s(V17*A
p775
L21L
Ntp776
Ns(V19*D
p777
L3L
L-11L
tp778
g4
s(V14*
p779
L9L
L-11L
tp780
g9
s(V4*DS
p781
L8L
L-11L
tp782
g9
s(V21*
p783
L10L
L-11L
tp784
g4
s(V7*D
p785
L4L
L-11L
tp786
g9
s(V13*
p787
L5L
L-11L
tp788
g9
s(V18*DS
p789
L3L
L-11L
tp790
g4
s(V15*A
p791
L10L
L-11L
tp792
g9
s(V16*
p793
L3L
L-11L
tp794
g9
s(V6*
p795
L6L
L-11L
tp796
g9
s(V19*A
p797
L6L
L-11L
tp798
g4
s(V28*
p799
NNtp800
Ns(L20L
L25L
Ntp801
Ns(V17*D
p802
L9L
L-11L
tp803
g4
s(L9L
L17L
Ntp804
Ns(L9L
L22L
Ntp805
Ns(V13*D
p806
L6L
L-11L
tp807
g9
s(V17*AD
p808
L21L
Ntp809
Ns(V18*A
p810
L3L
L-11L
tp811
g4
s(V11*
p812
L2L
L-11L
tp813
g9
s(V12*DS
p814
L7L
L-11L
tp815
g9
s(V16*D
p816
L21L
Ntp817
Ns(g40
L21L
Ntp818
Ns(V17*AD
p819
L5L
L-11L
tp820
g9
s(V18*DS
p821
L5L
L-11L
tp822
g4
s(L25L
NNtp823
Ns(V17*D
p824
L5L
L-11L
tp825
g4
s(L8L
L24L
Ntp826
Ns(V16*DS
p827
L6L
L-11L
tp828
g4
s(L14L
L20L
Ntp829
Ns(V16*AD
p830
L6L
L-11L
tp831
g47
s(V8*DS
p832
L5L
L-11L
tp833
g9
s(L26L
NNtp834
Ns(L21L
L26L
Ntp835
Ns(L21L
L19L
Ntp836
Ns(g408
L21L
Ntp837
Ns(V5*D
p838
L10L
L-11L
tp839
g9
s(V10*D
p840
L7L
L-11L
tp841
g9
s(V20*D
p842
L10L
L-11L
tp843
g4
s(V12*
p844
L8L
L-11L
tp845
g9
s(V18*A
p846
L9L
L-11L
tp847
g9
s(L11L
L19L
Ntp848
Ns(L11L
L20L
Ntp849
Ns(V14*AD
p850
L5L
L-11L
tp851
g9
s(L14L
L18L
Ntp852
Ns(V4*DS
p853
L2L
L-11L
tp854
g9
s(V19*
p855
L8L
L-11L
tp856
g4
s(L4L
L23L
Ntp857
Ns(V15*
p858
L7L
L-11L
tp859
g9
s(V8*
p860
L7L
L-11L
tp861
g9
s(V16*AD
p862
L10L
L-11L
tp863
g9
s(g327
L11L
L-11L
tp864
g9
s(L18L
L21L
Ntp865
Ns(V10*D
p866
L21L
Ntp867
Ns(V16*AD
p868
L3L
L-11L
tp869
g9
s(V6*
p870
L8L
L-11L
tp871
g9
s(V6*D
p872
L9L
L-11L
tp873
g9
s(L15L
L19L
Ntp874
Ns(V11*D
p875
L7L
L-11L
tp876
g9
s(V20*AD
p877
L9L
L-11L
tp878
g4
s(V9*D
p879
L6L
L-11L
tp880
g9
s(V14*A
p881
L9L
L-11L
tp882
g9
s(L6L
L20L
Ntp883
Ns(V4*DS
p884
L4L
L-11L
tp885
g9
s(V19*
p886
L2L
L-11L
tp887
g4
s(V21*
p888
L6L
L-11L
tp889
g4
s(L8L
L26L
Ntp890
Ns(V14*D
p891
L6L
L-11L
tp892
g9
s(L21L
L7L
L-11L
tp893
g4
s(L12L
L24L
Ntp894
Ns(V15*A
p895
L6L
L-11L
tp896
g9
s(V7*D
p897
L7L
L-11L
tp898
g9
s(V16*A
p899
L6L
L-11L
tp900
g9
s(V13*A
p901
L6L
L-11L
tp902
g9
s(V13*
p903
L2L
L-11L
tp904
g9
s(V15*A
p905
L9L
L-11L
tp906
g9
s(V13*AD
p907
L3L
L-11L
tp908
g9
s(L27L
NNtp909
Ns(L10L
L23L
Ntp910
Ns(V20*
p911
L10L
L-11L
tp912
g4
s(V14*D
p913
L10L
L-11L
tp914
g9
s(L21L
L11L
L-11L
tp915
g4
s(V14*D
p916
L3L
L-11L
tp917
g9
s(V12*DS
p918
L4L
L-11L
tp919
g9
s(g808
L11L
L-11L
tp920
g9
s(L21L
L2L
L-11L
tp921
g4
s(V18*AD
p922
L11L
L-11L
tp923
g9
s(V
p924
g924
L-11L
tp925
VBegin
p926
s(L9L
L25L
Ntp927
Ns(V12*ADS
p928
L7L
L-11L
tp929
g9
s(L9L
L23L
Ntp930
Ns(V17*D
p931
L2L
L-11L
tp932
g4
s(V17*
p933
L3L
L-11L
tp934
g4
s(V6*D
p935
L3L
L-11L
tp936
g9
s(V16*DS
p937
L5L
L-11L
tp938
g4
s(V8*DS
p939
L9L
L-11L
tp940
g9
s(L9L
L20L
Ntp941
Ns(V20*AD
p942
L3L
L-11L
tp943
g4
s(V13*AD
p944
L10L
L-11L
tp945
g9
s(L16L
L19L
Ntp946
Ns(V15*AD
p947
L21L
Ntp948
Ns(V15*AD
p949
L6L
L-11L
tp950
g9
s(V23*
p951
NNtp952
Ns(V14*A
p953
L3L
L-11L
tp954
g9
s(L11L
L24L
Ntp955
Ns(V18*A
p956
L6L
L-11L
tp957
g4
s(V19*
p958
L4L
L-11L
tp959
g4
s(V17*A
p960
L4L
L-11L
tp961
g9
s(V8*
p962
L11L
L-11L
tp963
g9
s(V10*DS
p964
L4L
L-11L
tp965
g47
s(V18*D
p966
L6L
L-11L
tp967
g4
s(g25
L11L
L-11L
tp968
g4
s(L29L
NNtp969
Ns(V15*
p970
L8L
L-11L
tp971
g9
s(V13*
p972
L8L
L-11L
tp973
g9
s(V18*
p974
L11L
L-11L
tp975
g4
s(V6*D
p976
L5L
L-11L
tp977
g9
s(V16*DS
p978
L3L
L-11L
tp979
g9
s(V6*
p980
L11L
L-11L
tp981
g9
s(L21L
L24L
Ntp982
Ns(L14L
L25L
Ntp983
Ns(L10L
L18L
Ntp984
Ns(L10L
L17L
Ntp985
Ns(V8*D
p986
L5L
L-11L
tp987
g9
s(V20*
p988
L4L
L-11L
tp989
g4
s(V20*DS
p990
L4L
L-11L
tp991
g4
s(V15*D
p992
L5L
L-11L
tp993
g9
s(L8L
L17L
Ntp994
Ns(V21*A
p995
L5L
L-11L
tp996
g4
s(L18L
L19L
Ntp997
Ns(V16*A
p998
L10L
L-11L
tp999
g9
s(L21L
L23L
Ntp1000
Ns(V15*A
p1001
L5L
L-11L
tp1002
g9
s(V16*A
p1003
L5L
L-11L
tp1004
g9
s(V10*
p1005
L2L
L-11L
tp1006
g9
s(V13*A
p1007
L9L
L-11L
tp1008
g9
s(V6*DS
p1009
L8L
L-11L
tp1010
g9
s(V16*
p1011
L10L
L-11L
tp1012
g9
s(V14*DS
p1013
L9L
L-11L
tp1014
g9
s(V15*AD
p1015
L8L
L-11L
tp1016
g9
s(V10*DS
p1017
L2L
L-11L
tp1018
g9
s(V12*DS
p1019
L10L
L-11L
tp1020
g9
s(V18*AD
p1021
L7L
L-11L
tp1022
g4
s(L16L
L26L
Ntp1023
Ns(g387
L11L
L-11L
tp1024
g9
s(V15*
p1025
L2L
L-11L
tp1026
g9
s(V15*
p1027
L21L
Ntp1028
Ns(L9L
L18L
Ntp1029
Ns(V18*AD
p1030
L8L
L-11L
tp1031
g4
s(V9*
p1032
L3L
L-11L
tp1033
g9
s(V16*A
p1034
L3L
L-11L
tp1035
g9
s(V19*AD
p1036
L7L
L-11L
tp1037
g4
s(V19*D
p1038
L10L
L-11L
tp1039
g4
s(V13*AD
p1040
L6L
L-11L
tp1041
g9
s(g321
L21L
Ntp1042
Ns(V17*
p1043
L4L
L-11L
tp1044
g4
s(V10*
p1045
L11L
L-11L
tp1046
g9
s(V12*D
p1047
L6L
L-11L
tp1048
g9
s(V20*A
p1049
L9L
L-11L
tp1050
g4
s(V16*D
p1051
L2L
L-11L
tp1052
g9
s(V20*DS
p1053
L10L
L-11L
tp1054
g4
s(L23L
NNtp1055
Ns(L8L
L20L
Ntp1056
Ns(V17*A
p1057
L8L
L-11L
tp1058
g9
s(L8L
L23L
Ntp1059
Ns(V5*D
p1060
L3L
L-11L
tp1061
g9
s(V19*
p1062
L7L
L-11L
tp1063
g4
s(g443
L11L
L-11L
tp1064
g4
s(V17*A
p1065
L7L
L-11L
tp1066
g9
s(V10*DS
p1067
L11L
L-11L
tp1068
g9
s(V18*D
p1069
L9L
L-11L
tp1070
g4
s(V19*AD
p1071
L2L
L-11L
tp1072
g4
s(V18*
p1073
L7L
L-11L
tp1074
g4
s(V21*A
p1075
L3L
L-11L
tp1076
g4
s(g189
L21L
Ntp1077
Ns(V11*
p1078
L11L
L-11L
tp1079
g9
s(L21L
L20L
Ntp1080
Ns(g42
L21L
Ntp1081
Ns(V13*A
p1082
L3L
L-11L
tp1083
g9
s(V9*
p1084
L10L
L-11L
tp1085
g9
s(V12*D
p1086
L10L
L-11L
tp1087
g9
s(L16L
L21L
Ntp1088
Ns(V6*DS
p1089
L6L
L-11L
tp1090
g9
s(V18*
p1091
L8L
L-11L
tp1092
g4
s(V20*A
p1093
L5L
L-11L
tp1094
g4
s(V12*D
p1095
L3L
L-11L
tp1096
g9
s(V8*D
p1097
L9L
L-11L
tp1098
g9
s(L19L
L17L
Ntp1099
Ns(V14*DS
p1100
L3L
L-11L
tp1101
g9
s(V8*D
p1102
L6L
L-11L
tp1103
g9
s(V15*D
p1104
L9L
L-11L
tp1105
g9
s(V20*
p1106
L7L
L-11L
tp1107
g4
s(V5*D
p1108
L9L
L-11L
tp1109
g9
s(L20L
L24L
Ntp1110
Ns(V10*D
p1111
L8L
L-11L
tp1112
g9
s(g816
L11L
L-11L
tp1113
g9
s(V20*DS
p1114
L3L
L-11L
tp1115
g4
s(V15*D
p1116
L6L
L-11L
tp1117
g9
s(V20*D
p1118
L5L
L-11L
tp1119
g4
s(L20L
L18L
Ntp1120
Ns(V21*A
p1121
L6L
L-11L
tp1122
g4
s(L15L
L23L
Ntp1123
Ns(V14*AD
p1124
L6L
L-11L
tp1125
g9
s(V16*A
p1126
L9L
L-11L
tp1127
g9
s(V7*
p1128
L8L
L-11L
tp1129
g9
s(V19*D
p1130
L4L
L-11L
tp1131
g4
s(V14*DS
p1132
L5L
L-11L
tp1133
g9
s(L17L
L22L
Ntp1134
Ns(V18*DS
p1135
L10L
L-11L
tp1136
g4
s(V16*
p1137
L9L
L-11L
tp1138
g9
s(L8L
L25L
Ntp1139
Ns(L20L
L20L
Ntp1140
Ns(g947
L11L
L-11L
tp1141
g9
s(L14L
L26L
Ntp1142
Ns(V13*D
p1143
L5L
L-11L
tp1144
g9
s(V18*AD
p1145
L4L
L-11L
tp1146
g4
s(V18*D
p1147
L3L
L-11L
tp1148
g4
s(L21L
L17L
Ntp1149
Ns(V11*
p1150
L5L
L-11L
tp1151
g9
s(V12*
p1152
L7L
L-11L
tp1153
g9
s(V17*AD
p1154
L2L
L-11L
tp1155
g9
s(V17*
p1156
L8L
L-11L
tp1157
g4
s(g922
L21L
Ntp1158
Ns(V10*
p1159
L7L
L-11L
tp1160
g9
s(V7*D
p1161
L8L
L-11L
tp1162
g9
s(V14*
p1163
L7L
L-11L
tp1164
g9
s(V18*DS
p1165
L6L
L-11L
tp1166
g4
s(L15L
L24L
Ntp1167
Ns(L19L
L24L
Ntp1168
Ns(L4L
L17L
Ntp1169
Ns(g290
L11L
L-11L
tp1170
g9
s(L19L
L18L
Ntp1171
Ns(V19*A
p1172
L8L
L-11L
tp1173
g4
s(L9L
L26L
Ntp1174
Ns(L18L
L25L
Ntp1175
Ns(V20*DS
p1176
L9L
L-11L
tp1177
g4
s(g775
L11L
L-11L
tp1178
g9
s(g412
L11L
L-11L
tp1179
g9
s(V9*D
p1180
L9L
L-11L
tp1181
g9
s(V20*D
p1182
L3L
L-11L
tp1183
g4
s(V12*
p1184
L2L
L-11L
tp1185
g9
s(V7*
p1186
L2L
L-11L
tp1187
g9
s(V9*
p1188
L6L
L-11L
tp1189
g9
s(V17*AD
p1190
L8L
L-11L
tp1191
g9
s(L16L
L25L
Ntp1192
Ns(V18*
p1193
L4L
L-11L
tp1194
g4
s(V8*
p1195
L2L
L-11L
tp1196
g9
s(g159
L11L
L-11L
tp1197
g9
s(V20*A
p1198
L2L
L-11L
tp1199
g4
s(V6*DS
p1200
L5L
L-11L
tp1201
g9
s(V16*AD
p1202
L4L
L-11L
tp1203
g9
s(g974
L21L
Ntp1204
Ns(V8*D
p1205
L10L
L-11L
tp1206
g9
s(V16*DS
p1207
L10L
L-11L
tp1208
g9
s(L8L
L22L
Ntp1209
Ns(V11*D
p1210
L4L
L-11L
tp1211
g47
s(V20*AD
p1212
L10L
L-11L
tp1213
g4
s(V16*D
p1214
L7L
L-11L
tp1215
g9
s(L20L
L23L
Ntp1216
Ns(V15*D
p1217
L10L
L-11L
tp1218
g9
s(g512
L21L
Ntp1219
Ns(V10*D
p1220
L2L
L-11L
tp1221
g9
s(V9*D
p1222
L5L
L-11L
tp1223
g9
s(V13*D
p1224
L11L
L-11L
tp1225
g9
s(V5*D
p1226
L6L
L-11L
tp1227
g9
s(V25*
p1228
NNtp1229
Ns(g866
L11L
L-11L
tp1230
g9
s(V20*D
p1231
L6L
L-11L
tp1232
g4
s(V21*A
p1233
L8L
L-11L
tp1234
g4
s(V14*A
p1235
L10L
L-11L
tp1236
g9
s(L10L
L21L
Ntp1237
Ns(L18L
L18L
Ntp1238
Ns(g126
L21L
Ntp1239
Ns(V7*
p1240
L4L
L-11L
tp1241
g9
s(V4*DS
p1242
L7L
L-11L
tp1243
g9
s(V15*A
p1244
L21L
Ntp1245
Ns(V14*AD
p1246
L9L
L-11L
tp1247
g9
s(V19*D
p1248
L7L
L-11L
tp1249
g4
s(V6*DS
p1250
L3L
L-11L
tp1251
g9
s(L17L
L26L
Ntp1252
Ns(V13*
p1253
L7L
L-11L
tp1254
g9
s(V6*
p1255
L4L
L-11L
tp1256
g9
s(L19L
L23L
Ntp1257
Ns(V16*
p1258
L7L
L-11L
tp1259
g9
s(V19*A
p1260
L2L
L-11L
tp1261
g4
s(L20L
L26L
Ntp1262
Ns(L9L
L21L
Ntp1263
Ns(V8*DS
p1264
L6L
L-11L
tp1265
g9
s(V13*D
p1266
L2L
L-11L
tp1267
g9
s(g1067
L21L
Ntp1268
Ns(V11*
p1269
L6L
L-11L
tp1270
g9
s(V14*D
p1271
L4L
L-11L
tp1272
g9
s(V12*DS
p1273
L3L
L-11L
tp1274
g9
s(L21L
L5L
L-11L
tp1275
g4
s(g57
L11L
L-11L
tp1276
g9
s(V12*ADS
p1277
L2L
L-11L
tp1278
g9
s(L15L
L20L
Ntp1279
Ns(V7*D
p1280
L2L
L-11L
tp1281
g9
s(V21*
p1282
L8L
L-11L
tp1283
g4
s(V8*
p1284
L4L
L-11L
tp1285
g9
s(g136
L11L
L-11L
tp1286
g9
s(V17*D
p1287
L7L
L-11L
tp1288
g4
s(g63
L21L
Ntp1289
Ns(V19*A
p1290
L4L
L-11L
tp1291
g4
s(V8*DS
p1292
L10L
L-11L
tp1293
g9
s(V17*D
p1294
L8L
L-11L
tp1295
g4
s(V20*AD
p1296
L4L
L-11L
tp1297
g4
s(V11*D
p1298
L10L
L-11L
tp1299
g9
s(V6*D
p1300
L10L
L-11L
tp1301
g9
s(V8*DS
p1302
L3L
L-11L
tp1303
g9
s(L21L
L25L
Ntp1304
Ns(V14*A
p1305
L4L
L-11L
tp1306
g9
s(g32
L21L
Ntp1307
Ns(g398
L21L
Ntp1308
Ns(L14L
L21L
Ntp1309
Ns(V18*A
p1310
L5L
L-11L
tp1311
g4
s(V12*DS
p1312
L9L
L-11L
tp1313
g9
s(V14*AD
p1314
L3L
L-11L
tp1315
g9
s(V8*
p1316
L8L
L-11L
tp1317
g9
s(V17*AD
p1318
L7L
L-11L
tp1319
g9
s(L19L
L26L
Ntp1320
Ns(V16*AD
p1321
L8L
L-11L
tp1322
g9
s(g1027
L11L
L-11L
tp1323
g9
s(L8L
L19L
Ntp1324
Ns(g181
L21L
Ntp1325
Ns(V6*D
p1326
L6L
L-11L
tp1327
g9
s(V16*AD
p1328
L7L
L-11L
tp1329
g9
s(V6*
p1330
L2L
L-11L
tp1331
g9
s(V16*DS
p1332
L9L
L-11L
tp1333
g9
s(V11*D
p1334
L3L
L-11L
tp1335
g47
s(g199
L21L
Ntp1336
Ns(L16L
L17L
Ntp1337
Ns(V9*D
p1338
L2L
L-11L
tp1339
g9
s(V10*D
p1340
L5L
L-11L
tp1341
g47
s(V13*D
p1342
L8L
L-11L
tp1343
g9
s(V20*D
p1344
L8L
L-11L
tp1345
g4
s(L15L
L18L
Ntp1346
Ns(V21*
p1347
L2L
L-11L
tp1348
g4
s(V15*A
p1349
L2L
L-11L
tp1350
g9
s(V12*ADS
p1351
L4L
L-11L
tp1352
g9
s(V13*
p1353
L4L
L-11L
tp1354
g9
s(L20L
L22L
Ntp1355
Ns(V6*
p1356
L7L
L-11L
tp1357
g9
s(V13*A
p1358
L10L
L-11L
tp1359
g9
s(L20L
L17L
Ntp1360
Ns(L22L
NNtp1361
Ns(V13*AD
p1362
L9L
L-11L
tp1363
g9
s(V20*
p1364
L8L
L-11L
tp1365
g4
s(g368
L21L
Ntp1366
Ns(g688
L11L
L-11L
tp1367
g9
s(L17L
L18L
Ntp1368
Ns(V14*D
p1369
L8L
L-11L
tp1370
g9
s(L21L
L9L
L-11L
tp1371
g4
s(L17L
L24L
Ntp1372
Ns(V21*
p1373
L4L
L-11L
tp1374
g4
s(V12*ADS
p1375
L8L
L-11L
tp1376
g9
s(V14*D
p1377
L7L
L-11L
tp1378
g9
s(L21L
L6L
L-11L
tp1379
g4
s(L19L
L25L
Ntp1380
Ns(V15*
p1381
L5L
L-11L
tp1382
g9
s(V7*D
p1383
L5L
L-11L
tp1384
g9
s(V17*D
p1385
L4L
L-11L
tp1386
g4
s(g1244
L11L
L-11L
tp1387
g9
s(V13*AD
p1388
L5L
L-11L
tp1389
g9
s(L21L
L21L
Ntp1390
Ns(V11*D
p1391
L9L
L-11L
tp1392
g9
s(V20*AD
p1393
L7L
L-11L
tp1394
g4
s(L21L
L18L
Ntp1395
Ns(L14L
L19L
Ntp1396
Ns(V15*AD
p1397
L4L
L-11L
tp1398
g9
s(L16L
L23L
Ntp1399
Ns(V14*A
p1400
L7L
L-11L
tp1401
g9
s(L4L
L21L
Ntp1402
Ns(L12L
L22L
Ntp1403
Ns(V18*A
p1404
L2L
L-11L
tp1405
g4
s(L12L
L17L
Ntp1406
Ns(V12*DS
p1407
L6L
L-11L
tp1408
g9
s(V10*DS
p1409
L8L
L-11L
tp1410
g9
s(V18*D
p1411
L10L
L-11L
tp1412
g4
s(V19*AD
p1413
L5L
L-11L
tp1414
g4
s(g515
L11L
L-11L
tp1415
g9
s(V13*A
p1416
L4L
L-11L
tp1417
g9
s(V16*DS
p1418
L7L
L-11L
tp1419
g9
s(V12*D
p1420
L4L
L-11L
tp1421
g9
s(g753
L11L
L-11L
tp1422
g4
s(V14*DS
p1423
L10L
L-11L
tp1424
g9
s(V22*
p1425
NNtp1426
Ns(L6L
L22L
Ntp1427
Ns(V20*DS
p1428
L6L
L-11L
tp1429
g4
s(g1224
L21L
Ntp1430
Ns(V17*A
p1431
L2L
L-11L
tp1432
g9
s.