(dp0
(L13L
L21L
Ntp1
Ns(V16*A
p2
L11L
L0L
tp3
VDraw
p4
s(L13L
L18L
Ntp5
Ns(V16*DS
p6
L11L
L0L
tp7
g4
s(V21*A
p8
L11L
L0L
tp9
VStay
p10
s(L13L
L24L
Ntp11
Ns(V5*D
p12
L9L
L0L
tp13
g4
s(V21*
p14
L7L
L0L
tp15
g10
s(V9*
p16
L7L
L0L
tp17
g4
s(V13*D
p18
L10L
L0L
tp19
g4
s(V18*D
p20
L9L
L0L
tp21
g10
s(V14*DS
p22
L10L
L0L
tp23
g4
s(V12*
p24
L3L
L0L
tp25
g4
s(L6L
L26L
Ntp26
Ns(V15*D
p27
L8L
L0L
tp28
g4
s(V12*D
p29
L7L
L0L
tp30
g4
s(L15L
L26L
Ntp31
Ns(V20*
p32
L21L
Ntp33
Ns(V20*AD
p34
L7L
L0L
tp35
g10
s(V4*DS
p36
L4L
L0L
tp37
g4
s(V19*A
p38
L21L
Ntp39
Ns(L19L
L19L
Ntp40
Ns(V9*D
p41
L6L
L0L
tp42
VDouble
p43
s(V10*
p44
L10L
L0L
tp45
g4
s(L19L
L20L
Ntp46
Ns(V10*D
p47
L21L
Ntp48
Ns(V20*
p49
L2L
L0L
tp50
g10
s(V17*
p51
L11L
L0L
tp52
g10
s(V15*
p53
L7L
L0L
tp54
g4
s(V14*D
p55
L2L
L0L
tp56
g10
s(V5*D
p57
L5L
L0L
tp58
g4
s(V9*
p59
L11L
L0L
tp60
g4
s(L17L
L21L
Ntp61
Ns(V20*DS
p62
L8L
L0L
tp63
g10
s(V11*
p64
L11L
L0L
tp65
g4
s(V24*
p66
NNtp67
Ns(V8*
p68
L4L
L0L
tp69
g4
s(V10*D
p70
L7L
L0L
tp71
g43
s(V17*AD
p72
L7L
L0L
tp73
g4
s(L21L
L11L
L0L
tp74
g10
s(V20*A
p75
L4L
L0L
tp76
g10
s(V4*DS
p77
L8L
L0L
tp78
g4
s(V14*
p79
L7L
L0L
tp80
g4
s(V15*
p81
L11L
L0L
tp82
g4
s(V18*
p83
L2L
L0L
tp84
g10
s(V13*
p85
L7L
L0L
tp86
g4
s(V13*A
p87
L11L
L0L
tp88
g4
s(L4L
L24L
Ntp89
Ns(V12*ADS
p90
L9L
L0L
tp91
g4
s(V11*
p92
L7L
L0L
tp93
g4
s(L4L
L18L
Ntp94
Ns(V13*
p95
L21L
Ntp96
Ns(V17*AD
p97
L11L
L0L
tp98
g4
s(V13*AD
p99
L2L
L0L
tp100
g4
s(V17*D
p101
L2L
L0L
tp102
g10
s(L21L
L7L
L0L
tp103
g10
s(L14L
L17L
Ntp104
Ns(V20*A
p105
L8L
L0L
tp106
g10
s(V6*DS
p107
L3L
L0L
tp108
g4
s(g6
L21L
Ntp109
Ns(V17*D
p110
L21L
Ntp111
Ns(L18L
L22L
Ntp112
Ns(V13*AD
p113
L21L
Ntp114
Ns(V14*A
p115
L4L
L0L
tp116
g4
s(V7*
p117
L3L
L0L
tp118
g4
s(V13*D
p119
L5L
L0L
tp120
g10
s(V10*DS
p121
L9L
L0L
tp122
g43
s(V19*AD
p123
L2L
L0L
tp124
g10
s(V20*D
p125
L3L
L0L
tp126
g10
s(V14*AD
p127
L8L
L0L
tp128
g4
s(V13*A
p129
L7L
L0L
tp130
g4
s(L4L
L20L
Ntp131
Ns(V12*D
p132
L8L
L0L
tp133
g4
s(V19*D
p134
L11L
L0L
tp135
g10
s(V16*D
p136
L3L
L0L
tp137
g10
s(V15*A
p138
L2L
L0L
tp139
g4
s(V9*D
p140
L11L
L0L
tp141
g4
s(V18*A
p142
L8L
L0L
tp143
g10
s(V10*
p144
L7L
L0L
tp145
g4
s(V16*A
p146
L10L
L0L
tp147
g4
s(V16*DS
p148
L10L
L0L
tp149
g4
s(V5*D
p150
L8L
L0L
tp151
g4
s(V9*
p152
L6L
L0L
tp153
g4
s(V20*AD
p154
L21L
Ntp155
Ns(V13*D
p156
L9L
L0L
tp157
g4
s(V18*D
p158
L8L
L0L
tp159
g10
s(V14*DS
p160
L11L
L0L
tp161
g4
s(L15L
L22L
Ntp162
Ns(V7*D
p163
L2L
L0L
tp164
g4
s(V12*D
p165
L4L
L0L
tp166
g10
s(V19*D
p167
L7L
L0L
tp168
g10
s(V20*AD
p169
L6L
L0L
tp170
g10
s(V4*DS
p171
L7L
L0L
tp172
g4
s(L13L
L19L
Ntp173
Ns(L20L
L21L
Ntp174
Ns(V9*D
p175
L7L
L0L
tp176
g4
s(V10*
p177
L11L
L0L
tp178
g4
s(L6L
L17L
Ntp179
Ns(L17L
L25L
Ntp180
Ns(V17*
p181
L10L
L0L
tp182
g10
s(V15*
p183
L4L
L0L
tp184
g10
s(V11*D
p185
L11L
L0L
tp186
g4
s(V14*D
p187
L3L
L0L
tp188
g10
s(V5*D
p189
L4L
L0L
tp190
g4
s(V9*
p191
L10L
L0L
tp192
g4
s(V20*DS
p193
L9L
L0L
tp194
g10
s(V11*
p195
L8L
L0L
tp196
g4
s(V8*
p197
L5L
L0L
tp198
g4
s(V10*D
p199
L4L
L0L
tp200
g43
s(V17*AD
p201
L6L
L0L
tp202
g43
s(L21L
L10L
L0L
tp203
g10
s(L19L
L21L
Ntp204
Ns(V4*DS
p205
L11L
L0L
tp206
g4
s(V19*A
p207
L7L
L0L
tp208
g10
s(L19L
L22L
Ntp209
Ns(V20*A
p210
L5L
L0L
tp211
g10
s(V10*
p212
L6L
L0L
tp213
g4
s(L16L
L22L
Ntp214
Ns(V14*
p215
L4L
L0L
tp216
g10
s(V18*AD
p217
L21L
Ntp218
Ns(V20*
p219
L9L
L0L
tp220
g10
s(V17*A
p221
L21L
Ntp222
Ns(V15*
p223
L8L
L0L
tp224
g4
s(V11*D
p225
L7L
L0L
tp226
g43
s(V13*
p227
L6L
L0L
tp228
g10
s(L21L
L22L
Ntp229
Ns(V13*A
p230
L10L
L0L
tp231
g4
s(V12*ADS
p232
L8L
L0L
tp233
g4
s(V11*
p234
L4L
L0L
tp235
g4
s(V17*AD
p236
L10L
L0L
tp237
g4
s(L21L
L6L
L0L
tp238
g10
s(V20*A
p239
L9L
L0L
tp240
g10
s(V6*DS
p241
L2L
L0L
tp242
g4
s(L12L
L21L
Ntp243
Ns(V19*
p244
L6L
L0L
tp245
g10
s(V14*A
p246
L3L
L0L
tp247
g4
s(g140
L21L
Ntp248
Ns(V13*D
p249
L4L
L0L
tp250
g10
s(V10*DS
p251
L10L
L0L
tp252
g4
s(V19*AD
p253
L3L
L0L
tp254
g10
s(V18*
p255
L9L
L0L
tp256
g10
s(V20*D
p257
L2L
L0L
tp258
g10
s(L20L
L19L
Ntp259
Ns(V14*AD
p260
L9L
L0L
tp261
g4
s(L4L
L26L
Ntp262
Ns(V13*A
p263
L6L
L0L
tp264
g4
s(V12*D
p265
L9L
L0L
tp266
g4
s(L17L
L19L
Ntp267
Ns(V19*D
p268
L10L
L0L
tp269
g10
s(V16*D
p270
L4L
L0L
tp271
g10
s(V15*A
p272
L5L
L0L
tp273
g4
s(V10*DS
p274
L21L
Ntp275
Ns(V25*
p276
NNtp277
Ns(V9*D
p278
L8L
L0L
tp279
g4
s(V18*A
p280
L9L
L0L
tp281
g4
s(V10*
p282
L4L
L0L
tp283
g4
s(L11L
L21L
Ntp284
Ns(V8*D
p285
L3L
L0L
tp286
g4
s(V16*A
p287
L5L
L0L
tp288
g4
s(L11L
L22L
Ntp289
Ns(V16*DS
p290
L9L
L0L
tp291
g4
s(L6L
L24L
Ntp292
Ns(V19*
p293
L10L
L0L
tp294
g10
s(V5*D
p295
L11L
L0L
tp296
g4
s(V9*
p297
L5L
L0L
tp298
g4
s(V13*D
p299
L8L
L0L
tp300
g4
s(V18*D
p301
L11L
L0L
tp302
g10
s(V14*DS
p303
L4L
L0L
tp304
g10
s(L13L
L22L
Ntp305
Ns(V7*D
p306
L3L
L0L
tp307
g4
s(V12*D
p308
L5L
L0L
tp309
g10
s(V19*D
p310
L6L
L0L
tp311
g10
s(V20*AD
p312
L9L
L0L
tp313
g10
s(V4*DS
p314
L6L
L0L
tp315
g4
s(V9*D
p316
L4L
L0L
tp317
g43
s(V10*
p318
L8L
L0L
tp319
g4
s(V26*
p320
NNtp321
Ns(V17*
p322
L5L
L0L
tp323
g10
s(V15*
p324
L5L
L0L
tp325
g10
s(V11*D
p326
L10L
L0L
tp327
g43
s(V14*D
p328
L4L
L0L
tp329
g10
s(V5*D
p330
L7L
L0L
tp331
g4
s(L24L
NNtp332
Ns(V9*
p333
L9L
L0L
tp334
g4
s(L12L
L19L
Ntp335
Ns(V11*
p336
L9L
L0L
tp337
g4
s(V8*
p338
L6L
L0L
tp339
g4
s(L12L
L26L
Ntp340
Ns(V10*D
p341
L5L
L0L
tp342
g43
s(V17*AD
p343
L5L
L0L
tp344
g43
s(L21L
L9L
L0L
tp345
g10
s(V19*A
p346
L6L
L0L
tp347
g10
s(V4*DS
p348
L10L
L0L
tp349
g4
s(V20*A
p350
L6L
L0L
tp351
g10
s(L17L
L17L
Ntp352
Ns(V14*
p353
L5L
L0L
tp354
g10
s(V17*A
p355
L2L
L0L
tp356
g4
s(V20*
p357
L8L
L0L
tp358
g10
s(V15*
p359
L9L
L0L
tp360
g4
s(V11*D
p361
L6L
L0L
tp362
g43
s(V13*
p363
L9L
L0L
tp364
g4
s(V18*AD
p365
L2L
L0L
tp366
g10
s(V20*DS
p367
L2L
L0L
tp368
g10
s(L10L
L22L
Ntp369
Ns(V18*DS
p370
L10L
L0L
tp371
g10
s(V11*
p372
L5L
L0L
tp373
g4
s(L6L
L18L
Ntp374
Ns(V17*AD
p375
L9L
L0L
tp376
g4
s(L21L
L5L
L0L
tp377
g10
s(V20*A
p378
L10L
L0L
tp379
g10
s(V6*DS
p380
L5L
L0L
tp381
g4
s(V16*
p382
L6L
L0L
tp383
g10
s(L13L
L25L
Ntp384
Ns(V19*
p385
L7L
L0L
tp386
g10
s(V14*A
p387
L2L
L0L
tp388
g4
s(L4L
L22L
Ntp389
Ns(g274
L11L
L0L
tp390
g4
s(V18*
p391
L8L
L0L
tp392
g10
s(V6*D
p393
L10L
L0L
tp394
g4
s(L18L
L20L
Ntp395
Ns(V14*AD
p396
L6L
L0L
tp397
g43
s(L18L
L26L
Ntp398
Ns(V15*AD
p399
L2L
L0L
tp400
g4
s(V18*DS
p401
L6L
L0L
tp402
g10
s(V12*ADS
p403
L3L
L0L
tp404
g4
s(V19*D
p405
L9L
L0L
tp406
g10
s(V16*D
p407
L5L
L0L
tp408
g10
s(V15*A
p409
L4L
L0L
tp410
g4
s(L11L
L26L
Ntp411
Ns(V9*D
p412
L9L
L0L
tp413
g4
s(V18*A
p414
L10L
L0L
tp415
g4
s(V10*
p416
L5L
L0L
tp417
g4
s(V8*D
p418
L2L
L0L
tp419
g4
s(V16*A
p420
L4L
L0L
tp421
g4
s(V6*DS
p422
L9L
L0L
tp423
g4
s(V16*DS
p424
L8L
L0L
tp425
g4
s(V16*
p426
L10L
L0L
tp427
g4
s(L11L
L25L
Ntp428
Ns(V19*
p429
L11L
L0L
tp430
g10
s(V5*D
p431
L10L
L0L
tp432
g4
s(g51
L21L
Ntp433
Ns(V21*
p434
L2L
L0L
tp435
g10
s(V19*AD
p436
L8L
L0L
tp437
g10
s(V18*D
p438
L10L
L0L
tp439
g10
s(V9*
p440
L4L
L0L
tp441
g4
s(V14*DS
p442
L5L
L0L
tp443
g10
s(V6*D
p444
L6L
L0L
tp445
g4
s(V12*
p446
L6L
L0L
tp447
g10
s(L10L
L26L
Ntp448
Ns(V12*DS
p449
L3L
L0L
tp450
g4
s(L10L
L25L
Ntp451
Ns(V12*D
p452
L2L
L0L
tp453
g4
s(V7*D
p454
L4L
L0L
tp455
g4
s(V19*D
p456
L5L
L0L
tp457
g10
s(V20*AD
p458
L8L
L0L
tp459
g10
s(V9*D
p460
L5L
L0L
tp461
g43
s(V10*
p462
L9L
L0L
tp463
g4
s(V21*A
p464
L2L
L0L
tp465
g10
s(V17*
p466
L4L
L0L
tp467
g10
s(V11*D
p468
L9L
L0L
tp469
g43
s(V14*D
p470
L5L
L0L
tp471
g10
s(V5*D
p472
L6L
L0L
tp473
g4
s(V9*
p474
L8L
L0L
tp475
g4
s(L13L
L20L
Ntp476
Ns(V12*
p477
L10L
L0L
tp478
g4
s(V20*DS
p479
L21L
Ntp480
Ns(V8*
p481
L7L
L0L
tp482
g4
s(V10*D
p483
L10L
L0L
tp484
g4
s(V17*AD
p485
L4L
L0L
tp486
g43
s(L21L
L8L
L0L
tp487
g10
s(V20*A
p488
L7L
L0L
tp489
g10
s(V19*A
p490
L5L
L0L
tp491
g10
s(V15*A
p492
L21L
Ntp493
Ns(L14L
L23L
Ntp494
Ns(V14*
p495
L2L
L0L
tp496
g10
s(V17*A
p497
L3L
L0L
tp498
g4
s(g32
L11L
L0L
tp499
g10
s(V11*D
p500
L5L
L0L
tp501
g43
s(V13*
p502
L8L
L0L
tp503
g4
s(V18*AD
p504
L3L
L0L
tp505
g43
s(L28L
NNtp506
Ns(L12L
L18L
Ntp507
Ns(V20*DS
p508
L3L
L0L
tp509
g10
s(L16L
L18L
Ntp510
Ns(V18*DS
p511
L11L
L0L
tp512
g10
s(V11*
p513
L2L
L0L
tp514
g4
s(V17*AD
p515
L8L
L0L
tp516
g4
s(L21L
L4L
L0L
tp517
g10
s(V20*A
p518
L11L
L0L
tp519
g10
s(V6*DS
p520
L4L
L0L
tp521
g4
s(V16*
p522
L7L
L0L
tp523
g4
s(L9L
L19L
Ntp524
Ns(V19*
p525
L4L
L0L
tp526
g10
s(V7*
p527
L6L
L0L
tp528
g4
s(V10*DS
p529
L4L
L0L
tp530
g43
s(V18*
p531
L11L
L0L
tp532
g10
s(V6*D
p533
L11L
L0L
tp534
g4
s(V18*A
p535
L21L
Ntp536
Ns(V14*AD
p537
L7L
L0L
tp538
g4
s(V16*AD
p539
L9L
L0L
tp540
g4
s(V15*AD
p541
L3L
L0L
tp542
g4
s(V6*
p543
L8L
L0L
tp544
g4
s(V18*DS
p545
L7L
L0L
tp546
g10
s(V12*ADS
p547
L2L
L0L
tp548
g4
s(V19*D
p549
L8L
L0L
tp550
g10
s(V16*D
p551
L6L
L0L
tp552
g10
s(L14L
L24L
Ntp553
Ns(V15*A
p554
L7L
L0L
tp555
g4
s(g535
L11L
L0L
tp556
g4
s(L13L
L17L
Ntp557
Ns(V8*D
p558
L5L
L0L
tp559
g4
s(V16*A
p560
L7L
L0L
tp561
g4
s(V6*DS
p562
L8L
L0L
tp563
g4
s(V16*DS
p564
L7L
L0L
tp565
g4
s(L13L
L23L
Ntp566
Ns(V16*
p567
L11L
L0L
tp568
g4
s(g429
L21L
Ntp569
Ns(L6L
L23L
Ntp570
Ns(V19*
p571
L8L
L0L
tp572
g10
s(V7*
p573
L10L
L0L
tp574
g4
s(V21*
p575
L3L
L0L
tp576
g10
s(V7*D
p577
L21L
Ntp578
Ns(V19*AD
p579
L9L
L0L
tp580
g10
s(V8*D
p581
L21L
Ntp582
Ns(V14*DS
p583
L6L
L0L
tp584
g10
s(V6*D
p585
L7L
L0L
tp586
g4
s(V21*
p587
L21L
Ntp588
Ns(V12*
p589
L7L
L0L
tp590
g4
s(L11L
L18L
Ntp591
Ns(V12*DS
p592
L2L
L0L
tp593
g4
s(V16*AD
p594
L5L
L0L
tp595
g43
s(V6*
p596
L4L
L0L
tp597
g4
s(V12*D
p598
L3L
L0L
tp599
g4
s(V7*D
p600
L5L
L0L
tp601
g4
s(V19*D
p602
L4L
L0L
tp603
g10
s(g154
L11L
L0L
tp604
g10
s(V6*DS
p605
L21L
Ntp606
Ns(g567
L21L
Ntp607
Ns(V9*D
p608
L2L
L0L
tp609
g4
s(L18L
L23L
Ntp610
Ns(V8*D
p611
L9L
L0L
tp612
g4
s(V21*A
p613
L3L
L0L
tp614
g10
s(V17*
p615
L7L
L0L
tp616
g10
s(V11*D
p617
L8L
L0L
tp618
g43
s(V14*D
p619
L6L
L0L
tp620
g10
s(L15L
L17L
Ntp621
Ns(g301
L21L
Ntp622
Ns(L10L
L24L
Ntp623
Ns(V12*
p624
L11L
L0L
tp625
g4
s(V8*
p626
L8L
L0L
tp627
g4
s(g47
L11L
L0L
tp628
g4
s(V19*A
p629
L4L
L0L
tp630
g10
s(L17L
L20L
Ntp631
Ns(V27*
p632
NNtp633
Ns(V14*
p634
L3L
L0L
tp635
g10
s(L12L
L23L
Ntp636
Ns(V20*
p637
L10L
L0L
tp638
g10
s(L12L
L25L
Ntp639
Ns(V11*D
p640
L4L
L0L
tp641
g43
s(g95
L11L
L0L
tp642
g4
s(V18*DS
p643
L8L
L0L
tp644
g10
s(V11*
p645
L3L
L0L
tp646
g4
s(L21L
L3L
L0L
tp647
g10
s(V6*DS
p648
L7L
L0L
tp649
g4
s(V16*
p650
L4L
L0L
tp651
g10
s(L11L
L23L
Ntp652
Ns(V19*
p653
L5L
L0L
tp654
g10
s(L11L
L17L
Ntp655
Ns(L4L
L25L
Ntp656
Ns(V17*A
p657
L8L
L0L
tp658
g4
s(V7*
p659
L7L
L0L
tp660
g4
s(V10*DS
p661
L5L
L0L
tp662
g43
s(L4L
L19L
Ntp663
Ns(V18*
p664
L10L
L0L
tp665
g10
s(V6*D
p666
L8L
L0L
tp667
g4
s(V20*D
p668
L7L
L0L
tp669
g10
s(L16L
L20L
Ntp670
Ns(V14*AD
p671
L4L
L0L
tp672
g4
s(L18L
L17L
Ntp673
Ns(V13*A
p674
L3L
L0L
tp675
g4
s(V16*AD
p676
L8L
L0L
tp677
g4
s(V15*AD
p678
L4L
L0L
tp679
g4
s(L9L
L24L
Ntp680
Ns(V18*DS
p681
L4L
L0L
tp682
g10
s(V6*
p683
L9L
L0L
tp684
g4
s(V16*D
p685
L7L
L0L
tp686
g4
s(L13L
L26L
Ntp687
Ns(V15*A
p688
L6L
L0L
tp689
g4
s(V18*A
p690
L4L
L0L
tp691
g10
s(V8*D
p692
L4L
L0L
tp693
g4
s(L30L
NNtp694
Ns(V16*A
p695
L6L
L0L
tp696
g4
s(g605
L11L
L0L
tp697
g4
s(V16*DS
p698
L6L
L0L
tp699
g10
s(V16*
p700
L8L
L0L
tp701
g4
s(V19*
p702
L9L
L0L
tp703
g10
s(V7*
p704
L11L
L0L
tp705
g4
s(V19*AD
p706
L10L
L0L
tp707
g10
s(V14*DS
p708
L7L
L0L
tp709
g4
s(V6*D
p710
L4L
L0L
tp711
g4
s(V20*D
p712
L11L
L0L
tp713
g10
s(g87
L21L
Ntp714
Ns(L16L
L24L
Ntp715
Ns(V12*
p716
L4L
L0L
tp717
g10
s(V12*DS
p718
L5L
L0L
tp719
g10
s(V16*AD
p720
L4L
L0L
tp721
g43
s(V15*D
p722
L3L
L0L
tp723
g10
s(L12L
L20L
Ntp724
Ns(V7*D
p725
L6L
L0L
tp726
g4
s(V6*
p727
L5L
L0L
tp728
g4
s(V19*D
p729
L3L
L0L
tp730
g10
s(V20*AD
p731
L10L
L0L
tp732
g10
s(V9*D
p733
L3L
L0L
tp734
g43
s(L17L
L23L
Ntp735
Ns(V8*D
p736
L8L
L0L
tp737
g4
s(L6L
L21L
Ntp738
Ns(V21*A
p739
L4L
L0L
tp740
g10
s(V17*
p741
L6L
L0L
tp742
g10
s(L10L
L20L
Ntp743
Ns(V14*D
p744
L7L
L0L
tp745
g4
s(L10L
L19L
Ntp746
Ns(g624
L21L
Ntp747
Ns(V12*
p748
L8L
L0L
tp749
g4
s(V8*
p750
L9L
L0L
tp751
g4
s(V12*DS
p752
L9L
L0L
tp753
g4
s(V10*D
p754
L8L
L0L
tp755
g43
s(V8*DS
p756
L3L
L0L
tp757
g4
s(g38
L11L
L0L
tp758
g10
s(L14L
L22L
Ntp759
Ns(L15L
L25L
Ntp760
Ns(V20*
p761
L5L
L0L
tp762
g10
s(V11*D
p763
L3L
L0L
tp764
g43
s(V13*
p765
L10L
L0L
tp766
g4
s(V18*DS
p767
L9L
L0L
tp768
g10
s(L18L
L24L
Ntp769
Ns(L21L
L2L
L0L
tp770
g10
s(V13*AD
p771
L9L
L0L
tp772
g4
s(V17*D
p773
L9L
L0L
tp774
g10
s(V6*DS
p775
L6L
L0L
tp776
g4
s(V16*
p777
L5L
L0L
tp778
g10
s(L15L
L21L
Ntp779
Ns(V7*
p780
L4L
L0L
tp781
g4
s(V17*A
p782
L9L
L0L
tp783
g4
s(V10*DS
p784
L6L
L0L
tp785
g43
s(V18*
p786
L5L
L0L
tp787
g10
s(V6*D
p788
L9L
L0L
tp789
g4
s(V20*D
p790
L6L
L0L
tp791
g10
s(V14*AD
p792
L5L
L0L
tp793
g43
s(V13*A
p794
L2L
L0L
tp795
g4
s(V16*AD
p796
L11L
L0L
tp797
g4
s(V15*AD
p798
L5L
L0L
tp799
g43
s(L21L
NNtp800
Ns(V18*DS
p801
L5L
L0L
tp802
g10
s(V6*
p803
L10L
L0L
tp804
g4
s(V16*D
p805
L8L
L0L
tp806
g4
s(V15*A
p807
L9L
L0L
tp808
g4
s(V19*AD
p809
L21L
Ntp810
Ns(V18*A
p811
L5L
L0L
tp812
g10
s(V13*AD
p813
L5L
L0L
tp814
g4
s(V17*D
p815
L5L
L0L
tp816
g10
s(V8*D
p817
L7L
L0L
tp818
g4
s(V6*DS
p819
L10L
L0L
tp820
g4
s(V16*DS
p821
L5L
L0L
tp822
g10
s(V16*
p823
L9L
L0L
tp824
g4
s(V14*A
p825
L11L
L0L
tp826
g4
s(V7*
p827
L8L
L0L
tp828
g4
s(L8L
L18L
Ntp829
Ns(g809
L11L
L0L
tp830
g10
s(L8L
L21L
Ntp831
Ns(V6*D
p832
L5L
L0L
tp833
g4
s(V20*D
p834
L10L
L0L
tp835
g10
s(V12*
p836
L5L
L0L
tp837
g10
s(V12*DS
p838
L4L
L0L
tp839
g10
s(V16*AD
p840
L7L
L0L
tp841
g4
s(V15*D
p842
L2L
L0L
tp843
g10
s(L6L
L19L
Ntp844
Ns(V7*D
p845
L7L
L0L
tp846
g4
s(V6*
p847
L6L
L0L
tp848
g4
s(V19*D
p849
L2L
L0L
tp850
g10
s(L6L
L25L
Ntp851
Ns(g205
L21L
Ntp852
Ns(g581
L11L
L0L
tp853
g4
s(V21*A
p854
L5L
L0L
tp855
g10
s(V14*D
p856
L8L
L0L
tp857
g4
s(V5*D
p858
L3L
L0L
tp859
g4
s(V18*D
p860
L3L
L0L
tp861
g10
s(g160
L21L
Ntp862
Ns(g796
L21L
Ntp863
Ns(V12*
p864
L9L
L0L
tp865
g4
s(V8*
p866
L10L
L0L
tp867
g4
s(V12*DS
p868
L8L
L0L
tp869
g4
s(L20L
L25L
Ntp870
Ns(V10*D
p871
L9L
L0L
tp872
g43
s(V8*DS
p873
L2L
L0L
tp874
g4
s(V19*A
p875
L10L
L0L
tp876
g10
s(L9L
L17L
Ntp877
Ns(L9L
L22L
Ntp878
Ns(V20*
p879
L4L
L0L
tp880
g10
s(V11*D
p881
L2L
L0L
tp882
g43
s(V20*DS
p883
L6L
L0L
tp884
g10
s(L25L
NNtp885
Ns(L8L
L24L
Ntp886
Ns(V13*AD
p887
L8L
L0L
tp888
g4
s(V17*D
p889
L8L
L0L
tp890
g10
s(L14L
L20L
Ntp891
Ns(L26L
NNtp892
Ns(V7*
p893
L5L
L0L
tp894
g4
s(L21L
L26L
Ntp895
Ns(g518
L21L
Ntp896
Ns(V17*A
p897
L10L
L0L
tp898
g4
s(V10*DS
p899
L7L
L0L
tp900
g43
s(L21L
L19L
Ntp901
Ns(V18*
p902
L4L
L0L
tp903
g10
s(V20*D
p904
L5L
L0L
tp905
g10
s(V16*D
p906
L21L
Ntp907
Ns(V14*AD
p908
L2L
L0L
tp909
g4
s(L11L
L19L
Ntp910
Ns(V16*AD
p911
L10L
L0L
tp912
g4
s(V15*AD
p913
L6L
L0L
tp914
g43
s(L11L
L20L
Ntp915
Ns(V18*DS
p916
L2L
L0L
tp917
g10
s(V12*ADS
p918
L7L
L0L
tp919
g4
s(V6*
p920
L11L
L0L
tp921
g4
s(V16*D
p922
L9L
L0L
tp923
g4
s(V15*A
p924
L8L
L0L
tp925
g4
s(L14L
L18L
Ntp926
Ns(L4L
L23L
Ntp927
Ns(V18*A
p928
L6L
L0L
tp929
g10
s(V13*AD
p930
L4L
L0L
tp931
g4
s(V17*D
p932
L4L
L0L
tp933
g10
s(V8*D
p934
L6L
L0L
tp935
g4
s(L18L
L21L
Ntp936
Ns(V16*DS
p937
L4L
L0L
tp938
g10
s(V14*A
p939
L10L
L0L
tp940
g4
s(V7*
p941
L9L
L0L
tp942
g4
s(V13*D
p943
L3L
L0L
tp944
g10
s(V19*AD
p945
L4L
L0L
tp946
g10
s(L15L
L19L
Ntp947
Ns(V6*D
p948
L2L
L0L
tp949
g4
s(V14*
p950
L21L
Ntp951
Ns(V20*D
p952
L9L
L0L
tp953
g10
s(V12*DS
p954
L7L
L0L
tp955
g4
s(V16*AD
p956
L6L
L0L
tp957
g43
s(V6*
p958
L7L
L0L
tp959
g4
s(V7*D
p960
L8L
L0L
tp961
g4
s(L6L
L20L
Ntp962
Ns(V8*D
p963
L10L
L0L
tp964
g4
s(L8L
L26L
Ntp965
Ns(V21*A
p966
L6L
L0L
tp967
g10
s(L12L
L24L
Ntp968
Ns(V14*D
p969
L9L
L0L
tp970
g4
s(V5*D
p971
L2L
L0L
tp972
g4
s(V18*D
p973
L2L
L0L
tp974
g10
s(V8*
p975
L11L
L0L
tp976
g4
s(V12*DS
p977
L11L
L0L
tp978
g4
s(L27L
NNtp979
Ns(V8*DS
p980
L5L
L0L
tp981
g4
s(V12*D
p982
L21L
Ntp983
Ns(V19*A
p984
L9L
L0L
tp985
g10
s(L10L
L23L
Ntp986
Ns(V20*
p987
L7L
L0L
tp988
g10
s(V15*
p989
L2L
L0L
tp990
g10
s(V20*DS
p991
L7L
L0L
tp992
g10
s(L9L
L25L
Ntp993
Ns(g81
L21L
Ntp994
Ns(L9L
L23L
Ntp995
Ns(V10*D
p996
L2L
L0L
tp997
g43
s(V8*DS
p998
L9L
L0L
tp999
g4
s(g113
L11L
L0L
tp1000
g4
s(g110
L11L
L0L
tp1001
g10
s(L9L
L20L
Ntp1002
Ns(L16L
L19L
Ntp1003
Ns(V14*
p1004
L10L
L0L
tp1005
g4
s(g221
L11L
L0L
tp1006
g4
s(V15*A
p1007
L3L
L0L
tp1008
g4
s(V13*D
p1009
L21L
Ntp1010
Ns(V18*
p1011
L7L
L0L
tp1012
g10
s(L11L
L24L
Ntp1013
Ns(V20*D
p1014
L4L
L0L
tp1015
g10
s(V14*AD
p1016
L3L
L0L
tp1017
g4
s(V15*AD
p1018
L7L
L0L
tp1019
g4
s(V18*DS
p1020
L3L
L0L
tp1021
g10
s(V12*ADS
p1022
L6L
L0L
tp1023
g4
s(V16*D
p1024
L10L
L0L
tp1025
g4
s(g492
L11L
L0L
tp1026
g4
s(L29L
NNtp1027
Ns(V18*A
p1028
L7L
L0L
tp1029
g10
s(V13*AD
p1030
L7L
L0L
tp1031
g4
s(V17*D
p1032
L7L
L0L
tp1033
g10
s(V16*A
p1034
L3L
L0L
tp1035
g4
s(V14*D
p1036
L21L
Ntp1037
Ns(V16*DS
p1038
L3L
L0L
tp1039
g10
s(L21L
L24L
Ntp1040
Ns(V14*A
p1041
L9L
L0L
tp1042
g4
s(L14L
L25L
Ntp1043
Ns(L10L
L18L
Ntp1044
Ns(V13*D
p1045
L2L
L0L
tp1046
g10
s(V19*AD
p1047
L5L
L0L
tp1048
g10
s(L10L
L17L
Ntp1049
Ns(V14*DS
p1050
L2L
L0L
tp1051
g10
s(V6*D
p1052
L3L
L0L
tp1053
g4
s(V20*D
p1054
L8L
L0L
tp1055
g10
s(g825
L21L
Ntp1056
Ns(V12*DS
p1057
L6L
L0L
tp1058
g10
s(V22*
p1059
NNtp1060
Ns(V7*D
p1061
L9L
L0L
tp1062
g4
s(L8L
L17L
Ntp1063
Ns(V10*
p1064
L2L
L0L
tp1065
g4
s(L18L
L19L
Ntp1066
Ns(L21L
L23L
Ntp1067
Ns(V21*A
p1068
L7L
L0L
tp1069
g10
s(V17*
p1070
L3L
L0L
tp1071
g10
s(V8*DS
p1072
L21L
Ntp1073
Ns(V14*D
p1074
L10L
L0L
tp1075
g4
s(V9*
p1076
L3L
L0L
tp1077
g4
s(V18*D
p1078
L5L
L0L
tp1079
g10
s(V12*DS
p1080
L10L
L0L
tp1081
g4
s(V8*DS
p1082
L4L
L0L
tp1083
g4
s(V19*A
p1084
L8L
L0L
tp1085
g10
s(V20*AD
p1086
L3L
L0L
tp1087
g10
s(V20*
p1088
L6L
L0L
tp1089
g10
s(L16L
L26L
Ntp1090
Ns(V15*
p1091
L3L
L0L
tp1092
g10
s(V18*AD
p1093
L8L
L0L
tp1094
g10
s(L9L
L18L
Ntp1095
Ns(V20*DS
p1096
L4L
L0L
tp1097
g10
s(V23*
p1098
NNtp1099
Ns(V10*D
p1100
L3L
L0L
tp1101
g43
s(V8*DS
p1102
L8L
L0L
tp1103
g4
s(V13*AD
p1104
L10L
L0L
tp1105
g4
s(V17*AD
p1106
L3L
L0L
tp1107
g43
s(V17*D
p1108
L10L
L0L
tp1109
g10
s(g531
L21L
Ntp1110
Ns(g950
L11L
L0L
tp1111
g4
s(V17*A
p1112
L4L
L0L
tp1113
g4
s(L23L
NNtp1114
Ns(V18*
p1115
L6L
L0L
tp1116
g10
s(V13*
p1117
L3L
L0L
tp1118
g10
s(V18*AD
p1119
L4L
L0L
tp1120
g43
s(L8L
L20L
Ntp1121
Ns(L8L
L23L
Ntp1122
Ns(V15*AD
p1123
L8L
L0L
tp1124
g4
s(V12*ADS
p1125
L5L
L0L
tp1126
g4
s(g906
L11L
L0L
tp1127
g4
s(V15*A
p1128
L10L
L0L
tp1129
g4
s(L21L
L20L
Ntp1130
Ns(V13*AD
p1131
L6L
L0L
tp1132
g43
s(V17*D
p1133
L6L
L0L
tp1134
g10
s(V16*A
p1135
L2L
L0L
tp1136
g4
s(L16L
L21L
Ntp1137
Ns(V16*DS
p1138
L2L
L0L
tp1139
g10
s(L19L
L17L
Ntp1140
Ns(V14*A
p1141
L8L
L0L
tp1142
g4
s(g712
L21L
Ntp1143
Ns(V21*
p1144
L8L
L0L
tp1145
g10
s(V19*AD
p1146
L6L
L0L
tp1147
g10
s(V14*DS
p1148
L3L
L0L
tp1149
g10
s(V15*D
p1150
L7L
L0L
tp1151
g4
s(L20L
L24L
Ntp1152
Ns(V7*D
p1153
L10L
L0L
tp1154
g4
s(L20L
L18L
Ntp1155
Ns(V28*
p1156
NNtp1157
Ns(L15L
L23L
Ntp1158
Ns(V10*
p1159
L3L
L0L
tp1160
g4
s(V21*A
p1161
L8L
L0L
tp1162
g10
s(V17*
p1163
L2L
L0L
tp1164
g10
s(g1036
L11L
L0L
tp1165
g4
s(V9*
p1166
L2L
L0L
tp1167
g4
s(V21*
p1168
L4L
L0L
tp1169
g10
s(V18*D
p1170
L4L
L0L
tp1171
g10
s(L17L
L22L
Ntp1172
Ns(L8L
L25L
Ntp1173
Ns(V15*D
p1174
L11L
L0L
tp1175
g4
s(L20L
L20L
Ntp1176
Ns(V8*DS
p1177
L7L
L0L
tp1178
g4
s(V20*AD
p1179
L2L
L0L
tp1180
g10
s(V4*DS
p1181
L3L
L0L
tp1182
g4
s(L14L
L26L
Ntp1183
Ns(V18*AD
p1184
L9L
L0L
tp1185
g4
s(L21L
L17L
Ntp1186
Ns(V20*DS
p1187
L5L
L0L
tp1188
g10
s(L15L
L24L
Ntp1189
Ns(g1072
L11L
L0L
tp1190
g4
s(V17*AD
p1191
L2L
L0L
tp1192
g4
s(L19L
L24L
Ntp1193
Ns(V19*A
p1194
L3L
L0L
tp1195
g10
s(L4L
L17L
Ntp1196
Ns(L19L
L18L
Ntp1197
Ns(V14*
p1198
L8L
L0L
tp1199
g4
s(L9L
L26L
Ntp1200
Ns(V17*A
p1201
L5L
L0L
tp1202
g4
s(L18L
L25L
Ntp1203
Ns(V10*DS
p1204
L2L
L0L
tp1205
g43
s(g511
L21L
Ntp1206
Ns(V13*
p1207
L2L
L0L
tp1208
g10
s(V18*AD
p1209
L5L
L0L
tp1210
g43
s(V14*AD
p1211
L21L
Ntp1212
Ns(V15*AD
p1213
L9L
L0L
tp1214
g4
s(V12*ADS
p1215
L4L
L0L
tp1216
g4
s(L16L
L25L
Ntp1217
Ns(g533
L21L
Ntp1218
Ns(V14*A
p1219
L7L
L0L
tp1220
g4
s(V19*
p1221
L2L
L0L
tp1222
g10
s(V21*
p1223
L9L
L0L
tp1224
g10
s(L8L
L22L
Ntp1225
Ns(V19*AD
p1226
L7L
L0L
tp1227
g10
s(L20L
L23L
Ntp1228
Ns(V16*AD
p1229
L3L
L0L
tp1230
g4
s(V15*D
p1231
L6L
L0L
tp1232
g10
s(V6*
p1233
L2L
L0L
tp1234
g4
s(g577
L11L
L0L
tp1235
g4
s(L10L
L21L
Ntp1236
Ns(L18L
L18L
Ntp1237
Ns(V16*A
p1238
L9L
L0L
tp1239
g4
s(V21*A
p1240
L9L
L0L
tp1241
g10
s(L17L
L26L
Ntp1242
Ns(V21*
p1243
L5L
L0L
tp1244
g10
s(V18*D
p1245
L7L
L0L
tp1246
g10
s(L19L
L23L
Ntp1247
Ns(V14*DS
p1248
L8L
L0L
tp1249
g4
s(L20L
L26L
Ntp1250
Ns(V15*D
p1251
L10L
L0L
tp1252
g4
s(V8*DS
p1253
L6L
L0L
tp1254
g4
s(V12*ADS
p1255
L21L
Ntp1256
Ns(V20*AD
p1257
L5L
L0L
tp1258
g10
s(V4*DS
p1259
L2L
L0L
tp1260
g4
s(L9L
L21L
Ntp1261
Ns(g185
L21L
Ntp1262
Ns(V17*
p1263
L9L
L0L
tp1264
g10
s(V18*AD
p1265
L10L
L0L
tp1266
g4
s(L15L
L20L
Ntp1267
Ns(V20*DS
p1268
L10L
L0L
tp1269
g10
s(V8*
p1270
L2L
L0L
tp1271
g4
s(V8*DS
p1272
L10L
L0L
tp1273
g4
s(V20*A
p1274
L2L
L0L
tp1275
g10
s(V19*A
p1276
L2L
L0L
tp1277
g10
s(V14*
p1278
L9L
L0L
tp1279
g4
s(L21L
L25L
Ntp1280
Ns(g97
L21L
Ntp1281
Ns(V17*A
p1282
L6L
L0L
tp1283
g4
s(V10*DS
p1284
L3L
L0L
tp1285
g43
s(V13*
p1286
L5L
L0L
tp1287
g10
s(V18*AD
p1288
L6L
L0L
tp1289
g43
s(g134
L21L
Ntp1290
Ns(L14L
L21L
Ntp1291
Ns(V13*A
p1292
L9L
L0L
tp1293
g4
s(V15*AD
p1294
L10L
L0L
tp1295
g4
s(g1255
L11L
L0L
tp1296
g4
s(L19L
L26L
Ntp1297
Ns(V18*A
p1298
L2L
L0L
tp1299
g10
s(L8L
L19L
Ntp1300
Ns(V16*
p1301
L2L
L0L
tp1302
g10
s(g2
L21L
Ntp1303
Ns(V14*A
p1304
L6L
L0L
tp1305
g4
s(V19*
p1306
L3L
L0L
tp1307
g10
s(V21*
p1308
L10L
L0L
tp1309
g10
s(V13*D
p1310
L7L
L0L
tp1311
g4
s(V14*AD
p1312
L10L
L0L
tp1313
g4
s(L16L
L17L
Ntp1314
Ns(V13*A
p1315
L5L
L0L
tp1316
g4
s(V16*AD
p1317
L2L
L0L
tp1318
g4
s(V15*D
p1319
L5L
L0L
tp1320
g10
s(V6*
p1321
L3L
L0L
tp1322
g4
s(V12*D
p1323
L10L
L0L
tp1324
g4
s(L15L
L18L
Ntp1325
Ns(V16*A
p1326
L8L
L0L
tp1327
g4
s(g1174
L21L
Ntp1328
Ns(V21*A
p1329
L10L
L0L
tp1330
g10
s(V21*
p1331
L6L
L0L
tp1332
g10
s(L20L
L22L
Ntp1333
Ns(g1009
L11L
L0L
tp1334
g4
s(V18*D
p1335
L6L
L0L
tp1336
g10
s(L20L
L17L
Ntp1337
Ns(V14*DS
p1338
L9L
L0L
tp1339
g4
s(L22L
NNtp1340
Ns(V12*
p1341
L2L
L0L
tp1342
g4
s(V15*D
p1343
L9L
L0L
tp1344
g4
s(V12*D
p1345
L6L
L0L
tp1346
g10
s(V20*AD
p1347
L4L
L0L
tp1348
g10
s(V4*DS
p1349
L5L
L0L
tp1350
g4
s(L17L
L18L
Ntp1351
Ns(g8
L21L
Ntp1352
Ns(V17*
p1353
L8L
L0L
tp1354
g10
s(L17L
L24L
Ntp1355
Ns(V15*
p1356
L6L
L0L
tp1357
g10
s(V20*
p1358
L3L
L0L
tp1359
g10
s(g217
L11L
L0L
tp1360
g4
s(L19L
L25L
Ntp1361
Ns(g479
L11L
L0L
tp1362
g10
s(V11*
p1363
L10L
L0L
tp1364
g4
s(V8*
p1365
L3L
L0L
tp1366
g4
s(V10*D
p1367
L6L
L0L
tp1368
g43
s(V20*A
p1369
L3L
L0L
tp1370
g10
s(L21L
L21L
Ntp1371
Ns(V4*DS
p1372
L9L
L0L
tp1373
g4
s(L21L
L18L
Ntp1374
Ns(L14L
L19L
Ntp1375
Ns(L16L
L23L
Ntp1376
Ns(V14*
p1377
L6L
L0L
tp1378
g10
s(V17*A
p1379
L7L
L0L
tp1380
g4
s(V15*
p1381
L10L
L0L
tp1382
g4
s(V18*
p1383
L3L
L0L
tp1384
g10
s(V13*
p1385
L4L
L0L
tp1386
g10
s(V18*AD
p1387
L7L
L0L
tp1388
g10
s(L4L
L21L
Ntp1389
Ns(L12L
L22L
Ntp1390
Ns(L12L
L17L
Ntp1391
Ns(V13*A
p1392
L8L
L0L
tp1393
g4
s(V15*AD
p1394
L11L
L0L
tp1395
g4
s(V12*ADS
p1396
L10L
L0L
tp1397
g4
s(V11*
p1398
L6L
L0L
tp1399
g4
s(g1394
L21L
Ntp1400
Ns(V
p1401
g1401
L0L
tp1402
VBegin
p1403
s(V18*A
p1404
L3L
L0L
tp1405
g10
s(V13*AD
p1406
L3L
L0L
tp1407
g4
s(V17*D
p1408
L3L
L0L
tp1409
g10
s(V16*
p1410
L3L
L0L
tp1411
g10
s(V14*A
p1412
L5L
L0L
tp1413
g4
s(V7*
p1414
L2L
L0L
tp1415
g4
s(g587
L11L
L0L
tp1416
g10
s(V13*D
p1417
L6L
L0L
tp1418
g10
s(V10*DS
p1419
L8L
L0L
tp1420
g43
s(g1211
L11L
L0L
tp1421
g4
s(g977
L21L
Ntp1422
Ns(L6L
L22L
Ntp1423
Ns(V13*A
p1424
L4L
L0L
tp1425
g4
s(V15*D
p1426
L4L
L0L
tp1427
g10
s(g982
L11L
L0L
tp1428
g4
s(V16*D
p1429
L2L
L0L
tp1430
g10
s(V9*D
p1431
L10L
L0L
tp1432
g4
s.