(dp0
(L13L
L21L
Ntp1
Ns(V18*AD
p2
L4L
L-7L
tp3
VStay
p4
s(L13L
L18L
Ntp5
Ns(V20*AD
p6
L5L
L-7L
tp7
g4
s(L13L
L24L
Ntp8
Ns(V13*A
p9
L3L
L-7L
tp10
VDraw
p11
s(V13*A
p12
L5L
L-7L
tp13
g11
s(V19*A
p14
L8L
L-7L
tp15
g4
s(L6L
L26L
Ntp16
Ns(V11*D
p17
L21L
Ntp18
Ns(V19*
p19
L5L
L-7L
tp20
g4
s(V4*DS
p21
L4L
L-7L
tp22
g11
s(L15L
L26L
Ntp23
Ns(V19*
p24
L3L
L-7L
tp25
g4
s(L19L
L19L
Ntp26
Ns(L19L
L20L
Ntp27
Ns(V7*D
p28
L10L
L-7L
tp29
g11
s(V20*A
p30
L21L
Ntp31
Ns(V17*
p32
L2L
L-7L
tp33
g4
s(V19*AD
p34
L3L
L-7L
tp35
g4
s(L17L
L21L
Ntp36
Ns(V17*A
p37
L5L
L-7L
tp38
g11
s(V8*
p39
L11L
L-7L
tp40
g11
s(V14*DS
p41
L4L
L-7L
tp42
g11
s(V16*DS
p43
L2L
L-7L
tp44
g4
s(V14*A
p45
L10L
L-7L
tp46
g11
s(V14*AD
p47
L3L
L-7L
tp48
g11
s(V20*A
p49
L4L
L-7L
tp50
g4
s(V14*A
p51
L4L
L-7L
tp52
g11
s(V19*
p53
L10L
L-7L
tp54
g4
s(V16*
p55
L5L
L-7L
tp56
g4
s(V25*
p57
NNtp58
Ns(V20*D
p59
L11L
L-7L
tp60
g4
s(V8*DS
p61
L21L
Ntp62
Ns(V20*AD
p63
L9L
L-7L
tp64
g4
s(L4L
L24L
Ntp65
Ns(V7*D
p66
L5L
L-7L
tp67
g11
s(V12*
p68
L21L
Ntp69
Ns(L4L
L18L
Ntp70
Ns(V19*A
p71
L4L
L-7L
tp72
g4
s(L14L
L17L
Ntp73
Ns(V9*
p74
L3L
L-7L
tp75
g11
s(L18L
L22L
Ntp76
Ns(V4*DS
p77
L8L
L-7L
tp78
g11
s(V19*A
p79
L2L
L-7L
tp80
g4
s(V4*DS
p81
L2L
L-7L
tp82
g11
s(V12*
p83
L6L
L-7L
tp84
g11
s(V17*
p85
L4L
L-7L
tp86
g4
s(V12*
p87
L10L
L-7L
tp88
g11
s(V10*DS
p89
L21L
Ntp90
Ns(V4*DS
p91
L21L
Ntp92
Ns(V17*A
p93
L21L
Ntp94
Ns(V17*D
p95
L3L
L-7L
tp96
g4
s(L21L
L11L
L-7L
tp97
g4
s(V18*D
p98
L21L
Ntp99
Ns(V17*A
p100
L9L
L-7L
tp101
g11
s(L4L
L20L
Ntp102
Ns(V10*D
p103
L5L
L-7L
tp104
VDouble
p105
s(V5*D
p106
L6L
L-7L
tp107
g11
s(V17*D
p108
L9L
L-7L
tp109
g4
s(V12*ADS
p110
L5L
L-7L
tp111
g11
s(V10*D
p112
L3L
L-7L
tp113
g105
s(L21L
L7L
L-7L
tp114
g4
s(V14*DS
p115
L8L
L-7L
tp116
g11
s(V12*ADS
p117
L3L
L-7L
tp118
g11
s(V20*AD
p119
L6L
L-7L
tp120
g4
s(V10*DS
p121
L2L
L-7L
tp122
g105
s(V13*A
p123
L10L
L-7L
tp124
g11
s(V20*A
p125
L8L
L-7L
tp126
g4
s(L15L
L22L
Ntp127
Ns(V13*
p128
L11L
L-7L
tp129
g11
s(V19*A
p130
L11L
L-7L
tp131
g4
s(V13*AD
p132
L9L
L-7L
tp133
g11
s(V19*
p134
L6L
L-7L
tp135
g4
s(V13*AD
p136
L7L
L-7L
tp137
g11
s(V15*AD
p138
L10L
L-7L
tp139
g11
s(V13*
p140
L7L
L-7L
tp141
g11
s(L13L
L19L
Ntp142
Ns(L20L
L21L
Ntp143
Ns(V21*A
p144
L11L
L-7L
tp145
g4
s(V7*D
p146
L9L
L-7L
tp147
g11
s(L6L
L17L
Ntp148
Ns(V21*A
p149
L5L
L-7L
tp150
g4
s(V15*A
p151
L3L
L-7L
tp152
g11
s(V13*D
p153
L7L
L-7L
tp154
g11
s(V7*D
p155
L3L
L-7L
tp156
g11
s(L17L
L25L
Ntp157
Ns(V15*A
p158
L9L
L-7L
tp159
g11
s(V28*
p160
NNtp161
Ns(V11*
p162
L4L
L-7L
tp163
g11
s(V8*
p164
L6L
L-7L
tp165
g11
s(V11*
p166
L2L
L-7L
tp167
g11
s(V8*
p168
L8L
L-7L
tp169
g11
s(V18*AD
p170
L21L
Ntp171
Ns(V14*DS
p172
L7L
L-7L
tp173
g11
s(L19L
L21L
Ntp174
Ns(V19*D
p175
L3L
L-7L
tp176
g4
s(V20*
p177
L7L
L-7L
tp178
g4
s(L19L
L22L
Ntp179
Ns(L16L
L22L
Ntp180
Ns(V14*AD
p181
L4L
L-7L
tp182
g11
s(V19*D
p183
L9L
L-7L
tp184
g4
s(V20*A
p185
L7L
L-7L
tp186
g4
s(V6*D
p187
L2L
L-7L
tp188
g11
s(V6*D
p189
L8L
L-7L
tp190
g11
s(L21L
L22L
Ntp191
Ns(V20*AD
p192
L10L
L-7L
tp193
g4
s(V15*D
p194
L7L
L-7L
tp195
g11
s(V14*DS
p196
L21L
Ntp197
Ns(V10*DS
p198
L8L
L-7L
tp199
g11
s(V19*A
p200
L7L
L-7L
tp201
g4
s(V10*
p202
L6L
L-7L
tp203
g11
s(L12L
L21L
Ntp204
Ns(V14*AD
p205
L21L
Ntp206
Ns(V15*AD
p207
L6L
L-7L
tp208
g105
s(V9*
p209
L10L
L-7L
tp210
g11
s(V15*
p211
L8L
L-7L
tp212
g11
s(V15*
p213
L2L
L-7L
tp214
g11
s(V11*D
p215
L2L
L-7L
tp216
g105
s(L20L
L19L
Ntp217
Ns(V15*
p218
L4L
L-7L
tp219
g4
s(V13*D
p220
L11L
L-7L
tp221
g11
s(L4L
L26L
Ntp222
Ns(V15*A
p223
L5L
L-7L
tp224
g11
s(L17L
L19L
Ntp225
Ns(V16*DS
p226
L21L
Ntp227
Ns(V16*A
p228
L10L
L-7L
tp229
g11
s(V10*D
p230
L8L
L-7L
tp231
g11
s(V5*D
p232
L11L
L-7L
tp233
g11
s(V17*D
p234
L4L
L-7L
tp235
g4
s(V12*ADS
p236
L8L
L-7L
tp237
g11
s(V7*
p238
L10L
L-7L
tp239
g11
s(V5*D
p240
L5L
L-7L
tp241
g11
s(V10*D
p242
L6L
L-7L
tp243
g105
s(V17*D
p244
L10L
L-7L
tp245
g4
s(L21L
L2L
L-7L
tp246
g4
s(V12*ADS
p247
L6L
L-7L
tp248
g11
s(L11L
L21L
Ntp249
Ns(L11L
L22L
Ntp250
Ns(V
p251
g251
L-7L
tp252
VBegin
p253
s(g196
L11L
L-7L
tp254
g11
s(L6L
L24L
Ntp255
Ns(V6*DS
p256
L21L
Ntp257
Ns(V20*
p258
L11L
L-7L
tp259
g4
s(V12*D
p260
L10L
L-7L
tp261
g11
s(V14*AD
p262
L8L
L-7L
tp263
g11
s(V19*D
p264
L5L
L-7L
tp265
g4
s(g30
L11L
L-7L
tp266
g4
s(V12*D
p267
L4L
L-7L
tp268
g11
s(V13*AD
p269
L10L
L-7L
tp270
g11
s(L13L
L22L
Ntp271
Ns(V13*
p272
L2L
L-7L
tp273
g11
s(V18*
p274
L2L
L-7L
tp275
g4
s(V20*DS
p276
L5L
L-7L
tp277
g4
s(V15*AD
p278
L9L
L-7L
tp279
g11
s(V6*D
p280
L4L
L-7L
tp281
g11
s(V18*
p282
L4L
L-7L
tp283
g4
s(V17*AD
p284
L5L
L-7L
tp285
g105
s(V21*A
p286
L8L
L-7L
tp287
g4
s(V17*AD
p288
L3L
L-7L
tp289
g11
s(V20*DS
p290
L9L
L-7L
tp291
g4
s(V16*AD
p292
L2L
L-7L
tp293
g11
s(V19*
p294
L21L
Ntp295
Ns(V14*
p296
L7L
L-7L
tp297
g11
s(V13*D
p298
L4L
L-7L
tp299
g11
s(V8*DS
p300
L8L
L-7L
tp301
g11
s(V15*D
p302
L11L
L-7L
tp303
g11
s(V16*AD
p304
L4L
L-7L
tp305
g11
s(V21*A
p306
L2L
L-7L
tp307
g4
s(V11*
p308
L9L
L-7L
tp309
g11
s(V8*DS
p310
L6L
L-7L
tp311
g11
s(L24L
NNtp312
Ns(V14*
p313
L11L
L-7L
tp314
g11
s(V11*
p315
L7L
L-7L
tp316
g11
s(L12L
L19L
Ntp317
Ns(V9*
p318
L6L
L-7L
tp319
g11
s(L12L
L26L
Ntp320
Ns(V18*A
p321
L5L
L-7L
tp322
g4
s(V8*D
p323
L8L
L-7L
tp324
g11
s(V18*DS
p325
L8L
L-7L
tp326
g4
s(V18*A
p327
L3L
L-7L
tp328
g4
s(V20*
p329
L4L
L-7L
tp330
g4
s(L17L
L17L
Ntp331
Ns(V11*D
p332
L8L
L-7L
tp333
g105
s(V6*
p334
L7L
L-7L
tp335
g11
s(V16*D
p336
L2L
L-7L
tp337
g4
s(g313
L21L
Ntp338
Ns(V7*
p339
L6L
L-7L
tp340
g11
s(V12*DS
p341
L3L
L-7L
tp342
g11
s(V9*D
p343
L8L
L-7L
tp344
g11
s(L10L
L22L
Ntp345
Ns(V12*DS
p346
L9L
L-7L
tp347
g11
s(V18*AD
p348
L3L
L-7L
tp349
g4
s(L6L
L18L
Ntp350
Ns(V10*
p351
L3L
L-7L
tp352
g11
s(V17*
p353
L21L
Ntp354
Ns(V10*DS
p355
L7L
L-7L
tp356
g11
s(V10*
p357
L9L
L-7L
tp358
g11
s(V18*DS
p359
L21L
Ntp360
Ns(V8*D
p361
L21L
Ntp362
Ns(V15*AD
p363
L5L
L-7L
tp364
g11
s(L13L
L25L
Ntp365
Ns(L4L
L22L
Ntp366
Ns(L18L
L20L
Ntp367
Ns(V18*D
p368
L7L
L-7L
tp369
g4
s(V13*D
p370
L8L
L-7L
tp371
g11
s(V16*A
p372
L7L
L-7L
tp373
g11
s(L18L
L26L
Ntp374
Ns(V13*D
p375
L2L
L-7L
tp376
g11
s(V16*A
p377
L9L
L-7L
tp378
g11
s(L11L
L26L
Ntp379
Ns(g302
L21L
Ntp380
Ns(V7*
p381
L9L
L-7L
tp382
g11
s(V14*D
p383
L6L
L-7L
tp384
g4
s(V19*AD
p385
L4L
L-7L
tp386
g4
s(L11L
L25L
Ntp387
Ns(V18*DS
p388
L4L
L-7L
tp389
g4
s(V8*D
p390
L4L
L-7L
tp391
g11
s(V8*D
p392
L2L
L-7L
tp393
g11
s(V18*DS
p394
L2L
L-7L
tp395
g4
s(V20*
p396
L8L
L-7L
tp397
g4
s(V12*D
p398
L9L
L-7L
tp399
g11
s(V20*
p400
L2L
L-7L
tp401
g4
s(V12*D
p402
L3L
L-7L
tp403
g11
s(L10L
L26L
Ntp404
Ns(L10L
L25L
Ntp405
Ns(g226
L11L
L-7L
tp406
g11
s(V17*AD
p407
L8L
L-7L
tp408
g11
s(V20*DS
p409
L2L
L-7L
tp410
g4
s(V14*A
p411
L3L
L-7L
tp412
g11
s(V18*
p413
L11L
L-7L
tp414
g4
s(V17*AD
p415
L6L
L-7L
tp416
g105
s(V9*D
p417
L4L
L-7L
tp418
g11
s(V16*
p419
L6L
L-7L
tp420
g4
s(V20*D
p421
L6L
L-7L
tp422
g4
s(V12*DS
p423
L5L
L-7L
tp424
g11
s(V9*D
p425
L2L
L-7L
tp426
g11
s(V20*D
p427
L8L
L-7L
tp428
g4
s(g61
L11L
L-7L
tp429
g11
s(V21*
p430
L3L
L-7L
tp431
g4
s(V16*AD
p432
L11L
L-7L
tp433
g11
s(V16*
p434
L10L
L-7L
tp435
g11
s(V21*
p436
L9L
L-7L
tp437
g4
s(V15*AD
p438
L21L
Ntp439
Ns(L13L
L20L
Ntp440
Ns(V18*A
p441
L8L
L-7L
tp442
g4
s(V6*DS
p443
L7L
L-7L
tp444
g11
s(V18*A
p445
L6L
L-7L
tp446
g4
s(g361
L11L
L-7L
tp447
g11
s(g359
L11L
L-7L
tp448
g4
s(V6*
p449
L2L
L-7L
tp450
g11
s(V11*D
p451
L7L
L-7L
tp452
g105
s(V6*
p453
L8L
L-7L
tp454
g11
s(L14L
L23L
Ntp455
Ns(V16*D
p456
L5L
L-7L
tp457
g4
s(V17*
p458
L9L
L-7L
tp459
g4
s(V7*
p460
L5L
L-7L
tp461
g11
s(V17*
p462
L7L
L-7L
tp463
g4
s(L28L
NNtp464
Ns(V19*AD
p465
L8L
L-7L
tp466
g4
s(L12L
L18L
Ntp467
Ns(V17*A
p468
L10L
L-7L
tp469
g11
s(V9*D
p470
L11L
L-7L
tp471
g11
s(L16L
L18L
Ntp472
Ns(V17*A
p473
L6L
L-7L
tp474
g11
s(V18*AD
p475
L10L
L-7L
tp476
g11
s(V13*A
p477
L7L
L-7L
tp478
g11
s(V22*
p479
NNtp480
Ns(V13*A
p481
L9L
L-7L
tp482
g11
s(L9L
L19L
Ntp483
Ns(V12*DS
p484
L21L
Ntp485
Ns(V14*A
p486
L9L
L-7L
tp487
g11
s(V18*D
p488
L2L
L-7L
tp489
g4
s(V18*D
p490
L8L
L-7L
tp491
g4
s(L14L
L24L
Ntp492
Ns(V21*
p493
L5L
L-7L
tp494
g4
s(V14*D
p495
L11L
L-7L
tp496
g11
s(V14*D
p497
L5L
L-7L
tp498
g4
s(g256
L11L
L-7L
tp499
g11
s(L13L
L17L
Ntp500
Ns(V19*AD
p501
L7L
L-7L
tp502
g4
s(L13L
L23L
Ntp503
Ns(V8*D
p504
L7L
L-7L
tp505
g11
s(V18*DS
p506
L7L
L-7L
tp507
g4
s(L6L
L23L
Ntp508
Ns(V26*
p509
NNtp510
Ns(V16*D
p511
L9L
L-7L
tp512
g11
s(V16*DS
p513
L6L
L-7L
tp514
g4
s(L11L
L18L
Ntp515
Ns(g220
L21L
Ntp516
Ns(V16*DS
p517
L8L
L-7L
tp518
g11
s(V9*D
p519
L7L
L-7L
tp520
g11
s(V20*D
p521
L5L
L-7L
tp522
g4
s(L18L
L23L
Ntp523
Ns(V18*AD
p524
L6L
L-7L
tp525
g105
s(V20*AD
p526
L3L
L-7L
tp527
g4
s(L15L
L17L
Ntp528
Ns(L10L
L24L
Ntp529
Ns(V6*DS
p530
L4L
L-7L
tp531
g11
s(V4*DS
p532
L6L
L-7L
tp533
g11
s(L17L
L20L
Ntp534
Ns(L12L
L23L
Ntp535
Ns(V17*
p536
L10L
L-7L
tp537
g4
s(V12*
p538
L8L
L-7L
tp539
g11
s(L12L
L25L
Ntp540
Ns(V15*A
p541
L6L
L-7L
tp542
g11
s(V19*AD
p543
L11L
L-7L
tp544
g4
s(V5*D
p545
L2L
L-7L
tp546
g11
s(L21L
L5L
L-7L
tp547
g4
s(V15*A
p548
L10L
L-7L
tp549
g11
s(V17*A
p550
L3L
L-7L
tp551
g11
s(V8*
p552
L3L
L-7L
tp553
g11
s(V8*
p554
L5L
L-7L
tp555
g11
s(V14*DS
p556
L2L
L-7L
tp557
g11
s(V13*A
p558
L4L
L-7L
tp559
g11
s(L11L
L23L
Ntp560
Ns(g205
L11L
L-7L
tp561
g11
s(V19*D
p562
L6L
L-7L
tp563
g4
s(L11L
L17L
Ntp564
Ns(L4L
L25L
Ntp565
Ns(V20*A
p566
L2L
L-7L
tp567
g4
s(V19*
p568
L2L
L-7L
tp569
g4
s(V13*
p570
L5L
L-7L
tp571
g11
s(V14*A
p572
L6L
L-7L
tp573
g11
s(V14*AD
p574
L7L
L-7L
tp575
g11
s(V19*D
p576
L10L
L-7L
tp577
g4
s(L4L
L19L
Ntp578
Ns(V19*
p579
L8L
L-7L
tp580
g4
s(V6*D
p581
L7L
L-7L
tp582
g11
s(L16L
L20L
Ntp583
Ns(V20*D
p584
L3L
L-7L
tp585
g4
s(L18L
L17L
Ntp586
Ns(L9L
L24L
Ntp587
Ns(V6*D
p588
L11L
L-7L
tp589
g11
s(L13L
L26L
Ntp590
Ns(V7*D
p591
L7L
L-7L
tp592
g11
s(V15*D
p593
L8L
L-7L
tp594
g11
s(V6*DS
p595
L8L
L-7L
tp596
g11
s(V15*D
p597
L2L
L-7L
tp598
g11
s(L30L
NNtp599
Ns(V6*DS
p600
L2L
L-7L
tp601
g11
s(V15*D
p602
L4L
L-7L
tp603
g4
s(V9*
p604
L5L
L-7L
tp605
g11
s(V4*DS
p606
L10L
L-7L
tp607
g11
s(L16L
L24L
Ntp608
Ns(V9*
p609
L9L
L-7L
tp610
g11
s(V12*
p611
L4L
L-7L
tp612
g11
s(L12L
L20L
Ntp613
Ns(V12*
p614
L2L
L-7L
tp615
g11
s(L21L
L9L
L-7L
tp616
g4
s(L17L
L23L
Ntp617
Ns(L6L
L21L
Ntp618
Ns(V5*D
p619
L8L
L-7L
tp620
g11
s(V10*D
p621
L11L
L-7L
tp622
g11
s(V17*D
p623
L7L
L-7L
tp624
g4
s(V12*ADS
p625
L11L
L-7L
tp626
g11
s(L10L
L20L
Ntp627
Ns(L10L
L19L
Ntp628
Ns(V20*AD
p629
L4L
L-7L
tp630
g4
s(V10*DS
p631
L10L
L-7L
tp632
g11
s(V13*A
p633
L2L
L-7L
tp634
g11
s(V10*
p635
L4L
L-7L
tp636
g11
s(V10*DS
p637
L4L
L-7L
tp638
g105
s(V19*A
p639
L3L
L-7L
tp640
g4
s(g128
L21L
Ntp641
Ns(V10*
p642
L10L
L-7L
tp643
g11
s(V13*
p644
L9L
L-7L
tp645
g11
s(V19*A
p646
L9L
L-7L
tp647
g4
s(V15*AD
p648
L2L
L-7L
tp649
g11
s(V19*
p650
L4L
L-7L
tp651
g4
s(V13*AD
p652
L5L
L-7L
tp653
g11
s(L14L
L22L
Ntp654
Ns(V15*
p655
L6L
L-7L
tp656
g4
s(V13*AD
p657
L3L
L-7L
tp658
g11
s(L15L
L25L
Ntp659
Ns(g68
L11L
L-7L
tp660
g11
s(V7*D
p661
L11L
L-7L
tp662
g11
s(V21*A
p663
L7L
L-7L
tp664
g4
s(V10*D
p665
L2L
L-7L
tp666
g105
s(L21L
L6L
L-7L
tp667
g4
s(V12*ADS
p668
L2L
L-7L
tp669
g11
s(V11*
p670
L10L
L-7L
tp671
g11
s(L18L
L24L
Ntp672
Ns(V8*
p673
L10L
L-7L
tp674
g11
s(V14*DS
p675
L5L
L-7L
tp676
g4
s(L15L
L21L
Ntp677
Ns(V14*AD
p678
L2L
L-7L
tp679
g11
s(V20*A
p680
L5L
L-7L
tp681
g4
s(V13*
p682
L6L
L-7L
tp683
g11
s(V18*
p684
L6L
L-7L
tp685
g4
s(V18*
p686
L8L
L-7L
tp687
g4
s(g413
L21L
Ntp688
Ns(V20*DS
p689
L11L
L-7L
tp690
g4
s(L21L
NNtp691
Ns(V12*DS
p692
L6L
L-7L
tp693
g11
s(V16*AD
p694
L6L
L-7L
tp695
g105
s(V20*AD
p696
L8L
L-7L
tp697
g4
s(V16*AD
p698
L8L
L-7L
tp699
g11
s(V14*
p700
L9L
L-7L
tp701
g11
s(V12*DS
p702
L10L
L-7L
tp703
g11
s(V11*
p704
L3L
L-7L
tp705
g11
s(V19*A
p706
L5L
L-7L
tp707
g4
s(V18*A
p708
L21L
Ntp709
Ns(V9*
p710
L2L
L-7L
tp711
g11
s(V27*
p712
NNtp713
Ns(L8L
L18L
Ntp714
Ns(L8L
L21L
Ntp715
Ns(V15*
p716
L10L
L-7L
tp717
g11
s(V11*D
p718
L10L
L-7L
tp719
g11
s(V6*
p720
L5L
L-7L
tp721
g11
s(V12*
p722
L7L
L-7L
tp723
g11
s(V11*D
p724
L4L
L-7L
tp725
g105
s(L6L
L19L
Ntp726
Ns(V6*
p727
L11L
L-7L
tp728
g11
s(V16*A
p729
L2L
L-7L
tp730
g11
s(L6L
L25L
Ntp731
Ns(g689
L21L
Ntp732
Ns(V7*
p733
L2L
L-7L
tp734
g11
s(V16*A
p735
L4L
L-7L
tp736
g11
s(V17*D
p737
L2L
L-7L
tp738
g4
s(L21L
L10L
L-7L
tp739
g4
s(V17*AD
p740
L21L
Ntp741
Ns(V10*D
p742
L4L
L-7L
tp743
g105
s(V5*D
p744
L7L
L-7L
tp745
g11
s(V17*D
p746
L8L
L-7L
tp747
g4
s(V12*ADS
p748
L4L
L-7L
tp749
g11
s(V14*DS
p750
L9L
L-7L
tp751
g11
s(V10*DS
p752
L9L
L-7L
tp753
g11
s(g59
L21L
Ntp754
Ns(V10*
p755
L7L
L-7L
tp756
g11
s(V10*DS
p757
L3L
L-7L
tp758
g105
s(V20*A
p759
L9L
L-7L
tp760
g4
s(L20L
L25L
Ntp761
Ns(V12*D
p762
L6L
L-7L
tp763
g11
s(V13*AD
p764
L8L
L-7L
tp765
g11
s(V13*
p766
L10L
L-7L
tp767
g11
s(L9L
L17L
Ntp768
Ns(V13*AD
p769
L6L
L-7L
tp770
g11
s(V20*DS
p771
L7L
L-7L
tp772
g4
s(g438
L11L
L-7L
tp773
g11
s(L9L
L22L
Ntp774
Ns(V15*
p775
L5L
L-7L
tp776
g4
s(V18*D
p777
L5L
L-7L
tp778
g4
s(g740
L11L
L-7L
tp779
g11
s(V21*A
p780
L10L
L-7L
tp781
g4
s(g98
L11L
L-7L
tp782
g4
s(V21*A
p783
L4L
L-7L
tp784
g4
s(V14*
p785
L5L
L-7L
tp786
g4
s(V13*D
p787
L6L
L-7L
tp788
g11
s(V21*
p789
L6L
L-7L
tp790
g4
s(V14*
p791
L3L
L-7L
tp792
g11
s(V8*DS
p793
L4L
L-7L
tp794
g11
s(V14*D
p795
L2L
L-7L
tp796
g11
s(V11*
p797
L5L
L-7L
tp798
g11
s(V8*DS
p799
L2L
L-7L
tp800
g11
s(V21*
p801
L10L
L-7L
tp802
g4
s(L25L
NNtp803
Ns(g708
L11L
L-7L
tp804
g11
s(L8L
L24L
Ntp805
Ns(L14L
L20L
Ntp806
Ns(V24*
p807
NNtp808
Ns(V20*
p809
L6L
L-7L
tp810
g4
s(V16*D
p811
L10L
L-7L
tp812
g11
s(V17*D
p813
L21L
Ntp814
Ns(L26L
NNtp815
Ns(L21L
L26L
Ntp816
Ns(L21L
L19L
Ntp817
Ns(V18*
p818
L5L
L-7L
tp819
g4
s(V16*D
p820
L6L
L-7L
tp821
g4
s(V17*AD
p822
L2L
L-7L
tp823
g11
s(V20*DS
p824
L8L
L-7L
tp825
g4
s(L11L
L19L
Ntp826
Ns(L11L
L20L
Ntp827
Ns(V14*A
p828
L21L
Ntp829
Ns(V16*AD
p830
L5L
L-7L
tp831
g105
s(V16*
p832
L8L
L-7L
tp833
g11
s(L14L
L18L
Ntp834
Ns(L4L
L23L
Ntp835
Ns(V18*AD
p836
L5L
L-7L
tp837
g105
s(V14*
p838
L10L
L-7L
tp839
g11
s(L18L
L21L
Ntp840
Ns(V18*AD
p841
L9L
L-7L
tp842
g11
s(V18*A
p843
L2L
L-7L
tp844
g4
s(V15*AD
p845
L7L
L-7L
tp846
g11
s(V15*
p847
L9L
L-7L
tp848
g11
s(L15L
L19L
Ntp849
Ns(V11*D
p850
L9L
L-7L
tp851
g11
s(V6*
p852
L6L
L-7L
tp853
g11
s(V15*
p854
L3L
L-7L
tp855
g4
s(V11*D
p856
L3L
L-7L
tp857
g105
s(V13*D
p858
L10L
L-7L
tp859
g11
s(V16*A
p860
L21L
Ntp861
Ns(g860
L11L
L-7L
tp862
g11
s(L6L
L20L
Ntp863
Ns(V7*
p864
L11L
L-7L
tp865
g11
s(L8L
L26L
Ntp866
Ns(V14*D
p867
L8L
L-7L
tp868
g11
s(V19*AD
p869
L2L
L-7L
tp870
g4
s(L12L
L24L
Ntp871
Ns(V17*A
p872
L4L
L-7L
tp873
g11
s(V20*
p874
L10L
L-7L
tp875
g4
s(V12*D
p876
L11L
L-7L
tp877
g11
s(L27L
NNtp878
Ns(V12*D
p879
L5L
L-7L
tp880
g11
s(V16*DS
p881
L3L
L-7L
tp882
g4
s(L10L
L23L
Ntp883
Ns(g828
L11L
L-7L
tp884
g11
s(V18*
p885
L3L
L-7L
tp886
g4
s(V16*DS
p887
L5L
L-7L
tp888
g4
s(V20*DS
p889
L4L
L-7L
tp890
g4
s(V14*A
p891
L5L
L-7L
tp892
g11
s(V18*D
p893
L6L
L-7L
tp894
g4
s(V17*AD
p895
L4L
L-7L
tp896
g105
s(V16*
p897
L4L
L-7L
tp898
g4
s(V16*AD
p899
L3L
L-7L
tp900
g11
s(V16*
p901
L2L
L-7L
tp902
g4
s(V14*
p903
L6L
L-7L
tp904
g4
s(V20*D
p905
L10L
L-7L
tp906
g4
s(V8*DS
p907
L9L
L-7L
tp908
g11
s(V8*DS
p909
L7L
L-7L
tp910
g11
s(g495
L21L
Ntp911
Ns(L9L
L25L
Ntp912
Ns(L9L
L23L
Ntp913
Ns(V8*D
p914
L3L
L-7L
tp915
g11
s(V18*DS
p916
L3L
L-7L
tp917
g4
s(V18*A
p918
L4L
L-7L
tp919
g4
s(L9L
L20L
Ntp920
Ns(V8*D
p921
L9L
L-7L
tp922
g11
s(V4*DS
p923
L9L
L-7L
tp924
g11
s(V18*DS
p925
L9L
L-7L
tp926
g4
s(V4*DS
p927
L3L
L-7L
tp928
g11
s(L16L
L19L
Ntp929
Ns(V4*DS
p930
L5L
L-7L
tp931
g11
s(V16*D
p932
L3L
L-7L
tp933
g4
s(L11L
L24L
Ntp934
Ns(V7*
p935
L7L
L-7L
tp936
g11
s(V17*
p937
L5L
L-7L
tp938
g4
s(V9*D
p939
L3L
L-7L
tp940
g11
s(V17*
p941
L3L
L-7L
tp942
g4
s(V17*A
p943
L8L
L-7L
tp944
g11
s(V9*D
p945
L9L
L-7L
tp946
g11
s(V16*
p947
L11L
L-7L
tp948
g11
s(V21*
p949
L21L
Ntp950
Ns(L29L
NNtp951
Ns(V18*AD
p952
L2L
L-7L
tp953
g4
s(L21L
L24L
Ntp954
Ns(V13*A
p955
L11L
L-7L
tp956
g11
s(L14L
L25L
Ntp957
Ns(L10L
L18L
Ntp958
Ns(L10L
L17L
Ntp959
Ns(V19*
p960
L7L
L-7L
tp961
g4
s(g294
L11L
L-7L
tp962
g4
s(V7*D
p963
L8L
L-7L
tp964
g11
s(L8L
L17L
Ntp965
Ns(L18L
L19L
Ntp966
Ns(V7*D
p967
L2L
L-7L
tp968
g11
s(V15*A
p969
L8L
L-7L
tp970
g11
s(V14*D
p971
L7L
L-7L
tp972
g11
s(V7*D
p973
L4L
L-7L
tp974
g11
s(L21L
L23L
Ntp975
Ns(V19*AD
p976
L5L
L-7L
tp977
g4
s(V17*A
p978
L7L
L-7L
tp979
g11
s(V8*
p980
L7L
L-7L
tp981
g11
s(V8*D
p982
L5L
L-7L
tp983
g11
s(V18*DS
p984
L5L
L-7L
tp985
g4
s(g144
L21L
Ntp986
Ns(V8*
p987
L9L
L-7L
tp988
g11
s(V14*A
p989
L8L
L-7L
tp990
g11
s(V14*AD
p991
L5L
L-7L
tp992
g11
s(V16*DS
p993
L10L
L-7L
tp994
g11
s(V19*D
p995
L8L
L-7L
tp996
g4
s(V14*A
p997
L2L
L-7L
tp998
g11
s(V9*D
p999
L5L
L-7L
tp1000
g11
s(V16*
p1001
L7L
L-7L
tp1002
g11
s(V20*D
p1003
L7L
L-7L
tp1004
g4
s(V6*D
p1005
L9L
L-7L
tp1006
g11
s(L16L
L26L
Ntp1007
Ns(V20*D
p1008
L9L
L-7L
tp1009
g4
s(V20*AD
p1010
L11L
L-7L
tp1011
g4
s(L9L
L18L
Ntp1012
Ns(V15*D
p1013
L6L
L-7L
tp1014
g4
s(V20*AD
p1015
L7L
L-7L
tp1016
g4
s(V6*DS
p1017
L6L
L-7L
tp1018
g11
s(V19*A
p1019
L6L
L-7L
tp1020
g4
s(V16*D
p1021
L21L
Ntp1022
Ns(V9*
p1023
L11L
L-7L
tp1024
g11
s(V19*A
p1025
L10L
L-7L
tp1026
g4
s(V17*
p1027
L8L
L-7L
tp1028
g4
s(L23L
NNtp1029
Ns(L8L
L20L
Ntp1030
Ns(L8L
L23L
Ntp1031
Ns(V17*
p1032
L6L
L-7L
tp1033
g4
s(V15*A
p1034
L4L
L-7L
tp1035
g11
s(V10*D
p1036
L9L
L-7L
tp1037
g11
s(V5*D
p1038
L10L
L-7L
tp1039
g11
s(V17*D
p1040
L5L
L-7L
tp1041
g4
s(V19*AD
p1042
L9L
L-7L
tp1043
g4
s(V12*ADS
p1044
L9L
L-7L
tp1045
g11
s(g93
L11L
L-7L
tp1046
g11
s(V5*D
p1047
L4L
L-7L
tp1048
g11
s(V10*D
p1049
L7L
L-7L
tp1050
g11
s(g813
L11L
L-7L
tp1051
g11
s(L21L
L3L
L-7L
tp1052
g4
s(V12*ADS
p1053
L7L
L-7L
tp1054
g11
s(V15*A
p1055
L2L
L-7L
tp1056
g11
s(L21L
L20L
Ntp1057
Ns(V14*DS
p1058
L10L
L-7L
tp1059
g11
s(L16L
L21L
Ntp1060
Ns(V13*A
p1061
L6L
L-7L
tp1062
g11
s(V14*DS
p1063
L6L
L-7L
tp1064
g4
s(L19L
L17L
Ntp1065
Ns(V14*AD
p1066
L9L
L-7L
tp1067
g11
s(V19*D
p1068
L4L
L-7L
tp1069
g4
s(V20*A
p1070
L10L
L-7L
tp1071
g4
s(V13*A
p1072
L8L
L-7L
tp1073
g11
s(V19*D
p1074
L2L
L-7L
tp1075
g4
s(V13*AD
p1076
L21L
Ntp1077
Ns(V13*
p1078
L3L
L-7L
tp1079
g11
s(V20*A
p1080
L6L
L-7L
tp1081
g4
s(V6*D
p1082
L5L
L-7L
tp1083
g11
s(L20L
L24L
Ntp1084
Ns(V6*D
p1085
L3L
L-7L
tp1086
g11
s(L20L
L18L
Ntp1087
Ns(L15L
L23L
Ntp1088
Ns(V21*A
p1089
L3L
L-7L
tp1090
g4
s(V15*D
p1091
L10L
L-7L
tp1092
g11
s(g543
L21L
Ntp1093
Ns(V15*A
p1094
L11L
L-7L
tp1095
g11
s(V11*
p1096
L8L
L-7L
tp1097
g11
s(V6*DS
p1098
L10L
L-7L
tp1099
g11
s(V11*
p1100
L6L
L-7L
tp1101
g11
s(V8*
p1102
L4L
L-7L
tp1103
g11
s(V9*
p1104
L7L
L-7L
tp1105
g11
s(L17L
L22L
Ntp1106
Ns(L8L
L25L
Ntp1107
Ns(L20L
L20L
Ntp1108
Ns(V14*AD
p1109
L6L
L-7L
tp1110
g11
s(V19*D
p1111
L11L
L-7L
tp1112
g4
s(g470
L21L
Ntp1113
Ns(L14L
L26L
Ntp1114
Ns(V6*D
p1115
L10L
L-7L
tp1116
g11
s(g625
L21L
Ntp1117
Ns(L21L
L17L
Ntp1118
Ns(g621
L21L
Ntp1119
Ns(V12*DS
p1120
L8L
L-7L
tp1121
g11
s(V20*AD
p1122
L2L
L-7L
tp1123
g4
s(V10*
p1124
L2L
L-7L
tp1125
g11
s(V15*D
p1126
L5L
L-7L
tp1127
g4
s(L15L
L24L
Ntp1128
Ns(V10*DS
p1129
L6L
L-7L
tp1130
g105
s(V10*
p1131
L8L
L-7L
tp1132
g11
s(L19L
L24L
Ntp1133
Ns(L4L
L17L
Ntp1134
Ns(L19L
L18L
Ntp1135
Ns(V15*AD
p1136
L4L
L-7L
tp1137
g11
s(V9*
p1138
L8L
L-7L
tp1139
g11
s(g1076
L11L
L-7L
tp1140
g11
s(V12*
p1141
L3L
L-7L
tp1142
g11
s(L9L
L26L
Ntp1143
Ns(L18L
L25L
Ntp1144
Ns(V15*AD
p1145
L8L
L-7L
tp1146
g11
s(V12*
p1147
L9L
L-7L
tp1148
g11
s(V13*D
p1149
L9L
L-7L
tp1150
g11
s(V16*A
p1151
L6L
L-7L
tp1152
g11
s(g955
L21L
Ntp1153
Ns(V21*A
p1154
L9L
L-7L
tp1155
g4
s(V13*D
p1156
L3L
L-7L
tp1157
g11
s(V15*A
p1158
L7L
L-7L
tp1159
g11
s(V16*A
p1160
L8L
L-7L
tp1161
g11
s(V5*D
p1162
L9L
L-7L
tp1163
g11
s(V10*D
p1164
L10L
L-7L
tp1165
g11
s(V17*D
p1166
L6L
L-7L
tp1167
g4
s(V13*D
p1168
L5L
L-7L
tp1169
g11
s(V12*ADS
p1170
L10L
L-7L
tp1171
g11
s(V5*D
p1172
L3L
L-7L
tp1173
g11
s(L21L
L4L
L-7L
tp1174
g4
s(L16L
L25L
Ntp1175
Ns(V8*
p1176
L2L
L-7L
tp1177
g11
s(V23*
p1178
NNtp1179
Ns(V14*DS
p1180
L3L
L-7L
tp1181
g11
s(V20*
p1182
L9L
L-7L
tp1183
g4
s(V14*AD
p1184
L10L
L-7L
tp1185
g11
s(V19*D
p1186
L7L
L-7L
tp1187
g4
s(V20*
p1188
L3L
L-7L
tp1189
g4
s(L8L
L22L
Ntp1190
Ns(V12*D
p1191
L2L
L-7L
tp1192
g11
s(V20*
p1193
L5L
L-7L
tp1194
g4
s(V20*A
p1195
L3L
L-7L
tp1196
g4
s(L20L
L23L
Ntp1197
Ns(V13*
p1198
L4L
L-7L
tp1199
g11
s(V13*AD
p1200
L2L
L-7L
tp1201
g11
s(V17*AD
p1202
L9L
L-7L
tp1203
g11
s(V20*DS
p1204
L3L
L-7L
tp1205
g4
s(V6*D
p1206
L6L
L-7L
tp1207
g11
s(V18*
p1208
L10L
L-7L
tp1209
g4
s(V17*AD
p1210
L7L
L-7L
tp1211
g11
s(g1010
L21L
Ntp1212
Ns(V12*DS
p1213
L4L
L-7L
tp1214
g11
s(L10L
L21L
Ntp1215
Ns(L18L
L18L
Ntp1216
Ns(V12*DS
p1217
L2L
L-7L
tp1218
g11
s(V15*D
p1219
L9L
L-7L
tp1220
g11
s(V16*AD
p1221
L10L
L-7L
tp1222
g11
s(V11*
p1223
L11L
L-7L
tp1224
g11
s(V21*
p1225
L8L
L-7L
tp1226
g4
s(V15*D
p1227
L3L
L-7L
tp1228
g4
s(L17L
L26L
Ntp1229
Ns(V18*A
p1230
L9L
L-7L
tp1231
g11
s(g1111
L21L
Ntp1232
Ns(V9*
p1233
L4L
L-7L
tp1234
g11
s(L19L
L23L
Ntp1235
Ns(V18*A
p1236
L7L
L-7L
tp1237
g4
s(L20L
L26L
Ntp1238
Ns(V6*
p1239
L3L
L-7L
tp1240
g11
s(V12*
p1241
L5L
L-7L
tp1242
g11
s(V11*D
p1243
L6L
L-7L
tp1244
g105
s(L9L
L21L
Ntp1245
Ns(V6*
p1246
L9L
L-7L
tp1247
g11
s(V16*D
p1248
L4L
L-7L
tp1249
g4
s(V7*
p1250
L4L
L-7L
tp1251
g11
s(L21L
L8L
L-7L
tp1252
g4
s(g1094
L21L
Ntp1253
Ns(g432
L21L
Ntp1254
Ns(V7*
p1255
L8L
L-7L
tp1256
g11
s(g484
L11L
L-7L
tp1257
g11
s(L15L
L20L
Ntp1258
Ns(g89
L11L
L-7L
tp1259
g11
s(V10*
p1260
L5L
L-7L
tp1261
g11
s(g170
L11L
L-7L
tp1262
g11
s(V10*DS
p1263
L5L
L-7L
tp1264
g105
s(V10*
p1265
L11L
L-7L
tp1266
g11
s(V13*
p1267
L8L
L-7L
tp1268
g11
s(V12*D
p1269
L8L
L-7L
tp1270
g11
s(V15*AD
p1271
L3L
L-7L
tp1272
g11
s(V13*AD
p1273
L4L
L-7L
tp1274
g11
s(L21L
L25L
Ntp1275
Ns(V15*
p1276
L7L
L-7L
tp1277
g11
s(V18*D
p1278
L3L
L-7L
tp1279
g4
s(V18*D
p1280
L9L
L-7L
tp1281
g4
s(V16*A
p1282
L5L
L-7L
tp1283
g11
s(L14L
L21L
Ntp1284
Ns(g258
L21L
Ntp1285
Ns(V21*A
p1286
L6L
L-7L
tp1287
g4
s(V21*
p1288
L4L
L-7L
tp1289
g4
s(V14*D
p1290
L10L
L-7L
tp1291
g11
s(V8*DS
p1292
L10L
L-7L
tp1293
g11
s(V21*
p1294
L2L
L-7L
tp1295
g4
s(L19L
L26L
Ntp1296
Ns(V14*D
p1297
L4L
L-7L
tp1298
g11
s(L8L
L19L
Ntp1299
Ns(V8*D
p1300
L6L
L-7L
tp1301
g11
s(V18*DS
p1302
L6L
L-7L
tp1303
g4
s(V8*D
p1304
L10L
L-7L
tp1305
g11
s(V18*DS
p1306
L10L
L-7L
tp1307
g4
s(V16*D
p1308
L8L
L-7L
tp1309
g11
s(g876
L21L
Ntp1310
Ns(V16*DS
p1311
L7L
L-7L
tp1312
g11
s(V18*
p1313
L7L
L-7L
tp1314
g4
s(V16*DS
p1315
L9L
L-7L
tp1316
g11
s(V17*AD
p1317
L10L
L-7L
tp1318
g11
s(L16L
L17L
Ntp1319
Ns(V18*
p1320
L9L
L-7L
tp1321
g4
s(V20*DS
p1322
L10L
L-7L
tp1323
g4
s(V9*D
p1324
L6L
L-7L
tp1325
g11
s(g130
L21L
Ntp1326
Ns(V12*DS
p1327
L7L
L-7L
tp1328
g11
s(V16*AD
p1329
L7L
L-7L
tp1330
g11
s(V14*
p1331
L2L
L-7L
tp1332
g11
s(L15L
L18L
Ntp1333
Ns(V9*D
p1334
L10L
L-7L
tp1335
g11
s(V16*AD
p1336
L9L
L-7L
tp1337
g11
s(V18*AD
p1338
L7L
L-7L
tp1339
g4
s(V14*
p1340
L8L
L-7L
tp1341
g11
s(V8*DS
p1342
L3L
L-7L
tp1343
g11
s(g949
L11L
L-7L
tp1344
g4
s(V18*A
p1345
L10L
L-7L
tp1346
g11
s(L20L
L22L
Ntp1347
Ns(L20L
L17L
Ntp1348
Ns(L22L
NNtp1349
Ns(V15*
p1350
L11L
L-7L
tp1351
g11
s(g17
L11L
L-7L
tp1352
g11
s(V6*
p1353
L4L
L-7L
tp1354
g11
s(V4*DS
p1355
L7L
L-7L
tp1356
g11
s(V11*D
p1357
L5L
L-7L
tp1358
g105
s(V6*
p1359
L10L
L-7L
tp1360
g11
s(V16*D
p1361
L7L
L-7L
tp1362
g11
s(V16*A
p1363
L3L
L-7L
tp1364
g11
s(V7*
p1365
L3L
L-7L
tp1366
g11
s(L17L
L18L
Ntp1367
Ns(L17L
L24L
Ntp1368
Ns(V19*AD
p1369
L10L
L-7L
tp1370
g4
s(L19L
L25L
Ntp1371
Ns(V17*A
p1372
L2L
L-7L
tp1373
g11
s(V19*AD
p1374
L6L
L-7L
tp1375
g4
s(g588
L21L
Ntp1376
Ns(V18*AD
p1377
L8L
L-7L
tp1378
g4
s(g1350
L21L
Ntp1379
Ns(L21L
L21L
Ntp1380
Ns(V12*D
p1381
L7L
L-7L
tp1382
g11
s(L21L
L18L
Ntp1383
Ns(L14L
L19L
Ntp1384
Ns(V20*DS
p1385
L6L
L-7L
tp1386
g4
s(L16L
L23L
Ntp1387
Ns(V14*A
p1388
L7L
L-7L
tp1389
g11
s(V18*D
p1390
L4L
L-7L
tp1391
g4
s(V19*
p1392
L9L
L-7L
tp1393
g4
s(V18*D
p1394
L10L
L-7L
tp1395
g4
s(V20*D
p1396
L2L
L-7L
tp1397
g4
s(L4L
L21L
Ntp1398
Ns(L12L
L22L
Ntp1399
Ns(g947
L21L
Ntp1400
Ns(V20*D
p1401
L4L
L-7L
tp1402
g4
s(L12L
L17L
Ntp1403
Ns(V21*
p1404
L7L
L-7L
tp1405
g4
s(V14*
p1406
L4L
L-7L
tp1407
g11
s(V14*D
p1408
L9L
L-7L
tp1409
g11
s(V7*D
p1410
L6L
L-7L
tp1411
g11
s(V8*DS
p1412
L5L
L-7L
tp1413
g11
s(V14*D
p1414
L3L
L-7L
tp1415
g11
s(V6*DS
p1416
L9L
L-7L
tp1417
g11
s(g661
L21L
Ntp1418
Ns(V6*DS
p1419
L3L
L-7L
tp1420
g11
s(V6*DS
p1421
L5L
L-7L
tp1422
g11
s(g91
L11L
L-7L
tp1423
g11
s(g1021
L11L
L-7L
tp1424
g11
s(V16*DS
p1425
L4L
L-7L
tp1426
g4
s(L6L
L22L
Ntp1427
Ns(g353
L11L
L-7L
tp1428
g11
s(V16*
p1429
L3L
L-7L
tp1430
g4
s(V16*
p1431
L9L
L-7L
tp1432
g11
s.