(dp0
(V20*
p1
L9L
L1L
tp2
VStay
p3
s(L13L
L21L
Ntp4
Ns(V15*
p5
L8L
L1L
tp6
VDraw
p7
s(V11*D
p8
L7L
L1L
tp9
VDouble
p10
s(L13L
L18L
Ntp11
Ns(V8*DS
p12
L10L
L1L
tp13
g7
s(V19*A
p14
L2L
L1L
tp15
g3
s(L13L
L24L
Ntp16
Ns(V11*
p17
L4L
L1L
tp18
g7
s(V14*
p19
L9L
L1L
tp20
g7
s(V10*DS
p21
L3L
L1L
tp22
g10
s(L6L
L26L
Ntp23
Ns(L15L
L26L
Ntp24
Ns(V20*
p25
L21L
Ntp26
Ns(V19*A
p27
L21L
Ntp28
Ns(V19*
p29
L6L
L1L
tp30
g3
s(V14*A
p31
L3L
L1L
tp32
g7
s(L19L
L19L
Ntp33
Ns(V10*D
p34
L21L
Ntp35
Ns(L19L
L20L
Ntp36
Ns(V10*DS
p37
L10L
L1L
tp38
g7
s(V18*
p39
L9L
L1L
tp40
g3
s(L17L
L21L
Ntp41
Ns(V16*D
p42
L4L
L1L
tp43
g3
s(V14*A
p44
L6L
L1L
tp45
g7
s(V15*A
p46
L5L
L1L
tp47
g7
s(V19*
p48
L3L
L1L
tp49
g3
s(V9*D
p50
L8L
L1L
tp51
g7
s(V24*
p52
NNtp53
Ns(V10*
p54
L4L
L1L
tp55
g7
s(V8*D
p56
L3L
L1L
tp57
g7
s(V16*A
p58
L5L
L1L
tp59
g7
s(V16*DS
p60
L9L
L1L
tp61
g7
s(V16*AD
p62
L2L
L1L
tp63
g7
s(V19*
p64
L10L
L1L
tp65
g3
s(V6*
p66
L3L
L1L
tp67
g7
s(V5*D
p68
L11L
L1L
tp69
g7
s(V9*
p70
L5L
L1L
tp71
g7
s(V18*D
p72
L11L
L1L
tp73
g3
s(V14*DS
p74
L4L
L1L
tp75
g3
s(V16*A
p76
L8L
L1L
tp77
g7
s(V20*AD
p78
L9L
L1L
tp79
g3
s(L4L
L24L
Ntp80
Ns(V9*D
p81
L4L
L1L
tp82
g10
s(V18*D
p83
L6L
L1L
tp84
g3
s(V10*
p85
L8L
L1L
tp86
g7
s(V14*DS
p87
L9L
L1L
tp88
g7
s(L4L
L18L
Ntp89
Ns(V13*
p90
L21L
Ntp91
Ns(V17*
p92
L5L
L1L
tp93
g3
s(V17*D
p94
L21L
Ntp95
Ns(V13*AD
p96
L21L
Ntp97
Ns(L14L
L17L
Ntp98
Ns(V14*D
p99
L4L
L1L
tp100
g3
s(V5*D
p101
L7L
L1L
tp102
g7
s(V16*DS
p103
L21L
Ntp104
Ns(L18L
L22L
Ntp105
Ns(V20*AD
p106
L4L
L1L
tp107
g3
s(V9*
p108
L9L
L1L
tp109
g7
s(V8*
p110
L6L
L1L
tp111
g7
s(V17*
p112
L8L
L1L
tp113
g3
s(V17*AD
p114
L5L
L1L
tp115
g10
s(L21L
L9L
L1L
tp116
g3
s(V20*A
p117
L6L
L1L
tp118
g3
s(V18*AD
p119
L11L
L1L
tp120
g7
s(L4L
L20L
Ntp121
Ns(V20*DS
p122
L11L
L1L
tp123
g3
s(V17*A
p124
L2L
L1L
tp125
g7
s(V8*
p126
L3L
L1L
tp127
g7
s(V13*
p128
L9L
L1L
tp129
g7
s(V18*AD
p130
L2L
L1L
tp131
g10
s(V20*A
p132
L3L
L1L
tp133
g3
s(V20*DS
p134
L2L
L1L
tp135
g3
s(V18*DS
p136
L10L
L1L
tp137
g3
s(V20*AD
p138
L21L
Ntp139
Ns(L15L
L22L
Ntp140
Ns(V17*A
p141
L7L
L1L
tp142
g7
s(V17*AD
p143
L9L
L1L
tp144
g7
s(L21L
L5L
L1L
tp145
g3
s(V20*A
p146
L10L
L1L
tp147
g3
s(V13*
p148
L4L
L1L
tp149
g3
s(V18*AD
p150
L7L
L1L
tp151
g3
s(V6*DS
p152
L5L
L1L
tp153
g7
s(V16*
p154
L6L
L1L
tp155
g3
s(V13*A
p156
L8L
L1L
tp157
g7
s(V15*AD
p158
L11L
L1L
tp159
g7
s(L13L
L19L
Ntp160
Ns(V12*ADS
p161
L10L
L1L
tp162
g7
s(L20L
L21L
Ntp163
Ns(L6L
L17L
Ntp164
Ns(V6*D
p165
L10L
L1L
tp166
g7
s(L17L
L25L
Ntp167
Ns(V18*A
p168
L3L
L1L
tp169
g3
s(V14*AD
p170
L6L
L1L
tp171
g10
s(V16*
p172
L3L
L1L
tp173
g3
s(V15*AD
p174
L2L
L1L
tp175
g7
s(V18*DS
p176
L6L
L1L
tp177
g3
s(V12*ADS
p178
L3L
L1L
tp179
g7
s(V19*D
p180
L9L
L1L
tp181
g3
s(V21*
p182
L11L
L1L
tp183
g3
s(V13*D
p184
L6L
L1L
tp185
g3
s(V18*A
p186
L10L
L1L
tp187
g7
s(V6*DS
p188
L9L
L1L
tp189
g7
s(V14*AD
p190
L11L
L1L
tp191
g7
s(V16*
p192
L10L
L1L
tp193
g3
s(L19L
L21L
Ntp194
Ns(V13*A
p195
L4L
L1L
tp196
g7
s(V15*D
p197
L4L
L1L
tp198
g3
s(L19L
L22L
Ntp199
Ns(V12*D
p200
L11L
L1L
tp201
g7
s(L16L
L22L
Ntp202
Ns(V21*
p203
L2L
L1L
tp204
g3
s(V19*AD
p205
L8L
L1L
tp206
g3
s(g119
L21L
Ntp207
Ns(V6*D
p208
L6L
L1L
tp209
g7
s(V12*
p210
L6L
L1L
tp211
g3
s(V17*A
p212
L21L
Ntp213
Ns(V12*DS
p214
L3L
L1L
tp215
g7
s(V21*A
p216
L11L
L1L
tp217
g3
s(V12*D
p218
L2L
L1L
tp219
g7
s(V7*D
p220
L4L
L1L
tp221
g7
s(V19*D
p222
L5L
L1L
tp223
g3
s(L21L
L22L
Ntp224
Ns(V21*
p225
L7L
L1L
tp226
g3
s(V13*D
p227
L10L
L1L
tp228
g7
s(V12*
p229
L3L
L1L
tp230
g7
s(V21*A
p231
L2L
L1L
tp232
g3
s(V11*D
p233
L9L
L1L
tp234
g10
s(V15*D
p235
L8L
L1L
tp236
g7
s(V12*D
p237
L7L
L1L
tp238
g7
s(L12L
L21L
Ntp239
Ns(V4*DS
p240
L4L
L1L
tp241
g7
s(V9*D
p242
L21L
Ntp243
Ns(V12*
p244
L10L
L1L
tp245
g7
s(L20L
L19L
Ntp246
Ns(V10*D
p247
L10L
L1L
tp248
g7
s(V15*
p249
L7L
L1L
tp250
g7
s(V19*A
p251
L5L
L1L
tp252
g3
s(V20*
p253
L2L
L1L
tp254
g3
s(L4L
L26L
Ntp255
Ns(L17L
L19L
Ntp256
Ns(V14*
p257
L2L
L1L
tp258
g3
s(V10*DS
p259
L21L
Ntp260
Ns(V25*
p261
NNtp262
Ns(V11*
p263
L11L
L1L
tp264
g7
s(g25
L11L
L1L
tp265
g3
s(L11L
L21L
Ntp266
Ns(V11*D
p267
L5L
L1L
tp268
g10
s(L11L
L22L
Ntp269
Ns(V10*D
p270
L7L
L1L
tp271
g10
s(V4*DS
p272
L8L
L1L
tp273
g7
s(L6L
L24L
Ntp274
Ns(V11*
p275
L2L
L1L
tp276
g7
s(V14*
p277
L7L
L1L
tp278
g7
s(L13L
L22L
Ntp279
Ns(V15*
p280
L11L
L1L
tp281
g7
s(V18*
p282
L2L
L1L
tp283
g3
s(V19*
p284
L4L
L1L
tp285
g3
s(V7*
p286
L6L
L1L
tp287
g7
s(V11*
p288
L7L
L1L
tp289
g7
s(V10*DS
p290
L4L
L1L
tp291
g10
s(V18*
p292
L11L
L1L
tp293
g3
s(V26*
p294
NNtp295
Ns(V13*AD
p296
L2L
L1L
tp297
g7
s(V17*D
p298
L2L
L1L
tp299
g3
s(V16*AD
p300
L9L
L1L
tp301
g7
s(L24L
NNtp302
Ns(V6*
p303
L8L
L1L
tp304
g7
s(V16*D
p305
L6L
L1L
tp306
g3
s(V15*A
p307
L7L
L1L
tp308
g7
s(V14*A
p309
L4L
L1L
tp310
g7
s(V7*
p311
L3L
L1L
tp312
g7
s(L12L
L19L
Ntp313
Ns(V10*DS
p314
L9L
L1L
tp315
g10
s(L12L
L26L
Ntp316
Ns(V8*D
p317
L5L
L1L
tp318
g7
s(V16*A
p319
L7L
L1L
tp320
g7
s(V16*DS
p321
L7L
L1L
tp322
g7
s(L17L
L17L
Ntp323
Ns(V19*
p324
L8L
L1L
tp325
g3
s(V7*
p326
L10L
L1L
tp327
g7
s(V16*D
p328
L3L
L1L
tp329
g3
s(V15*A
p330
L2L
L1L
tp331
g7
s(V14*DS
p332
L6L
L1L
tp333
g3
s(g242
L11L
L1L
tp334
g7
s(V10*
p335
L7L
L1L
tp336
g7
s(V16*A
p337
L10L
L1L
tp338
g7
s(V16*AD
p339
L5L
L1L
tp340
g10
s(V16*DS
p341
L10L
L1L
tp342
g3
s(V6*
p343
L4L
L1L
tp344
g7
s(g138
L11L
L1L
tp345
g3
s(L10L
L22L
Ntp346
Ns(V5*D
p347
L8L
L1L
tp348
g7
s(V9*
p349
L6L
L1L
tp350
g7
s(V9*D
p351
L2L
L1L
tp352
g10
s(V18*D
p353
L8L
L1L
tp354
g3
s(V14*DS
p355
L11L
L1L
tp356
g7
s(V8*D
p357
L9L
L1L
tp358
g7
s(L6L
L18L
Ntp359
Ns(V17*
p360
L7L
L1L
tp361
g3
s(V14*D
p362
L6L
L1L
tp363
g3
s(V20*AD
p364
L6L
L1L
tp365
g3
s(L13L
L25L
Ntp366
Ns(V9*D
p367
L7L
L1L
tp368
g7
s(V10*
p369
L11L
L1L
tp370
g7
s(L4L
L22L
Ntp371
Ns(V8*
p372
L8L
L1L
tp373
g7
s(L18L
L20L
Ntp374
Ns(V17*
p375
L10L
L1L
tp376
g3
s(V14*D
p377
L3L
L1L
tp378
g3
s(L18L
L26L
Ntp379
Ns(V5*D
p380
L4L
L1L
tp381
g7
s(V9*
p382
L10L
L1L
tp383
g7
s(V20*DS
p384
L9L
L1L
tp385
g3
s(L11L
L26L
Ntp386
Ns(V8*
p387
L5L
L1L
tp388
g7
s(g90
L11L
L1L
tp389
g7
s(L11L
L25L
Ntp390
Ns(L21L
L10L
L1L
tp391
g3
s(V17*AD
p392
L6L
L1L
tp393
g10
s(V20*A
p394
L5L
L1L
tp395
g3
s(V17*
p396
L21L
Ntp397
Ns(V18*DS
p398
L8L
L1L
tp399
g3
s(L21L
L3L
L1L
tp400
g3
s(L10L
L26L
Ntp401
Ns(V13*
p402
L6L
L1L
tp403
g3
s(L10L
L25L
Ntp404
Ns(V6*DS
p405
L7L
L1L
tp406
g7
s(V16*
p407
L4L
L1L
tp408
g3
s(V13*A
p409
L10L
L1L
tp410
g7
s(V12*ADS
p411
L8L
L1L
tp412
g7
s(V17*A
p413
L8L
L1L
tp414
g7
s(V6*D
p415
L8L
L1L
tp416
g7
s(V20*D
p417
L7L
L1L
tp418
g3
s(V17*AD
p419
L10L
L1L
tp420
g7
s(V14*AD
p421
L4L
L1L
tp422
g7
s(L21L
L6L
L1L
tp423
g3
s(V20*A
p424
L9L
L1L
tp425
g3
s(V13*A
p426
L3L
L1L
tp427
g7
s(V6*DS
p428
L2L
L1L
tp429
g7
s(V15*AD
p430
L4L
L1L
tp431
g10
s(V18*DS
p432
L4L
L1L
tp433
g3
s(L13L
L20L
Ntp434
Ns(V13*D
p435
L4L
L1L
tp436
g3
s(V19*AD
p437
L3L
L1L
tp438
g3
s(V18*A
p439
L4L
L1L
tp440
g3
s(g122
L21L
Ntp441
Ns(V20*D
p442
L2L
L1L
tp443
g3
s(V6*DS
p444
L11L
L1L
tp445
g7
s(V14*AD
p446
L9L
L1L
tp447
g7
s(V16*
p448
L8L
L1L
tp449
g7
s(V13*A
p450
L6L
L1L
tp451
g7
s(V15*A
p452
L21L
Ntp453
Ns(V12*D
p454
L9L
L1L
tp455
g7
s(V19*D
p456
L10L
L1L
tp457
g3
s(V19*AD
p458
L10L
L1L
tp459
g3
s(L14L
L23L
Ntp460
Ns(V6*D
p461
L4L
L1L
tp462
g7
s(V20*D
p463
L11L
L1L
tp464
g3
s(V18*A
p465
L9L
L1L
tp466
g7
s(V12*
p467
L4L
L1L
tp468
g3
s(V12*DS
p469
L5L
L1L
tp470
g3
s(V15*D
p471
L3L
L1L
tp472
g3
s(L28L
NNtp473
Ns(V7*D
p474
L6L
L1L
tp475
g7
s(L12L
L18L
Ntp476
Ns(V19*D
p477
L3L
L1L
tp478
g3
s(L16L
L18L
Ntp479
Ns(V13*D
p480
L8L
L1L
tp481
g7
s(V21*A
p482
L4L
L1L
tp483
g3
s(V12*D
p484
L5L
L1L
tp485
g3
s(V7*D
p486
L3L
L1L
tp487
g7
s(V19*D
p488
L6L
L1L
tp489
g3
s(V4*DS
p490
L6L
L1L
tp491
g7
s(L9L
L19L
Ntp492
Ns(V12*
p493
L8L
L1L
tp494
g7
s(V12*DS
p495
L9L
L1L
tp496
g7
s(V18*A
p497
L21L
Ntp498
Ns(V10*D
p499
L8L
L1L
tp500
g10
s(V8*DS
p501
L3L
L1L
tp502
g7
s(g27
L11L
L1L
tp503
g3
s(V11*D
p504
L10L
L1L
tp505
g10
s(V15*
p506
L5L
L1L
tp507
g3
s(L14L
L24L
Ntp508
Ns(V11*
p509
L9L
L1L
tp510
g7
s(V20*
p511
L5L
L1L
tp512
g3
s(L13L
L17L
Ntp513
Ns(V11*D
p514
L3L
L1L
tp515
g10
s(V10*D
p516
L5L
L1L
tp517
g10
s(L13L
L23L
Ntp518
Ns(V19*
p519
L21L
Ntp520
Ns(V19*A
p521
L6L
L1L
tp522
g3
s(V4*DS
p523
L10L
L1L
tp524
g7
s(L6L
L23L
Ntp525
Ns(V7*D
p526
L21L
Ntp527
Ns(V14*
p528
L5L
L1L
tp529
g3
s(V8*D
p530
L21L
Ntp531
Ns(g182
L21L
Ntp532
Ns(V20*
p533
L8L
L1L
tp534
g3
s(V15*
p535
L9L
L1L
tp536
g7
s(V13*AD
p537
L9L
L1L
tp538
g7
s(V11*D
p539
L6L
L1L
tp540
g10
s(V17*D
p541
L9L
L1L
tp542
g3
s(L11L
L18L
Ntp543
Ns(g444
L21L
Ntp544
Ns(V16*
p545
L21L
Ntp546
Ns(V7*
p547
L4L
L1L
tp548
g7
s(V11*
p549
L5L
L1L
tp550
g7
s(L18L
L23L
Ntp551
Ns(V10*DS
p552
L6L
L1L
tp553
g10
s(V18*
p554
L5L
L1L
tp555
g3
s(V16*AD
p556
L11L
L1L
tp557
g7
s(V6*
p558
L10L
L1L
tp559
g7
s(L15L
L17L
Ntp560
Ns(g72
L21L
Ntp561
Ns(V16*D
p562
L8L
L1L
tp563
g7
s(V15*A
p564
L9L
L1L
tp565
g7
s(V19*
p566
L7L
L1L
tp567
g3
s(V14*A
p568
L2L
L1L
tp569
g7
s(L10L
L24L
Ntp570
Ns(g259
L11L
L1L
tp571
g7
s(V13*AD
p572
L5L
L1L
tp573
g10
s(V17*D
p574
L5L
L1L
tp575
g3
s(V8*D
p576
L7L
L1L
tp577
g7
s(V18*
p578
L8L
L1L
tp579
g3
s(V16*DS
p580
L5L
L1L
tp581
g3
s(V14*A
p582
L11L
L1L
tp583
g7
s(V7*
p584
L8L
L1L
tp585
g7
s(L17L
L20L
Ntp586
Ns(V27*
p587
NNtp588
Ns(V16*D
p589
L5L
L1L
tp590
g3
s(V15*A
p591
L4L
L1L
tp592
g7
s(L12L
L23L
Ntp593
Ns(V9*D
p594
L9L
L1L
tp595
g7
s(V10*
p596
L5L
L1L
tp597
g7
s(L12L
L25L
Ntp598
Ns(V8*D
p599
L2L
L1L
tp600
g7
s(V16*A
p601
L4L
L1L
tp602
g7
s(V16*AD
p603
L7L
L1L
tp604
g7
s(V16*DS
p605
L8L
L1L
tp606
g7
s(V6*
p607
L6L
L1L
tp608
g7
s(g519
L11L
L1L
tp609
g3
s(V5*D
p610
L10L
L1L
tp611
g7
s(V9*
p612
L4L
L1L
tp613
g7
s(V18*D
p614
L10L
L1L
tp615
g3
s(V14*DS
p616
L5L
L1L
tp617
g3
s(g530
L11L
L1L
tp618
g7
s(V14*D
p619
L8L
L1L
tp620
g7
s(V5*D
p621
L3L
L1L
tp622
g7
s(L11L
L23L
Ntp623
Ns(V20*AD
p624
L8L
L1L
tp625
g3
s(V18*D
p626
L3L
L1L
tp627
g3
s(L11L
L17L
Ntp628
Ns(L4L
L25L
Ntp629
Ns(V9*D
p630
L5L
L1L
tp631
g10
s(V10*
p632
L9L
L1L
tp633
g7
s(V8*
p634
L10L
L1L
tp635
g7
s(L4L
L19L
Ntp636
Ns(L16L
L20L
Ntp637
Ns(V17*
p638
L4L
L1L
tp639
g3
s(L18L
L17L
Ntp640
Ns(V14*D
p641
L5L
L1L
tp642
g3
s(V5*D
p643
L6L
L1L
tp644
g7
s(V9*
p645
L8L
L1L
tp646
g7
s(L9L
L24L
Ntp647
Ns(L13L
L26L
Ntp648
Ns(V8*
p649
L7L
L1L
tp650
g7
s(L30L
NNtp651
Ns(V17*AD
p652
L4L
L1L
tp653
g10
s(L21L
L8L
L1L
tp654
g3
s(V20*A
p655
L7L
L1L
tp656
g3
s(V20*DS
p657
L6L
L1L
tp658
g3
s(V17*A
p659
L3L
L1L
tp660
g7
s(V13*A
p661
L21L
Ntp662
Ns(L16L
L24L
Ntp663
Ns(V13*
p664
L8L
L1L
tp665
g7
s(V18*AD
p666
L3L
L1L
tp667
g10
s(L12L
L20L
Ntp668
Ns(V20*DS
p669
L3L
L1L
tp670
g3
s(V18*DS
p671
L11L
L1L
tp672
g3
s(V17*A
p673
L10L
L1L
tp674
g7
s(L17L
L23L
Ntp675
Ns(L6L
L21L
Ntp676
Ns(V20*D
p677
L5L
L1L
tp678
g3
s(V17*AD
p679
L8L
L1L
tp680
g7
s(V14*AD
p681
L2L
L1L
tp682
g7
s(L21L
L4L
L1L
tp683
g3
s(V20*A
p684
L11L
L1L
tp685
g3
s(L10L
L20L
Ntp686
Ns(V6*DS
p687
L4L
L1L
tp688
g7
s(V15*AD
p689
L6L
L1L
tp690
g10
s(V16*
p691
L7L
L1L
tp692
g7
s(V18*DS
p693
L2L
L1L
tp694
g3
s(V12*ADS
p695
L7L
L1L
tp696
g7
s(L10L
L19L
Ntp697
Ns(V12*
p698
L21L
Ntp699
Ns(V18*A
p700
L6L
L1L
tp701
g3
s(V6*D
p702
L11L
L1L
tp703
g7
s(V14*AD
p704
L7L
L1L
tp705
g7
s(V15*AD
p706
L3L
L1L
tp707
g7
s(L14L
L22L
Ntp708
Ns(V18*DS
p709
L7L
L1L
tp710
g3
s(V12*ADS
p711
L2L
L1L
tp712
g7
s(V19*D
p713
L8L
L1L
tp714
g3
s(V13*D
p715
L3L
L1L
tp716
g3
s(V19*AD
p717
L4L
L1L
tp718
g3
s(V6*D
p719
L2L
L1L
tp720
g7
s(L15L
L25L
Ntp721
Ns(V20*D
p722
L9L
L1L
tp723
g3
s(g497
L11L
L1L
tp724
g7
s(V12*DS
p725
L7L
L1L
tp726
g7
s(V6*DS
p727
L8L
L1L
tp728
g7
s(g545
L11L
L1L
tp729
g7
s(V7*D
p730
L8L
L1L
tp731
g7
s(V21*
p732
L3L
L1L
tp733
g3
s(V19*AD
p734
L9L
L1L
tp735
g3
s(L18L
L24L
Ntp736
Ns(V6*D
p737
L7L
L1L
tp738
g7
s(V12*
p739
L7L
L1L
tp740
g7
s(V21*A
p741
L6L
L1L
tp742
g3
s(V12*DS
p743
L2L
L1L
tp744
g7
s(V12*D
p745
L3L
L1L
tp746
g7
s(V7*D
p747
L5L
L1L
tp748
g7
s(V19*D
p749
L4L
L1L
tp750
g3
s(L15L
L21L
Ntp751
Ns(V12*DS
p752
L11L
L1L
tp753
g7
s(V21*A
p754
L3L
L1L
tp755
g3
s(V8*DS
p756
L5L
L1L
tp757
g7
s(V19*A
p758
L9L
L1L
tp759
g3
s(V11*D
p760
L8L
L1L
tp761
g10
s(L21L
NNtp762
Ns(g698
L11L
L1L
tp763
g7
s(V20*
p764
L7L
L1L
tp765
g3
s(V19*AD
p766
L21L
Ntp767
Ns(V15*
p768
L2L
L1L
tp769
g3
s(g34
L11L
L1L
tp770
g7
s(V19*A
p771
L4L
L1L
tp772
g3
s(L8L
L18L
Ntp773
Ns(V14*
p774
L3L
L1L
tp775
g3
s(L8L
L21L
Ntp776
Ns(V20*
p777
L10L
L1L
tp778
g3
s(V10*D
p779
L2L
L1L
tp780
g10
s(V8*DS
p781
L9L
L1L
tp782
g7
s(g96
L11L
L1L
tp783
g7
s(V11*D
p784
L4L
L1L
tp785
g10
s(g94
L11L
L1L
tp786
g3
s(L6L
L19L
Ntp787
Ns(L6L
L25L
Ntp788
Ns(V14*
p789
L10L
L1L
tp790
g7
s(V4*DS
p791
L21L
Ntp792
Ns(V11*
p793
L3L
L1L
tp794
g7
s(V18*
p795
L7L
L1L
tp796
g3
s(g355
L21L
Ntp797
Ns(V16*D
p798
L10L
L1L
tp799
g3
s(g452
L11L
L1L
tp800
g7
s(V19*
p801
L5L
L1L
tp802
g3
s(g556
L21L
Ntp803
Ns(V7*
p804
L7L
L1L
tp805
g7
s(V10*DS
p806
L5L
L1L
tp807
g10
s(V13*AD
p808
L7L
L1L
tp809
g7
s(V17*D
p810
L7L
L1L
tp811
g3
s(V18*
p812
L10L
L1L
tp813
g3
s(L20L
L25L
Ntp814
Ns(V16*A
p815
L3L
L1L
tp816
g7
s(V16*DS
p817
L3L
L1L
tp818
g3
s(L9L
L17L
Ntp819
Ns(V16*AD
p820
L8L
L1L
tp821
g7
s(V14*A
p822
L9L
L1L
tp823
g7
s(L9L
L22L
Ntp824
Ns(V6*
p825
L9L
L1L
tp826
g7
s(V16*D
p827
L7L
L1L
tp828
g7
s(V15*A
p829
L6L
L1L
tp830
g7
s(V14*DS
p831
L2L
L1L
tp832
g3
s(V8*D
p833
L4L
L1L
tp834
g7
s(V16*A
p835
L6L
L1L
tp836
g7
s(V16*DS
p837
L6L
L1L
tp838
g3
s(V19*
p839
L9L
L1L
tp840
g3
s(V7*
p841
L11L
L1L
tp842
g7
s(V10*
p843
L2L
L1L
tp844
g7
s(V14*DS
p845
L7L
L1L
tp846
g7
s(L25L
NNtp847
Ns(L8L
L24L
Ntp848
Ns(L14L
L20L
Ntp849
Ns(V17*
p850
L3L
L1L
tp851
g3
s(V16*AD
p852
L4L
L1L
tp853
g10
s(V14*D
p854
L10L
L1L
tp855
g7
s(V6*
p856
L5L
L1L
tp857
g7
s(V9*
p858
L3L
L1L
tp859
g7
s(V20*AD
p860
L10L
L1L
tp861
g3
s(V18*D
p862
L5L
L1L
tp863
g3
s(L26L
NNtp864
Ns(V9*D
p865
L3L
L1L
tp866
g10
s(L21L
L26L
Ntp867
Ns(g684
L21L
Ntp868
Ns(L21L
L19L
Ntp869
Ns(V8*D
p870
L8L
L1L
tp871
g7
s(V16*D
p872
L21L
Ntp873
Ns(V17*
p874
L6L
L1L
tp875
g3
s(V20*AD
p876
L3L
L1L
tp877
g3
s(V14*D
p878
L7L
L1L
tp879
g7
s(L11L
L19L
Ntp880
Ns(L11L
L20L
Ntp881
Ns(L14L
L18L
Ntp882
Ns(L4L
L23L
Ntp883
Ns(V8*
p884
L9L
L1L
tp885
g7
s(L18L
L21L
Ntp886
Ns(V18*AD
p887
L8L
L1L
tp888
g3
s(V20*DS
p889
L4L
L1L
tp890
g3
s(L15L
L19L
Ntp891
Ns(V14*
p892
L21L
Ntp893
Ns(V17*AD
p894
L3L
L1L
tp895
g10
s(V13*
p896
L10L
L1L
tp897
g7
s(V18*DS
p898
L9L
L1L
tp899
g3
s(V17*A
p900
L4L
L1L
tp901
g7
s(L6L
L20L
Ntp902
Ns(V13*
p903
L3L
L1L
tp904
g3
s(L8L
L26L
Ntp905
Ns(V18*AD
p906
L4L
L1L
tp907
g10
s(L21L
L2L
L1L
tp908
g3
s(L12L
L24L
Ntp909
Ns(V6*DS
p910
L6L
L1L
tp911
g7
s(V15*AD
p912
L8L
L1L
tp913
g7
s(V16*
p914
L5L
L1L
tp915
g3
s(V12*ADS
p916
L5L
L1L
tp917
g7
s(V17*A
p918
L9L
L1L
tp919
g7
s(V6*D
p920
L9L
L1L
tp921
g7
s(L27L
NNtp922
Ns(V20*D
p923
L6L
L1L
tp924
g3
s(V14*AD
p925
L5L
L1L
tp926
g10
s(g200
L21L
Ntp927
Ns(L10L
L23L
Ntp928
Ns(V13*A
p929
L2L
L1L
tp930
g7
s(V15*AD
p931
L5L
L1L
tp932
g10
s(V18*DS
p933
L5L
L1L
tp934
g3
s(V21*
p935
L8L
L1L
tp936
g3
s(V19*AD
p937
L6L
L1L
tp938
g10
s(V18*A
p939
L5L
L1L
tp940
g3
s(V6*DS
p941
L10L
L1L
tp942
g7
s(V15*D
p943
L7L
L1L
tp944
g7
s(V16*
p945
L9L
L1L
tp946
g7
s(V7*D
p947
L10L
L1L
tp948
g7
s(L9L
L25L
Ntp949
Ns(g766
L11L
L1L
tp950
g3
s(g280
L21L
Ntp951
Ns(V6*D
p952
L5L
L1L
tp953
g7
s(L9L
L23L
Ntp954
Ns(V20*D
p955
L10L
L1L
tp956
g3
s(V12*
p957
L5L
L1L
tp958
g3
s(V21*A
p959
L8L
L1L
tp960
g3
s(V12*DS
p961
L4L
L1L
tp962
g3
s(L9L
L20L
Ntp963
Ns(V15*D
p964
L2L
L1L
tp965
g3
s(V7*D
p966
L7L
L1L
tp967
g7
s(V21*
p968
L4L
L1L
tp969
g3
s(V19*D
p970
L2L
L1L
tp971
g3
s(L16L
L19L
Ntp972
Ns(V13*D
p973
L21L
Ntp974
Ns(L11L
L24L
Ntp975
Ns(V15*D
p976
L11L
L1L
tp977
g7
s(V21*A
p978
L5L
L1L
tp979
g3
s(V8*DS
p980
L7L
L1L
tp981
g7
s(V4*DS
p982
L3L
L1L
tp983
g7
s(L29L
NNtp984
Ns(V12*
p985
L9L
L1L
tp986
g7
s(V12*DS
p987
L8L
L1L
tp988
g7
s(V14*D
p989
L21L
Ntp990
Ns(V10*D
p991
L9L
L1L
tp992
g10
s(V8*DS
p993
L2L
L1L
tp994
g7
s(V19*A
p995
L10L
L1L
tp996
g3
s(L21L
L24L
Ntp997
Ns(L14L
L25L
Ntp998
Ns(L10L
L18L
Ntp999
Ns(L10L
L17L
Ntp1000
Ns(V20*
p1001
L4L
L1L
tp1002
g3
s(V8*DS
p1003
L11L
L1L
tp1004
g7
s(g582
L21L
Ntp1005
Ns(V19*A
p1006
L3L
L1L
tp1007
g3
s(V11*D
p1008
L2L
L1L
tp1009
g10
s(V22*
p1010
NNtp1011
Ns(V14*
p1012
L8L
L1L
tp1013
g7
s(L8L
L17L
Ntp1014
Ns(L18L
L19L
Ntp1015
Ns(V10*DS
p1016
L2L
L1L
tp1017
g10
s(L21L
L23L
Ntp1018
Ns(V13*AD
p1019
L8L
L1L
tp1020
g7
s(V17*D
p1021
L8L
L1L
tp1022
g3
s(g1003
L21L
Ntp1023
Ns(V7*
p1024
L5L
L1L
tp1025
g7
s(V10*DS
p1026
L7L
L1L
tp1027
g10
s(V18*
p1028
L4L
L1L
tp1029
g3
s(V16*AD
p1030
L10L
L1L
tp1031
g7
s(V14*A
p1032
L7L
L1L
tp1033
g7
s(V19*
p1034
L2L
L1L
tp1035
g3
s(V6*
p1036
L11L
L1L
tp1037
g7
s(V16*D
p1038
L9L
L1L
tp1039
g7
s(V15*A
p1040
L8L
L1L
tp1041
g7
s(V13*AD
p1042
L4L
L1L
tp1043
g7
s(V17*D
p1044
L4L
L1L
tp1045
g3
s(V8*D
p1046
L6L
L1L
tp1047
g7
s(L16L
L26L
Ntp1048
Ns(V16*AD
p1049
L3L
L1L
tp1050
g7
s(V16*DS
p1051
L4L
L1L
tp1052
g3
s(V6*
p1053
L2L
L1L
tp1054
g7
s(L9L
L18L
Ntp1055
Ns(V14*A
p1056
L10L
L1L
tp1057
g7
s(V7*
p1058
L9L
L1L
tp1059
g7
s(V23*
p1060
NNtp1061
Ns(V16*A
p1062
L9L
L1L
tp1063
g7
s(g292
L21L
Ntp1064
Ns(V16*AD
p1065
L6L
L1L
tp1066
g10
s(V6*
p1067
L7L
L1L
tp1068
g7
s(V18*D
p1069
L7L
L1L
tp1070
g3
s(V14*DS
p1071
L8L
L1L
tp1072
g7
s(V8*D
p1073
L10L
L1L
tp1074
g7
s(L23L
NNtp1075
Ns(L8L
L20L
Ntp1076
Ns(L8L
L23L
Ntp1077
Ns(V20*AD
p1078
L5L
L1L
tp1079
g3
s(V14*D
p1080
L9L
L1L
tp1081
g7
s(V5*D
p1082
L2L
L1L
tp1083
g7
s(V18*D
p1084
L2L
L1L
tp1085
g3
s(L21L
L20L
Ntp1086
Ns(V17*
p1087
L9L
L1L
tp1088
g3
s(V8*
p1089
L11L
L1L
tp1090
g7
s(L16L
L21L
Ntp1091
Ns(V18*AD
p1092
L10L
L1L
tp1093
g7
s(V20*DS
p1094
L10L
L1L
tp1095
g3
s(L19L
L17L
Ntp1096
Ns(g463
L21L
Ntp1097
Ns(V8*
p1098
L2L
L1L
tp1099
g7
s(V20*A
p1100
L2L
L1L
tp1101
g3
s(L20L
L24L
Ntp1102
Ns(V20*DS
p1103
L7L
L1L
tp1104
g3
s(L20L
L18L
Ntp1105
Ns(V28*
p1106
NNtp1107
Ns(L15L
L23L
Ntp1108
Ns(V17*A
p1109
L6L
L1L
tp1110
g7
s(V13*
p1111
L5L
L1L
tp1112
g3
s(V18*AD
p1113
L6L
L1L
tp1114
g10
s(V13*A
p1115
L9L
L1L
tp1116
g7
s(V15*AD
p1117
L10L
L1L
tp1118
g7
s(V12*ADS
p1119
L11L
L1L
tp1120
g7
s(g212
L11L
L1L
tp1121
g7
s(L17L
L22L
Ntp1122
Ns(V18*A
p1123
L2L
L1L
tp1124
g3
s(L8L
L25L
Ntp1125
Ns(V20*D
p1126
L4L
L1L
tp1127
g3
s(L20L
L20L
Ntp1128
Ns(V14*AD
p1129
L3L
L1L
tp1130
g7
s(V16*
p1131
L2L
L1L
tp1132
g3
s(V15*AD
p1133
L7L
L1L
tp1134
g7
s(L14L
L26L
Ntp1135
Ns(V18*DS
p1136
L3L
L1L
tp1137
g3
s(V12*ADS
p1138
L6L
L1L
tp1139
g7
s(V21*
p1140
L10L
L1L
tp1141
g3
s(V13*D
p1142
L7L
L1L
tp1143
g7
s(V18*A
p1144
L7L
L1L
tp1145
g3
s(V14*AD
p1146
L10L
L1L
tp1147
g7
s(V13*A
p1148
L5L
L1L
tp1149
g7
s(V15*D
p1150
L5L
L1L
tp1151
g3
s(L21L
L17L
Ntp1152
Ns(V12*D
p1153
L10L
L1L
tp1154
g7
s(V13*D
p1155
L2L
L1L
tp1156
g3
s(V19*AD
p1157
L5L
L1L
tp1158
g3
s(V6*D
p1159
L3L
L1L
tp1160
g7
s(L15L
L24L
Ntp1161
Ns(V20*D
p1162
L8L
L1L
tp1163
g3
s(L19L
L24L
Ntp1164
Ns(V21*A
p1165
L10L
L1L
tp1166
g3
s(V12*DS
p1167
L6L
L1L
tp1168
g3
s(L4L
L17L
Ntp1169
Ns(L19L
L18L
Ntp1170
Ns(V7*D
p1171
L9L
L1L
tp1172
g7
s(V21*
p1173
L6L
L1L
tp1174
g3
s(g973
L11L
L1L
tp1175
g7
s(L9L
L26L
Ntp1176
Ns(L18L
L25L
Ntp1177
Ns(V12*
p1178
L2L
L1L
tp1179
g7
s(g671
L21L
Ntp1180
Ns(V15*D
p1181
L9L
L1L
tp1182
g7
s(V21*A
p1183
L7L
L1L
tp1184
g3
s(V12*D
p1185
L6L
L1L
tp1186
g3
s(g190
L21L
Ntp1187
Ns(V4*DS
p1188
L5L
L1L
tp1189
g7
s(L16L
L25L
Ntp1190
Ns(V20*
p1191
L3L
L1L
tp1192
g3
s(V12*DS
p1193
L10L
L1L
tp1194
g7
s(V15*
p1195
L6L
L1L
tp1196
g3
s(V8*DS
p1197
L4L
L1L
tp1198
g7
s(V19*A
p1199
L8L
L1L
tp1200
g3
s(g702
L21L
Ntp1201
Ns(L8L
L22L
Ntp1202
Ns(V11*
p1203
L10L
L1L
tp1204
g7
s(L20L
L23L
Ntp1205
Ns(V10*D
p1206
L6L
L1L
tp1207
g10
s(V20*
p1208
L6L
L1L
tp1209
g3
s(V15*
p1210
L3L
L1L
tp1211
g3
s(V4*DS
p1212
L9L
L1L
tp1213
g7
s(V14*
p1214
L6L
L1L
tp1215
g3
s(L10L
L21L
Ntp1216
Ns(L18L
L18L
Ntp1217
Ns(V15*
p1218
L10L
L1L
tp1219
g7
s(V18*
p1220
L3L
L1L
tp1221
g3
s(V10*D
p1222
L3L
L1L
tp1223
g10
s(V8*DS
p1224
L8L
L1L
tp1225
g7
s(V13*AD
p1226
L10L
L1L
tp1227
g7
s(V17*D
p1228
L10L
L1L
tp1229
g3
s(L17L
L26L
Ntp1230
Ns(V11*
p1231
L6L
L1L
tp1232
g7
s(g892
L11L
L1L
tp1233
g7
s(L19L
L23L
Ntp1234
Ns(V
p1235
g1235
L1L
tp1236
VBegin
p1237
s(V13*AD
p1238
L3L
L1L
tp1239
g7
s(V17*D
p1240
L3L
L1L
tp1241
g3
s(L20L
L26L
Ntp1242
Ns(V18*
p1243
L6L
L1L
tp1244
g3
s(g1119
L21L
Ntp1245
Ns(L9L
L21L
Ntp1246
Ns(V14*A
p1247
L5L
L1L
tp1248
g7
s(V11*D
p1249
L21L
Ntp1250
Ns(V7*
p1251
L2L
L1L
tp1252
g7
s(g872
L11L
L1L
tp1253
g7
s(V10*DS
p1254
L8L
L1L
tp1255
g10
s(V15*A
p1256
L10L
L1L
tp1257
g7
s(V13*AD
p1258
L6L
L1L
tp1259
g10
s(V17*D
p1260
L6L
L1L
tp1261
g3
s(V16*A
p1262
L2L
L1L
tp1263
g7
s(V16*DS
p1264
L2L
L1L
tp1265
g3
s(L15L
L20L
Ntp1266
Ns(V16*D
p1267
L2L
L1L
tp1268
g3
s(V14*A
p1269
L8L
L1L
tp1270
g7
s(V15*A
p1271
L3L
L1L
tp1272
g7
s(V9*D
p1273
L10L
L1L
tp1274
g7
s(V10*
p1275
L6L
L1L
tp1276
g7
s(V14*DS
p1277
L3L
L1L
tp1278
g3
s(V16*A
p1279
L11L
L1L
tp1280
g7
s(g103
L11L
L1L
tp1281
g7
s(V5*D
p1282
L9L
L1L
tp1283
g7
s(V9*
p1284
L7L
L1L
tp1285
g7
s(V18*D
p1286
L9L
L1L
tp1287
g3
s(V14*DS
p1288
L10L
L1L
tp1289
g7
s(L21L
L25L
Ntp1290
Ns(V17*AD
p1291
L21L
Ntp1292
Ns(V10*
p1293
L3L
L1L
tp1294
g7
s(V19*D
p1295
L21L
Ntp1296
Ns(L14L
L21L
Ntp1297
Ns(V17*
p1298
L2L
L1L
tp1299
g3
s(V20*AD
p1300
L7L
L1L
tp1301
g3
s(g989
L11L
L1L
tp1302
g7
s(V9*
p1303
L2L
L1L
tp1304
g7
s(V9*D
p1305
L6L
L1L
tp1306
g10
s(V18*D
p1307
L4L
L1L
tp1308
g3
s(V10*
p1309
L10L
L1L
tp1310
g7
s(L19L
L26L
Ntp1311
Ns(g396
L11L
L1L
tp1312
g3
s(L8L
L19L
Ntp1313
Ns(V14*D
p1314
L2L
L1L
tp1315
g3
s(V5*D
p1316
L5L
L1L
tp1317
g7
s(g1279
L21L
Ntp1318
Ns(V9*
p1319
L11L
L1L
tp1320
g7
s(V20*AD
p1321
L2L
L1L
tp1322
g3
s(V20*DS
p1323
L8L
L1L
tp1324
g3
s(V8*
p1325
L4L
L1L
tp1326
g7
s(V17*AD
p1327
L7L
L1L
tp1328
g7
s(L21L
L11L
L1L
tp1329
g3
s(L16L
L17L
Ntp1330
Ns(V20*A
p1331
L4L
L1L
tp1332
g3
s(V18*AD
p1333
L9L
L1L
tp1334
g7
s(V20*DS
p1335
L5L
L1L
tp1336
g3
s(L15L
L18L
Ntp1337
Ns(V13*
p1338
L7L
L1L
tp1339
g7
s(g976
L21L
Ntp1340
Ns(V17*AD
p1341
L2L
L1L
tp1342
g7
s(g661
L11L
L1L
tp1343
g7
s(V12*ADS
p1344
L9L
L1L
tp1345
g7
s(L20L
L22L
Ntp1346
Ns(L20L
L17L
Ntp1347
Ns(L22L
NNtp1348
Ns(V17*A
p1349
L5L
L1L
tp1350
g7
s(g1291
L11L
L1L
tp1351
g7
s(L21L
L7L
L1L
tp1352
g3
s(V20*A
p1353
L8L
L1L
tp1354
g3
s(V13*
p1355
L2L
L1L
tp1356
g3
s(V18*AD
p1357
L5L
L1L
tp1358
g10
s(V6*DS
p1359
L3L
L1L
tp1360
g7
s(V15*AD
p1361
L9L
L1L
tp1362
g7
s(V12*ADS
p1363
L4L
L1L
tp1364
g7
s(V13*D
p1365
L5L
L1L
tp1366
g3
s(V19*AD
p1367
L2L
L1L
tp1368
g3
s(L17L
L18L
Ntp1369
Ns(V20*D
p1370
L3L
L1L
tp1371
g3
s(g216
L21L
Ntp1372
Ns(V14*AD
p1373
L8L
L1L
tp1374
g7
s(L17L
L24L
Ntp1375
Ns(V13*A
p1376
L7L
L1L
tp1377
g7
s(L19L
L25L
Ntp1378
Ns(V12*D
p1379
L8L
L1L
tp1380
g7
s(g1295
L11L
L1L
tp1381
g3
s(V21*
p1382
L9L
L1L
tp1383
g3
s(V19*AD
p1384
L7L
L1L
tp1385
g3
s(V18*A
p1386
L8L
L1L
tp1387
g3
s(L21L
L21L
Ntp1388
Ns(V15*D
p1389
L6L
L1L
tp1390
g3
s(L21L
L18L
Ntp1391
Ns(g526
L11L
L1L
tp1392
g7
s(L14L
L19L
Ntp1393
Ns(V13*D
p1394
L9L
L1L
tp1395
g7
s(L16L
L23L
Ntp1396
Ns(V21*A
p1397
L9L
L1L
tp1398
g3
s(V7*D
p1399
L2L
L1L
tp1400
g7
s(V12*D
p1401
L4L
L1L
tp1402
g3
s(V19*D
p1403
L7L
L1L
tp1404
g3
s(L12L
L17L
Ntp1405
Ns(V4*DS
p1406
L7L
L1L
tp1407
g7
s(L12L
L22L
Ntp1408
Ns(L4L
L21L
Ntp1409
Ns(V21*
p1410
L5L
L1L
tp1411
g3
s(g158
L21L
Ntp1412
Ns(V15*
p1413
L4L
L1L
tp1414
g3
s(g1249
L11L
L1L
tp1415
g7
s(V15*D
p1416
L10L
L1L
tp1417
g7
s(V8*DS
p1418
L6L
L1L
tp1419
g7
s(V4*DS
p1420
L2L
L1L
tp1421
g7
s(V11*
p1422
L8L
L1L
tp1423
g7
s(V10*D
p1424
L4L
L1L
tp1425
g10
s(V19*A
p1426
L7L
L1L
tp1427
g3
s(g752
L21L
Ntp1428
Ns(g791
L11L
L1L
tp1429
g7
s(L6L
L22L
Ntp1430
Ns(V14*
p1431
L4L
L1L
tp1432
g3
s.