(dp0
(V15*A
p1
L11L
L9L
tp2
VDraw
p3
s(V15*AD
p4
L2L
L9L
tp5
g3
s(L13L
L21L
Ntp6
Ns(V17*A
p7
L11L
L9L
tp8
g3
s(V12*D
p9
L6L
L9L
tp10
VStay
p11
s(L13L
L18L
Ntp12
Ns(L13L
L24L
Ntp13
Ns(V6*DS
p14
L5L
L9L
tp15
g3
s(V10*DS
p16
L10L
L9L
tp17
VDouble
p18
s(V10*
p19
L4L
L9L
tp20
g3
s(V14*A
p21
L8L
L9L
tp22
g3
s(V14*
p23
L9L
L9L
tp24
g3
s(V11*D
p25
L7L
L9L
tp26
g18
s(L6L
L26L
Ntp27
Ns(V11*D
p28
L21L
Ntp29
Ns(V6*
p30
L8L
L9L
tp31
g3
s(V12*D
p32
L3L
L9L
tp33
g11
s(V19*AD
p34
L10L
L9L
tp35
g11
s(L15L
L26L
Ntp36
Ns(V20*DS
p37
L11L
L9L
tp38
g11
s(L19L
L19L
Ntp39
Ns(L19L
L20L
Ntp40
Ns(V20*A
p41
L21L
Ntp42
Ns(V19*
p43
L3L
L9L
tp44
g11
s(V11*
p45
L9L
L9L
tp46
g3
s(V16*AD
p47
L11L
L9L
tp48
g3
s(L17L
L21L
Ntp49
Ns(V13*
p50
L9L
L9L
tp51
g3
s(V13*A
p52
L5L
L9L
tp53
g3
s(V16*
p54
L7L
L9L
tp55
g11
s(V18*
p56
L11L
L9L
tp57
g11
s(V19*AD
p58
L6L
L9L
tp59
g18
s(V20*
p60
L2L
L9L
tp61
g11
s(V13*A
p62
L8L
L9L
tp63
g3
s(L21L
L9L
L9L
tp64
g11
s(V9*D
p65
L6L
L9L
tp66
g18
s(V9*
p67
L6L
L9L
tp68
g3
s(V17*
p69
L11L
L9L
tp70
g11
s(V25*
p71
NNtp72
Ns(V15*
p73
L6L
L9L
tp74
g11
s(V8*DS
p75
L21L
Ntp76
Ns(V12*
p77
L4L
L9L
tp78
g11
s(V12*DS
p79
L9L
L9L
tp80
g3
s(L4L
L24L
Ntp81
Ns(V15*D
p82
L11L
L9L
tp83
g3
s(V12*
p84
L21L
Ntp85
Ns(L4L
L18L
Ntp86
Ns(V10*D
p87
L8L
L9L
tp88
g18
s(V5*D
p89
L11L
L9L
tp90
g3
s(V9*D
p91
L3L
L9L
tp92
g18
s(V17*D
p93
L4L
L9L
tp94
g11
s(V13*D
p95
L2L
L9L
tp96
g11
s(V12*ADS
p97
L8L
L9L
tp98
g3
s(V17*
p99
L6L
L9L
tp100
g11
s(L14L
L17L
Ntp101
Ns(V8*D
p102
L6L
L9L
tp103
g18
s(V18*DS
p104
L6L
L9L
tp105
g11
s(V6*D
p106
L4L
L9L
tp107
g3
s(L18L
L22L
Ntp108
Ns(V17*A
p109
L2L
L9L
tp110
g3
s(V9*D
p111
L10L
L9L
tp112
g3
s(V14*AD
p113
L8L
L9L
tp114
g3
s(V19*D
p115
L5L
L9L
tp116
g11
s(V20*D
p117
L4L
L9L
tp118
g11
s(V21*A
p119
L7L
L9L
tp120
g11
s(V18*DS
p121
L3L
L9L
tp122
g11
s(V8*D
p123
L3L
L9L
tp124
g3
s(V10*DS
p125
L7L
L9L
tp126
g18
s(V10*
p127
L9L
L9L
tp128
g3
s(V10*DS
p129
L21L
Ntp130
Ns(V4*DS
p131
L21L
Ntp132
Ns(g7
L21L
Ntp133
Ns(V18*D
p134
L3L
L9L
tp135
g11
s(V17*A
p136
L7L
L9L
tp137
g3
s(V18*D
p138
L21L
Ntp139
Ns(L4L
L20L
Ntp140
Ns(V13*AD
p141
L5L
L9L
tp142
g18
s(V8*D
p143
L10L
L9L
tp144
g3
s(V18*DS
p145
L10L
L9L
tp146
g11
s(V20*D
p147
L9L
L9L
tp148
g11
s(V21*A
p149
L2L
L9L
tp150
g11
s(V15*A
p151
L5L
L9L
tp152
g3
s(V18*D
p153
L6L
L9L
tp154
g11
s(V8*
p155
L3L
L9L
tp156
g3
s(L15L
L22L
Ntp157
Ns(L13L
L19L
Ntp158
Ns(L20L
L21L
Ntp159
Ns(V7*
p160
L4L
L9L
tp161
g3
s(L6L
L17L
Ntp162
Ns(V16*DS
p163
L9L
L9L
tp164
g11
s(V8*
p165
L6L
L9L
tp166
g3
s(L17L
L25L
Ntp167
Ns(V13*
p168
L5L
L9L
tp169
g11
s(V28*
p170
NNtp171
Ns(V16*
p172
L11L
L9L
tp173
g11
s(V6*
p174
L3L
L9L
tp175
g3
s(V14*
p176
L6L
L9L
tp177
g11
s(V18*AD
p178
L21L
Ntp179
Ns(V20*DS
p180
L4L
L9L
tp181
g11
s(V15*D
p182
L2L
L9L
tp183
g11
s(V6*
p184
L4L
L9L
tp185
g3
s(V14*D
p186
L4L
L9L
tp187
g11
s(V11*D
p188
L9L
L9L
tp189
g18
s(V5*D
p190
L2L
L9L
tp191
g3
s(L21L
L5L
L9L
tp192
g11
s(L19L
L21L
Ntp193
Ns(L19L
L22L
Ntp194
Ns(L16L
L22L
Ntp195
Ns(V9*
p196
L10L
L9L
tp197
g3
s(V7*
p198
L8L
L9L
tp199
g3
s(V6*
p200
L6L
L9L
tp201
g3
s(V12*
p202
L8L
L9L
tp203
g3
s(V15*D
p204
L7L
L9L
tp205
g3
s(L21L
L22L
Ntp206
Ns(V16*AD
p207
L5L
L9L
tp208
g18
s(V6*D
p209
L8L
L9L
tp210
g3
s(V20*
p211
L9L
L9L
tp212
g11
s(V14*DS
p213
L21L
Ntp214
Ns(V13*A
p215
L7L
L9L
tp216
g3
s(L12L
L21L
Ntp217
Ns(V18*
p218
L5L
L9L
tp219
g11
s(V14*AD
p220
L21L
Ntp221
Ns(V16*D
p222
L3L
L9L
tp223
g11
s(V6*DS
p224
L11L
L9L
tp225
g3
s(V14*AD
p226
L4L
L9L
tp227
g18
s(V19*D
p228
L9L
L9L
tp229
g11
s(V8*DS
p230
L10L
L9L
tp231
g3
s(V15*
p232
L9L
L9L
tp233
g11
s(V21*
p234
L2L
L9L
tp235
g11
s(L20L
L19L
Ntp236
Ns(L4L
L26L
Ntp237
Ns(V13*D
p238
L9L
L9L
tp239
g3
s(V17*
p240
L9L
L9L
tp241
g11
s(L17L
L19L
Ntp242
Ns(V16*DS
p243
L21L
Ntp244
Ns(V20*
p245
L5L
L9L
tp246
g11
s(V8*DS
p247
L7L
L9L
tp248
g3
s(V15*A
p249
L9L
L9L
tp250
g3
s(V15*AD
p251
L4L
L9L
tp252
g18
s(L11L
L21L
Ntp253
Ns(V17*A
p254
L9L
L9L
tp255
g3
s(V12*D
p256
L8L
L9L
tp257
g3
s(L11L
L22L
Ntp258
Ns(V18*A
p259
L7L
L9L
tp260
g11
s(L6L
L24L
Ntp261
Ns(g224
L21L
Ntp262
Ns(V10*
p263
L2L
L9L
tp264
g3
s(V14*A
p265
L10L
L9L
tp266
g3
s(L13L
L22L
Ntp267
Ns(V13*D
p268
L5L
L9L
tp269
g11
s(V12*D
p270
L5L
L9L
tp271
g11
s(V19*AD
p272
L8L
L9L
tp273
g11
s(V18*A
p274
L2L
L9L
tp275
g11
s(V20*D
p276
L6L
L9L
tp277
g11
s(V17*AD
p278
L7L
L9L
tp279
g3
s(V10*DS
p280
L9L
L9L
tp281
g18
s(V10*
p282
L7L
L9L
tp283
g3
s(V15*AD
p284
L8L
L9L
tp285
g3
s(V19*
p286
L21L
Ntp287
Ns(V14*
p288
L10L
L9L
tp289
g3
s(L24L
NNtp290
Ns(V7*D
p291
L3L
L9L
tp292
g3
s(V17*AD
p293
L2L
L9L
tp294
g18
s(V20*DS
p295
L8L
L9L
tp296
g11
s(L12L
L19L
Ntp297
Ns(V16*
p298
L5L
L9L
tp299
g11
s(L12L
L26L
Ntp300
Ns(L17L
L17L
Ntp301
Ns(V16*DS
p302
L2L
L9L
tp303
g11
s(V12*DS
p304
L2L
L9L
tp305
g11
s(V13*
p306
L10L
L9L
tp307
g3
s(V16*A
p308
L8L
L9L
tp309
g3
s(V13*A
p310
L10L
L9L
tp311
g3
s(V9*D
p312
L4L
L9L
tp313
g18
s(V14*
p314
L21L
Ntp315
Ns(L10L
L22L
Ntp316
Ns(V20*A
p317
L10L
L9L
tp318
g11
s(L6L
L18L
Ntp319
Ns(V17*D
p320
L2L
L9L
tp321
g11
s(L21L
L10L
L9L
tp322
g11
s(g69
L21L
Ntp323
Ns(V6*DS
p324
L7L
L9L
tp325
g3
s(V17*
p326
L4L
L9L
tp327
g11
s(V18*DS
p328
L4L
L9L
tp329
g11
s(V8*D
p330
L4L
L9L
tp331
g18
s(V14*DS
p332
L10L
L9L
tp333
g3
s(V15*
p334
L5L
L9L
tp335
g11
s(V18*AD
p336
L3L
L9L
tp337
g18
s(V18*DS
p338
L21L
Ntp339
Ns(V8*D
p340
L21L
Ntp341
Ns(V12*
p342
L7L
L9L
tp343
g3
s(L13L
L25L
Ntp344
Ns(L4L
L22L
Ntp345
Ns(V4*DS
p346
L2L
L9L
tp347
g3
s(L18L
L20L
Ntp348
Ns(V21*A
p349
L9L
L9L
tp350
g11
s(L18L
L26L
Ntp351
Ns(V14*A
p352
L3L
L9L
tp353
g3
s(V20*A
p354
L6L
L9L
tp355
g11
s(V17*A
p356
L5L
L9L
tp357
g3
s(L11L
L26L
Ntp358
Ns(g82
L21L
Ntp359
Ns(V13*AD
p360
L11L
L9L
tp361
g3
s(V20*D
p362
L11L
L9L
tp363
g11
s(V14*DS
p364
L6L
L9L
tp365
g11
s(V21*A
p366
L4L
L9L
tp367
g11
s(L11L
L25L
Ntp368
Ns(V19*A
p369
L6L
L9L
tp370
g11
s(V18*D
p371
L4L
L9L
tp372
g11
s(V11*
p373
L6L
L9L
tp374
g3
s(V19*AD
p375
L4L
L9L
tp376
g18
s(V13*AD
p377
L6L
L9L
tp378
g18
s(V20*AD
p379
L11L
L9L
tp380
g11
s(L10L
L26L
Ntp381
Ns(V8*DS
p382
L8L
L9L
tp383
g3
s(L10L
L25L
Ntp384
Ns(V19*A
p385
L3L
L9L
tp386
g11
s(V7*
p387
L6L
L9L
tp388
g3
s(V11*
p389
L3L
L9L
tp390
g3
s(g243
L11L
L9L
tp391
g11
s(V13*
p392
L3L
L9L
tp393
g11
s(V19*A
p394
L10L
L9L
tp395
g11
s(V16*
p396
L9L
L9L
tp397
g11
s(V12*D
p398
L10L
L9L
tp399
g3
s(V14*
p400
L4L
L9L
tp401
g11
s(V15*AD
p402
L21L
Ntp403
Ns(L13L
L20L
Ntp404
Ns(V7*
p405
L3L
L9L
tp406
g3
s(V20*AD
p407
L7L
L9L
tp408
g11
s(V13*
p409
L6L
L9L
tp410
g11
s(V20*DS
p411
L6L
L9L
tp412
g11
s(V14*D
p413
L6L
L9L
tp414
g11
s(g28
L11L
L9L
tp415
g18
s(V5*D
p416
L4L
L9L
tp417
g3
s(V10*D
p418
L7L
L9L
tp419
g18
s(V9*D
p420
L8L
L9L
tp421
g18
s(V17*D
p422
L11L
L9L
tp423
g11
s(L21L
L3L
L9L
tp424
g11
s(V12*ADS
p425
L7L
L9L
tp426
g3
s(V16*AD
p427
L2L
L9L
tp428
g3
s(L14L
L23L
Ntp429
Ns(V7*D
p430
L8L
L9L
tp431
g3
s(V6*D
p432
L3L
L9L
tp433
g3
s(L28L
NNtp434
Ns(L12L
L18L
Ntp435
Ns(V14*D
p436
L3L
L9L
tp437
g11
s(V19*
p438
L7L
L9L
tp439
g11
s(V10*D
p440
L2L
L9L
tp441
g18
s(L21L
L6L
L9L
tp442
g11
s(V12*ADS
p443
L2L
L9L
tp444
g3
s(V19*D
p445
L2L
L9L
tp446
g11
s(L16L
L18L
Ntp447
Ns(V18*
p448
L2L
L9L
tp449
g11
s(V16*AD
p450
L7L
L9L
tp451
g3
s(V8*D
p452
L8L
L9L
tp453
g3
s(V18*DS
p454
L8L
L9L
tp455
g11
s(V20*
p456
L11L
L9L
tp457
g11
s(g84
L11L
L9L
tp458
g3
s(V22*
p459
NNtp460
Ns(V16*A
p461
L3L
L9L
tp462
g3
s(V18*
p463
L7L
L9L
tp464
g11
s(V19*
p465
L2L
L9L
tp466
g11
s(V7*D
p467
L4L
L9L
tp468
g3
s(V14*AD
p469
L2L
L9L
tp470
g3
s(L9L
L19L
Ntp471
Ns(V15*
p472
L11L
L9L
tp473
g3
s(V15*A
p474
L2L
L9L
tp475
g3
s(V12*DS
p476
L21L
Ntp477
Ns(V13*A
p478
L4L
L9L
tp479
g3
s(g286
L11L
L9L
tp480
g11
s(V13*D
p481
L11L
L9L
tp482
g3
s(L14L
L24L
Ntp483
Ns(V6*DS
p484
L8L
L9L
tp485
g3
s(V8*DS
p486
L5L
L9L
tp487
g18
s(V15*AD
p488
L6L
L9L
tp489
g18
s(L13L
L17L
Ntp490
Ns(V4*DS
p491
L9L
L9L
tp492
g3
s(L13L
L23L
Ntp493
Ns(L6L
L23L
Ntp494
Ns(V18*A
p495
L5L
L9L
tp496
g11
s(V26*
p497
NNtp498
Ns(V17*
p499
L10L
L9L
tp500
g11
s(V8*
p501
L9L
L9L
tp502
g3
s(V15*AD
p503
L3L
L9L
tp504
g18
s(L11L
L18L
Ntp505
Ns(V7*
p506
L10L
L9L
tp507
g3
s(V12*D
p508
L7L
L9L
tp509
g3
s(V17*
p510
L3L
L9L
tp511
g11
s(g481
L21L
Ntp512
Ns(V21*A
p513
L11L
L9L
tp514
g11
s(V17*AD
p515
L5L
L9L
tp516
g18
s(g129
L11L
L9L
tp517
g18
s(V10*
p518
L5L
L9L
tp519
g3
s(L18L
L23L
Ntp520
Ns(V11*D
p521
L2L
L9L
tp522
g18
s(V4*DS
p523
L5L
L9L
tp524
g3
s(V14*
p525
L8L
L9L
tp526
g3
s(V13*AD
p527
L9L
L9L
tp528
g3
s(V19*AD
p529
L11L
L9L
tp530
g11
s(L15L
L17L
Ntp531
Ns(V20*D
p532
L5L
L9L
tp533
g11
s(L10L
L24L
Ntp534
Ns(V20*DS
p535
L10L
L9L
tp536
g11
s(L17L
L20L
Ntp537
Ns(V13*
p538
L8L
L9L
tp539
g3
s(V16*A
p540
L10L
L9L
tp541
g3
s(L12L
L23L
Ntp542
Ns(L12L
L25L
Ntp543
Ns(V15*
p544
L2L
L9L
tp545
g11
s(V20*
p546
L7L
L9L
tp547
g11
s(V20*A
p548
L8L
L9L
tp549
g11
s(V9*
p550
L3L
L9L
tp551
g3
s(L21L
L8L
L9L
tp552
g11
s(V9*D
p553
L7L
L9L
tp554
g18
s(V14*DS
p555
L8L
L9L
tp556
g3
s(V15*
p557
L7L
L9L
tp558
g3
s(V18*AD
p559
L5L
L9L
tp560
g18
s(L11L
L23L
Ntp561
Ns(V12*
p562
L5L
L9L
tp563
g11
s(L11L
L17L
Ntp564
Ns(L4L
L25L
Ntp565
Ns(V13*D
p566
L7L
L9L
tp567
g3
s(L4L
L19L
Ntp568
Ns(L16L
L20L
Ntp569
Ns(V6*DS
p570
L4L
L9L
tp571
g3
s(L18L
L17L
Ntp572
Ns(V8*D
p573
L7L
L9L
tp574
g3
s(V18*DS
p575
L7L
L9L
tp576
g11
s(L9L
L24L
Ntp577
Ns(V14*A
p578
L5L
L9L
tp579
g3
s(V15*AD
p580
L10L
L9L
tp581
g3
s(L13L
L26L
Ntp582
Ns(V17*A
p583
L3L
L9L
tp584
g3
s(V16*D
p585
L10L
L9L
tp586
g11
s(L30L
NNtp587
Ns(V10*DS
p588
L2L
L9L
tp589
g18
s(V21*A
p590
L6L
L9L
tp591
g11
s(V18*AD
p592
L9L
L9L
tp593
g3
s(V19*A
p594
L4L
L9L
tp595
g11
s(V18*D
p596
L2L
L9L
tp597
g11
s(V11*
p598
L4L
L9L
tp599
g3
s(V19*AD
p600
L2L
L9L
tp601
g18
s(V13*AD
p602
L4L
L9L
tp603
g18
s(L16L
L24L
Ntp604
Ns(V20*AD
p605
L9L
L9L
tp606
g11
s(V21*
p607
L6L
L9L
tp608
g11
s(L12L
L20L
Ntp609
Ns(V16*
p610
L2L
L9L
tp611
g11
s(V16*D
p612
L6L
L9L
tp613
g11
s(L17L
L23L
Ntp614
Ns(V19*AD
p615
L7L
L9L
tp616
g11
s(L6L
L21L
Ntp617
Ns(V16*DS
p618
L5L
L9L
tp619
g11
s(V8*
p620
L2L
L9L
tp621
g3
s(g75
L11L
L9L
tp622
g3
s(V21*
p623
L3L
L9L
tp624
g11
s(L10L
L20L
Ntp625
Ns(L10L
L19L
Ntp626
Ns(V7*
p627
L5L
L9L
tp628
g3
s(V13*
p629
L21L
Ntp630
Ns(V8*DS
p631
L2L
L9L
tp632
g3
s(V16*DS
p633
L8L
L9L
tp634
g11
s(V21*
p635
L10L
L9L
tp636
g11
s(V13*
p637
L4L
L9L
tp638
g11
s(V14*D
p639
L8L
L9L
tp640
g3
s(V6*
p641
L2L
L9L
tp642
g3
s(V10*D
p643
L5L
L9L
tp644
g18
s(V5*D
p645
L6L
L9L
tp646
g3
s(V17*D
p647
L9L
L9L
tp648
g11
s(V12*D
p649
L9L
L9L
tp650
g3
s(V12*ADS
p651
L5L
L9L
tp652
g3
s(L14L
L22L
Ntp653
Ns(V7*D
p654
L10L
L9L
tp655
g3
s(L15L
L25L
Ntp656
Ns(V20*A
p657
L4L
L9L
tp658
g11
s(V15*D
p659
L3L
L9L
tp660
g11
s(V14*D
p661
L5L
L9L
tp662
g11
s(V19*
p663
L5L
L9L
tp664
g11
s(V5*D
p665
L3L
L9L
tp666
g3
s(L21L
L4L
L9L
tp667
g11
s(V9*D
p668
L11L
L9L
tp669
g3
s(L18L
L24L
Ntp670
Ns(V14*DS
p671
L4L
L9L
tp672
g11
s(V13*A
p673
L3L
L9L
tp674
g3
s(V12*
p675
L9L
L9L
tp676
g3
s(L15L
L21L
Ntp677
Ns(V12*DS
p678
L6L
L9L
tp679
g11
s(g338
L11L
L9L
tp680
g11
s(g340
L11L
L9L
tp681
g3
s(V20*
p682
L8L
L9L
tp683
g11
s(V13*A
p684
L6L
L9L
tp685
g3
s(g138
L11L
L9L
tp686
g11
s(g56
L21L
Ntp687
Ns(L21L
NNtp688
Ns(V6*DS
p689
L10L
L9L
tp690
g3
s(V12*DS
p691
L3L
L9L
tp692
g11
s(V19*A
p693
L8L
L9L
tp694
g11
s(g131
L11L
L9L
tp695
g3
s(V18*A
p696
L11L
L9L
tp697
g11
s(V13*D
p698
L8L
L9L
tp699
g3
s(g696
L21L
Ntp700
Ns(V17*
p701
L8L
L9L
tp702
g11
s(V27*
p703
NNtp704
Ns(V8*
p705
L11L
L9L
tp706
g3
s(V20*AD
p707
L5L
L9L
tp708
g11
s(L8L
L18L
Ntp709
Ns(V12*DS
p710
L10L
L9L
tp711
g3
s(L8L
L21L
Ntp712
Ns(V14*
p713
L3L
L9L
tp714
g11
s(V15*AD
p715
L5L
L9L
tp716
g18
s(L6L
L19L
Ntp717
Ns(V18*A
p718
L6L
L9L
tp719
g11
s(V20*D
p720
L2L
L9L
tp721
g11
s(L6L
L25L
Ntp722
Ns(g37
L21L
Ntp723
Ns(V17*AD
p724
L11L
L9L
tp725
g3
s(V10*
p726
L3L
L9L
tp727
g3
s(g724
L21L
Ntp728
Ns(V11*D
p729
L4L
L9L
tp730
g18
s(V6*
p731
L11L
L9L
tp732
g3
s(V7*
p733
L9L
L9L
tp734
g3
s(V19*AD
p735
L9L
L9L
tp736
g11
s(V20*D
p737
L7L
L9L
tp738
g11
s(V21*A
p739
L8L
L9L
tp740
g11
s(g362
L21L
Ntp741
Ns(V17*AD
p742
L6L
L9L
tp743
g18
s(L20L
L25L
Ntp744
Ns(V16*AD
p745
L8L
L9L
tp746
g3
s(V13*AD
p747
L10L
L9L
tp748
g3
s(V7*D
p749
L6L
L9L
tp750
g3
s(L9L
L17L
Ntp751
Ns(L9L
L22L
Ntp752
Ns(V16*A
p753
L4L
L9L
tp754
g3
s(V18*
p755
L8L
L9L
tp756
g11
s(V19*
p757
L9L
L9L
tp758
g11
s(V13*AD
p759
L3L
L9L
tp760
g18
s(V16*DS
p761
L7L
L9L
tp762
g11
s(V16*A
p763
L9L
L9L
tp764
g3
s(V9*
p765
L5L
L9L
tp766
g3
s(L25L
NNtp767
Ns(V9*D
p768
L5L
L9L
tp769
g18
s(L8L
L24L
Ntp770
Ns(V6*DS
p771
L3L
L9L
tp772
g3
s(L14L
L20L
Ntp773
Ns(V24*
p774
NNtp775
Ns(V18*AD
p776
L7L
L9L
tp777
g11
s(V15*D
p778
L8L
L9L
tp779
g3
s(V20*
p780
L4L
L9L
tp781
g11
s(V14*D
p782
L10L
L9L
tp783
g3
s(L26L
NNtp784
Ns(g422
L21L
Ntp785
Ns(g41
L11L
L9L
tp786
g11
s(L21L
L26L
Ntp787
Ns(L21L
L19L
Ntp788
Ns(V6*DS
p789
L6L
L9L
tp790
g3
s(V6*D
p791
L7L
L9L
tp792
g3
s(L11L
L19L
Ntp793
Ns(V8*D
p794
L5L
L9L
tp795
g18
s(V18*DS
p796
L5L
L9L
tp797
g11
s(g213
L11L
L9L
tp798
g3
s(V14*A
p799
L7L
L9L
tp800
g3
s(V18*AD
p801
L2L
L9L
tp802
g18
s(V14*A
p803
L21L
Ntp804
Ns(L11L
L20L
Ntp805
Ns(V4*DS
p806
L7L
L9L
tp807
g3
s(L14L
L18L
Ntp808
Ns(V9*
p809
L9L
L9L
tp810
g3
s(V16*D
p811
L8L
L9L
tp812
g11
s(L4L
L23L
Ntp813
Ns(g220
L11L
L9L
tp814
g3
s(V13*D
p815
L4L
L9L
tp816
g11
s(V19*D
p817
L6L
L9L
tp818
g11
s(L18L
L21L
Ntp819
Ns(V10*DS
p820
L4L
L9L
tp821
g18
s(V6*D
p822
L2L
L9L
tp823
g3
s(V10*
p824
L10L
L9L
tp825
g3
s(V15*D
p826
L4L
L9L
tp827
g11
s(V14*A
p828
L2L
L9L
tp829
g3
s(V15*AD
p830
L9L
L9L
tp831
g3
s(V11*
p832
L10L
L9L
tp833
g3
s(L15L
L19L
Ntp834
Ns(V19*D
p835
L3L
L9L
tp836
g11
s(V6*D
p837
L11L
L9L
tp838
g3
s(V21*
p839
L4L
L9L
tp840
g11
s(V15*A
p841
L6L
L9L
tp842
g3
s(V19*A
p843
L7L
L9L
tp844
g11
s(V16*A
p845
L21L
Ntp846
Ns(V14*AD
p847
L7L
L9L
tp848
g3
s(V19*D
p849
L10L
L9L
tp850
g11
s(V11*
p851
L7L
L9L
tp852
g3
s(V19*AD
p853
L5L
L9L
tp854
g18
s(L6L
L20L
Ntp855
Ns(L8L
L26L
Ntp856
Ns(V20*AD
p857
L10L
L9L
tp858
g11
s(V8*DS
p859
L9L
L9L
tp860
g3
s(L12L
L24L
Ntp861
Ns(V15*A
p862
L3L
L9L
tp863
g3
s(V18*A
p864
L9L
L9L
tp865
g3
s(V7*
p866
L7L
L9L
tp867
g3
s(V16*DS
p868
L10L
L9L
tp869
g11
s(L27L
NNtp870
Ns(V15*A
p871
L10L
L9L
tp872
g3
s(V13*
p873
L2L
L9L
tp874
g11
s(L10L
L23L
Ntp875
Ns(V5*D
p876
L8L
L9L
tp877
g3
s(V10*D
p878
L11L
L9L
tp879
g18
s(V17*D
p880
L7L
L9L
tp881
g11
s(V12*D
p882
L11L
L9L
tp883
g3
s(V12*ADS
p884
L11L
L9L
tp885
g3
s(V17*AD
p886
L9L
L9L
tp887
g3
s(V20*DS
p888
L3L
L9L
tp889
g11
s(V12*
p890
L2L
L9L
tp891
g11
s(V20*A
p892
L2L
L9L
tp893
g11
s(V14*D
p894
L7L
L9L
tp895
g3
s(V10*D
p896
L6L
L9L
tp897
g18
s(V5*D
p898
L5L
L9L
tp899
g3
s(V9*D
p900
L9L
L9L
tp901
g3
s(V17*D
p902
L10L
L9L
tp903
g11
s(L21L
L2L
L9L
tp904
g11
s(V12*ADS
p905
L6L
L9L
tp906
g3
s(V16*AD
p907
L3L
L9L
tp908
g18
s(V14*D
p909
L21L
Ntp910
Ns(V7*D
p911
L9L
L9L
tp912
g3
s(L9L
L25L
Ntp913
Ns(V14*DS
p914
L2L
L9L
tp915
g11
s(L9L
L23L
Ntp916
Ns(g178
L11L
L9L
tp917
g11
s(L9L
L20L
Ntp918
Ns(V20*A
p919
L7L
L9L
tp920
g11
s(V18*
p921
L3L
L9L
tp922
g11
s(V19*
p923
L6L
L9L
tp924
g11
s(L16L
L19L
Ntp925
Ns(V12*DS
p926
L4L
L9L
tp927
g11
s(V18*DS
p928
L9L
L9L
tp929
g11
s(V8*D
p930
L9L
L9L
tp931
g3
s(V14*DS
p932
L7L
L9L
tp933
g3
s(V16*A
p934
L6L
L9L
tp935
g3
s(V20*
p936
L10L
L9L
tp937
g11
s(L11L
L24L
Ntp938
Ns(V18*D
p939
L9L
L9L
tp940
g11
s(V16*D
p941
L4L
L9L
tp942
g11
s(V21*
p943
L21L
Ntp944
Ns(L29L
NNtp945
Ns(V13*D
p946
L10L
L9L
tp947
g3
s(L21L
L24L
Ntp948
Ns(V8*
p949
L5L
L9L
tp950
g3
s(L14L
L25L
Ntp951
Ns(V20*AD
p952
L3L
L9L
tp953
g11
s(L10L
L18L
Ntp954
Ns(V21*
p955
L8L
L9L
tp956
g11
s(L10L
L17L
Ntp957
Ns(V17*A
p958
L10L
L9L
tp959
g3
s(V19*A
p960
L11L
L9L
tp961
g11
s(V15*AD
p962
L7L
L9L
tp963
g3
s(V4*DS
p964
L8L
L9L
tp965
g3
s(V18*A
p966
L4L
L9L
tp967
g11
s(V8*
p968
L8L
L9L
tp969
g3
s(V20*AD
p970
L6L
L9L
tp971
g11
s(L8L
L17L
Ntp972
Ns(L18L
L19L
Ntp973
Ns(V11*D
p974
L6L
L9L
tp975
g18
s(V6*
p976
L9L
L9L
tp977
g3
s(V12*D
p978
L2L
L9L
tp979
g11
s(L21L
L23L
Ntp980
Ns(V7*
p981
L11L
L9L
tp982
g3
s(V21*A
p983
L10L
L9L
tp984
g11
s(g513
L21L
Ntp985
Ns(V17*AD
p986
L4L
L9L
tp987
g18
s(V17*A
p988
L6L
L9L
tp989
g3
s(V11*D
p990
L3L
L9L
tp991
g18
s(V11*
p992
L8L
L9L
tp993
g3
s(V16*AD
p994
L10L
L9L
tp995
g3
s(V13*AD
p996
L8L
L9L
tp997
g3
s(V16*
p998
L6L
L9L
tp999
g11
s(V18*
p1000
L10L
L9L
tp1001
g11
s(L16L
L26L
Ntp1002
Ns(V7*D
p1003
L5L
L9L
tp1004
g3
s(L9L
L18L
Ntp1005
Ns(V20*
p1006
L3L
L9L
tp1007
g11
s(V13*A
p1008
L9L
L9L
tp1009
g3
s(V16*
p1010
L3L
L9L
tp1011
g11
s(g845
L11L
L9L
tp1012
g3
s(V9*
p1013
L7L
L9L
tp1014
g3
s(V16*D
p1015
L21L
Ntp1016
Ns(V19*
p1017
L10L
L9L
tp1018
g11
s(V16*DS
p1019
L4L
L9L
tp1020
g11
s(V12*DS
p1021
L8L
L9L
tp1022
g3
s(V15*
p1023
L3L
L9L
tp1024
g11
s(V16*
p1025
L10L
L9L
tp1026
g11
s(V15*D
p1027
L10L
L9L
tp1028
g11
s(V20*
p1029
L6L
L9L
tp1030
g11
s(V10*D
p1031
L9L
L9L
tp1032
g18
s(V5*D
p1033
L10L
L9L
tp1034
g3
s(V17*D
p1035
L5L
L9L
tp1036
g11
s(V12*ADS
p1037
L9L
L9L
tp1038
g3
s(V13*D
p1039
L3L
L9L
tp1040
g11
s(V20*A
p1041
L9L
L9L
tp1042
g11
s(L23L
NNtp1043
Ns(V17*
p1044
L7L
L9L
tp1045
g11
s(L8L
L20L
Ntp1046
Ns(L8L
L23L
Ntp1047
Ns(V9*
p1048
L2L
L9L
tp1049
g3
s(V6*D
p1050
L5L
L9L
tp1051
g3
s(V14*DS
p1052
L9L
L9L
tp1053
g3
s(V14*A
p1054
L9L
L9L
tp1055
g3
s(V18*AD
p1056
L4L
L9L
tp1057
g18
s(V14*D
p1058
L9L
L9L
tp1059
g3
s(V14*AD
p1060
L9L
L9L
tp1061
g3
s(V13*D
p1062
L6L
L9L
tp1063
g11
s(V19*D
p1064
L4L
L9L
tp1065
g11
s(L21L
L20L
Ntp1066
Ns(V17*
p1067
L2L
L9L
tp1068
g11
s(L16L
L21L
Ntp1069
Ns(V10*DS
p1070
L6L
L9L
tp1071
g18
s(V10*
p1072
L8L
L9L
tp1073
g3
s(L19L
L17L
Ntp1074
Ns(V14*A
p1075
L4L
L9L
tp1076
g3
s(g402
L11L
L9L
tp1077
g3
s(V4*DS
p1078
L4L
L9L
tp1079
g3
s(g1015
L11L
L9L
tp1080
g11
s(g360
L21L
Ntp1081
Ns(V20*D
p1082
L8L
L9L
tp1083
g11
s(V21*A
p1084
L3L
L9L
tp1085
g11
s(V15*A
p1086
L4L
L9L
tp1087
g3
s(V10*DS
p1088
L3L
L9L
tp1089
g18
s(L20L
L24L
Ntp1090
Ns(V19*A
p1091
L5L
L9L
tp1092
g11
s(L20L
L18L
Ntp1093
Ns(L15L
L23L
Ntp1094
Ns(V11*
p1095
L5L
L9L
tp1096
g3
s(V19*AD
p1097
L3L
L9L
tp1098
g18
s(g529
L21L
Ntp1099
Ns(V20*AD
p1100
L8L
L9L
tp1101
g11
s(V21*
p1102
L7L
L9L
tp1103
g11
s(V8*
p1104
L7L
L9L
tp1105
g3
s(L17L
L22L
Ntp1106
Ns(L8L
L25L
Ntp1107
Ns(L20L
L20L
Ntp1108
Ns(V14*
p1109
L7L
L9L
tp1110
g3
s(g668
L21L
Ntp1111
Ns(V9*D
p1112
L2L
L9L
tp1113
g18
s(L14L
L26L
Ntp1114
Ns(V18*A
p1115
L10L
L9L
tp1116
g3
s(V20*DS
p1117
L5L
L9L
tp1118
g11
s(g884
L21L
Ntp1119
Ns(L21L
L17L
Ntp1120
Ns(g878
L21L
Ntp1121
Ns(V14*
p1122
L2L
L9L
tp1123
g11
s(V9*
p1124
L11L
L9L
tp1125
g3
s(V10*D
p1126
L4L
L9L
tp1127
g18
s(V5*D
p1128
L7L
L9L
tp1129
g3
s(V17*D
p1130
L8L
L9L
tp1131
g11
s(V12*ADS
p1132
L4L
L9L
tp1133
g3
s(V18*A
p1134
L3L
L9L
tp1135
g11
s(V7*D
p1136
L11L
L9L
tp1137
g3
s(V8*D
p1138
L2L
L9L
tp1139
g3
s(V18*DS
p1140
L2L
L9L
tp1141
g11
s(L15L
L24L
Ntp1142
Ns(V17*AD
p1143
L10L
L9L
tp1144
g3
s(V15*D
p1145
L6L
L9L
tp1146
g11
s(L19L
L24L
Ntp1147
Ns(g314
L11L
L9L
tp1148
g3
s(L4L
L17L
Ntp1149
Ns(L19L
L18L
Ntp1150
Ns(V20*A
p1151
L5L
L9L
tp1152
g11
s(V19*
p1153
L4L
L9L
tp1154
g11
s(L9L
L26L
Ntp1155
Ns(V6*D
p1156
L9L
L9L
tp1157
g3
s(L18L
L25L
Ntp1158
Ns(V17*AD
p1159
L3L
L9L
tp1160
g18
s(V20*DS
p1161
L9L
L9L
tp1162
g11
s(V14*DS
p1163
L5L
L9L
tp1164
g11
s(V18*AD
p1165
L8L
L9L
tp1166
g11
s(V13*A
p1167
L2L
L9L
tp1168
g3
s(V18*D
p1169
L7L
L9L
tp1170
g11
s(V13*A
p1171
L21L
Ntp1172
Ns(V16*D
p1173
L2L
L9L
tp1174
g11
s(V14*AD
p1175
L5L
L9L
tp1176
g18
s(V19*D
p1177
L8L
L9L
tp1178
g11
s(V15*
p1179
L8L
L9L
tp1180
g3
s(L16L
L25L
Ntp1181
Ns(V12*DS
p1182
L7L
L9L
tp1183
g3
s(V23*
p1184
NNtp1185
Ns(V16*A
p1186
L5L
L9L
tp1187
g3
s(V18*D
p1188
L10L
L9L
tp1189
g11
s(V16*D
p1190
L7L
L9L
tp1191
g11
s(L8L
L22L
Ntp1192
Ns(V8*DS
p1193
L6L
L9L
tp1194
g18
s(V15*A
p1195
L8L
L9L
tp1196
g3
s(V17*A
p1197
L8L
L9L
tp1198
g3
s(L20L
L23L
Ntp1199
Ns(V19*A
p1200
L9L
L9L
tp1201
g11
s(V4*DS
p1202
L10L
L9L
tp1203
g3
s(g379
L21L
Ntp1204
Ns(V8*
p1205
L10L
L9L
tp1206
g3
s(V15*
p1207
L4L
L9L
tp1208
g11
s(V20*AD
p1209
L4L
L9L
tp1210
g11
s(L18L
L18L
Ntp1211
Ns(V8*DS
p1212
L3L
L9L
tp1213
g3
s(g803
L11L
L9L
tp1214
g3
s(g943
L11L
L9L
tp1215
g11
s(V11*D
p1216
L8L
L9L
tp1217
g18
s(L10L
L21L
Ntp1218
Ns(V6*
p1219
L7L
L9L
tp1220
g3
s(V12*D
p1221
L4L
L9L
tp1222
g11
s(L17L
L26L
Ntp1223
Ns(V20*D
p1224
L3L
L9L
tp1225
g11
s(V19*D
p1226
L21L
Ntp1227
Ns(L19L
L23L
Ntp1228
Ns(V11*D
p1229
L5L
L9L
tp1230
g18
s(L20L
L26L
Ntp1231
Ns(V6*
p1232
L10L
L9L
tp1233
g3
s(V16*AD
p1234
L4L
L9L
tp1235
g18
s(V7*D
p1236
L2L
L9L
tp1237
g3
s(L9L
L21L
Ntp1238
Ns(V16*
p1239
L4L
L9L
tp1240
g11
s(g1
L21L
Ntp1241
Ns(V18*
p1242
L4L
L9L
tp1243
g11
s(g47
L21L
Ntp1244
Ns(V11*
p1245
L11L
L9L
tp1246
g3
s(V16*AD
p1247
L9L
L9L
tp1248
g3
s(V16*DS
p1249
L3L
L9L
tp1250
g11
s(V7*D
p1251
L7L
L9L
tp1252
g3
s(g629
L11L
L9L
tp1253
g3
s(L15L
L20L
Ntp1254
Ns(g1171
L11L
L9L
tp1255
g3
s(V11*
p1256
L2L
L9L
tp1257
g3
s(V18*
p1258
L9L
L9L
tp1259
g11
s(V19*
p1260
L8L
L9L
tp1261
g11
s(V
p1262
g1262
L9L
tp1263
VBegin
p1264
s(V16*DS
p1265
L6L
L9L
tp1266
g11
s(L21L
L25L
Ntp1267
Ns(V17*D
p1268
L3L
L9L
tp1269
g11
s(L21L
L11L
L9L
tp1270
g11
s(V9*
p1271
L4L
L9L
tp1272
g3
s(V17*
p1273
L5L
L9L
tp1274
g11
s(V6*DS
p1275
L2L
L9L
tp1276
g3
s(L14L
L21L
Ntp1277
Ns(g456
L21L
Ntp1278
Ns(V13*
p1279
L7L
L9L
tp1280
g3
s(V12*
p1281
L6L
L9L
tp1282
g11
s(g476
L11L
L9L
tp1283
g3
s(V18*AD
p1284
L6L
L9L
tp1285
g18
s(V15*D
p1286
L9L
L9L
tp1287
g11
s(V4*DS
p1288
L3L
L9L
tp1289
g3
s(g909
L11L
L9L
tp1290
g3
s(L19L
L26L
Ntp1291
Ns(V5*D
p1292
L9L
L9L
tp1293
g3
s(V10*D
p1294
L10L
L9L
tp1295
g18
s(V17*D
p1296
L6L
L9L
tp1297
g11
s(V12*ADS
p1298
L10L
L9L
tp1299
g3
s(L8L
L19L
Ntp1300
Ns(V10*DS
p1301
L8L
L9L
tp1302
g18
s(V6*D
p1303
L6L
L9L
tp1304
g3
s(V10*
p1305
L6L
L9L
tp1306
g3
s(V12*
p1307
L3L
L9L
tp1308
g11
s(V17*A
p1309
L4L
L9L
tp1310
g3
s(V14*A
p1311
L6L
L9L
tp1312
g3
s(V10*D
p1313
L3L
L9L
tp1314
g18
s(L21L
L7L
L9L
tp1315
g11
s(V12*ADS
p1316
L3L
L9L
tp1317
g3
s(V4*DS
p1318
L6L
L9L
tp1319
g3
s(g882
L21L
Ntp1320
Ns(V16*D
p1321
L9L
L9L
tp1322
g11
s(V14*AD
p1323
L10L
L9L
tp1324
g3
s(V19*D
p1325
L7L
L9L
tp1326
g11
s(V20*D
p1327
L10L
L9L
tp1328
g11
s(V21*A
p1329
L5L
L9L
tp1330
g11
s(L16L
L17L
Ntp1331
Ns(V12*
p1332
L10L
L9L
tp1333
g3
s(V10*DS
p1334
L5L
L9L
tp1335
g18
s(V10*
p1336
L11L
L9L
tp1337
g3
s(V18*D
p1338
L5L
L9L
tp1339
g11
s(g960
L21L
Ntp1340
Ns(V13*AD
p1341
L7L
L9L
tp1342
g3
s(L15L
L18L
Ntp1343
Ns(V21*
p1344
L5L
L9L
tp1345
g11
s(V15*A
p1346
L7L
L9L
tp1347
g3
s(L20L
L22L
Ntp1348
Ns(L20L
L17L
Ntp1349
Ns(L22L
NNtp1350
Ns(V13*AD
p1351
L2L
L9L
tp1352
g3
s(V16*
p1353
L8L
L9L
tp1354
g11
s(V14*
p1355
L5L
L9L
tp1356
g11
s(V7*
p1357
L2L
L9L
tp1358
g3
s(V18*A
p1359
L8L
L9L
tp1360
g11
s(L17L
L18L
Ntp1361
Ns(V8*
p1362
L4L
L9L
tp1363
g3
s(V20*DS
p1364
L7L
L9L
tp1365
g11
s(L17L
L24L
Ntp1366
Ns(V11*D
p1367
L10L
L9L
tp1368
g18
s(V6*
p1369
L5L
L9L
tp1370
g3
s(L19L
L25L
Ntp1371
Ns(g837
L21L
Ntp1372
Ns(g472
L21L
Ntp1373
Ns(V17*AD
p1374
L8L
L9L
tp1375
g3
s(V20*DS
p1376
L2L
L9L
tp1377
g11
s(V14*D
p1378
L2L
L9L
tp1379
g11
s(L21L
L21L
Ntp1380
Ns(L21L
L18L
Ntp1381
Ns(V20*A
p1382
L3L
L9L
tp1383
g11
s(L14L
L19L
Ntp1384
Ns(V16*AD
p1385
L6L
L9L
tp1386
g18
s(L16L
L23L
Ntp1387
Ns(V9*
p1388
L8L
L9L
tp1389
g3
s(V14*DS
p1390
L3L
L9L
tp1391
g11
s(V16*A
p1392
L2L
L9L
tp1393
g3
s(V18*AD
p1394
L10L
L9L
tp1395
g3
s(V15*D
p1396
L5L
L9L
tp1397
g11
s(L12L
L22L
Ntp1398
Ns(g172
L21L
Ntp1399
Ns(V18*
p1400
L6L
L9L
tp1401
g11
s(L12L
L17L
Ntp1402
Ns(L4L
L21L
Ntp1403
Ns(V14*AD
p1404
L3L
L9L
tp1405
g18
s(V15*
p1406
L10L
L9L
tp1407
g11
s(V6*D
p1408
L10L
L9L
tp1409
g3
s(g1136
L21L
Ntp1410
Ns(V12*DS
p1411
L5L
L9L
tp1412
g11
s(V19*A
p1413
L2L
L9L
tp1414
g11
s(V16*A
p1415
L7L
L9L
tp1416
g3
s(V18*D
p1417
L8L
L9L
tp1418
g11
s(V16*D
p1419
L5L
L9L
tp1420
g11
s(V6*DS
p1421
L9L
L9L
tp1422
g3
s(V14*AD
p1423
L6L
L9L
tp1424
g18
s(g1226
L11L
L9L
tp1425
g11
s(V8*DS
p1426
L4L
L9L
tp1427
g18
s(L6L
L22L
Ntp1428
Ns(V20*AD
p1429
L2L
L9L
tp1430
g11
s(V21*
p1431
L9L
L9L
tp1432
g11
s.