(dp0
(V8*
p1
L2L
L3L
tp2
VDraw
p3
s(L21L
L3L
L3L
tp4
VStay
p5
s(L13L
L21L
Ntp6
Ns(L13L
L18L
Ntp7
Ns(V13*
p8
L6L
L3L
tp9
g5
s(V20*A
p10
L2L
L3L
tp11
g5
s(L13L
L24L
Ntp12
Ns(V13*A
p13
L10L
L3L
tp14
g3
s(V12*ADS
p15
L8L
L3L
tp16
g3
s(V17*A
p17
L8L
L3L
tp18
g3
s(V20*DS
p19
L7L
L3L
tp20
g5
s(V17*A
p21
L6L
L3L
tp22
g3
s(V20*D
p23
L7L
L3L
tp24
g5
s(L6L
L26L
Ntp25
Ns(V18*AD
p26
L6L
L3L
tp27
VDouble
p28
s(V6*DS
p29
L2L
L3L
tp30
g3
s(V15*AD
p31
L4L
L3L
tp32
g28
s(L15L
L26L
Ntp33
Ns(V20*
p34
L21L
Ntp35
Ns(V19*A
p36
L21L
Ntp37
Ns(V15*AD
p38
L10L
L3L
tp39
g3
s(L19L
L19L
Ntp40
Ns(V10*D
p41
L21L
Ntp42
Ns(V13*D
p43
L4L
L3L
tp44
g5
s(V19*AD
p45
L3L
L3L
tp46
g5
s(L19L
L20L
Ntp47
Ns(V18*A
p48
L4L
L3L
tp49
g5
s(V18*A
p50
L2L
L3L
tp51
g5
s(V14*AD
p52
L9L
L3L
tp53
g3
s(V13*A
p54
L6L
L3L
tp55
g3
s(V14*AD
p56
L3L
L3L
tp57
g3
s(V12*D
p58
L9L
L3L
tp59
g3
s(L17L
L21L
Ntp60
Ns(V18*DS
p61
L3L
L3L
tp62
g5
s(V12*ADS
p63
L6L
L3L
tp64
g3
s(V21*
p65
L10L
L3L
tp66
g5
s(V20*D
p67
L11L
L3L
tp68
g5
s(V24*
p69
NNtp70
Ns(V12*DS
p71
L5L
L3L
tp72
g5
s(V15*D
p73
L3L
L3L
tp74
g5
s(V19*D
p75
L3L
L3L
tp76
g5
s(V15*D
p77
L5L
L3L
tp78
g5
s(V13*D
p79
L8L
L3L
tp80
g3
s(V13*D
p81
L2L
L3L
tp82
g5
s(V19*AD
p83
L5L
L3L
tp84
g28
s(V21*A
p85
L4L
L3L
tp86
g5
s(V6*D
p87
L3L
L3L
tp88
g3
s(V21*A
p89
L10L
L3L
tp90
g5
s(V7*D
p91
L3L
L3L
tp92
g3
s(V12*D
p93
L5L
L3L
tp94
g5
s(V4*DS
p95
L6L
L3L
tp96
g3
s(V7*D
p97
L9L
L3L
tp98
g3
s(V21*
p99
L6L
L3L
tp100
g5
s(L4L
L24L
Ntp101
Ns(V12*DS
p102
L9L
L3L
tp103
g3
s(L4L
L18L
Ntp104
Ns(V13*
p105
L21L
Ntp106
Ns(V17*D
p107
L21L
Ntp108
Ns(V15*
p109
L5L
L3L
tp110
g5
s(g36
L11L
L3L
tp111
g5
s(L14L
L17L
Ntp112
Ns(V15*D
p113
L9L
L3L
tp114
g3
s(V13*AD
p115
L21L
Ntp116
Ns(V16*DS
p117
L21L
Ntp118
Ns(L18L
L22L
Ntp119
Ns(V11*
p120
L9L
L3L
tp121
g3
s(V20*
p122
L5L
L3L
tp123
g5
s(V11*D
p124
L3L
L3L
tp125
g28
s(V20*
p126
L3L
L3L
tp127
g5
s(V10*D
p128
L5L
L3L
tp129
g28
s(V4*DS
p130
L10L
L3L
tp131
g3
s(V8*DS
p132
L4L
L3L
tp133
g3
s(L4L
L20L
Ntp134
Ns(V14*
p135
L5L
L3L
tp136
g5
s(V15*
p137
L9L
L3L
tp138
g3
s(V13*AD
p139
L9L
L3L
tp140
g3
s(V17*D
p141
L9L
L3L
tp142
g5
s(V15*
p143
L3L
L3L
tp144
g5
s(V20*AD
p145
L21L
Ntp146
Ns(V11*
p147
L5L
L3L
tp148
g3
s(V18*
p149
L5L
L3L
tp150
g5
s(L15L
L22L
Ntp151
Ns(V18*
p152
L3L
L3L
tp153
g5
s(V10*D
p154
L3L
L3L
tp155
g28
s(V8*DS
p156
L8L
L3L
tp157
g3
s(V16*D
p158
L8L
L3L
tp159
g3
s(V15*A
p160
L9L
L3L
tp161
g3
s(L13L
L19L
Ntp162
Ns(L20L
L21L
Ntp163
Ns(V14*
p164
L11L
L3L
tp165
g3
s(V10*DS
p166
L11L
L3L
tp167
g3
s(V13*AD
p168
L5L
L3L
tp169
g28
s(V17*D
p170
L5L
L3L
tp171
g5
s(L6L
L17L
Ntp172
Ns(L17L
L25L
Ntp173
Ns(V13*AD
p174
L3L
L3L
tp175
g3
s(V17*D
p176
L3L
L3L
tp177
g5
s(V14*A
p178
L11L
L3L
tp179
g3
s(V14*A
p180
L5L
L3L
tp181
g3
s(V9*D
p182
L9L
L3L
tp183
g3
s(V10*
p184
L5L
L3L
tp185
g3
s(V8*D
p186
L2L
L3L
tp187
g3
s(V16*DS
p188
L8L
L3L
tp189
g3
s(L19L
L21L
Ntp190
Ns(V16*DS
p191
L2L
L3L
tp192
g5
s(L19L
L22L
Ntp193
Ns(V5*D
p194
L10L
L3L
tp195
g3
s(L16L
L22L
Ntp196
Ns(V9*
p197
L4L
L3L
tp198
g3
s(V16*D
p199
L2L
L3L
tp200
g5
s(V18*D
p201
L10L
L3L
tp202
g5
s(V15*A
p203
L3L
L3L
tp204
g3
s(V18*AD
p205
L21L
Ntp206
Ns(V17*A
p207
L21L
Ntp208
Ns(V16*A
p209
L11L
L3L
tp210
g3
s(V14*D
p211
L8L
L3L
tp212
g3
s(L21L
L22L
Ntp213
Ns(V9*D
p214
L5L
L3L
tp215
g28
s(V10*
p216
L9L
L3L
tp217
g3
s(V14*DS
p218
L10L
L3L
tp219
g3
s(V10*
p220
L3L
L3L
tp221
g3
s(V5*D
p222
L6L
L3L
tp223
g3
s(L12L
L21L
Ntp224
Ns(V9*
p225
L8L
L3L
tp226
g3
s(V20*AD
p227
L7L
L3L
tp228
g5
s(V9*
p229
L2L
L3L
tp230
g3
s(V9*D
p231
L21L
Ntp232
Ns(V18*D
p233
L4L
L3L
tp234
g5
s(V8*
p235
L7L
L3L
tp236
g3
s(L20L
L19L
Ntp237
Ns(V17*
p238
L11L
L3L
tp239
g5
s(V17*AD
p240
L4L
L3L
tp241
g28
s(L21L
L8L
L3L
tp242
g5
s(V20*A
p243
L7L
L3L
tp244
g5
s(V14*D
p245
L2L
L3L
tp246
g5
s(L4L
L26L
Ntp247
Ns(V20*DS
p248
L6L
L3L
tp249
g5
s(L17L
L19L
Ntp250
Ns(V20*DS
p251
L8L
L3L
tp252
g5
s(g166
L21L
Ntp253
Ns(V25*
p254
NNtp255
Ns(V17*A
p256
L3L
L3L
tp257
g3
s(L11L
L21L
Ntp258
Ns(L11L
L22L
Ntp259
Ns(V18*AD
p260
L3L
L3L
tp261
g28
s(L6L
L24L
Ntp262
Ns(V18*AD
p263
L9L
L3L
tp264
g3
s(V17*AD
p265
L8L
L3L
tp266
g3
s(V14*AD
p267
L2L
L3L
tp268
g3
s(L21L
L4L
L3L
tp269
g5
s(V20*A
p270
L11L
L3L
tp271
g5
s(L13L
L22L
Ntp272
Ns(V13*
p273
L7L
L3L
tp274
g3
s(V17*AD
p275
L2L
L3L
tp276
g28
s(V18*DS
p277
L2L
L3L
tp278
g5
s(V12*ADS
p279
L7L
L3L
tp280
g3
s(V13*A
p281
L11L
L3L
tp282
g3
s(V12*ADS
p283
L9L
L3L
tp284
g3
s(V17*A
p285
L5L
L3L
tp286
g3
s(V26*
p287
NNtp288
Ns(V18*AD
p289
L5L
L3L
tp290
g28
s(V6*DS
p291
L3L
L3L
tp292
g3
s(V15*AD
p293
L3L
L3L
tp294
g3
s(L24L
NNtp295
Ns(V19*D
p296
L8L
L3L
tp297
g5
s(V13*D
p298
L3L
L3L
tp299
g5
s(V15*AD
p300
L9L
L3L
tp301
g3
s(V19*AD
p302
L4L
L3L
tp303
g5
s(V6*D
p304
L2L
L3L
tp305
g3
s(L12L
L19L
Ntp306
Ns(V13*D
p307
L5L
L3L
tp308
g5
s(V19*AD
p309
L2L
L3L
tp310
g5
s(V18*A
p311
L11L
L3L
tp312
g5
s(L12L
L26L
Ntp313
Ns(V14*AD
p314
L8L
L3L
tp315
g3
s(V7*D
p316
L8L
L3L
tp317
g3
s(V13*A
p318
L7L
L3L
tp319
g3
s(L17L
L17L
Ntp320
Ns(V12*D
p321
L8L
L3L
tp322
g3
s(V21*
p323
L3L
L3L
tp324
g5
s(V21*
p325
L9L
L3L
tp326
g5
s(V12*DS
p327
L2L
L3L
tp328
g3
s(V19*D
p329
L4L
L3L
tp330
g5
s(V15*D
p331
L6L
L3L
tp332
g5
s(L10L
L22L
Ntp333
Ns(V13*D
p334
L9L
L3L
tp335
g3
s(L6L
L18L
Ntp336
Ns(V21*A
p337
L3L
L3L
tp338
g5
s(V8*DS
p339
L5L
L3L
tp340
g3
s(V11*D
p341
L8L
L3L
tp342
g28
s(V21*A
p343
L9L
L3L
tp344
g5
s(V7*D
p345
L2L
L3L
tp346
g3
s(V12*D
p347
L4L
L3L
tp348
g5
s(V4*DS
p349
L7L
L3L
tp350
g3
s(L13L
L25L
Ntp351
Ns(V21*
p352
L5L
L3L
tp353
g5
s(L4L
L22L
Ntp354
Ns(V15*
p355
L2L
L3L
tp356
g5
s(L18L
L20L
Ntp357
Ns(V15*
p358
L4L
L3L
tp359
g5
s(V19*A
p360
L4L
L3L
tp361
g5
s(V15*D
p362
L10L
L3L
tp363
g3
s(L18L
L26L
Ntp364
Ns(L11L
L26L
Ntp365
Ns(V11*
p366
L8L
L3L
tp367
g3
s(V20*
p368
L10L
L3L
tp369
g5
s(V10*D
p370
L2L
L3L
tp371
g28
s(V8*DS
p372
L9L
L3L
tp373
g3
s(V11*D
p374
L4L
L3L
tp375
g28
s(V10*D
p376
L4L
L3L
tp377
g28
s(L11L
L25L
Ntp378
Ns(V4*DS
p379
L11L
L3L
tp380
g3
s(V14*
p381
L10L
L3L
tp382
g3
s(g238
L21L
Ntp383
Ns(V14*
p384
L4L
L3L
tp385
g5
s(V15*
p386
L8L
L3L
tp387
g3
s(L10L
L26L
Ntp388
Ns(L10L
L25L
Ntp389
Ns(V19*A
p390
L2L
L3L
tp391
g5
s(V19*
p392
L5L
L3L
tp393
g5
s(V11*
p394
L4L
L3L
tp395
g3
s(V18*
p396
L10L
L3L
tp397
g5
s(V16*DS
p398
L3L
L3L
tp399
g5
s(V16*D
p400
L7L
L3L
tp401
g3
s(V15*A
p402
L6L
L3L
tp403
g3
s(L13L
L20L
Ntp404
Ns(V20*DS
p405
L21L
Ntp406
Ns(V10*DS
p407
L10L
L3L
tp408
g3
s(V16*A
p409
L6L
L3L
tp410
g3
s(V15*A
p411
L21L
Ntp412
Ns(V19*
p413
L9L
L3L
tp414
g5
s(L14L
L23L
Ntp415
Ns(V10*
p416
L2L
L3L
tp417
g3
s(V14*A
p418
L6L
L3L
tp419
g3
s(V19*
p420
L3L
L3L
tp421
g5
s(V14*DS
p422
L7L
L3L
tp423
g3
s(V9*D
p424
L8L
L3L
tp425
g3
s(V10*
p426
L4L
L3L
tp427
g3
s(V8*D
p428
L3L
L3L
tp429
g3
s(V16*DS
p430
L9L
L3L
tp431
g3
s(L28L
NNtp432
Ns(L12L
L18L
Ntp433
Ns(V9*
p434
L3L
L3L
tp435
g3
s(V20*AD
p436
L10L
L3L
tp437
g5
s(V18*D
p438
L5L
L3L
tp439
g5
s(L16L
L18L
Ntp440
Ns(V5*D
p441
L11L
L3L
tp442
g3
s(V9*
p443
L5L
L3L
tp444
g3
s(V18*D
p445
L11L
L3L
tp446
g5
s(V17*
p447
L6L
L3L
tp448
g5
s(V16*A
p449
L8L
L3L
tp450
g3
s(V14*D
p451
L7L
L3L
tp452
g3
s(L9L
L19L
Ntp453
Ns(V9*D
p454
L4L
L3L
tp455
g28
s(V10*
p456
L8L
L3L
tp457
g3
s(V14*DS
p458
L9L
L3L
tp459
g3
s(g311
L21L
Ntp460
Ns(V18*AD
p461
L8L
L3L
tp462
g5
s(V5*D
p463
L7L
L3L
tp464
g3
s(V9*
p465
L9L
L3L
tp466
g3
s(L14L
L24L
Ntp467
Ns(V20*AD
p468
L4L
L3L
tp469
g5
s(V8*
p470
L6L
L3L
tp471
g3
s(V17*AD
p472
L3L
L3L
tp473
g28
s(L13L
L17L
Ntp474
Ns(V13*
p475
L10L
L3L
tp476
g3
s(V19*
p477
L21L
Ntp478
Ns(V17*AD
p479
L5L
L3L
tp480
g28
s(L21L
L9L
L3L
tp481
g5
s(L13L
L23L
Ntp482
Ns(V17*
p483
L8L
L3L
tp484
g5
s(V20*A
p485
L6L
L3L
tp486
g5
s(L6L
L23L
Ntp487
Ns(V18*DS
p488
L9L
L3L
tp489
g5
s(V17*A
p490
L4L
L3L
tp491
g3
s(g405
L11L
L3L
tp492
g5
s(V8*D
p493
L21L
Ntp494
Ns(V21*
p495
L21L
Ntp496
Ns(V7*D
p497
L21L
Ntp498
Ns(V17*A
p499
L2L
L3L
tp500
g3
s(V18*AD
p501
L4L
L3L
tp502
g28
s(L11L
L18L
Ntp503
Ns(V18*AD
p504
L2L
L3L
tp505
g28
s(V6*DS
p506
L6L
L3L
tp507
g3
s(V15*AD
p508
L8L
L3L
tp509
g3
s(V16*
p510
L5L
L3L
tp511
g5
s(V6*DS
p512
L21L
Ntp513
Ns(V16*
p514
L21L
Ntp515
Ns(L18L
L23L
Ntp516
Ns(V6*D
p517
L9L
L3L
tp518
g3
s(L21L
L5L
L3L
tp519
g5
s(V17*AD
p520
L9L
L3L
tp521
g3
s(V14*AD
p522
L5L
L3L
tp523
g28
s(V20*A
p524
L10L
L3L
tp525
g5
s(V13*
p526
L4L
L3L
tp527
g5
s(V13*A
p528
L2L
L3L
tp529
g3
s(L15L
L17L
Ntp530
Ns(V18*DS
p531
L5L
L3L
tp532
g5
s(V21*
p533
L8L
L3L
tp534
g5
s(V13*A
p535
L8L
L3L
tp536
g3
s(g445
L21L
Ntp537
Ns(L10L
L24L
Ntp538
Ns(V12*ADS
p539
L10L
L3L
tp540
g3
s(V6*DS
p541
L10L
L3L
tp542
g3
s(V15*D
p543
L7L
L3L
tp544
g3
s(V16*
p545
L9L
L3L
tp546
g3
s(V16*
p547
L3L
L3L
tp548
g5
s(V15*AD
p549
L2L
L3L
tp550
g3
s(L17L
L20L
Ntp551
Ns(V19*D
p552
L9L
L3L
tp553
g5
s(V19*AD
p554
L11L
L3L
tp555
g5
s(V27*
p556
NNtp557
Ns(L12L
L23L
Ntp558
Ns(V6*D
p559
L5L
L3L
tp560
g3
s(V13*D
p561
L6L
L3L
tp562
g5
s(V18*A
p563
L10L
L3L
tp564
g3
s(L12L
L25L
Ntp565
Ns(V21*A
p566
L8L
L3L
tp567
g5
s(V12*
p568
L5L
L3L
tp569
g5
s(V14*AD
p570
L11L
L3L
tp571
g3
s(V7*D
p572
L7L
L3L
tp573
g3
s(V21*
p574
L4L
L3L
tp575
g5
s(V13*A
p576
L4L
L3L
tp577
g3
s(V12*D
p578
L11L
L3L
tp579
g3
s(V21*
p580
L2L
L3L
tp581
g5
s(V15*D
p582
L11L
L3L
tp583
g3
s(V12*DS
p584
L3L
L3L
tp585
g5
s(L11L
L23L
Ntp586
Ns(V19*D
p587
L5L
L3L
tp588
g5
s(L11L
L17L
Ntp589
Ns(L4L
L25L
Ntp590
Ns(V13*D
p591
L10L
L3L
tp592
g3
s(V12*
p593
L9L
L3L
tp594
g3
s(L4L
L19L
Ntp595
Ns(V12*
p596
L3L
L3L
tp597
g5
s(L16L
L20L
Ntp598
Ns(V10*D
p599
L9L
L3L
tp600
g28
s(V8*DS
p601
L2L
L3L
tp602
g3
s(L18L
L17L
Ntp603
Ns(V11*D
p604
L9L
L3L
tp605
g28
s(V21*A
p606
L2L
L3L
tp607
g5
s(V12*D
p608
L7L
L3L
tp609
g3
s(L9L
L24L
Ntp610
Ns(V4*DS
p611
L4L
L3L
tp612
g3
s(L13L
L26L
Ntp613
Ns(V19*A
p614
L3L
L3L
tp615
g5
s(L30L
NNtp616
Ns(V15*
p617
L7L
L3L
tp618
g3
s(V19*A
p619
L5L
L3L
tp620
g5
s(V11*
p621
L11L
L3L
tp622
g3
s(g281
L21L
Ntp623
Ns(g34
L11L
L3L
tp624
g5
s(L16L
L24L
Ntp625
Ns(V11*D
p626
L5L
L3L
tp627
g28
s(V10*D
p628
L7L
L3L
tp629
g28
s(L12L
L20L
Ntp630
Ns(V4*DS
p631
L8L
L3L
tp632
g3
s(V7*
p633
L5L
L3L
tp634
g3
s(V14*
p635
L7L
L3L
tp636
g3
s(L17L
L23L
Ntp637
Ns(V10*DS
p638
L7L
L3L
tp639
g28
s(L6L
L21L
Ntp640
Ns(V15*
p641
L11L
L3L
tp642
g3
s(L10L
L20L
Ntp643
Ns(V16*AD
p644
L10L
L3L
tp645
g3
s(V14*A
p646
L7L
L3L
tp647
g3
s(V19*
p648
L2L
L3L
tp649
g5
s(L10L
L19L
Ntp650
Ns(V6*
p651
L11L
L3L
tp652
g3
s(V12*
p653
L21L
Ntp654
Ns(V19*
p655
L4L
L3L
tp656
g5
s(V11*
p657
L7L
L3L
tp658
g3
s(V18*
p659
L11L
L3L
tp660
g5
s(V8*D
p661
L6L
L3L
tp662
g28
s(V16*DS
p663
L4L
L3L
tp664
g5
s(L14L
L22L
Ntp665
Ns(V7*
p666
L9L
L3L
tp667
g3
s(V16*D
p668
L6L
L3L
tp669
g5
s(V15*A
p670
L7L
L3L
tp671
g3
s(V7*
p672
L3L
L3L
tp673
g3
s(L15L
L25L
Ntp674
Ns(V16*A
p675
L9L
L3L
tp676
g3
s(V10*DS
p677
L9L
L3L
tp678
g28
s(V16*A
p679
L7L
L3L
tp680
g3
s(V16*AD
p681
L6L
L3L
tp682
g28
s(V6*
p683
L7L
L3L
tp684
g3
s(V19*
p685
L8L
L3L
tp686
g5
s(V14*DS
p687
L8L
L3L
tp688
g3
s(L18L
L24L
Ntp689
Ns(V14*DS
p690
L6L
L3L
tp691
g5
s(V8*D
p692
L10L
L3L
tp693
g3
s(g231
L11L
L3L
tp694
g3
s(V10*
p695
L7L
L3L
tp696
g3
s(V20*AD
p697
L5L
L3L
tp698
g5
s(V16*DS
p699
L10L
L3L
tp700
g5
s(V5*D
p701
L2L
L3L
tp702
g3
s(g145
L11L
L3L
tp703
g5
s(V18*D
p704
L2L
L3L
tp705
g5
s(V5*D
p706
L8L
L3L
tp707
g3
s(L15L
L21L
Ntp708
Ns(V9*
p709
L6L
L3L
tp710
g3
s(V18*D
p711
L8L
L3L
tp712
g5
s(V8*
p713
L11L
L3L
tp714
g3
s(V17*
p715
L9L
L3L
tp716
g5
s(V17*
p717
L7L
L3L
tp718
g5
s(V14*D
p719
L6L
L3L
tp720
g5
s(V20*DS
p721
L10L
L3L
tp722
g5
s(L21L
NNtp723
Ns(V9*D
p724
L7L
L3L
tp725
g3
s(V10*
p726
L11L
L3L
tp727
g3
s(g554
L21L
Ntp728
Ns(V5*D
p729
L4L
L3L
tp730
g3
s(V9*
p731
L10L
L3L
tp732
g3
s(L8L
L18L
Ntp733
Ns(L8L
L21L
Ntp734
Ns(V13*
p735
L5L
L3L
tp736
g5
s(V8*
p737
L5L
L3L
tp738
g3
s(g105
L11L
L3L
tp739
g3
s(L6L
L19L
Ntp740
Ns(V13*A
p741
L9L
L3L
tp742
g3
s(V17*AD
p743
L6L
L3L
tp744
g28
s(L21L
L10L
L3L
tp745
g5
s(V20*A
p746
L5L
L3L
tp747
g5
s(V12*ADS
p748
L11L
L3L
tp749
g3
s(L6L
L25L
Ntp750
Ns(g379
L21L
Ntp751
Ns(V18*DS
p752
L8L
L3L
tp753
g5
s(g207
L11L
L3L
tp754
g3
s(V20*D
p755
L4L
L3L
tp756
g5
s(V16*
p757
L2L
L3L
tp758
g5
s(V6*DS
p759
L7L
L3L
tp760
g3
s(V15*AD
p761
L7L
L3L
tp762
g3
s(V16*
p763
L4L
L3L
tp764
g5
s(V14*DS
p765
L21L
Ntp766
Ns(V13*D
p767
L7L
L3L
tp768
g3
s(V16*AD
p769
L21L
Ntp770
Ns(V18*A
p771
L7L
L3L
tp772
g5
s(V14*AD
p773
L10L
L3L
tp774
g3
s(V6*D
p775
L8L
L3L
tp776
g3
s(L20L
L25L
Ntp777
Ns(V13*A
p778
L5L
L3L
tp779
g3
s(V17*AD
p780
L10L
L3L
tp781
g3
s(V14*AD
p782
L4L
L3L
tp783
g28
s(L21L
L6L
L3L
tp784
g5
s(V12*D
p785
L10L
L3L
tp786
g3
s(V20*A
p787
L9L
L3L
tp788
g5
s(V13*A
p789
L3L
L3L
tp790
g3
s(L9L
L17L
Ntp791
Ns(L9L
L22L
Ntp792
Ns(V18*DS
p793
L4L
L3L
tp794
g5
s(V20*D
p795
L8L
L3L
tp796
g5
s(V12*DS
p797
L6L
L3L
tp798
g5
s(V20*D
p799
L2L
L3L
tp800
g5
s(g512
L11L
L3L
tp801
g3
s(V16*
p802
L8L
L3L
tp803
g3
s(V13*D
p804
L11L
L3L
tp805
g3
s(V19*D
p806
L10L
L3L
tp807
g5
s(V19*AD
p808
L10L
L3L
tp809
g5
s(V12*
p810
L2L
L3L
tp811
g3
s(V6*D
p812
L4L
L3L
tp813
g3
s(L25L
NNtp814
Ns(V18*A
p815
L9L
L3L
tp816
g3
s(V12*
p817
L4L
L3L
tp818
g5
s(V21*A
p819
L7L
L3L
tp820
g5
s(V12*D
p821
L6L
L3L
tp822
g5
s(L14L
L20L
Ntp823
Ns(L8L
L24L
Ntp824
Ns(V4*DS
p825
L5L
L3L
tp826
g3
s(V7*D
p827
L6L
L3L
tp828
g3
s(L26L
NNtp829
Ns(L21L
L26L
Ntp830
Ns(g270
L21L
Ntp831
Ns(L21L
L19L
Ntp832
Ns(V12*DS
p833
L10L
L3L
tp834
g3
s(V15*
p835
L6L
L3L
tp836
g5
s(V16*D
p837
L21L
Ntp838
Ns(V19*A
p839
L8L
L3L
tp840
g5
s(L11L
L19L
Ntp841
Ns(L11L
L20L
Ntp842
Ns(V19*D
p843
L6L
L3L
tp844
g5
s(V11*
p845
L10L
L3L
tp846
g3
s(L14L
L18L
Ntp847
Ns(L4L
L23L
Ntp848
Ns(V12*
p849
L8L
L3L
tp850
g3
s(V20*
p851
L6L
L3L
tp852
g5
s(V10*D
p853
L6L
L3L
tp854
g28
s(V4*DS
p855
L9L
L3L
tp856
g3
s(L18L
L21L
Ntp857
Ns(V10*D
p858
L8L
L3L
tp859
g28
s(V8*DS
p860
L3L
L3L
tp861
g3
s(V11*D
p862
L10L
L3L
tp863
g28
s(V14*
p864
L6L
L3L
tp865
g5
s(L15L
L19L
Ntp866
Ns(g164
L21L
Ntp867
Ns(V15*
p868
L10L
L3L
tp869
g3
s(V13*AD
p870
L10L
L3L
tp871
g3
s(V17*D
p872
L10L
L3L
tp873
g5
s(V19*A
p874
L6L
L3L
tp875
g5
s(V11*
p876
L6L
L3L
tp877
g3
s(V
p878
g878
L3L
tp879
VBegin
p880
s(L6L
L20L
Ntp881
Ns(V18*
p882
L6L
L3L
tp883
g5
s(L8L
L26L
Ntp884
Ns(V20*
p885
L8L
L3L
tp886
g5
s(V11*D
p887
L6L
L3L
tp888
g28
s(L12L
L24L
Ntp889
Ns(V7*
p890
L2L
L3L
tp891
g3
s(g837
L11L
L3L
tp892
g3
s(V10*DS
p893
L8L
L3L
tp894
g28
s(V15*A
p895
L10L
L3L
tp896
g3
s(V7*
p897
L4L
L3L
tp898
g3
s(V10*DS
p899
L6L
L3L
tp900
g28
s(V13*AD
p901
L6L
L3L
tp902
g28
s(V17*D
p903
L6L
L3L
tp904
g5
s(L27L
NNtp905
Ns(V16*A
p906
L2L
L3L
tp907
g3
s(g578
L21L
Ntp908
Ns(L10L
L23L
Ntp909
Ns(g769
L11L
L3L
tp910
g3
s(V14*A
p911
L8L
L3L
tp912
g3
s(V6*
p913
L10L
L3L
tp914
g3
s(V9*D
p915
L10L
L3L
tp916
g3
s(V19*
p917
L7L
L3L
tp918
g5
s(V14*A
p919
L2L
L3L
tp920
g3
s(V14*DS
p921
L3L
L3L
tp922
g5
s(V10*
p923
L6L
L3L
tp924
g3
s(g117
L11L
L3L
tp925
g3
s(V18*
p926
L8L
L3L
tp927
g5
s(V8*D
p928
L7L
L3L
tp929
g3
s(V16*DS
p930
L5L
L3L
tp931
g5
s(V5*D
p932
L9L
L3L
tp933
g3
s(V9*
p934
L7L
L3L
tp935
g3
s(V18*D
p936
L9L
L3L
tp937
g5
s(V7*
p938
L8L
L3L
tp939
g3
s(L9L
L25L
Ntp940
Ns(V16*D
p941
L5L
L3L
tp942
g5
s(g641
L21L
Ntp943
Ns(V15*A
p944
L4L
L3L
tp945
g3
s(L9L
L23L
Ntp946
Ns(L9L
L20L
Ntp947
Ns(V17*
p948
L2L
L3L
tp949
g5
s(V16*A
p950
L4L
L3L
tp951
g3
s(V16*AD
p952
L7L
L3L
tp953
g3
s(V14*D
p954
L11L
L3L
tp955
g3
s(V6*
p956
L6L
L3L
tp957
g3
s(V9*D
p958
L6L
L3L
tp959
g28
s(g477
L11L
L3L
tp960
g5
s(L16L
L19L
Ntp961
Ns(V10*
p962
L10L
L3L
tp963
g3
s(g804
L21L
Ntp964
Ns(V14*DS
p965
L5L
L3L
tp966
g5
s(g493
L11L
L3L
tp967
g3
s(L11L
L24L
Ntp968
Ns(V5*D
p969
L5L
L3L
tp970
g3
s(V9*
p971
L11L
L3L
tp972
g3
s(V20*AD
p973
L2L
L3L
tp974
g5
s(V5*D
p975
L3L
L3L
tp976
g3
s(V20*AD
p977
L8L
L3L
tp978
g5
s(V18*D
p979
L3L
L3L
tp980
g5
s(V8*
p981
L4L
L3L
tp982
g3
s(L29L
NNtp983
Ns(V8*
p984
L10L
L3L
tp985
g3
s(V17*AD
p986
L7L
L3L
tp987
g3
s(L21L
L11L
L3L
tp988
g5
s(V20*A
p989
L4L
L3L
tp990
g5
s(g954
L21L
Ntp991
Ns(V17*
p992
L4L
L3L
tp993
g5
s(V14*D
p994
L5L
L3L
tp995
g5
s(L21L
L24L
Ntp996
Ns(V20*DS
p997
L5L
L3L
tp998
g5
s(L14L
L25L
Ntp999
Ns(L10L
L18L
Ntp1000
Ns(L10L
L17L
Ntp1001
Ns(g178
L21L
Ntp1002
Ns(V22*
p1003
NNtp1004
Ns(L8L
L17L
Ntp1005
Ns(L18L
L19L
Ntp1006
Ns(V17*AD
p1007
L11L
L3L
tp1008
g3
s(L21L
L7L
L3L
tp1009
g5
s(V20*A
p1010
L8L
L3L
tp1011
g5
s(V13*
p1012
L2L
L3L
tp1013
g5
s(L21L
L23L
Ntp1014
Ns(V13*
p1015
L8L
L3L
tp1016
g3
s(V8*DS
p1017
L21L
Ntp1018
Ns(V12*ADS
p1019
L4L
L3L
tp1020
g3
s(V20*DS
p1021
L3L
L3L
tp1022
g5
s(V18*DS
p1023
L11L
L3L
tp1024
g5
s(V17*A
p1025
L10L
L3L
tp1026
g3
s(V20*D
p1027
L3L
L3L
tp1028
g5
s(V20*D
p1029
L5L
L3L
tp1030
g5
s(V19*D
p1031
L11L
L3L
tp1032
g5
s(V6*DS
p1033
L4L
L3L
tp1034
g3
s(V15*AD
p1035
L6L
L3L
tp1036
g28
s(V16*
p1037
L7L
L3L
tp1038
g3
s(V19*AD
p1039
L7L
L3L
tp1040
g5
s(V18*A
p1041
L8L
L3L
tp1042
g5
s(V18*A
p1043
L6L
L3L
tp1044
g5
s(L16L
L26L
Ntp1045
Ns(V6*D
p1046
L11L
L3L
tp1047
g3
s(V14*AD
p1048
L7L
L3L
tp1049
g3
s(g497
L11L
L3L
tp1050
g3
s(L9L
L18L
Ntp1051
Ns(V18*DS
p1052
L7L
L3L
tp1053
g5
s(V12*ADS
p1054
L2L
L3L
tp1055
g3
s(V23*
p1056
NNtp1057
Ns(V20*D
p1058
L9L
L3L
tp1059
g5
s(V12*DS
p1060
L7L
L3L
tp1061
g3
s(g659
L21L
Ntp1062
Ns(V19*D
p1063
L7L
L3L
tp1064
g5
s(V6*DS
p1065
L8L
L3L
tp1066
g3
s(g514
L11L
L3L
tp1067
g3
s(V19*AD
p1068
L9L
L3L
tp1069
g5
s(V6*D
p1070
L7L
L3L
tp1071
g3
s(L23L
NNtp1072
Ns(L8L
L20L
Ntp1073
Ns(V11*D
p1074
L11L
L3L
tp1075
g28
s(V12*
p1076
L7L
L3L
tp1077
g3
s(V21*A
p1078
L6L
L3L
tp1079
g5
s(V8*DS
p1080
L6L
L3L
tp1081
g28
s(L8L
L23L
Ntp1082
Ns(V4*DS
p1083
L2L
L3L
tp1084
g3
s(V12*D
p1085
L3L
L3L
tp1086
g5
s(V7*D
p1087
L5L
L3L
tp1088
g3
s(L21L
L20L
Ntp1089
Ns(V12*DS
p1090
L11L
L3L
tp1091
g3
s(V19*A
p1092
L7L
L3L
tp1093
g5
s(L16L
L21L
Ntp1094
Ns(V19*A
p1095
L9L
L3L
tp1096
g5
s(L19L
L17L
Ntp1097
Ns(g67
L21L
Ntp1098
Ns(V20*
p1099
L9L
L3L
tp1100
g5
s(V11*D
p1101
L7L
L3L
tp1102
g28
s(g653
L11L
L3L
tp1103
g3
s(V20*
p1104
L7L
L3L
tp1105
g5
s(V8*DS
p1106
L10L
L3L
tp1107
g3
s(g41
L11L
L3L
tp1108
g3
s(L20L
L24L
Ntp1109
Ns(V14*
p1110
L9L
L3L
tp1111
g3
s(L20L
L18L
Ntp1112
Ns(V28*
p1113
NNtp1114
Ns(L15L
L23L
Ntp1115
Ns(V14*
p1116
L3L
L3L
tp1117
g5
s(V10*DS
p1118
L3L
L3L
tp1119
g28
s(g115
L11L
L3L
tp1120
g3
s(g107
L11L
L3L
tp1121
g5
s(V19*
p1122
L6L
L3L
tp1123
g5
s(V14*A
p1124
L3L
L3L
tp1125
g3
s(V18*
p1126
L9L
L3L
tp1127
g5
s(V11*
p1128
L3L
L3L
tp1129
g3
s(L17L
L22L
Ntp1130
Ns(V18*
p1131
L7L
L3L
tp1132
g5
s(L8L
L25L
Ntp1133
Ns(L20L
L20L
Ntp1134
Ns(V16*D
p1135
L4L
L3L
tp1136
g5
s(V15*A
p1137
L5L
L3L
tp1138
g3
s(L14L
L26L
Ntp1139
Ns(V16*D
p1140
L10L
L3L
tp1141
g5
s(g411
L11L
L3L
tp1142
g3
s(V7*
p1143
L7L
L3L
tp1144
g3
s(V16*A
p1145
L5L
L3L
tp1146
g3
s(V10*DS
p1147
L5L
L3L
tp1148
g28
s(V13*AD
p1149
L7L
L3L
tp1150
g3
s(V17*D
p1151
L7L
L3L
tp1152
g5
s(V16*A
p1153
L3L
L3L
tp1154
g3
s(V16*AD
p1155
L2L
L3L
tp1156
g3
s(L21L
L17L
Ntp1157
Ns(V19*
p1158
L10L
L3L
tp1159
g5
s(V6*
p1160
L3L
L3L
tp1161
g3
s(V16*AD
p1162
L8L
L3L
tp1163
g3
s(V14*A
p1164
L9L
L3L
tp1165
g3
s(V6*
p1166
L9L
L3L
tp1167
g3
s(V14*DS
p1168
L4L
L3L
tp1169
g5
s(V14*DS
p1170
L2L
L3L
tp1171
g5
s(L15L
L24L
Ntp1172
Ns(L19L
L24L
Ntp1173
Ns(V8*D
p1174
L4L
L3L
tp1175
g3
s(L4L
L17L
Ntp1176
Ns(V20*AD
p1177
L9L
L3L
tp1178
g5
s(V16*DS
p1179
L6L
L3L
tp1180
g5
s(L19L
L18L
Ntp1181
Ns(V18*D
p1182
L6L
L3L
tp1183
g5
s(V7*
p1184
L11L
L3L
tp1185
g3
s(L9L
L26L
Ntp1186
Ns(L18L
L25L
Ntp1187
Ns(V17*
p1188
L5L
L3L
tp1189
g5
s(g1023
L21L
Ntp1190
Ns(V14*D
p1191
L4L
L3L
tp1192
g5
s(V17*
p1193
L3L
L3L
tp1194
g5
s(V16*AD
p1195
L4L
L3L
tp1196
g28
s(V14*D
p1197
L10L
L3L
tp1198
g3
s(g570
L21L
Ntp1199
Ns(V6*
p1200
L5L
L3L
tp1201
g3
s(L16L
L25L
Ntp1202
Ns(V9*D
p1203
L3L
L3L
tp1204
g28
s(V8*D
p1205
L8L
L3L
tp1206
g3
s(g205
L11L
L3L
tp1207
g5
s(g1046
L21L
Ntp1208
Ns(V20*AD
p1209
L3L
L3L
tp1210
g5
s(L8L
L22L
Ntp1211
Ns(V8*
p1212
L3L
L3L
tp1213
g3
s(V13*
p1214
L9L
L3L
tp1215
g3
s(L20L
L23L
Ntp1216
Ns(V8*
p1217
L9L
L3L
tp1218
g3
s(V20*A
p1219
L3L
L3L
tp1220
g5
s(V20*DS
p1221
L2L
L3L
tp1222
g5
s(V18*DS
p1223
L10L
L3L
tp1224
g5
s(V20*DS
p1225
L4L
L3L
tp1226
g5
s(L10L
L21L
Ntp1227
Ns(L18L
L18L
Ntp1228
Ns(V17*A
p1229
L7L
L3L
tp1230
g3
s(V18*AD
p1231
L7L
L3L
tp1232
g5
s(V6*DS
p1233
L5L
L3L
tp1234
g3
s(V16*
p1235
L6L
L3L
tp1236
g5
s(V15*AD
p1237
L11L
L3L
tp1238
g3
s(L17L
L26L
Ntp1239
Ns(L19L
L23L
Ntp1240
Ns(V6*D
p1241
L10L
L3L
tp1242
g3
s(V18*A
p1243
L3L
L3L
tp1244
g5
s(V14*AD
p1245
L6L
L3L
tp1246
g28
s(L20L
L26L
Ntp1247
Ns(V13*
p1248
L3L
L3L
tp1249
g5
s(L21L
L2L
L3L
tp1250
g5
s(V18*DS
p1251
L6L
L3L
tp1252
g5
s(V12*ADS
p1253
L3L
L3L
tp1254
g3
s(g748
L21L
Ntp1255
Ns(L9L
L21L
Ntp1256
Ns(g1074
L21L
Ntp1257
Ns(V12*ADS
p1258
L5L
L3L
tp1259
g3
s(g495
L11L
L3L
tp1260
g5
s(V17*A
p1261
L9L
L3L
tp1262
g3
s(V6*DS
p1263
L9L
L3L
tp1264
g3
s(V16*
p1265
L10L
L3L
tp1266
g5
s(V20*D
p1267
L6L
L3L
tp1268
g5
s(V15*D
p1269
L4L
L3L
tp1270
g5
s(L15L
L20L
Ntp1271
Ns(V19*AD
p1272
L8L
L3L
tp1273
g5
s(V15*AD
p1274
L5L
L3L
tp1275
g28
s(V6*D
p1276
L6L
L3L
tp1277
g3
s(V19*AD
p1278
L6L
L3L
tp1279
g28
s(V12*
p1280
L6L
L3L
tp1281
g5
s(V18*A
p1282
L5L
L3L
tp1283
g5
s(V21*A
p1284
L11L
L3L
tp1285
g5
s(V12*D
p1286
L2L
L3L
tp1287
g3
s(V7*D
p1288
L4L
L3L
tp1289
g3
s(V7*D
p1290
L10L
L3L
tp1291
g3
s(V21*
p1292
L7L
L3L
tp1293
g5
s(L21L
L25L
Ntp1294
Ns(g1007
L21L
Ntp1295
Ns(V20*D
p1296
L10L
L3L
tp1297
g5
s(V15*D
p1298
L8L
L3L
tp1299
g3
s(g1031
L21L
Ntp1300
Ns(V12*DS
p1301
L4L
L3L
tp1302
g5
s(L14L
L21L
Ntp1303
Ns(V15*D
p1304
L2L
L3L
tp1305
g5
s(V19*D
p1306
L2L
L3L
tp1307
g5
s(V12*
p1308
L10L
L3L
tp1309
g3
s(L19L
L26L
Ntp1310
Ns(V20*
p1311
L2L
L3L
tp1312
g5
s(V10*D
p1313
L10L
L3L
tp1314
g3
s(L8L
L19L
Ntp1315
Ns(V21*A
p1316
L5L
L3L
tp1317
g5
s(V8*DS
p1318
L7L
L3L
tp1319
g3
s(g209
L21L
Ntp1320
Ns(V4*DS
p1321
L3L
L3L
tp1322
g3
s(V14*
p1323
L2L
L3L
tp1324
g5
s(V12*DS
p1325
L8L
L3L
tp1326
g3
s(L16L
L17L
Ntp1327
Ns(V19*A
p1328
L10L
L3L
tp1329
g5
s(V11*
p1330
L2L
L3L
tp1331
g3
s(L15L
L18L
Ntp1332
Ns(V18*
p1333
L2L
L3L
tp1334
g5
s(g582
L21L
Ntp1335
Ns(V20*
p1336
L4L
L3L
tp1337
g5
s(g1017
L11L
L3L
tp1338
g3
s(V11*D
p1339
L2L
L3L
tp1340
g28
s(L20L
L22L
Ntp1341
Ns(V7*
p1342
L6L
L3L
tp1343
g3
s(V14*
p1344
L8L
L3L
tp1345
g3
s(L20L
L17L
Ntp1346
Ns(V10*DS
p1347
L4L
L3L
tp1348
g28
s(L22L
NNtp1349
Ns(V10*DS
p1350
L2L
L3L
tp1351
g28
s(V13*AD
p1352
L2L
L3L
tp1353
g3
s(V17*D
p1354
L2L
L3L
tp1355
g5
s(V16*AD
p1356
L9L
L3L
tp1357
g3
s(V13*AD
p1358
L8L
L3L
tp1359
g3
s(V17*D
p1360
L8L
L3L
tp1361
g5
s(V6*
p1362
L8L
L3L
tp1363
g3
s(V14*A
p1364
L4L
L3L
tp1365
g3
s(L17L
L18L
Ntp1366
Ns(V8*D
p1367
L5L
L3L
tp1368
g3
s(g1284
L21L
Ntp1369
Ns(V16*DS
p1370
L7L
L3L
tp1371
g3
s(L17L
L24L
Ntp1372
Ns(V18*
p1373
L4L
L3L
tp1374
g5
s(L19L
L25L
Ntp1375
Ns(V7*
p1376
L10L
L3L
tp1377
g3
s(V16*D
p1378
L3L
L3L
tp1379
g5
s(V15*A
p1380
L2L
L3L
tp1381
g3
s(V16*D
p1382
L9L
L3L
tp1383
g3
s(V15*A
p1384
L8L
L3L
tp1385
g3
s(V16*A
p1386
L10L
L3L
tp1387
g3
s(V16*AD
p1388
L5L
L3L
tp1389
g28
s(V13*AD
p1390
L4L
L3L
tp1391
g3
s(V17*D
p1392
L4L
L3L
tp1393
g5
s(V6*
p1394
L4L
L3L
tp1395
g3
s(L21L
L21L
Ntp1396
Ns(V16*AD
p1397
L3L
L3L
tp1398
g3
s(L21L
L18L
Ntp1399
Ns(V6*
p1400
L2L
L3L
tp1401
g3
s(L14L
L19L
Ntp1402
Ns(V9*D
p1403
L2L
L3L
tp1404
g28
s(L16L
L23L
Ntp1405
Ns(V14*A
p1406
L10L
L3L
tp1407
g3
s(g765
L11L
L3L
tp1408
g3
s(V8*D
p1409
L9L
L3L
tp1410
g3
s(L4L
L21L
Ntp1411
Ns(L12L
L22L
Ntp1412
Ns(V20*AD
p1413
L6L
L3L
tp1414
g5
s(L12L
L17L
Ntp1415
Ns(V18*D
p1416
L7L
L3L
tp1417
g5
s(g1237
L21L
Ntp1418
Ns(V8*
p1419
L8L
L3L
tp1420
g3
s(V17*
p1421
L10L
L3L
tp1422
g5
s(V14*D
p1423
L3L
L3L
tp1424
g5
s(V14*D
p1425
L9L
L3L
tp1426
g3
s(V20*DS
p1427
L9L
L3L
tp1428
g5
s(g1090
L21L
Ntp1429
Ns(L6L
L22L
Ntp1430
Ns(V18*AD
p1431
L10L
L3L
tp1432
g3
s.