(dp0
(L13L
L21L
Ntp1
Ns(L13L
L18L
Ntp2
Ns(V16*
p3
L5L
L11L
tp4
VStay
p5
s(L13L
L24L
Ntp6
Ns(V12*D
p7
L21L
Ntp8
Ns(V14*A
p9
L2L
L11L
tp10
VDraw
p11
s(V12*D
p12
L9L
L11L
tp13
g11
s(V20*A
p14
L6L
L11L
tp15
g5
s(V18*
p16
L2L
L11L
tp17
g5
s(V14*AD
p18
L11L
L11L
tp19
g11
s(L6L
L26L
Ntp20
Ns(V11*
p21
L8L
L11L
tp22
g11
s(V12*
p23
L4L
L11L
tp24
g5
s(V20*AD
p25
L2L
L11L
tp26
g5
s(V19*
p27
L21L
Ntp28
Ns(L15L
L26L
Ntp29
Ns(V19*AD
p30
L8L
L11L
tp31
g5
s(V7*
p32
L6L
L11L
tp33
g11
s(V21*A
p34
L10L
L11L
tp35
g5
s(L19L
L19L
Ntp36
Ns(V5*D
p37
L4L
L11L
tp38
g11
s(V6*D
p39
L4L
L11L
tp40
g11
s(V16*DS
p41
L2L
L11L
tp42
g5
s(L19L
L20L
Ntp43
Ns(V16*D
p44
L5L
L11L
tp45
g5
s(V15*
p46
L9L
L11L
tp47
g5
s(V14*D
p48
L2L
L11L
tp49
g5
s(V12*DS
p50
L5L
L11L
tp51
g5
s(L21L
L3L
L11L
tp52
g5
s(V8*
p53
L10L
L11L
tp54
g11
s(L17L
L21L
Ntp55
Ns(V18*DS
p56
L9L
L11L
tp57
g5
s(V14*
p58
L21L
Ntp59
Ns(V18*A
p60
L7L
L11L
tp61
g5
s(V19*D
p62
L9L
L11L
tp63
g5
s(V14*
p64
L3L
L11L
tp65
g5
s(V9*
p66
L4L
L11L
tp67
g11
s(V13*AD
p68
L11L
L11L
tp69
g11
s(V10*DS
p70
L7L
L11L
tp71
VDouble
p72
s(V18*AD
p73
L2L
L11L
tp74
g72
s(V18*D
p75
L5L
L11L
tp76
g5
s(V8*DS
p77
L8L
L11L
tp78
g11
s(V17*D
p79
L3L
L11L
tp80
g5
s(V13*
p81
L9L
L11L
tp82
g11
s(V6*
p83
L10L
L11L
tp84
g11
s(V12*ADS
p85
L6L
L11L
tp86
g11
s(V19*A
p87
L10L
L11L
tp88
g5
s(V17*AD
p89
L10L
L11L
tp90
g11
s(L4L
L24L
Ntp91
Ns(V21*
p92
L7L
L11L
tp93
g5
s(L4L
L18L
Ntp94
Ns(V6*DS
p95
L11L
L11L
tp96
g11
s(L14L
L17L
Ntp97
Ns(V14*
p98
L5L
L11L
tp99
g5
s(V17*
p100
L10L
L11L
tp101
g5
s(L18L
L22L
Ntp102
Ns(V10*
p103
L5L
L11L
tp104
g11
s(V6*D
p105
L2L
L11L
tp106
g11
s(V16*DS
p107
L4L
L11L
tp108
g5
s(V13*A
p109
L21L
Ntp110
Ns(V13*
p111
L3L
L11L
tp112
g5
s(V16*AD
p113
L2L
L11L
tp114
g11
s(V15*D
p115
L2L
L11L
tp116
g5
s(L4L
L20L
Ntp117
Ns(V20*DS
p118
L7L
L11L
tp119
g5
s(V21*
p120
L11L
L11L
tp121
g5
s(V20*
p122
L3L
L11L
tp123
g5
s(V7*D
p124
L21L
Ntp125
Ns(V8*D
p126
L2L
L11L
tp127
g11
s(V4*DS
p128
L5L
L11L
tp129
g11
s(V12*D
p130
L5L
L11L
tp131
g5
s(V20*A
p132
L10L
L11L
tp133
g5
s(V14*DS
p134
L7L
L11L
tp135
g11
s(V14*A
p136
L8L
L11L
tp137
g11
s(V13*A
p138
L5L
L11L
tp139
g11
s(V9*D
p140
L7L
L11L
tp141
g72
s(L15L
L22L
Ntp142
Ns(V7*
p143
L10L
L11L
tp144
g11
s(V19*AD
p145
L4L
L11L
tp146
g72
s(V20*AD
p147
L8L
L11L
tp148
g5
s(V11*D
p149
L6L
L11L
tp150
g72
s(V6*D
p151
L8L
L11L
tp152
g11
s(V8*D
p153
L21L
Ntp154
Ns(V17*A
p155
L3L
L11L
tp156
g11
s(V4*DS
p157
L21L
Ntp158
Ns(V16*D
p159
L9L
L11L
tp160
g5
s(L13L
L19L
Ntp161
Ns(L20L
L21L
Ntp162
Ns(V7*D
p163
L6L
L11L
tp164
g72
s(V14*A
p165
L21L
Ntp166
Ns(L6L
L17L
Ntp167
Ns(V8*
p168
L6L
L11L
tp169
g11
s(V17*AD
p170
L4L
L11L
tp171
g72
s(L17L
L25L
Ntp172
Ns(V15*AD
p173
L5L
L11L
tp174
g72
s(V14*AD
p175
L4L
L11L
tp176
g72
s(V11*
p177
L3L
L11L
tp178
g11
s(V12*
p179
L9L
L11L
tp180
g11
s(V9*
p181
L8L
L11L
tp182
g11
s(V5*D
p183
L11L
L11L
tp184
g11
s(V8*DS
p185
L4L
L11L
tp186
g72
s(L19L
L21L
Ntp187
Ns(V15*
p188
L4L
L11L
tp189
g5
s(V10*DS
p190
L9L
L11L
tp191
g72
s(V18*D
p192
L11L
L11L
tp193
g5
s(L19L
L22L
Ntp194
Ns(L16L
L22L
Ntp195
Ns(V19*A
p196
L7L
L11L
tp197
g5
s(V14*D
p198
L9L
L11L
tp199
g11
s(L21L
L8L
L11L
tp200
g5
s(V18*A
p201
L10L
L11L
tp202
g11
s(V18*DS
p203
L4L
L11L
tp204
g5
s(V20*
p205
L9L
L11L
tp206
g5
s(V15*AD
p207
L3L
L11L
tp208
g72
s(L21L
L22L
Ntp209
Ns(V19*D
p210
L2L
L11L
tp211
g5
s(V14*
p212
L8L
L11L
tp213
g11
s(V4*DS
p214
L3L
L11L
tp215
g11
s(V17*
p216
L6L
L11L
tp217
g5
s(V10*
p218
L9L
L11L
tp219
g11
s(V13*AD
p220
L4L
L11L
tp221
g72
s(V13*D
p222
L7L
L11L
tp223
g11
s(V10*D
p224
L6L
L11L
tp225
g72
s(V20*D
p226
L11L
L11L
tp227
g5
s(L12L
L21L
Ntp228
Ns(V15*A
p229
L3L
L11L
tp230
g11
s(V19*A
p231
L11L
L11L
tp232
g5
s(V12*ADS
p233
L9L
L11L
tp234
g11
s(V12*DS
p235
L8L
L11L
tp236
g11
s(L20L
L19L
Ntp237
Ns(V16*
p238
L2L
L11L
tp239
g5
s(V14*
p240
L4L
L11L
tp241
g5
s(L4L
L26L
Ntp242
Ns(L17L
L19L
Ntp243
Ns(V4*DS
p244
L9L
L11L
tp245
g11
s(V14*AD
p246
L10L
L11L
tp247
g11
s(V14*DS
p248
L11L
L11L
tp249
g11
s(L11L
L21L
Ntp250
Ns(V7*
p251
L7L
L11L
tp252
g11
s(L11L
L22L
Ntp253
Ns(V9*D
p254
L11L
L11L
tp255
g11
s(V5*D
p256
L5L
L11L
tp257
g11
s(g109
L11L
L11L
tp258
g11
s(L6L
L24L
Ntp259
Ns(V16*D
p260
L4L
L11L
tp261
g5
s(V16*AD
p262
L9L
L11L
tp263
g11
s(L13L
L22L
Ntp264
Ns(V17*D
p265
L21L
Ntp266
Ns(V18*DS
p267
L2L
L11L
tp268
g5
s(V14*A
p269
L5L
L11L
tp270
g11
s(V12*D
p271
L8L
L11L
tp272
g11
s(V20*A
p273
L7L
L11L
tp274
g5
s(V7*
p275
L11L
L11L
tp276
g11
s(V18*
p277
L3L
L11L
tp278
g5
s(V9*
p279
L5L
L11L
tp280
g11
s(V11*
p281
L9L
L11L
tp282
g11
s(V12*
p283
L5L
L11L
tp284
g5
s(V11*D
p285
L11L
L11L
tp286
g72
s(V20*AD
p287
L5L
L11L
tp288
g5
s(L24L
NNtp289
Ns(V19*AD
p290
L9L
L11L
tp291
g5
s(V16*D
p292
L8L
L11L
tp293
g5
s(V6*D
p294
L7L
L11L
tp295
g11
s(L12L
L19L
Ntp296
Ns(V17*D
p297
L6L
L11L
tp298
g5
s(L12L
L26L
Ntp299
Ns(g95
L21L
Ntp300
Ns(V15*
p301
L10L
L11L
tp302
g5
s(V12*ADS
p303
L3L
L11L
tp304
g11
s(g120
L21L
Ntp305
Ns(V14*D
p306
L5L
L11L
tp307
g5
s(V12*DS
p308
L2L
L11L
tp309
g5
s(L21L
L4L
L11L
tp310
g5
s(L17L
L17L
Ntp311
Ns(V8*
p312
L9L
L11L
tp313
g11
s(V16*
p314
L4L
L11L
tp315
g5
s(V18*DS
p316
L8L
L11L
tp317
g5
s(V13*
p318
L21L
Ntp319
Ns(V18*A
p320
L4L
L11L
tp321
g5
s(V9*
p322
L9L
L11L
tp323
g11
s(V17*
p324
L11L
L11L
tp325
g5
s(V24*
p326
NNtp327
Ns(V19*D
p328
L8L
L11L
tp329
g5
s(V14*
p330
L2L
L11L
tp331
g5
s(V10*
p332
L4L
L11L
tp333
g11
s(L10L
L22L
Ntp334
Ns(V13*AD
p335
L8L
L11L
tp336
g11
s(V10*DS
p337
L6L
L11L
tp338
g72
s(V18*AD
p339
L3L
L11L
tp340
g72
s(V18*D
p341
L4L
L11L
tp342
g5
s(V8*DS
p343
L11L
L11L
tp344
g11
s(L6L
L18L
Ntp345
Ns(V21*A
p346
L11L
L11L
tp347
g5
s(V20*AD
p348
L21L
Ntp349
Ns(V15*D
p350
L3L
L11L
tp351
g5
s(V13*
p352
L6L
L11L
tp353
g5
s(V15*AD
p354
L2L
L11L
tp355
g11
s(V12*ADS
p356
L5L
L11L
tp357
g11
s(V6*
p358
L5L
L11L
tp359
g11
s(V20*
p360
L2L
L11L
tp361
g5
s(V7*D
p362
L3L
L11L
tp363
g11
s(L13L
L25L
Ntp364
Ns(V17*AD
p365
L9L
L11L
tp366
g11
s(V8*D
p367
L3L
L11L
tp368
g72
s(L4L
L22L
Ntp369
Ns(V17*
p370
L7L
L11L
tp371
g5
s(V10*
p372
L8L
L11L
tp373
g11
s(V14*DS
p374
L6L
L11L
tp375
g5
s(L18L
L20L
Ntp376
Ns(V6*DS
p377
L10L
L11L
tp378
g11
s(L18L
L26L
Ntp379
Ns(V13*D
p380
L10L
L11L
tp381
g11
s(L11L
L26L
Ntp382
Ns(V12*ADS
p383
L21L
Ntp384
Ns(V17*A
p385
L2L
L11L
tp386
g11
s(L11L
L25L
Ntp387
Ns(V16*DS
p388
L11L
L11L
tp389
g5
s(V6*
p390
L3L
L11L
tp391
g11
s(V16*AD
p392
L5L
L11L
tp393
g72
s(V20*DS
p394
L6L
L11L
tp395
g5
s(V8*
p396
L3L
L11L
tp397
g11
s(V14*DS
p398
L10L
L11L
tp399
g11
s(L10L
L26L
Ntp400
Ns(V4*DS
p401
L6L
L11L
tp402
g11
s(L10L
L25L
Ntp403
Ns(V12*D
p404
L4L
L11L
tp405
g5
s(V20*A
p406
L11L
L11L
tp407
g5
s(g165
L11L
L11L
tp408
g11
s(V13*A
p409
L4L
L11L
tp410
g11
s(V10*D
p411
L3L
L11L
tp412
g72
s(V9*D
p413
L4L
L11L
tp414
g72
s(V19*AD
p415
L5L
L11L
tp416
g72
s(V10*DS
p417
L8L
L11L
tp418
g72
s(V11*D
p419
L5L
L11L
tp420
g72
s(V18*D
p421
L10L
L11L
tp422
g5
s(g348
L11L
L11L
tp423
g5
s(V12*
p424
L21L
Ntp425
Ns(V6*D
p426
L11L
L11L
tp427
g11
s(V17*D
p428
L10L
L11L
tp429
g5
s(L13L
L20L
Ntp430
Ns(V7*D
p431
L9L
L11L
tp432
g11
s(V8*
p433
L5L
L11L
tp434
g11
s(V17*AD
p435
L3L
L11L
tp436
g72
s(V15*AD
p437
L4L
L11L
tp438
g72
s(V26*
p439
NNtp440
Ns(V14*AD
p441
L7L
L11L
tp442
g11
s(V11*
p443
L4L
L11L
tp444
g11
s(V19*AD
p445
L21L
Ntp446
Ns(L14L
L23L
Ntp447
Ns(V13*AD
p448
L5L
L11L
tp449
g72
s(V12*
p450
L10L
L11L
tp451
g11
s(V5*D
p452
L8L
L11L
tp453
g11
s(L28L
NNtp454
Ns(L12L
L18L
Ntp455
Ns(V8*DS
p456
L7L
L11L
tp457
g11
s(V15*
p458
L5L
L11L
tp459
g5
s(V12*ADS
p460
L8L
L11L
tp461
g11
s(L16L
L18L
Ntp462
Ns(V14*D
p463
L8L
L11L
tp464
g11
s(L21L
L9L
L11L
tp465
g5
s(V18*A
p466
L11L
L11L
tp467
g5
s(V18*DS
p468
L7L
L11L
tp469
g5
s(V20*
p470
L8L
L11L
tp471
g5
s(V19*D
p472
L5L
L11L
tp473
g5
s(L9L
L19L
Ntp474
Ns(V13*AD
p475
L9L
L11L
tp476
g11
s(V13*A
p477
L10L
L11L
tp478
g11
s(V13*D
p479
L4L
L11L
tp480
g5
s(V10*D
p481
L9L
L11L
tp482
g72
s(V20*D
p483
L4L
L11L
tp484
g5
s(V12*ADS
p485
L4L
L11L
tp486
g11
s(V15*A
p487
L2L
L11L
tp488
g11
s(L14L
L24L
Ntp489
Ns(V15*D
p490
L8L
L11L
tp491
g5
s(L13L
L17L
Ntp492
Ns(L13L
L23L
Ntp493
Ns(V8*D
p494
L8L
L11L
tp495
g11
s(L6L
L23L
Ntp496
Ns(V6*DS
p497
L7L
L11L
tp498
g11
s(V4*DS
p499
L10L
L11L
tp500
g11
s(V18*
p501
L6L
L11L
tp502
g5
s(L11L
L18L
Ntp503
Ns(V6*
p504
L2L
L11L
tp505
g11
s(V9*D
p506
L8L
L11L
tp507
g72
s(V20*D
p508
L2L
L11L
tp509
g5
s(V5*D
p510
L2L
L11L
tp511
g11
s(V6*D
p512
L6L
L11L
tp513
g11
s(V16*AD
p514
L21L
Ntp515
Ns(V17*A
p516
L9L
L11L
tp517
g11
s(V16*D
p518
L3L
L11L
tp519
g5
s(V20*DS
p520
L11L
L11L
tp521
g5
s(V15*
p522
L11L
L11L
tp523
g5
s(V16*AD
p524
L8L
L11L
tp525
g11
s(L18L
L23L
Ntp526
Ns(g285
L21L
Ntp527
Ns(V8*
p528
L8L
L11L
tp529
g11
s(V12*DS
p530
L9L
L11L
tp531
g11
s(g18
L21L
Ntp532
Ns(L15L
L17L
Ntp533
Ns(V18*A
p534
L5L
L11L
tp535
g5
s(L10L
L24L
Ntp536
Ns(V14*A
p537
L4L
L11L
tp538
g11
s(g7
L11L
L11L
tp539
g11
s(V20*A
p540
L4L
L11L
tp541
g5
s(V9*
p542
L2L
L11L
tp543
g11
s(V11*
p544
L10L
L11L
tp545
g11
s(V6*D
p546
L10L
L11L
tp547
g11
s(V12*
p548
L6L
L11L
tp549
g5
s(V11*D
p550
L10L
L11L
tp551
g72
s(V20*AD
p552
L4L
L11L
tp553
g5
s(V8*DS
p554
L10L
L11L
tp555
g11
s(V19*AD
p556
L10L
L11L
tp557
g5
s(L17L
L20L
Ntp558
Ns(V10*DS
p559
L3L
L11L
tp560
g72
s(V18*AD
p561
L6L
L11L
tp562
g72
s(L12L
L23L
Ntp563
Ns(g343
L21L
Ntp564
Ns(V17*D
p565
L7L
L11L
tp566
g5
s(L12L
L25L
Ntp567
Ns(V8*
p568
L4L
L11L
tp569
g11
s(V7*D
p570
L2L
L11L
tp571
g11
s(V12*ADS
p572
L2L
L11L
tp573
g11
s(V14*D
p574
L4L
L11L
tp575
g5
s(V15*AD
p576
L9L
L11L
tp577
g11
s(V12*DS
p578
L3L
L11L
tp579
g5
s(L21L
L5L
L11L
tp580
g5
s(V16*
p581
L11L
L11L
tp582
g5
s(g231
L21L
Ntp583
Ns(V18*DS
p584
L11L
L11L
tp585
g5
s(V10*
p586
L3L
L11L
tp587
g11
s(V19*D
p588
L11L
L11L
tp589
g5
s(V8*DS
p590
L6L
L11L
tp591
g72
s(L11L
L23L
Ntp592
Ns(L11L
L17L
Ntp593
Ns(V16*A
p594
L11L
L11L
tp595
g11
s(L4L
L25L
Ntp596
Ns(V10*DS
p597
L5L
L11L
tp598
g72
s(V18*D
p599
L7L
L11L
tp600
g5
s(L4L
L19L
Ntp601
Ns(V21*A
p602
L4L
L11L
tp603
g5
s(L16L
L20L
Ntp604
Ns(V15*D
p605
L4L
L11L
tp606
g5
s(L18L
L17L
Ntp607
Ns(V13*
p608
L7L
L11L
tp609
g11
s(V6*
p610
L4L
L11L
tp611
g11
s(L9L
L24L
Ntp612
Ns(V20*
p613
L5L
L11L
tp614
g5
s(L13L
L26L
Ntp615
Ns(V8*D
p616
L4L
L11L
tp617
g72
s(V4*DS
p618
L7L
L11L
tp619
g11
s(L30L
NNtp620
Ns(V14*A
p621
L10L
L11L
tp622
g11
s(V6*DS
p623
L9L
L11L
tp624
g11
s(V13*D
p625
L11L
L11L
tp626
g11
s(V18*
p627
L10L
L11L
tp628
g5
s(V10*D
p629
L2L
L11L
tp630
g72
s(V9*D
p631
L5L
L11L
tp632
g72
s(V20*AD
p633
L10L
L11L
tp634
g5
s(V11*D
p635
L4L
L11L
tp636
g72
s(L16L
L24L
Ntp637
Ns(V21*A
p638
L2L
L11L
tp639
g5
s(V17*A
p640
L5L
L11L
tp641
g11
s(V16*DS
p642
L10L
L11L
tp643
g5
s(L12L
L20L
Ntp644
Ns(V19*
p645
L5L
L11L
tp646
g5
s(V16*AD
p647
L4L
L11L
tp648
g72
s(V20*DS
p649
L5L
L11L
tp650
g5
s(g157
L11L
L11L
tp651
g11
s(L17L
L23L
Ntp652
Ns(L6L
L21L
Ntp653
Ns(V8*
p654
L2L
L11L
tp655
g11
s(V17*AD
p656
L8L
L11L
tp657
g11
s(L10L
L20L
Ntp658
Ns(L10L
L19L
Ntp659
Ns(V9*D
p660
L9L
L11L
tp661
g11
s(V12*D
p662
L7L
L11L
tp663
g11
s(V20*D
p664
L3L
L11L
tp665
g5
s(V20*A
p666
L8L
L11L
tp667
g5
s(g424
L11L
L11L
tp668
g11
s(V13*A
p669
L7L
L11L
tp670
g11
s(g520
L21L
Ntp671
Ns(V19*AD
p672
L6L
L11L
tp673
g72
s(V18*AD
p674
L10L
L11L
tp675
g11
s(V19*
p676
L3L
L11L
tp677
g5
s(g265
L11L
L11L
tp678
g5
s(L14L
L22L
Ntp679
Ns(g466
L21L
Ntp680
Ns(L15L
L25L
Ntp681
Ns(V18*DS
p682
L6L
L11L
tp683
g5
s(V7*D
p684
L8L
L11L
tp685
g11
s(V17*AD
p686
L2L
L11L
tp687
g72
s(V15*AD
p688
L7L
L11L
tp689
g11
s(V12*
p690
L7L
L11L
tp691
g11
s(V11*
p692
L5L
L11L
tp693
g11
s(L18L
L24L
Ntp694
Ns(g226
L21L
Ntp695
Ns(g192
L21L
Ntp696
Ns(V13*AD
p697
L2L
L11L
tp698
g11
s(V13*D
p699
L5L
L11L
tp700
g5
s(V17*
p701
L2L
L11L
tp702
g5
s(V16*A
p703
L7L
L11L
tp704
g11
s(V15*A
p705
L7L
L11L
tp706
g11
s(V15*
p707
L6L
L11L
tp708
g5
s(L15L
L21L
Ntp709
Ns(V18*DS
p710
L10L
L11L
tp711
g5
s(V14*D
p712
L11L
L11L
tp713
g11
s(L21L
L10L
L11L
tp714
g5
s(V18*A
p715
L8L
L11L
tp716
g5
s(V15*D
p717
L21L
Ntp718
Ns(V20*
p719
L11L
L11L
tp720
g5
s(L21L
NNtp721
Ns(V19*D
p722
L4L
L11L
tp723
g5
s(V27*
p724
NNtp725
Ns(g584
L21L
Ntp726
Ns(V14*AD
p727
L6L
L11L
tp728
g72
s(g406
L21L
Ntp729
Ns(V10*D
p730
L8L
L11L
tp731
g72
s(V20*D
p732
L5L
L11L
tp733
g5
s(V5*D
p734
L9L
L11L
tp735
g11
s(V13*
p736
L10L
L11L
tp737
g11
s(L8L
L18L
Ntp738
Ns(V6*
p739
L9L
L11L
tp740
g11
s(V15*D
p741
L9L
L11L
tp742
g5
s(L8L
L21L
Ntp743
Ns(V19*
p744
L9L
L11L
tp745
g5
s(L6L
L19L
Ntp746
Ns(V8*D
p747
L9L
L11L
tp748
g11
s(L6L
L25L
Ntp749
Ns(V6*DS
p750
L6L
L11L
tp751
g11
s(V12*D
p752
L10L
L11L
tp753
g11
s(V20*A
p754
L5L
L11L
tp755
g5
s(V11*
p756
L11L
L11L
tp757
g11
s(V18*
p758
L7L
L11L
tp759
g5
s(V21*A
p760
L3L
L11L
tp761
g5
s(V17*A
p762
L21L
Ntp763
Ns(g445
L11L
L11L
tp764
g5
s(V5*D
p765
L3L
L11L
tp766
g11
s(V16*DS
p767
L7L
L11L
tp768
g5
s(V17*A
p769
L8L
L11L
tp770
g11
s(V16*D
p771
L2L
L11L
tp772
g5
s(V20*DS
p773
L10L
L11L
tp774
g5
s(V28*
p775
NNtp776
Ns(g514
L11L
L11L
tp777
g11
s(L20L
L25L
Ntp778
Ns(L9L
L17L
Ntp779
Ns(V12*DS
p780
L6L
L11L
tp781
g5
s(V12*D
p782
L6L
L11L
tp783
g5
s(V20*A
p784
L9L
L11L
tp785
g5
s(L9L
L22L
Ntp786
Ns(V18*A
p787
L2L
L11L
tp788
g5
s(V14*A
p789
L7L
L11L
tp790
g11
s(V19*D
p791
L10L
L11L
tp792
g5
s(V17*AD
p793
L21L
Ntp794
Ns(V19*AD
p795
L7L
L11L
tp796
g5
s(V9*
p797
L3L
L11L
tp798
g11
s(V16*D
p799
L21L
Ntp800
Ns(g346
L21L
Ntp801
Ns(V11*D
p802
L9L
L11L
tp803
g72
s(V20*AD
p804
L7L
L11L
tp805
g5
s(V10*DS
p806
L2L
L11L
tp807
g72
s(V18*AD
p808
L7L
L11L
tp809
g5
s(V15*A
p810
L11L
L11L
tp811
g11
s(L25L
NNtp812
Ns(V17*D
p813
L4L
L11L
tp814
g5
s(L8L
L24L
Ntp815
Ns(L14L
L20L
Ntp816
Ns(V7*D
p817
L5L
L11L
tp818
g72
s(V14*D
p819
L7L
L11L
tp820
g11
s(V15*AD
p821
L8L
L11L
tp822
g11
s(L21L
L6L
L11L
tp823
g5
s(L26L
NNtp824
Ns(V16*
p825
L10L
L11L
tp826
g5
s(L21L
L26L
Ntp827
Ns(V21*
p828
L4L
L11L
tp829
g5
s(L21L
L19L
Ntp830
Ns(V12*DS
p831
L21L
Ntp832
Ns(V6*DS
p833
L8L
L11L
tp834
g11
s(V10*
p835
L2L
L11L
tp836
g11
s(L11L
L19L
Ntp837
Ns(L11L
L20L
Ntp838
Ns(L14L
L18L
Ntp839
Ns(V16*A
p840
L10L
L11L
tp841
g11
s(L4L
L23L
Ntp842
Ns(V21*A
p843
L5L
L11L
tp844
g5
s(L18L
L21L
Ntp845
Ns(V15*D
p846
L5L
L11L
tp847
g5
s(V10*D
p848
L21L
Ntp849
Ns(V20*DS
p850
L4L
L11L
tp851
g5
s(V13*
p852
L4L
L11L
tp853
g5
s(V6*
p854
L7L
L11L
tp855
g11
s(V20*
p856
L4L
L11L
tp857
g5
s(L15L
L19L
Ntp858
Ns(V21*
p859
L2L
L11L
tp860
g5
s(V8*D
p861
L5L
L11L
tp862
g72
s(V13*D
p863
L8L
L11L
tp864
g11
s(V18*
p865
L11L
L11L
tp866
g5
s(V9*D
p867
L2L
L11L
tp868
g72
s(V10*D
p869
L5L
L11L
tp870
g72
s(V20*D
p871
L8L
L11L
tp872
g5
s(L6L
L20L
Ntp873
Ns(V11*D
p874
L3L
L11L
tp875
g72
s(L8L
L26L
Ntp876
Ns(V18*D
p877
L6L
L11L
tp878
g5
s(V10*DS
p879
L4L
L11L
tp880
g72
s(L12L
L24L
Ntp881
Ns(V17*A
p882
L4L
L11L
tp883
g11
s(V16*DS
p884
L9L
L11L
tp885
g5
s(V19*
p886
L4L
L11L
tp887
g5
s(V16*AD
p888
L7L
L11L
tp889
g11
s(V15*AD
p890
L6L
L11L
tp891
g72
s(L27L
NNtp892
Ns(V17*AD
p893
L7L
L11L
tp894
g11
s(L10L
L23L
Ntp895
Ns(V14*AD
p896
L3L
L11L
tp897
g72
s(V17*
p898
L3L
L11L
tp899
g5
s(V
p900
g900
L11L
tp901
VBegin
p902
s(V18*AD
p903
L11L
L11L
tp904
g5
s(V8*DS
p905
L3L
L11L
tp906
g72
s(V17*D
p907
L8L
L11L
tp908
g5
s(V14*D
p909
L10L
L11L
tp910
g11
s(L21L
L11L
L11L
tp911
g5
s(L9L
L25L
Ntp912
Ns(V19*A
p913
L4L
L11L
tp914
g5
s(L9L
L23L
Ntp915
Ns(V20*
p916
L10L
L11L
tp917
g5
s(g124
L11L
L11L
tp918
g11
s(L9L
L20L
Ntp919
Ns(V21*
p920
L8L
L11L
tp921
g5
s(g58
L11L
L11L
tp922
g11
s(L16L
L19L
Ntp923
Ns(V11*
p924
L6L
L11L
tp925
g11
s(V15*AD
p926
L21L
Ntp927
Ns(V23*
p928
NNtp929
Ns(V13*AD
p930
L3L
L11L
tp931
g72
s(V13*D
p932
L2L
L11L
tp933
g5
s(L11L
L24L
Ntp934
Ns(V13*A
p935
L6L
L11L
tp936
g11
s(V16*A
p937
L6L
L11L
tp938
g11
s(V15*A
p939
L6L
L11L
tp940
g11
s(V14*D
p941
L6L
L11L
tp942
g5
s(L21L
L7L
L11L
tp943
g5
s(V19*
p944
L2L
L11L
tp945
g5
s(V19*A
p946
L2L
L11L
tp947
g5
s(L29L
NNtp948
Ns(V16*
p949
L7L
L11L
tp950
g5
s(L21L
L24L
Ntp951
Ns(V6*DS
p952
L3L
L11L
tp953
g11
s(V19*D
p954
L7L
L11L
tp955
g5
s(L14L
L25L
Ntp956
Ns(L10L
L18L
Ntp957
Ns(L10L
L17L
Ntp958
Ns(V14*AD
p959
L9L
L11L
tp960
g11
s(V7*
p961
L4L
L11L
tp962
g11
s(V21*A
p963
L8L
L11L
tp964
g5
s(g848
L11L
L11L
tp965
g72
s(V20*D
p966
L6L
L11L
tp967
g5
s(V5*D
p968
L6L
L11L
tp969
g11
s(g318
L11L
L11L
tp970
g11
s(L8L
L17L
Ntp971
Ns(V16*AD
p972
L10L
L11L
tp973
g11
s(V15*D
p974
L10L
L11L
tp975
g5
s(V6*
p976
L8L
L11L
tp977
g11
s(V16*D
p978
L7L
L11L
tp979
g5
s(L18L
L19L
Ntp980
Ns(V15*
p981
L7L
L11L
tp982
g5
s(V19*
p983
L8L
L11L
tp984
g5
s(L21L
L23L
Ntp985
Ns(V8*D
p986
L10L
L11L
tp987
g11
s(V18*A
p988
L9L
L11L
tp989
g11
s(V6*DS
p990
L5L
L11L
tp991
g11
s(V20*A
p992
L2L
L11L
tp993
g5
s(V18*
p994
L4L
L11L
tp995
g5
s(V9*
p996
L6L
L11L
tp997
g11
s(V7*
p998
L2L
L11L
tp999
g11
s(V12*
p1000
L2L
L11L
tp1001
g5
s(V16*AD
p1002
L6L
L11L
tp1003
g72
s(V16*DS
p1004
L6L
L11L
tp1005
g5
s(V17*D
p1006
L5L
L11L
tp1007
g5
s(g762
L11L
L11L
tp1008
g11
s(V20*DS
p1009
L9L
L11L
tp1010
g5
s(L16L
L26L
Ntp1011
Ns(V19*A
p1012
L8L
L11L
tp1013
g5
s(g522
L21L
Ntp1014
Ns(L9L
L18L
Ntp1015
Ns(V12*DS
p1016
L7L
L11L
tp1017
g11
s(V18*A
p1018
L3L
L11L
tp1019
g5
s(g68
L21L
Ntp1020
Ns(V14*
p1021
L7L
L11L
tp1022
g11
s(V17*
p1023
L8L
L11L
tp1024
g5
s(V10*
p1025
L7L
L11L
tp1026
g11
s(V17*D
p1027
L9L
L11L
tp1028
g5
s(V18*AD
p1029
L4L
L11L
tp1030
g72
s(V18*D
p1031
L3L
L11L
tp1032
g5
s(L23L
NNtp1033
Ns(V15*A
p1034
L10L
L11L
tp1035
g11
s(V13*
p1036
L5L
L11L
tp1037
g5
s(L8L
L20L
Ntp1038
Ns(L8L
L23L
Ntp1039
Ns(V6*
p1040
L6L
L11L
tp1041
g11
s(V7*D
p1042
L4L
L11L
tp1043
g11
s(g926
L11L
L11L
tp1044
g11
s(g588
L21L
Ntp1045
Ns(V16*
p1046
L9L
L11L
tp1047
g5
s(V21*
p1048
L5L
L11L
tp1049
g5
s(L21L
L20L
Ntp1050
Ns(g712
L21L
Ntp1051
Ns(V14*DS
p1052
L5L
L11L
tp1053
g5
s(L16L
L21L
Ntp1054
Ns(V14*A
p1055
L6L
L11L
tp1056
g11
s(L19L
L17L
Ntp1057
Ns(V7*
p1058
L8L
L11L
tp1059
g11
s(V16*A
p1060
L9L
L11L
tp1061
g11
s(V11*D
p1062
L8L
L11L
tp1063
g72
s(V20*AD
p1064
L6L
L11L
tp1065
g5
s(V16*DS
p1066
L8L
L11L
tp1067
g5
s(V21*A
p1068
L6L
L11L
tp1069
g5
s(V15*D
p1070
L6L
L11L
tp1071
g5
s(L20L
L24L
Ntp1072
Ns(g799
L11L
L11L
tp1073
g5
s(V20*DS
p1074
L3L
L11L
tp1075
g5
s(L20L
L18L
Ntp1076
Ns(V20*
p1077
L7L
L11L
tp1078
g5
s(L15L
L23L
Ntp1079
Ns(V8*D
p1080
L6L
L11L
tp1081
g72
s(V14*AD
p1082
L2L
L11L
tp1083
g11
s(V14*DS
p1084
L3L
L11L
tp1085
g5
s(V12*D
p1086
L3L
L11L
tp1087
g5
s(V18*
p1088
L8L
L11L
tp1089
g5
s(V9*D
p1090
L3L
L11L
tp1091
g72
s(V10*D
p1092
L4L
L11L
tp1093
g72
s(V20*D
p1094
L9L
L11L
tp1095
g5
s(V13*A
p1096
L3L
L11L
tp1097
g11
s(V9*
p1098
L10L
L11L
tp1099
g11
s(L17L
L22L
Ntp1100
Ns(V11*D
p1101
L2L
L11L
tp1102
g72
s(L8L
L25L
Ntp1103
Ns(V8*DS
p1104
L2L
L11L
tp1105
g11
s(V19*AD
p1106
L2L
L11L
tp1107
g72
s(L20L
L20L
Ntp1108
Ns(V10*DS
p1109
L11L
L11L
tp1110
g72
s(V18*D
p1111
L9L
L11L
tp1112
g5
s(V17*A
p1113
L7L
L11L
tp1114
g11
s(V19*
p1115
L7L
L11L
tp1116
g5
s(L14L
L26L
Ntp1117
Ns(V7*D
p1118
L10L
L11L
tp1119
g11
s(V17*AD
p1120
L6L
L11L
tp1121
g72
s(L21L
L17L
Ntp1122
Ns(V21*
p1123
L3L
L11L
tp1124
g5
s(g903
L21L
Ntp1125
Ns(V17*
p1126
L4L
L11L
tp1127
g5
s(V10*
p1128
L11L
L11L
tp1129
g11
s(V13*AD
p1130
L6L
L11L
tp1131
g72
s(V13*D
p1132
L9L
L11L
tp1133
g11
s(L15L
L24L
Ntp1134
Ns(L19L
L24L
Ntp1135
Ns(V16*A
p1136
L3L
L11L
tp1137
g11
s(L4L
L17L
Ntp1138
Ns(V18*AD
p1139
L8L
L11L
tp1140
g5
s(L19L
L18L
Ntp1141
Ns(V15*
p1142
L2L
L11L
tp1143
g5
s(g383
L11L
L11L
tp1144
g11
s(V12*DS
p1145
L10L
L11L
tp1146
g11
s(L9L
L26L
Ntp1147
Ns(L18L
L25L
Ntp1148
Ns(V19*A
p1149
L5L
L11L
tp1150
g5
s(V21*
p1151
L9L
L11L
tp1152
g5
s(V14*
p1153
L10L
L11L
tp1154
g11
s(V14*DS
p1155
L9L
L11L
tp1156
g11
s(L16L
L25L
Ntp1157
Ns(V13*D
p1158
L3L
L11L
tp1159
g5
s(V10*D
p1160
L10L
L11L
tp1161
g72
s(V20*D
p1162
L7L
L11L
tp1163
g5
s(V13*A
p1164
L9L
L11L
tp1165
g11
s(V16*A
p1166
L5L
L11L
tp1167
g11
s(g865
L21L
Ntp1168
Ns(g717
L11L
L11L
tp1169
g5
s(V15*A
p1170
L5L
L11L
tp1171
g11
s(L8L
L22L
Ntp1172
Ns(L20L
L23L
Ntp1173
Ns(V16*
p1174
L6L
L11L
tp1175
g5
s(g153
L11L
L11L
tp1176
g11
s(g248
L21L
Ntp1177
Ns(V25*
p1178
NNtp1179
Ns(V6*DS
p1180
L2L
L11L
tp1181
g11
s(L10L
L21L
Ntp1182
Ns(L18L
L18L
Ntp1183
Ns(g254
L21L
Ntp1184
Ns(V18*
p1185
L5L
L11L
tp1186
g5
s(V14*AD
p1187
L8L
L11L
tp1188
g11
s(g810
L21L
Ntp1189
Ns(V11*
p1190
L7L
L11L
tp1191
g11
s(V12*
p1192
L3L
L11L
tp1193
g5
s(V7*
p1194
L5L
L11L
tp1195
g11
s(V15*D
p1196
L7L
L11L
tp1197
g5
s(V21*A
p1198
L9L
L11L
tp1199
g5
s(L17L
L26L
Ntp1200
Ns(V17*A
p1201
L10L
L11L
tp1202
g11
s(V5*D
p1203
L7L
L11L
tp1204
g11
s(V6*D
p1205
L5L
L11L
tp1206
g11
s(V16*DS
p1207
L3L
L11L
tp1208
g5
s(L19L
L23L
Ntp1209
Ns(V13*
p1210
L8L
L11L
tp1211
g11
s(V6*
p1212
L11L
L11L
tp1213
g11
s(V16*D
p1214
L6L
L11L
tp1215
g5
s(V15*
p1216
L8L
L11L
tp1217
g5
s(V8*D
p1218
L7L
L11L
tp1219
g11
s(g27
L11L
L11L
tp1220
g5
s(L20L
L26L
Ntp1221
Ns(V8*
p1222
L11L
L11L
tp1223
g11
s(V19*A
p1224
L3L
L11L
tp1225
g5
s(L9L
L21L
Ntp1226
Ns(V18*A
p1227
L6L
L11L
tp1228
g5
s(V18*
p1229
L9L
L11L
tp1230
g5
s(V20*A
p1231
L3L
L11L
tp1232
g5
s(V14*A
p1233
L3L
L11L
tp1234
g11
s(V19*D
p1235
L6L
L11L
tp1236
g5
s(g1109
L21L
Ntp1237
Ns(V9*
p1238
L7L
L11L
tp1239
g11
s(V17*A
p1240
L6L
L11L
tp1241
g11
s(V13*AD
p1242
L10L
L11L
tp1243
g11
s(V18*AD
p1244
L5L
L11L
tp1245
g72
s(V20*AD
p1246
L3L
L11L
tp1247
g5
s(V18*D
p1248
L2L
L11L
tp1249
g5
s(V8*DS
p1250
L9L
L11L
tp1251
g11
s(L15L
L20L
Ntp1252
Ns(V6*D
p1253
L3L
L11L
tp1254
g11
s(V16*DS
p1255
L5L
L11L
tp1256
g5
s(V17*D
p1257
L2L
L11L
tp1258
g5
s(g324
L21L
Ntp1259
Ns(V12*ADS
p1260
L7L
L11L
tp1261
g11
s(V19*A
p1262
L9L
L11L
tp1263
g5
s(g793
L11L
L11L
tp1264
g11
s(V16*
p1265
L8L
L11L
tp1266
g5
s(L21L
L2L
L11L
tp1267
g5
s(V14*D
p1268
L3L
L11L
tp1269
g5
s(V12*DS
p1270
L4L
L11L
tp1271
g5
s(L21L
L25L
Ntp1272
Ns(V6*DS
p1273
L4L
L11L
tp1274
g11
s(g719
L21L
Ntp1275
Ns(V14*
p1276
L6L
L11L
tp1277
g5
s(g388
L21L
Ntp1278
Ns(L14L
L21L
Ntp1279
Ns(V17*
p1280
L9L
L11L
tp1281
g5
s(V10*
p1282
L6L
L11L
tp1283
g11
s(V18*AD
p1284
L9L
L11L
tp1285
g11
s(V16*A
p1286
L8L
L11L
tp1287
g11
s(V7*
p1288
L3L
L11L
tp1289
g11
s(L19L
L26L
Ntp1290
Ns(V21*A
p1291
L7L
L11L
tp1292
g5
s(V15*A
p1293
L9L
L11L
tp1294
g11
s(L8L
L19L
Ntp1295
Ns(g594
L21L
Ntp1296
Ns(V13*
p1297
L2L
L11L
tp1298
g5
s(V20*DS
p1299
L8L
L11L
tp1300
g5
s(V7*D
p1301
L7L
L11L
tp1302
g11
s(V21*
p1303
L6L
L11L
tp1304
g5
s(V4*DS
p1305
L4L
L11L
tp1306
g11
s(g581
L21L
Ntp1307
Ns(V12*D
p1308
L2L
L11L
tp1309
g5
s(L16L
L17L
Ntp1310
Ns(V14*DS
p1311
L4L
L11L
tp1312
g5
s(V14*A
p1313
L9L
L11L
tp1314
g11
s(V16*A
p1315
L4L
L11L
tp1316
g11
s(V13*A
p1317
L2L
L11L
tp1318
g11
s(V9*D
p1319
L6L
L11L
tp1320
g72
s(V7*
p1321
L9L
L11L
tp1322
g11
s(V19*AD
p1323
L3L
L11L
tp1324
g72
s(L15L
L18L
Ntp1325
Ns(V11*D
p1326
L7L
L11L
tp1327
g72
s(V20*AD
p1328
L9L
L11L
tp1329
g5
s(V6*D
p1330
L9L
L11L
tp1331
g11
s(V19*
p1332
L6L
L11L
tp1333
g5
s(V16*D
p1334
L10L
L11L
tp1335
g5
s(V20*DS
p1336
L2L
L11L
tp1337
g5
s(L20L
L22L
Ntp1338
Ns(V16*AD
p1339
L3L
L11L
tp1340
g72
s(L20L
L17L
Ntp1341
Ns(L22L
NNtp1342
Ns(V8*
p1343
L7L
L11L
tp1344
g11
s(V15*AD
p1345
L10L
L11L
tp1346
g11
s(V4*DS
p1347
L2L
L11L
tp1348
g11
s(V14*AD
p1349
L5L
L11L
tp1350
g72
s(g426
L21L
Ntp1351
Ns(V12*
p1352
L8L
L11L
tp1353
g11
s(V10*D
p1354
L7L
L11L
tp1355
g72
s(V20*D
p1356
L10L
L11L
tp1357
g5
s(V5*D
p1358
L10L
L11L
tp1359
g11
s(L17L
L18L
Ntp1360
Ns(V9*
p1361
L11L
L11L
tp1362
g11
s(V19*
p1363
L10L
L11L
tp1364
g5
s(L17L
L24L
Ntp1365
Ns(V8*DS
p1366
L5L
L11L
tp1367
g72
s(V15*
p1368
L3L
L11L
tp1369
g5
s(V10*DS
p1370
L10L
L11L
tp1371
g72
s(V18*D
p1372
L8L
L11L
tp1373
g5
s(L19L
L25L
Ntp1374
Ns(V18*DS
p1375
L5L
L11L
tp1376
g5
s(V20*
p1377
L6L
L11L
tp1378
g5
s(L21L
L21L
Ntp1379
Ns(V17*AD
p1380
L5L
L11L
tp1381
g72
s(L21L
L18L
Ntp1382
Ns(L14L
L19L
Ntp1383
Ns(L16L
L23L
Ntp1384
Ns(V11*
p1385
L2L
L11L
tp1386
g11
s(V14*DS
p1387
L2L
L11L
tp1388
g5
s(V17*
p1389
L5L
L11L
tp1390
g5
s(V10*
p1391
L10L
L11L
tp1392
g11
s(V13*AD
p1393
L7L
L11L
tp1394
g11
s(V13*D
p1395
L6L
L11L
tp1396
g5
s(L4L
L21L
Ntp1397
Ns(L12L
L22L
Ntp1398
Ns(V15*A
p1399
L4L
L11L
tp1400
g11
s(V16*A
p1401
L2L
L11L
tp1402
g11
s(L12L
L17L
Ntp1403
Ns(V12*ADS
p1404
L10L
L11L
tp1405
g11
s(g831
L11L
L11L
tp1406
g11
s(V19*A
p1407
L6L
L11L
tp1408
g5
s(V16*
p1409
L3L
L11L
tp1410
g5
s(V18*DS
p1411
L3L
L11L
tp1412
g5
s(V21*
p1413
L10L
L11L
tp1414
g5
s(V4*DS
p1415
L8L
L11L
tp1416
g11
s(V19*D
p1417
L3L
L11L
tp1418
g5
s(V14*
p1419
L9L
L11L
tp1420
g11
s(V14*DS
p1421
L8L
L11L
tp1422
g11
s(V22*
p1423
NNtp1424
Ns(V15*A
p1425
L8L
L11L
tp1426
g11
s(L6L
L22L
Ntp1427
Ns(V9*D
p1428
L10L
L11L
tp1429
g11
s(V13*A
p1430
L8L
L11L
tp1431
g11
s(g625
L21L
Ntp1432
Ns.