(dp0
(V12*
p1
L6L
L2L
tp2
VStay
p3
s(L13L
L21L
Ntp4
Ns(L13L
L18L
Ntp5
Ns(V12*D
p6
L2L
L2L
tp7
VDraw
p8
s(V7*D
p9
L4L
L2L
tp10
g8
s(L13L
L24L
Ntp11
Ns(V7*D
p12
L10L
L2L
tp13
g8
s(V9*D
p14
L5L
L2L
tp15
VDouble
p16
s(V10*
p17
L9L
L2L
tp18
g8
s(V10*
p19
L3L
L2L
tp20
g8
s(L6L
L26L
Ntp21
Ns(V5*D
p22
L6L
L2L
tp23
g8
s(L15L
L26L
Ntp24
Ns(V20*
p25
L21L
Ntp26
Ns(V9*
p27
L8L
L2L
tp28
g8
s(V19*A
p29
L21L
Ntp30
Ns(V9*
p31
L2L
L2L
tp32
g8
s(L19L
L19L
Ntp33
Ns(V10*D
p34
L21L
Ntp35
Ns(V18*D
p36
L4L
L2L
tp37
g3
s(L19L
L20L
Ntp38
Ns(V12*
p39
L10L
L2L
tp40
g8
s(V8*
p41
L7L
L2L
tp42
g8
s(V10*D
p43
L10L
L2L
tp44
g8
s(V17*AD
p45
L4L
L2L
tp46
g16
s(L21L
L8L
L2L
tp47
g3
s(V20*A
p48
L7L
L2L
tp49
g3
s(V8*DS
p50
L7L
L2L
tp51
g8
s(L17L
L21L
Ntp52
Ns(V4*DS
p53
L3L
L2L
tp54
g8
s(V14*
p55
L2L
L2L
tp56
g3
s(V17*A
p57
L3L
L2L
tp58
g8
s(V24*
p59
NNtp60
Ns(V18*AD
p61
L3L
L2L
tp62
g16
s(V18*AD
p63
L9L
L2L
tp64
g8
s(V11*
p65
L2L
L2L
tp66
g8
s(V17*AD
p67
L8L
L2L
tp68
g8
s(L21L
L4L
L2L
tp69
g3
s(V20*A
p70
L11L
L2L
tp71
g3
s(V8*DS
p72
L11L
L2L
tp73
g8
s(V17*AD
p74
L2L
L2L
tp75
g16
s(L4L
L24L
Ntp76
Ns(V7*
p77
L6L
L2L
tp78
g8
s(V14*
p79
L8L
L2L
tp80
g8
s(V10*DS
p81
L4L
L2L
tp82
g16
s(L4L
L18L
Ntp83
Ns(V13*
p84
L21L
Ntp85
Ns(V17*A
p86
L5L
L2L
tp87
g8
s(V10*DS
p88
L2L
L2L
tp89
g16
s(V17*D
p90
L21L
Ntp91
Ns(V13*AD
p92
L21L
Ntp93
Ns(L14L
L17L
Ntp94
Ns(V18*AD
p95
L5L
L2L
tp96
g16
s(V16*AD
p97
L9L
L2L
tp98
g8
s(V15*AD
p99
L3L
L2L
tp100
g8
s(V16*DS
p101
L21L
Ntp102
Ns(L18L
L22L
Ntp103
Ns(V6*
p104
L8L
L2L
tp105
g8
s(V19*D
p106
L8L
L2L
tp107
g3
s(V15*AD
p108
L9L
L2L
tp109
g8
s(V18*A
p110
L11L
L2L
tp111
g3
s(V8*D
p112
L5L
L2L
tp113
g8
s(V16*DS
p114
L7L
L2L
tp115
g8
s(L4L
L20L
Ntp116
Ns(V7*
p117
L10L
L2L
tp118
g8
s(V21*
p119
L3L
L2L
tp120
g3
s(V21*
p121
L9L
L2L
tp122
g3
s(V12*DS
p123
L2L
L2L
tp124
g8
s(V16*AD
p125
L5L
L2L
tp126
g16
s(V6*
p127
L4L
L2L
tp128
g8
s(V19*D
p129
L4L
L2L
tp130
g3
s(V16*AD
p131
L3L
L2L
tp132
g8
s(V15*D
p133
L6L
L2L
tp134
g3
s(V6*
p135
L2L
L2L
tp136
g8
s(V20*AD
p137
L21L
Ntp138
Ns(V9*D
p139
L2L
L2L
tp140
g16
s(V8*D
p141
L9L
L2L
tp142
g8
s(L15L
L22L
Ntp143
Ns(V21*A
p144
L3L
L2L
tp145
g3
s(V11*D
p146
L8L
L2L
tp147
g16
s(V21*A
p148
L9L
L2L
tp149
g3
s(L13L
L19L
Ntp150
Ns(L20L
L21L
Ntp151
Ns(V21*
p152
L5L
L2L
tp153
g3
s(V18*D
p154
L7L
L2L
tp155
g3
s(V8*
p156
L8L
L2L
tp157
g8
s(L6L
L17L
Ntp158
Ns(L17L
L25L
Ntp159
Ns(V19*A
p160
L4L
L2L
tp161
g3
s(V15*D
p162
L10L
L2L
tp163
g8
s(V20*
p164
L10L
L2L
tp165
g3
s(V11*D
p166
L4L
L2L
tp167
g16
s(L19L
L21L
Ntp168
Ns(V18*AD
p169
L10L
L2L
tp170
g8
s(L19L
L22L
Ntp171
Ns(L16L
L22L
Ntp172
Ns(V18*AD
p173
L21L
Ntp174
Ns(V8*
p175
L2L
L2L
tp176
g8
s(L21L
L3L
L2L
tp177
g3
s(V17*A
p178
L21L
Ntp179
Ns(V20*A
p180
L2L
L2L
tp181
g3
s(V19*A
p182
L2L
L2L
tp183
g3
s(L21L
L22L
Ntp184
Ns(V19*
p185
L5L
L2L
tp186
g3
s(V17*A
p187
L8L
L2L
tp188
g8
s(V18*
p189
L10L
L2L
tp190
g3
s(V17*A
p191
L6L
L2L
tp192
g8
s(V20*D
p193
L7L
L2L
tp194
g3
s(V18*AD
p195
L6L
L2L
tp196
g16
s(V15*AD
p197
L4L
L2L
tp198
g16
s(L12L
L21L
Ntp199
Ns(V16*D
p200
L7L
L2L
tp201
g8
s(V15*AD
p202
L10L
L2L
tp203
g8
s(V15*A
p204
L6L
L2L
tp205
g8
s(V9*D
p206
L21L
Ntp207
Ns(V18*A
p208
L4L
L2L
tp209
g3
s(V16*A
p210
L6L
L2L
tp211
g8
s(L20L
L19L
Ntp212
Ns(V18*A
p213
L2L
L2L
tp214
g3
s(L4L
L26L
Ntp215
Ns(V19*
p216
L9L
L2L
tp217
g3
s(L17L
L19L
Ntp218
Ns(V14*A
p219
L6L
L2L
tp220
g8
s(V19*
p221
L3L
L2L
tp222
g3
s(V14*DS
p223
L7L
L2L
tp224
g8
s(V21*
p225
L10L
L2L
tp226
g3
s(V25*
p227
NNtp228
Ns(V20*D
p229
L11L
L2L
tp230
g3
s(V10*DS
p231
L21L
Ntp232
Ns(L11L
L21L
Ntp233
Ns(V12*DS
p234
L5L
L2L
tp235
g3
s(L11L
L22L
Ntp236
Ns(V15*D
p237
L3L
L2L
tp238
g3
s(V19*D
p239
L3L
L2L
tp240
g3
s(V20*AD
p241
L10L
L2L
tp242
g3
s(V15*D
p243
L5L
L2L
tp244
g3
s(L6L
L24L
Ntp245
Ns(L13L
L22L
Ntp246
Ns(V17*
p247
L6L
L2L
tp248
g3
s(V21*A
p249
L4L
L2L
tp250
g3
s(V16*A
p251
L8L
L2L
tp252
g8
s(V14*D
p253
L7L
L2L
tp254
g8
s(V21*A
p255
L10L
L2L
tp256
g3
s(V21*
p257
L6L
L2L
tp258
g3
s(V14*DS
p259
L9L
L2L
tp260
g8
s(V12*DS
p261
L9L
L2L
tp262
g8
s(V26*
p263
NNtp264
Ns(g29
L11L
L2L
tp265
g3
s(V15*D
p266
L9L
L2L
tp267
g8
s(L24L
NNtp268
Ns(V20*AD
p269
L4L
L2L
tp270
g3
s(L12L
L19L
Ntp271
Ns(V20*
p272
L5L
L2L
tp273
g3
s(L12L
L26L
Ntp274
Ns(V11*D
p275
L3L
L2L
tp276
g16
s(V13*
p277
L10L
L2L
tp278
g8
s(V20*
p279
L3L
L2L
tp280
g3
s(V17*
p281
L8L
L2L
tp282
g3
s(L17L
L17L
Ntp283
Ns(V18*DS
p284
L9L
L2L
tp285
g3
s(V20*DS
p286
L11L
L2L
tp287
g3
s(V13*AD
p288
L9L
L2L
tp289
g8
s(V17*D
p290
L9L
L2L
tp291
g3
s(V6*DS
p292
L6L
L2L
tp293
g8
s(V16*
p294
L5L
L2L
tp295
g3
s(L10L
L22L
Ntp296
Ns(L6L
L18L
Ntp297
Ns(V18*
p298
L5L
L2L
tp299
g3
s(V6*D
p300
L9L
L2L
tp301
g8
s(V14*AD
p302
L5L
L2L
tp303
g16
s(V18*
p304
L3L
L2L
tp305
g3
s(V13*
p306
L4L
L2L
tp307
g3
s(V13*A
p308
L2L
L2L
tp309
g8
s(V18*DS
p310
L5L
L2L
tp311
g3
s(V13*A
p312
L8L
L2L
tp313
g8
s(V16*D
p314
L8L
L2L
tp315
g8
s(L13L
L25L
Ntp316
Ns(V15*A
p317
L9L
L2L
tp318
g8
s(V12*ADS
p319
L10L
L2L
tp320
g8
s(L4L
L22L
Ntp321
Ns(V13*AD
p322
L5L
L2L
tp323
g16
s(V17*D
p324
L5L
L2L
tp325
g3
s(V6*DS
p326
L10L
L2L
tp327
g8
s(V13*AD
p328
L3L
L2L
tp329
g8
s(V17*D
p330
L3L
L2L
tp331
g3
s(L18L
L20L
Ntp332
Ns(V16*
p333
L9L
L2L
tp334
g8
s(L18L
L26L
Ntp335
Ns(V14*A
p336
L11L
L2L
tp337
g8
s(V16*
p338
L3L
L2L
tp339
g3
s(V19*AD
p340
L11L
L2L
tp341
g3
s(V14*A
p342
L5L
L2L
tp343
g8
s(L11L
L26L
Ntp344
Ns(V6*D
p345
L5L
L2L
tp346
g8
s(V13*D
p347
L6L
L2L
tp348
g3
s(V12*
p349
L5L
L2L
tp350
g3
s(V14*AD
p351
L11L
L2L
tp352
g8
s(L11L
L25L
Ntp353
Ns(V7*D
p354
L7L
L2L
tp355
g8
s(V13*A
p356
L4L
L2L
tp357
g8
s(V12*D
p358
L11L
L2L
tp359
g8
s(V17*
p360
L21L
Ntp361
Ns(V16*D
p362
L2L
L2L
tp363
g3
s(V15*A
p364
L3L
L2L
tp365
g8
s(L10L
L26L
Ntp366
Ns(V16*A
p367
L11L
L2L
tp368
g8
s(L10L
L25L
Ntp369
Ns(V14*D
p370
L8L
L2L
tp371
g8
s(V13*D
p372
L10L
L2L
tp373
g8
s(V12*
p374
L9L
L2L
tp375
g8
s(V14*DS
p376
L10L
L2L
tp377
g8
s(V12*
p378
L3L
L2L
tp379
g3
s(V10*D
p380
L9L
L2L
tp381
g16
s(V8*DS
p382
L2L
L2L
tp383
g8
s(V12*D
p384
L7L
L2L
tp385
g8
s(V20*AD
p386
L7L
L2L
tp387
g3
s(V4*DS
p388
L4L
L2L
tp389
g8
s(L13L
L20L
Ntp390
Ns(g286
L21L
Ntp391
Ns(g360
L11L
L2L
tp392
g3
s(V15*
p393
L7L
L2L
tp394
g8
s(V14*D
p395
L2L
L2L
tp396
g3
s(V15*A
p397
L21L
Ntp398
Ns(V20*DS
p399
L6L
L2L
tp400
g3
s(L14L
L23L
Ntp401
Ns(V20*DS
p402
L8L
L2L
tp403
g3
s(V11*
p404
L11L
L2L
tp405
g8
s(V10*D
p406
L7L
L2L
tp407
g16
s(L28L
NNtp408
Ns(L12L
L18L
Ntp409
Ns(V4*DS
p410
L8L
L2L
tp411
g8
s(L16L
L18L
Ntp412
Ns(V7*
p413
L5L
L2L
tp414
g8
s(V14*
p415
L7L
L2L
tp416
g8
s(V10*DS
p417
L7L
L2L
tp418
g16
s(V15*
p419
L11L
L2L
tp420
g8
s(V14*AD
p421
L2L
L2L
tp422
g8
s(V13*
p423
L7L
L2L
tp424
g8
s(V16*AD
p425
L10L
L2L
tp426
g8
s(V6*
p427
L11L
L2L
tp428
g8
s(V18*DS
p429
L2L
L2L
tp430
g3
s(V12*ADS
p431
L7L
L2L
tp432
g8
s(V13*A
p433
L11L
L2L
tp434
g8
s(L9L
L19L
Ntp435
Ns(V12*ADS
p436
L9L
L2L
tp437
g8
s(V11*
p438
L7L
L2L
tp439
g8
s(V8*D
p440
L6L
L2L
tp441
g16
s(g110
L21L
Ntp442
Ns(V16*DS
p443
L4L
L2L
tp444
g3
s(V6*DS
p445
L3L
L2L
tp446
g8
s(L14L
L24L
Ntp447
Ns(V7*
p448
L9L
L2L
tp449
g8
s(V13*D
p450
L3L
L2L
tp451
g3
s(V19*AD
p452
L4L
L2L
tp453
g3
s(V7*
p454
L3L
L2L
tp455
g8
s(V6*D
p456
L2L
L2L
tp457
g8
s(V13*D
p458
L5L
L2L
tp459
g3
s(V10*DS
p460
L9L
L2L
tp461
g16
s(V19*AD
p462
L2L
L2L
tp463
g3
s(L13L
L17L
Ntp464
Ns(V16*AD
p465
L6L
L2L
tp466
g16
s(V14*AD
p467
L8L
L2L
tp468
g8
s(L13L
L23L
Ntp469
Ns(V7*D
p470
L8L
L2L
tp471
g8
s(V19*
p472
L21L
Ntp473
Ns(V13*A
p474
L7L
L2L
tp475
g8
s(L6L
L23L
Ntp476
Ns(V6*
p477
L7L
L2L
tp478
g8
s(V12*D
p479
L8L
L2L
tp480
g8
s(V7*D
p481
L21L
Ntp482
Ns(V8*D
p483
L21L
Ntp484
Ns(V21*
p485
L21L
Ntp486
Ns(V8*D
p487
L10L
L2L
tp488
g8
s(g206
L11L
L2L
tp489
g8
s(V10*
p490
L7L
L2L
tp491
g8
s(L11L
L18L
Ntp492
Ns(V16*DS
p493
L10L
L2L
tp494
g3
s(V5*D
p495
L2L
L2L
tp496
g8
s(V6*DS
p497
L21L
Ntp498
Ns(V18*D
p499
L2L
L2L
tp500
g3
s(V16*
p501
L21L
Ntp502
Ns(V5*D
p503
L8L
L2L
tp504
g8
s(V9*
p505
L6L
L2L
tp506
g8
s(V13*D
p507
L9L
L2L
tp508
g8
s(V18*D
p509
L8L
L2L
tp510
g3
s(L18L
L23L
Ntp511
Ns(V8*
p512
L11L
L2L
tp513
g8
s(V8*DS
p514
L5L
L2L
tp515
g8
s(V7*D
p516
L2L
L2L
tp517
g8
s(V12*D
p518
L4L
L2L
tp519
g3
s(L15L
L17L
Ntp520
Ns(V18*D
p521
L21L
Ntp522
Ns(V4*DS
p523
L7L
L2L
tp524
g8
s(L10L
L24L
Ntp525
Ns(V9*D
p526
L7L
L2L
tp527
g8
s(V10*
p528
L11L
L2L
tp529
g8
s(V15*
p530
L2L
L2L
tp531
g3
s(V15*
p532
L4L
L2L
tp533
g3
s(V5*D
p534
L4L
L2L
tp535
g8
s(V9*
p536
L10L
L2L
tp537
g8
s(L17L
L20L
Ntp538
Ns(V27*
p539
NNtp540
Ns(L12L
L23L
Ntp541
Ns(V11*
p542
L8L
L2L
tp543
g8
s(V8*
p544
L5L
L2L
tp545
g8
s(V10*D
p546
L2L
L2L
tp547
g16
s(V8*DS
p548
L9L
L2L
tp549
g8
s(L12L
L25L
Ntp550
Ns(V10*D
p551
L4L
L2L
tp552
g16
s(V17*AD
p553
L6L
L2L
tp554
g16
s(L21L
L10L
L2L
tp555
g3
s(V20*A
p556
L5L
L2L
tp557
g3
s(V4*DS
p558
L11L
L2L
tp559
g8
s(V14*
p560
L10L
L2L
tp561
g8
s(g178
L11L
L2L
tp562
g8
s(V14*
p563
L4L
L2L
tp564
g3
s(V20*D
p565
L4L
L2L
tp566
g3
s(V15*
p567
L8L
L2L
tp568
g8
s(V15*AD
p569
L7L
L2L
tp570
g8
s(L11L
L23L
Ntp571
Ns(L11L
L17L
Ntp572
Ns(L4L
L25L
Ntp573
Ns(V11*
p574
L4L
L2L
tp575
g8
s(V18*A
p576
L7L
L2L
tp577
g3
s(L4L
L19L
Ntp578
Ns(V17*AD
p579
L10L
L2L
tp580
g8
s(V16*DS
p581
L3L
L2L
tp582
g3
s(L21L
L6L
L2L
tp583
g3
s(L18L
L17L
Ntp584
Ns(L16L
L20L
Ntp585
Ns(V20*A
p586
L9L
L2L
tp587
g3
s(L9L
L24L
Ntp588
Ns(L13L
L26L
Ntp589
Ns(V20*D
p590
L8L
L2L
tp591
g3
s(V10*DS
p592
L10L
L2L
tp593
g8
s(V12*DS
p594
L6L
L2L
tp595
g3
s(L30L
NNtp596
Ns(V20*D
p597
L2L
L2L
tp598
g3
s(V19*D
p599
L10L
L2L
tp600
g3
s(V10*
p601
L2L
L2L
tp602
g8
s(V9*D
p603
L8L
L2L
tp604
g8
s(g433
L21L
Ntp605
Ns(L16L
L24L
Ntp606
Ns(V18*A
p607
L9L
L2L
tp608
g8
s(V8*D
p609
L3L
L2L
tp610
g8
s(V21*A
p611
L7L
L2L
tp612
g3
s(V10*
p613
L4L
L2L
tp614
g8
s(V16*DS
p615
L9L
L2L
tp616
g8
s(L12L
L20L
Ntp617
Ns(V9*
p618
L3L
L2L
tp619
g8
s(V18*D
p620
L5L
L2L
tp621
g3
s(V5*D
p622
L11L
L2L
tp623
g8
s(V9*
p624
L5L
L2L
tp625
g8
s(g521
L11L
L2L
tp626
g3
s(L17L
L23L
Ntp627
Ns(V12*DS
p628
L10L
L2L
tp629
g8
s(L6L
L21L
Ntp630
Ns(V19*A
p631
L8L
L2L
tp632
g3
s(L10L
L20L
Ntp633
Ns(L10L
L19L
Ntp634
Ns(V19*D
p635
L6L
L2L
tp636
g3
s(V12*
p637
L21L
Ntp638
Ns(V9*D
p639
L4L
L2L
tp640
g16
s(V10*
p641
L8L
L2L
tp642
g8
s(V20*
p643
L6L
L2L
tp644
g3
s(V18*AD
p645
L8L
L2L
tp646
g3
s(V11*D
p647
L10L
L2L
tp648
g16
s(V5*D
p649
L7L
L2L
tp650
g8
s(L14L
L22L
Ntp651
Ns(V9*
p652
L9L
L2L
tp653
g8
s(L15L
L25L
Ntp654
Ns(V8*
p655
L6L
L2L
tp656
g8
s(V17*AD
p657
L3L
L2L
tp658
g16
s(V13*AD
p659
L10L
L2L
tp660
g8
s(V17*D
p661
L10L
L2L
tp662
g3
s(V17*AD
p663
L5L
L2L
tp664
g16
s(L21L
L9L
L2L
tp665
g3
s(V19*A
p666
L6L
L2L
tp667
g3
s(V20*A
p668
L6L
L2L
tp669
g3
s(V17*A
p670
L4L
L2L
tp671
g8
s(L18L
L24L
Ntp672
Ns(V18*
p673
L6L
L2L
tp674
g3
s(V17*A
p675
L2L
L2L
tp676
g8
s(V20*
p677
L8L
L2L
tp678
g3
s(V18*AD
p679
L4L
L2L
tp680
g16
s(V11*D
p681
L6L
L2L
tp682
g16
s(V18*AD
p683
L2L
L2L
tp684
g16
s(V15*AD
p685
L8L
L2L
tp686
g8
s(V16*D
p687
L11L
L2L
tp688
g8
s(V15*A
p689
L10L
L2L
tp690
g8
s(L15L
L21L
Ntp691
Ns(V13*AD
p692
L6L
L2L
tp693
g16
s(V17*D
p694
L6L
L2L
tp695
g3
s(V16*A
p696
L2L
L2L
tp697
g8
s(V17*AD
p698
L9L
L2L
tp699
g8
s(L21L
L5L
L2L
tp700
g3
s(V20*A
p701
L10L
L2L
tp702
g3
s(V14*A
p703
L8L
L2L
tp704
g8
s(L21L
NNtp705
Ns(V21*
p706
L8L
L2L
tp707
g3
s(V19*
p708
L7L
L2L
tp709
g3
s(V14*A
p710
L2L
L2L
tp711
g8
s(V14*DS
p712
L3L
L2L
tp713
g3
s(g340
L21L
Ntp714
Ns(V18*
p715
L8L
L2L
tp716
g3
s(V15*D
p717
L7L
L2L
tp718
g8
s(V15*AD
p719
L2L
L2L
tp720
g8
s(L8L
L18L
Ntp721
Ns(V19*D
p722
L9L
L2L
tp723
g3
s(V16*D
p724
L5L
L2L
tp725
g3
s(V15*A
p726
L4L
L2L
tp727
g8
s(L8L
L21L
Ntp728
Ns(V18*A
p729
L10L
L2L
tp730
g8
s(V21*A
p731
L8L
L2L
tp732
g3
s(V17*
p733
L2L
L2L
tp734
g3
s(V16*A
p735
L4L
L2L
tp736
g8
s(L6L
L19L
Ntp737
Ns(V14*D
p738
L11L
L2L
tp739
g8
s(V21*
p740
L4L
L2L
tp741
g3
s(L6L
L25L
Ntp742
Ns(g472
L11L
L2L
tp743
g3
s(g558
L21L
Ntp744
Ns(V21*
p745
L2L
L2L
tp746
g3
s(V14*DS
p747
L5L
L2L
tp748
g3
s(V15*D
p749
L11L
L2L
tp750
g8
s(V12*DS
p751
L3L
L2L
tp752
g3
s(V20*AD
p753
L2L
L2L
tp754
g3
s(V19*D
p755
L5L
L2L
tp756
g3
s(V20*AD
p757
L8L
L2L
tp758
g3
s(V14*DS
p759
L21L
Ntp760
Ns(V16*AD
p761
L21L
Ntp762
Ns(L20L
L25L
Ntp763
Ns(V21*A
p764
L2L
L2L
tp765
g3
s(V17*
p766
L4L
L2L
tp767
g3
s(L9L
L17L
Ntp768
Ns(V11*D
p769
L9L
L2L
tp770
g16
s(V14*D
p771
L5L
L2L
tp772
g3
s(L9L
L22L
Ntp773
Ns(V20*DS
p774
L5L
L2L
tp775
g3
s(V19*A
p776
L3L
L2L
tp777
g3
s(V19*A
p778
L5L
L2L
tp779
g3
s(L25L
NNtp780
Ns(g25
L11L
L2L
tp781
g3
s(V13*
p782
L2L
L2L
tp783
g3
s(L8L
L24L
Ntp784
Ns(L14L
L20L
Ntp785
Ns(V11*D
p786
L5L
L2L
tp787
g16
s(V13*
p788
L8L
L2L
tp789
g8
s(V12*ADS
p790
L4L
L2L
tp791
g8
s(V20*DS
p792
L3L
L2L
tp793
g3
s(L26L
NNtp794
Ns(V18*DS
p795
L11L
L2L
tp796
g3
s(L21L
L26L
Ntp797
Ns(g70
L21L
Ntp798
Ns(L21L
L19L
Ntp799
Ns(g687
L21L
Ntp800
Ns(L11L
L19L
Ntp801
Ns(V6*DS
p802
L4L
L2L
tp803
g8
s(V14*A
p804
L7L
L2L
tp805
g8
s(V16*
p806
L7L
L2L
tp807
g8
s(V19*
p808
L2L
L2L
tp809
g3
s(L11L
L20L
Ntp810
Ns(V19*AD
p811
L7L
L2L
tp812
g3
s(V19*
p813
L4L
L2L
tp814
g3
s(L14L
L18L
Ntp815
Ns(L4L
L23L
Ntp816
Ns(V18*
p817
L11L
L2L
tp818
g3
s(V6*D
p819
L11L
L2L
tp820
g8
s(L18L
L21L
Ntp821
Ns(V14*AD
p822
L7L
L2L
tp823
g8
s(g481
L11L
L2L
tp824
g8
s(V18*DS
p825
L7L
L2L
tp826
g3
s(V12*ADS
p827
L2L
L2L
tp828
g8
s(V16*D
p829
L6L
L2L
tp830
g3
s(V15*A
p831
L7L
L2L
tp832
g8
s(L15L
L19L
Ntp833
Ns(V14*
p834
L21L
Ntp835
Ns(V16*A
p836
L9L
L2L
tp837
g8
s(V16*A
p838
L7L
L2L
tp839
g8
s(V6*DS
p840
L8L
L2L
tp841
g8
s(g501
L11L
L2L
tp842
g8
s(V19*
p843
L8L
L2L
tp844
g3
s(V14*DS
p845
L8L
L2L
tp846
g8
s(V19*AD
p847
L9L
L2L
tp848
g3
s(L6L
L20L
Ntp849
Ns(V14*DS
p850
L6L
L2L
tp851
g3
s(V6*D
p852
L7L
L2L
tp853
g8
s(L8L
L26L
Ntp854
Ns(V12*
p855
L7L
L2L
tp856
g8
s(V8*DS
p857
L6L
L2L
tp858
g16
s(L12L
L24L
Ntp859
Ns(V20*AD
p860
L5L
L2L
tp861
g3
s(V4*DS
p862
L2L
L2L
tp863
g8
s(V12*D
p864
L3L
L2L
tp865
g3
s(V7*D
p866
L5L
L2L
tp867
g8
s(g137
L11L
L2L
tp868
g3
s(V17*
p869
L9L
L2L
tp870
g3
s(L27L
NNtp871
Ns(V17*
p872
L7L
L2L
tp873
g3
s(g358
L21L
Ntp874
Ns(L10L
L23L
Ntp875
Ns(V14*D
p876
L6L
L2L
tp877
g3
s(V20*DS
p878
L10L
L2L
tp879
g3
s(g637
L11L
L2L
tp880
g8
s(V8*DS
p881
L10L
L2L
tp882
g8
s(g34
L11L
L2L
tp883
g8
s(V14*
p884
L9L
L2L
tp885
g8
s(L9L
L25L
Ntp886
Ns(g419
L21L
Ntp887
Ns(V14*
p888
L3L
L2L
tp889
g3
s(V10*DS
p890
L3L
L2L
tp891
g16
s(L9L
L23L
Ntp892
Ns(V13*
p893
L5L
L2L
tp894
g3
s(L9L
L20L
Ntp895
Ns(g84
L11L
L2L
tp896
g8
s(V13*A
p897
L9L
L2L
tp898
g8
s(V12*ADS
p899
L11L
L2L
tp900
g8
s(L16L
L19L
Ntp901
Ns(V18*DS
p902
L8L
L2L
tp903
g3
s(V11*
p904
L3L
L2L
tp905
g8
s(V13*D
p906
L21L
Ntp907
Ns(L11L
L24L
Ntp908
Ns(V16*
p909
L2L
L2L
tp910
g3
s(V6*DS
p911
L7L
L2L
tp912
g8
s(V16*
p913
L4L
L2L
tp914
g3
s(V13*D
p915
L7L
L2L
tp916
g8
s(V7*
p917
L7L
L2L
tp918
g8
s(L29L
NNtp919
Ns(V10*DS
p920
L5L
L2L
tp921
g16
s(V14*AD
p922
L10L
L2L
tp923
g8
s(V6*D
p924
L8L
L2L
tp925
g8
s(V13*A
p926
L5L
L2L
tp927
g8
s(V16*AD
p928
L2L
L2L
tp929
g8
s(V14*AD
p930
L4L
L2L
tp931
g8
s(g738
L21L
Ntp932
Ns(V12*D
p933
L10L
L2L
tp934
g8
s(V6*
p935
L3L
L2L
tp936
g8
s(L21L
L24L
Ntp937
Ns(V16*AD
p938
L8L
L2L
tp939
g8
s(V13*A
p940
L3L
L2L
tp941
g8
s(V6*
p942
L9L
L2L
tp943
g8
s(V18*DS
p944
L4L
L2L
tp945
g3
s(L14L
L25L
Ntp946
Ns(L10L
L18L
Ntp947
Ns(L10L
L17L
Ntp948
Ns(g336
L21L
Ntp949
Ns(V8*D
p950
L4L
L2L
tp951
g8
s(g497
L11L
L2L
tp952
g8
s(V16*DS
p953
L6L
L2L
tp954
g3
s(V16*
p955
L8L
L2L
tp956
g8
s(V22*
p957
NNtp958
Ns(g906
L11L
L2L
tp959
g8
s(V18*D
p960
L6L
L2L
tp961
g3
s(V7*
p962
L11L
L2L
tp963
g8
s(L8L
L17L
Ntp964
Ns(V19*AD
p965
L10L
L2L
tp966
g3
s(L18L
L19L
Ntp967
Ns(V12*
p968
L2L
L2L
tp969
g8
s(V6*D
p970
L4L
L2L
tp971
g8
s(V12*
p972
L4L
L2L
tp973
g3
s(L21L
L23L
Ntp974
Ns(V12*D
p975
L6L
L2L
tp976
g3
s(V16*AD
p977
L4L
L2L
tp978
g16
s(V4*DS
p979
L5L
L2L
tp980
g8
s(g72
L21L
Ntp981
Ns(V7*D
p982
L6L
L2L
tp983
g8
s(V6*
p984
L5L
L2L
tp985
g8
s(V9*D
p986
L3L
L2L
tp987
g16
s(V8*D
p988
L8L
L2L
tp989
g8
s(V15*
p990
L6L
L2L
tp991
g3
s(g173
L11L
L2L
tp992
g3
s(V11*
p993
L10L
L2L
tp994
g8
s(V8*
p995
L3L
L2L
tp996
g8
s(V12*
p997
L8L
L2L
tp998
g8
s(V8*
p999
L9L
L2L
tp1000
g8
s(V10*D
p1001
L6L
L2L
tp1002
g16
s(L16L
L26L
Ntp1003
Ns(V20*A
p1004
L3L
L2L
tp1005
g3
s(V4*DS
p1006
L9L
L2L
tp1007
g8
s(V10*D
p1008
L8L
L2L
tp1009
g16
s(V8*DS
p1010
L3L
L2L
tp1011
g8
s(L9L
L18L
Ntp1012
Ns(V14*
p1013
L6L
L2L
tp1014
g3
s(V17*A
p1015
L7L
L2L
tp1016
g8
s(V23*
p1017
NNtp1018
Ns(V15*
p1019
L10L
L2L
tp1020
g8
s(V18*AD
p1021
L7L
L2L
tp1022
g3
s(g817
L21L
Ntp1023
Ns(V15*AD
p1024
L11L
L2L
tp1025
g8
s(V11*
p1026
L6L
L2L
tp1027
g8
s(V
p1028
g1028
L2L
tp1029
VBegin
p1030
s(V18*A
p1031
L3L
L2L
tp1032
g3
s(L23L
NNtp1033
Ns(L8L
L20L
Ntp1034
Ns(L8L
L23L
Ntp1035
Ns(L21L
L2L
L2L
tp1036
g3
s(V7*
p1037
L2L
L2L
tp1038
g8
s(g485
L11L
L2L
tp1039
g3
s(V10*DS
p1040
L8L
L2L
tp1041
g16
s(V7*
p1042
L4L
L2L
tp1043
g8
s(V17*A
p1044
L9L
L2L
tp1045
g8
s(V10*DS
p1046
L6L
L2L
tp1047
g16
s(L21L
L20L
Ntp1048
Ns(V20*D
p1049
L6L
L2L
tp1050
g3
s(L16L
L21L
Ntp1051
Ns(V15*D
p1052
L4L
L2L
tp1053
g3
s(g761
L11L
L2L
tp1054
g8
s(V15*AD
p1055
L5L
L2L
tp1056
g16
s(L19L
L17L
Ntp1057
Ns(g229
L21L
Ntp1058
Ns(V6*
p1059
L10L
L2L
tp1060
g8
s(V9*D
p1061
L10L
L2L
tp1062
g8
s(V10*
p1063
L6L
L2L
tp1064
g8
s(V18*A
p1065
L5L
L2L
tp1066
g3
s(g101
L11L
L2L
tp1067
g8
s(V21*A
p1068
L11L
L2L
tp1069
g3
s(V8*D
p1070
L7L
L2L
tp1071
g8
s(V16*DS
p1072
L5L
L2L
tp1073
g3
s(L20L
L24L
Ntp1074
Ns(V5*D
p1075
L9L
L2L
tp1076
g8
s(V21*
p1077
L7L
L2L
tp1078
g3
s(V9*
p1079
L7L
L2L
tp1080
g8
s(V18*D
p1081
L9L
L2L
tp1082
g3
s(L20L
L18L
Ntp1083
Ns(V7*
p1084
L8L
L2L
tp1085
g8
s(V28*
p1086
NNtp1087
Ns(L15L
L23L
Ntp1088
Ns(V20*D
p1089
L10L
L2L
tp1090
g3
s(V15*D
p1091
L8L
L2L
tp1092
g8
s(V12*DS
p1093
L4L
L2L
tp1094
g3
s(V16*AD
p1095
L7L
L2L
tp1096
g8
s(V15*D
p1097
L2L
L2L
tp1098
g3
s(V6*
p1099
L6L
L2L
tp1100
g8
s(V19*D
p1101
L2L
L2L
tp1102
g3
s(V9*D
p1103
L6L
L2L
tp1104
g16
s(V10*
p1105
L10L
L2L
tp1106
g8
s(L17L
L22L
Ntp1107
Ns(V20*
p1108
L2L
L2L
tp1109
g3
s(g483
L11L
L2L
tp1110
g8
s(L8L
L25L
Ntp1111
Ns(L20L
L20L
Ntp1112
Ns(V5*D
p1113
L5L
L2L
tp1114
g8
s(V21*A
p1115
L5L
L2L
tp1116
g3
s(V9*
p1117
L11L
L2L
tp1118
g8
s(V5*D
p1119
L3L
L2L
tp1120
g8
s(L14L
L26L
Ntp1121
Ns(V18*D
p1122
L3L
L2L
tp1123
g3
s(V8*
p1124
L4L
L2L
tp1125
g8
s(V8*
p1126
L10L
L2L
tp1127
g8
s(V12*DS
p1128
L8L
L2L
tp1129
g8
s(V17*AD
p1130
L7L
L2L
tp1131
g8
s(L21L
L11L
L2L
tp1132
g3
s(V20*A
p1133
L4L
L2L
tp1134
g3
s(L21L
L17L
Ntp1135
Ns(V19*A
p1136
L10L
L2L
tp1137
g3
s(L15L
L24L
Ntp1138
Ns(V18*
p1139
L2L
L2L
tp1140
g3
s(V20*
p1141
L4L
L2L
tp1142
g3
s(L19L
L24L
Ntp1143
Ns(V11*D
p1144
L2L
L2L
tp1145
g16
s(L4L
L17L
Ntp1146
Ns(L19L
L18L
Ntp1147
Ns(L9L
L26L
Ntp1148
Ns(L18L
L25L
Ntp1149
Ns(V17*AD
p1150
L11L
L2L
tp1151
g8
s(V13*AD
p1152
L2L
L2L
tp1153
g8
s(V17*D
p1154
L2L
L2L
tp1155
g3
s(L21L
L7L
L2L
tp1156
g3
s(V20*A
p1157
L8L
L2L
tp1158
g3
s(g795
L21L
Ntp1159
Ns(V13*AD
p1160
L8L
L2L
tp1161
g8
s(V17*D
p1162
L8L
L2L
tp1163
g3
s(g351
L21L
Ntp1164
Ns(V14*A
p1165
L4L
L2L
tp1166
g8
s(L16L
L25L
Ntp1167
Ns(V17*A
p1168
L10L
L2L
tp1169
g8
s(V20*D
p1170
L3L
L2L
tp1171
g3
s(V18*
p1172
L4L
L2L
tp1173
g3
s(V20*D
p1174
L5L
L2L
tp1175
g3
s(g819
L21L
Ntp1176
Ns(V19*D
p1177
L11L
L2L
tp1178
g3
s(V16*D
p1179
L3L
L2L
tp1180
g3
s(V15*AD
p1181
L6L
L2L
tp1182
g16
s(V15*A
p1183
L2L
L2L
tp1184
g8
s(L8L
L22L
Ntp1185
Ns(V16*D
p1186
L9L
L2L
tp1187
g8
s(V15*A
p1188
L8L
L2L
tp1189
g8
s(V18*A
p1190
L8L
L2L
tp1191
g3
s(V16*A
p1192
L10L
L2L
tp1193
g8
s(L20L
L23L
Ntp1194
Ns(V13*AD
p1195
L4L
L2L
tp1196
g8
s(V17*D
p1197
L4L
L2L
tp1198
g3
s(V18*A
p1199
L6L
L2L
tp1200
g3
s(V14*A
p1201
L10L
L2L
tp1202
g8
s(g759
L11L
L2L
tp1203
g8
s(L10L
L21L
Ntp1204
Ns(L18L
L18L
Ntp1205
Ns(V20*D
p1206
L9L
L2L
tp1207
g3
s(V12*DS
p1208
L7L
L2L
tp1209
g8
s(V19*D
p1210
L7L
L2L
tp1211
g3
s(V20*AD
p1212
L6L
L2L
tp1213
g3
s(L17L
L26L
Ntp1214
Ns(L19L
L23L
Ntp1215
Ns(L20L
L26L
Ntp1216
Ns(V17*
p1217
L10L
L2L
tp1218
g3
s(V11*D
p1219
L11L
L2L
tp1220
g16
s(V14*D
p1221
L3L
L2L
tp1222
g3
s(V21*A
p1223
L6L
L2L
tp1224
g3
s(g899
L21L
Ntp1225
Ns(L9L
L21L
Ntp1226
Ns(V14*D
p1227
L9L
L2L
tp1228
g8
s(V20*DS
p1229
L9L
L2L
tp1230
g3
s(g1219
L21L
Ntp1231
Ns(V12*DS
p1232
L11L
L2L
tp1233
g8
s(V19*A
p1234
L7L
L2L
tp1235
g3
s(V19*A
p1236
L9L
L2L
tp1237
g3
s(L15L
L20L
Ntp1238
Ns(V20*
p1239
L9L
L2L
tp1240
g3
s(V11*D
p1241
L7L
L2L
tp1242
g16
s(V13*
p1243
L6L
L2L
tp1244
g3
s(V20*
p1245
L7L
L2L
tp1246
g3
s(V13*A
p1247
L10L
L2L
tp1248
g8
s(V12*ADS
p1249
L8L
L2L
tp1250
g8
s(V20*DS
p1251
L7L
L2L
tp1252
g3
s(L21L
L25L
Ntp1253
Ns(g1150
L21L
Ntp1254
Ns(V6*DS
p1255
L2L
L2L
tp1256
g8
s(g92
L11L
L2L
tp1257
g8
s(g90
L11L
L2L
tp1258
g3
s(L14L
L21L
Ntp1259
Ns(g1177
L21L
Ntp1260
Ns(V19*
p1261
L6L
L2L
tp1262
g3
s(V14*A
p1263
L3L
L2L
tp1264
g8
s(V13*D
p1265
L4L
L2L
tp1266
g3
s(V19*AD
p1267
L3L
L2L
tp1268
g3
s(L19L
L26L
Ntp1269
Ns(V18*
p1270
L9L
L2L
tp1271
g3
s(V14*AD
p1272
L9L
L2L
tp1273
g8
s(V18*
p1274
L7L
L2L
tp1275
g3
s(L8L
L19L
Ntp1276
Ns(V13*A
p1277
L6L
L2L
tp1278
g8
s(V14*AD
p1279
L3L
L2L
tp1280
g8
s(g367
L21L
Ntp1281
Ns(V12*D
p1282
L9L
L2L
tp1283
g8
s(V16*D
p1284
L4L
L2L
tp1285
g3
s(V15*A
p1286
L5L
L2L
tp1287
g8
s(V18*DS
p1288
L3L
L2L
tp1289
g3
s(V12*ADS
p1290
L6L
L2L
tp1291
g8
s(V16*D
p1292
L10L
L2L
tp1293
g3
s(g397
L11L
L2L
tp1294
g8
s(V16*A
p1295
L5L
L2L
tp1296
g8
s(V13*AD
p1297
L7L
L2L
tp1298
g8
s(V17*D
p1299
L7L
L2L
tp1300
g3
s(L16L
L17L
Ntp1301
Ns(V16*A
p1302
L3L
L2L
tp1303
g8
s(V19*
p1304
L10L
L2L
tp1305
g3
s(V13*D
p1306
L8L
L2L
tp1307
g8
s(V14*A
p1308
L9L
L2L
tp1309
g8
s(V14*DS
p1310
L4L
L2L
tp1311
g3
s(V13*D
p1312
L2L
L2L
tp1313
g3
s(V19*AD
p1314
L5L
L2L
tp1315
g16
s(V14*DS
p1316
L2L
L2L
tp1317
g3
s(V6*D
p1318
L3L
L2L
tp1319
g8
s(L15L
L18L
Ntp1320
Ns(g749
L21L
Ntp1321
Ns(V7*D
p1322
L3L
L2L
tp1323
g8
s(V12*D
p1324
L5L
L2L
tp1325
g3
s(V20*AD
p1326
L9L
L2L
tp1327
g3
s(V4*DS
p1328
L6L
L2L
tp1329
g8
s(V7*D
p1330
L9L
L2L
tp1331
g8
s(L20L
L22L
Ntp1332
Ns(L20L
L17L
Ntp1333
Ns(L22L
NNtp1334
Ns(V17*
p1335
L5L
L2L
tp1336
g3
s(V15*
p1337
L5L
L2L
tp1338
g3
s(V14*D
p1339
L4L
L2L
tp1340
g3
s(V17*
p1341
L3L
L2L
tp1342
g3
s(V14*D
p1343
L10L
L2L
tp1344
g8
s(V11*
p1345
L9L
L2L
tp1346
g8
s(L17L
L18L
Ntp1347
Ns(g1068
L21L
Ntp1348
Ns(V10*D
p1349
L5L
L2L
tp1350
g16
s(L17L
L24L
Ntp1351
Ns(V4*DS
p1352
L10L
L2L
tp1353
g8
s(V8*DS
p1354
L4L
L2L
tp1355
g8
s(L19L
L25L
Ntp1356
Ns(V20*AD
p1357
L3L
L2L
tp1358
g3
s(V14*
p1359
L5L
L2L
tp1360
g3
s(V15*
p1361
L9L
L2L
tp1362
g8
s(V13*
p1363
L9L
L2L
tp1364
g8
s(V15*
p1365
L3L
L2L
tp1366
g3
s(L21L
L21L
Ntp1367
Ns(V20*DS
p1368
L2L
L2L
tp1369
g3
s(L21L
L18L
Ntp1370
Ns(V18*DS
p1371
L10L
L2L
tp1372
g3
s(L14L
L19L
Ntp1373
Ns(V20*DS
p1374
L4L
L2L
tp1375
g3
s(L16L
L23L
Ntp1376
Ns(V11*
p1377
L5L
L2L
tp1378
g8
s(V10*D
p1379
L3L
L2L
tp1380
g16
s(V6*DS
p1381
L5L
L2L
tp1382
g8
s(V8*DS
p1383
L8L
L2L
tp1384
g8
s(L12L
L22L
Ntp1385
Ns(V16*
p1386
L6L
L2L
tp1387
g3
s(L12L
L17L
Ntp1388
Ns(L4L
L21L
Ntp1389
Ns(g834
L11L
L2L
tp1390
g8
s(g1024
L21L
Ntp1391
Ns(g231
L11L
L2L
tp1392
g8
s(V6*D
p1393
L10L
L2L
tp1394
g8
s(V14*AD
p1395
L6L
L2L
tp1396
g16
s(V13*
p1397
L3L
L2L
tp1398
g3
s(V18*DS
p1399
L6L
L2L
tp1400
g3
s(V12*ADS
p1401
L3L
L2L
tp1402
g8
s(V12*ADS
p1403
L5L
L2L
tp1404
g8
s(V9*D
p1405
L9L
L2L
tp1406
g8
s(V10*
p1407
L5L
L2L
tp1408
g8
s(V8*D
p1409
L2L
L2L
tp1410
g8
s(V6*DS
p1411
L9L
L2L
tp1412
g8
s(V16*DS
p1413
L8L
L2L
tp1414
g8
s(V16*
p1415
L10L
L2L
tp1416
g3
s(g1232
L21L
Ntp1417
Ns(L6L
L22L
Ntp1418
Ns(V16*DS
p1419
L2L
L2L
tp1420
g3
s(V5*D
p1421
L10L
L2L
tp1422
g8
s(V9*
p1423
L4L
L2L
tp1424
g8
s(V19*AD
p1425
L8L
L2L
tp1426
g3
s(V18*D
p1427
L10L
L2L
tp1428
g3
s(V6*D
p1429
L6L
L2L
tp1430
g8
s(V19*AD
p1431
L6L
L2L
tp1432
g16
s.