(dp0
(V9*D
p1
L9L
L-1L
tp2
VDraw
p3
s(L13L
L21L
Ntp4
Ns(V10*
p5
L5L
L-1L
tp6
g3
s(L13L
L18L
Ntp7
Ns(V16*D
p8
L5L
L-1L
tp9
VStay
p10
s(V15*A
p11
L4L
L-1L
tp12
g3
s(L13L
L24L
Ntp13
Ns(V7*
p14
L8L
L-1L
tp15
g3
s(V14*A
p16
L11L
L-1L
tp17
g3
s(V16*DS
p18
L5L
L-1L
tp19
g10
s(V8*D
p20
L7L
L-1L
tp21
g3
s(V18*
p22
L8L
L-1L
tp23
g10
s(V13*AD
p24
L5L
L-1L
tp25
g3
s(V10*DS
p26
L11L
L-1L
tp27
g3
s(V17*D
p28
L5L
L-1L
tp29
g10
s(L6L
L26L
Ntp30
Ns(V19*
p31
L7L
L-1L
tp32
g10
s(V16*D
p33
L8L
L-1L
tp34
g3
s(V15*A
p35
L9L
L-1L
tp36
g3
s(L15L
L26L
Ntp37
Ns(V20*
p38
L21L
Ntp39
Ns(V14*A
p40
L2L
L-1L
tp41
g3
s(V19*A
p42
L21L
Ntp43
Ns(V16*AD
p44
L11L
L-1L
tp45
g3
s(V6*
p46
L10L
L-1L
tp47
g3
s(L19L
L19L
Ntp48
Ns(V10*D
p49
L21L
Ntp50
Ns(L19L
L20L
Ntp51
Ns(V18*
p52
L5L
L-1L
tp53
g10
s(V10*DS
p54
L6L
L-1L
tp55
VDouble
p56
s(V11*
p57
L5L
L-1L
tp58
g3
s(V7*
p59
L4L
L-1L
tp60
g3
s(L17L
L21L
Ntp61
Ns(V11*D
p62
L6L
L-1L
tp63
g56
s(V13*AD
p64
L9L
L-1L
tp65
g3
s(V17*D
p66
L9L
L-1L
tp67
g10
s(V15*
p68
L9L
L-1L
tp69
g3
s(V20*
p70
L8L
L-1L
tp71
g10
s(V24*
p72
NNtp73
Ns(V14*
p74
L5L
L-1L
tp75
g10
s(V4*DS
p76
L10L
L-1L
tp77
g3
s(V19*A
p78
L6L
L-1L
tp79
g10
s(V10*D
p80
L5L
L-1L
tp81
g56
s(V11*D
p82
L3L
L-1L
tp83
g56
s(V20*
p84
L5L
L-1L
tp85
g10
s(V11*
p86
L9L
L-1L
tp87
g3
s(V11*D
p88
L10L
L-1L
tp89
g56
s(g42
L11L
L-1L
tp90
g10
s(V15*
p91
L5L
L-1L
tp92
g10
s(V10*D
p93
L8L
L-1L
tp94
g56
s(V8*DS
p95
L3L
L-1L
tp96
g3
s(L4L
L24L
Ntp97
Ns(L4L
L18L
Ntp98
Ns(V13*
p99
L21L
Ntp100
Ns(V12*DS
p101
L9L
L-1L
tp102
g3
s(V12*
p103
L8L
L-1L
tp104
g3
s(V17*D
p105
L21L
Ntp106
Ns(V13*AD
p107
L21L
Ntp108
Ns(L14L
L17L
Ntp109
Ns(V4*DS
p110
L6L
L-1L
tp111
g3
s(V16*DS
p112
L21L
Ntp113
Ns(V19*D
p114
L6L
L-1L
tp115
g10
s(L18L
L22L
Ntp116
Ns(V7*D
p117
L3L
L-1L
tp118
g3
s(V12*D
p119
L5L
L-1L
tp120
g10
s(V21*A
p121
L4L
L-1L
tp122
g10
s(V13*D
p123
L8L
L-1L
tp124
g3
s(L4L
L20L
Ntp125
Ns(V19*D
p126
L3L
L-1L
tp127
g10
s(V7*D
p128
L6L
L-1L
tp129
g3
s(V15*D
p130
L3L
L-1L
tp131
g10
s(V12*DS
p132
L5L
L-1L
tp133
g10
s(V12*
p134
L4L
L-1L
tp135
g3
s(V18*A
p136
L9L
L-1L
tp137
g3
s(V20*D
p138
L11L
L-1L
tp139
g10
s(V6*D
p140
L4L
L-1L
tp141
g3
s(V19*AD
p142
L10L
L-1L
tp143
g10
s(V19*D
p144
L10L
L-1L
tp145
g10
s(V12*D
p146
L9L
L-1L
tp147
g3
s(V13*A
p148
L6L
L-1L
tp149
g3
s(V20*AD
p150
L21L
Ntp151
Ns(V14*AD
p152
L9L
L-1L
tp153
g3
s(V6*DS
p154
L11L
L-1L
tp155
g3
s(V20*D
p156
L2L
L-1L
tp157
g10
s(V16*
p158
L8L
L-1L
tp159
g3
s(L15L
L22L
Ntp160
Ns(V18*A
p161
L4L
L-1L
tp162
g10
s(V13*D
p163
L4L
L-1L
tp164
g10
s(V19*AD
p165
L3L
L-1L
tp166
g10
s(V18*DS
p167
L4L
L-1L
tp168
g10
s(V15*AD
p169
L4L
L-1L
tp170
g3
s(V6*DS
p171
L2L
L-1L
tp172
g3
s(V13*A
p173
L3L
L-1L
tp174
g3
s(L13L
L19L
Ntp175
Ns(L20L
L21L
Ntp176
Ns(V14*AD
p177
L4L
L-1L
tp178
g3
s(V17*AD
p179
L10L
L-1L
tp180
g3
s(L21L
L6L
L-1L
tp181
g10
s(V20*D
p182
L7L
L-1L
tp183
g10
s(V6*D
p184
L8L
L-1L
tp185
g3
s(V20*A
p186
L9L
L-1L
tp187
g10
s(L6L
L17L
Ntp188
Ns(L17L
L25L
Ntp189
Ns(V17*A
p190
L8L
L-1L
tp191
g3
s(V12*ADS
p192
L8L
L-1L
tp193
g3
s(V13*A
p194
L10L
L-1L
tp195
g3
s(V6*DS
p196
L7L
L-1L
tp197
g3
s(V16*
p198
L4L
L-1L
tp199
g10
s(V13*
p200
L6L
L-1L
tp201
g10
s(L21L
L3L
L-1L
tp202
g10
s(V18*DS
p203
L8L
L-1L
tp204
g10
s(L19L
L21L
Ntp205
Ns(L19L
L22L
Ntp206
Ns(L16L
L22L
Ntp207
Ns(V17*AD
p208
L6L
L-1L
tp209
g56
s(L21L
L10L
L-1L
tp210
g10
s(V20*A
p211
L5L
L-1L
tp212
g10
s(g99
L11L
L-1L
tp213
g3
s(V18*AD
p214
L21L
Ntp215
Ns(V8*
p216
L5L
L-1L
tp217
g3
s(V17*A
p218
L21L
Ntp219
Ns(V20*DS
p220
L9L
L-1L
tp221
g10
s(L21L
L22L
Ntp222
Ns(V5*D
p223
L4L
L-1L
tp224
g3
s(V9*
p225
L10L
L-1L
tp226
g3
s(V14*D
p227
L3L
L-1L
tp228
g10
s(V17*
p229
L10L
L-1L
tp230
g10
s(V8*
p231
L8L
L-1L
tp232
g3
s(V9*D
p233
L7L
L-1L
tp234
g3
s(V10*
p235
L11L
L-1L
tp236
g3
s(L12L
L21L
Ntp237
Ns(V20*AD
p238
L6L
L-1L
tp239
g10
s(V14*D
p240
L6L
L-1L
tp241
g10
s(V9*D
p242
L21L
Ntp243
Ns(V17*
p244
L7L
L-1L
tp245
g10
s(V8*D
p246
L9L
L-1L
tp247
g3
s(V14*DS
p248
L11L
L-1L
tp249
g3
s(L20L
L19L
Ntp250
Ns(V18*D
p251
L8L
L-1L
tp252
g10
s(V9*D
p253
L2L
L-1L
tp254
g3
s(L4L
L26L
Ntp255
Ns(V5*D
p256
L8L
L-1L
tp257
g3
s(V9*
p258
L6L
L-1L
tp259
g3
s(g150
L11L
L-1L
tp260
g10
s(L17L
L19L
Ntp261
Ns(V16*DS
p262
L10L
L-1L
tp263
g3
s(V16*AD
p264
L5L
L-1L
tp265
g56
s(V16*A
p266
L10L
L-1L
tp267
g3
s(g26
L21L
Ntp268
Ns(V25*
p269
NNtp270
Ns(V6*
p271
L4L
L-1L
tp272
g3
s(g242
L11L
L-1L
tp273
g3
s(L11L
L21L
Ntp274
Ns(V10*
p275
L7L
L-1L
tp276
g3
s(V14*DS
p277
L6L
L-1L
tp278
g10
s(L11L
L22L
Ntp279
Ns(V16*D
p280
L3L
L-1L
tp281
g10
s(V15*A
p282
L2L
L-1L
tp283
g3
s(V7*
p284
L10L
L-1L
tp285
g3
s(L6L
L24L
Ntp286
Ns(V19*
p287
L8L
L-1L
tp288
g10
s(V16*DS
p289
L7L
L-1L
tp290
g3
s(V16*A
p291
L7L
L-1L
tp292
g3
s(V8*D
p293
L5L
L-1L
tp294
g3
s(V10*DS
p295
L9L
L-1L
tp296
g56
s(L13L
L22L
Ntp297
Ns(V7*
p298
L3L
L-1L
tp299
g3
s(V14*A
p300
L4L
L-1L
tp301
g3
s(V16*D
p302
L6L
L-1L
tp303
g10
s(V15*A
p304
L7L
L-1L
tp305
g3
s(V16*AD
p306
L9L
L-1L
tp307
g3
s(V6*
p308
L8L
L-1L
tp309
g3
s(V13*AD
p310
L2L
L-1L
tp311
g3
s(V17*D
p312
L2L
L-1L
tp313
g10
s(V18*
p314
L11L
L-1L
tp315
g10
s(V10*DS
p316
L4L
L-1L
tp317
g56
s(V26*
p318
NNtp319
Ns(V11*
p320
L7L
L-1L
tp321
g3
s(V7*
p322
L6L
L-1L
tp323
g3
s(V19*
p324
L4L
L-1L
tp325
g10
s(L24L
NNtp326
Ns(V18*
p327
L2L
L-1L
tp328
g10
s(L12L
L19L
Ntp329
Ns(V15*
p330
L11L
L-1L
tp331
g3
s(L12L
L26L
Ntp332
Ns(V14*
p333
L7L
L-1L
tp334
g3
s(V11*
p335
L2L
L-1L
tp336
g3
s(L17L
L17L
Ntp337
Ns(V4*DS
p338
L8L
L-1L
tp339
g3
s(V10*D
p340
L7L
L-1L
tp341
g56
s(V11*D
p342
L5L
L-1L
tp343
g56
s(g38
L11L
L-1L
tp344
g10
s(V11*
p345
L11L
L-1L
tp346
g3
s(V14*
p347
L2L
L-1L
tp348
g10
s(L10L
L22L
Ntp349
Ns(V19*A
p350
L5L
L-1L
tp351
g10
s(V15*
p352
L7L
L-1L
tp353
g3
s(V10*D
p354
L10L
L-1L
tp355
g3
s(V20*
p356
L2L
L-1L
tp357
g10
s(L6L
L18L
Ntp358
Ns(V12*
p359
L10L
L-1L
tp360
g3
s(V4*DS
p361
L4L
L-1L
tp362
g3
s(V12*D
p363
L7L
L-1L
tp364
g3
s(V15*D
p365
L8L
L-1L
tp366
g3
s(V11*D
p367
L9L
L-1L
tp368
g56
s(L13L
L25L
Ntp369
Ns(L4L
L22L
Ntp370
Ns(V21*A
p371
L2L
L-1L
tp372
g10
s(V12*
p373
L3L
L-1L
tp374
g3
s(L18L
L20L
Ntp375
Ns(V13*D
p376
L10L
L-1L
tp377
g3
s(V21*
p378
L7L
L-1L
tp379
g10
s(L18L
L26L
Ntp380
Ns(V19*D
p381
L5L
L-1L
tp382
g10
s(V12*D
p383
L2L
L-1L
tp384
g3
s(V7*D
p385
L4L
L-1L
tp386
g3
s(V21*A
p387
L11L
L-1L
tp388
g10
s(L11L
L26L
Ntp389
Ns(V12*DS
p390
L3L
L-1L
tp391
g3
s(V12*
p392
L6L
L-1L
tp393
g10
s(V6*D
p394
L6L
L-1L
tp395
g3
s(L11L
L25L
Ntp396
Ns(V19*AD
p397
L8L
L-1L
tp398
g10
s(V21*
p399
L2L
L-1L
tp400
g10
s(V12*D
p401
L11L
L-1L
tp402
g3
s(V15*D
p403
L4L
L-1L
tp404
g10
s(V17*
p405
L21L
Ntp406
Ns(V13*A
p407
L4L
L-1L
tp408
g3
s(V14*AD
p409
L11L
L-1L
tp410
g3
s(V6*DS
p411
L9L
L-1L
tp412
g3
s(V16*
p413
L10L
L-1L
tp414
g3
s(V18*A
p415
L10L
L-1L
tp416
g3
s(V13*D
p417
L6L
L-1L
tp418
g10
s(L10L
L26L
Ntp419
Ns(V21*
p420
L11L
L-1L
tp421
g10
s(L10L
L25L
Ntp422
Ns(V19*D
p423
L9L
L-1L
tp424
g10
s(V18*DS
p425
L6L
L-1L
tp426
g10
s(V12*ADS
p427
L3L
L-1L
tp428
g3
s(V15*AD
p429
L2L
L-1L
tp430
g3
s(V16*
p431
L3L
L-1L
tp432
g10
s(V14*AD
p433
L6L
L-1L
tp434
g56
s(V18*A
p435
L3L
L-1L
tp436
g10
s(V6*D
p437
L10L
L-1L
tp438
g3
s(V12*ADS
p439
L10L
L-1L
tp440
g3
s(V15*AD
p441
L11L
L-1L
tp442
g3
s(V13*A
p443
L8L
L-1L
tp444
g3
s(V6*DS
p445
L5L
L-1L
tp446
g3
s(V18*AD
p447
L7L
L-1L
tp448
g10
s(L13L
L20L
Ntp449
Ns(V16*
p450
L6L
L-1L
tp451
g10
s(V13*
p452
L4L
L-1L
tp453
g10
s(V17*AD
p454
L9L
L-1L
tp455
g3
s(L21L
L5L
L-1L
tp456
g10
s(V20*A
p457
L10L
L-1L
tp458
g10
s(V17*A
p459
L7L
L-1L
tp460
g3
s(V20*DS
p461
L21L
Ntp462
Ns(V18*DS
p463
L10L
L-1L
tp464
g10
s(V15*A
p465
L21L
Ntp466
Ns(V20*DS
p467
L2L
L-1L
tp468
g10
s(L14L
L23L
Ntp469
Ns(V20*A
p470
L3L
L-1L
tp471
g10
s(V18*AD
p472
L2L
L-1L
tp473
g10
s(V13*
p474
L9L
L-1L
tp475
g3
s(V8*
p476
L3L
L-1L
tp477
g3
s(V17*A
p478
L2L
L-1L
tp479
g3
s(g461
L11L
L-1L
tp480
g10
s(L28L
NNtp481
Ns(L12L
L18L
Ntp482
Ns(g214
L11L
L-1L
tp483
g3
s(L16L
L18L
Ntp484
Ns(V17*AD
p485
L5L
L-1L
tp486
g56
s(L21L
L9L
L-1L
tp487
g10
s(V17*
p488
L8L
L-1L
tp489
g10
s(V20*A
p490
L6L
L-1L
tp491
g10
s(V8*
p492
L6L
L-1L
tp493
g3
s(V20*AD
p494
L4L
L-1L
tp495
g10
s(V5*D
p496
L7L
L-1L
tp497
g3
s(V9*
p498
L9L
L-1L
tp499
g3
s(V14*D
p500
L4L
L-1L
tp501
g10
s(L9L
L19L
Ntp502
Ns(V17*
p503
L5L
L-1L
tp504
g10
s(V14*DS
p505
L9L
L-1L
tp506
g3
s(V18*A
p507
L21L
Ntp508
Ns(V18*D
p509
L6L
L-1L
tp510
g10
s(V9*D
p511
L4L
L-1L
tp512
g56
s(V10*
p513
L8L
L-1L
tp514
g3
s(V20*AD
p515
L9L
L-1L
tp516
g10
s(L14L
L24L
Ntp517
Ns(V16*A
p518
L8L
L-1L
tp519
g3
s(L13L
L17L
Ntp520
Ns(V14*DS
p521
L4L
L-1L
tp522
g10
s(V18*D
p523
L11L
L-1L
tp524
g10
s(L13L
L23L
Ntp525
Ns(V19*
p526
L21L
Ntp527
Ns(L6L
L23L
Ntp528
Ns(V5*D
p529
L11L
L-1L
tp530
g3
s(V9*
p531
L5L
L-1L
tp532
g3
s(V19*
p533
L10L
L-1L
tp534
g10
s(V16*AD
p535
L2L
L-1L
tp536
g3
s(V6*
p537
L3L
L-1L
tp538
g3
s(V7*D
p539
L21L
Ntp540
Ns(V16*DS
p541
L9L
L-1L
tp542
g3
s(V8*D
p543
L21L
Ntp544
Ns(g420
L21L
Ntp545
Ns(V16*A
p546
L5L
L-1L
tp547
g3
s(V8*D
p548
L3L
L-1L
tp549
g3
s(V9*D
p550
L8L
L-1L
tp551
g3
s(L11L
L18L
Ntp552
Ns(V10*
p553
L4L
L-1L
tp554
g3
s(V14*A
p555
L6L
L-1L
tp556
g3
s(V16*D
p557
L4L
L-1L
tp558
g10
s(V15*A
p559
L5L
L-1L
tp560
g3
s(V19*
p561
L3L
L-1L
tp562
g10
s(g154
L21L
Ntp563
Ns(V16*
p564
L21L
Ntp565
Ns(L18L
L23L
Ntp566
Ns(V18*
p567
L9L
L-1L
tp568
g10
s(V10*DS
p569
L10L
L-1L
tp570
g3
s(V19*
p571
L6L
L-1L
tp572
g10
s(V14*A
p573
L3L
L-1L
tp574
g3
s(L15L
L17L
Ntp575
Ns(g523
L21L
Ntp576
Ns(L10L
L24L
Ntp577
Ns(V10*DS
p578
L3L
L-1L
tp579
g56
s(V14*
p580
L9L
L-1L
tp581
g3
s(V11*
p582
L4L
L-1L
tp583
g3
s(L17L
L20L
Ntp584
Ns(V19*A
p585
L2L
L-1L
tp586
g10
s(V27*
p587
NNtp588
Ns(V8*DS
p589
L10L
L-1L
tp590
g3
s(L12L
L23L
Ntp591
Ns(V11*D
p592
L7L
L-1L
tp593
g56
s(V15*
p594
L8L
L-1L
tp595
g3
s(L12L
L25L
Ntp596
Ns(V20*
p597
L9L
L-1L
tp598
g10
s(V14*
p599
L4L
L-1L
tp600
g10
s(V4*DS
p601
L11L
L-1L
tp602
g3
s(V19*A
p603
L7L
L-1L
tp604
g10
s(V10*D
p605
L4L
L-1L
tp606
g56
s(V11*
p607
L8L
L-1L
tp608
g3
s(V4*DS
p609
L2L
L-1L
tp610
g3
s(L11L
L23L
Ntp611
Ns(V8*DS
p612
L6L
L-1L
tp613
g3
s(V15*D
p614
L10L
L-1L
tp615
g3
s(V11*D
p616
L11L
L-1L
tp617
g3
s(L11L
L17L
Ntp618
Ns(V15*
p619
L4L
L-1L
tp620
g10
s(L4L
L25L
Ntp621
Ns(L4L
L19L
Ntp622
Ns(L16L
L20L
Ntp623
Ns(L18L
L17L
Ntp624
Ns(V21*
p625
L5L
L-1L
tp626
g10
s(V4*DS
p627
L7L
L-1L
tp628
g3
s(L9L
L24L
Ntp629
Ns(V19*D
p630
L7L
L-1L
tp631
g10
s(V7*D
p632
L2L
L-1L
tp633
g3
s(V12*D
p634
L4L
L-1L
tp635
g3
s(L13L
L26L
Ntp636
Ns(V21*A
p637
L9L
L-1L
tp638
g10
s(L30L
NNtp639
Ns(V13*D
p640
L9L
L-1L
tp641
g3
s(g539
L11L
L-1L
tp642
g3
s(V15*D
p643
L6L
L-1L
tp644
g10
s(V13*A
p645
L21L
Ntp646
Ns(L16L
L24L
Ntp647
Ns(V19*AD
p648
L7L
L-1L
tp649
g10
s(V18*A
p650
L8L
L-1L
tp651
g10
s(V21*
p652
L9L
L-1L
tp653
g10
s(L12L
L20L
Ntp654
Ns(V19*D
p655
L11L
L-1L
tp656
g10
s(V12*D
p657
L8L
L-1L
tp658
g3
s(V13*A
p659
L7L
L-1L
tp660
g3
s(V14*AD
p661
L8L
L-1L
tp662
g3
s(L17L
L23L
Ntp663
Ns(V20*D
p664
L3L
L-1L
tp665
g10
s(L6L
L21L
Ntp666
Ns(V13*D
p667
L5L
L-1L
tp668
g10
s(V19*AD
p669
L2L
L-1L
tp670
g10
s(V12*ADS
p671
L4L
L-1L
tp672
g3
s(L10L
L20L
Ntp673
Ns(V15*AD
p674
L9L
L-1L
tp675
g3
s(L10L
L19L
Ntp676
Ns(V6*DS
p677
L3L
L-1L
tp678
g3
s(V18*AD
p679
L5L
L-1L
tp680
g56
s(V12*
p681
L21L
Ntp682
Ns(V13*
p683
L2L
L-1L
tp684
g10
s(V17*AD
p685
L11L
L-1L
tp686
g3
s(L21L
L7L
L-1L
tp687
g10
s(V20*A
p688
L8L
L-1L
tp689
g10
s(V17*A
p690
L5L
L-1L
tp691
g3
s(V12*ADS
p692
L9L
L-1L
tp693
g3
s(g645
L11L
L-1L
tp694
g3
s(L14L
L22L
Ntp695
Ns(V17*AD
p696
L2L
L-1L
tp697
g3
s(V13*
p698
L7L
L-1L
tp699
g3
s(L15L
L25L
Ntp700
Ns(V20*DS
p701
L5L
L-1L
tp702
g10
s(V18*AD
p703
L9L
L-1L
tp704
g3
s(V17*AD
p705
L7L
L-1L
tp706
g3
s(L21L
L11L
L-1L
tp707
g10
s(L18L
L24L
Ntp708
Ns(V20*A
p709
L4L
L-1L
tp710
g10
s(V8*
p711
L4L
L-1L
tp712
g3
s(V20*DS
p713
L8L
L-1L
tp714
g10
s(V20*AD
p715
L2L
L-1L
tp716
g10
s(V5*D
p717
L5L
L-1L
tp718
g3
s(V9*
p719
L11L
L-1L
tp720
g3
s(V14*D
p721
L2L
L-1L
tp722
g10
s(L15L
L21L
Ntp723
Ns(g405
L11L
L-1L
tp724
g10
s(V18*D
p725
L4L
L-1L
tp726
g10
s(V9*D
p727
L6L
L-1L
tp728
g56
s(V10*
p729
L10L
L-1L
tp730
g3
s(V9*
p731
L2L
L-1L
tp732
g3
s(V14*D
p733
L11L
L-1L
tp734
g3
s(V20*AD
p735
L7L
L-1L
tp736
g10
s(L21L
NNtp737
Ns(V17*
p738
L2L
L-1L
tp739
g10
s(V19*AD
p740
L21L
Ntp741
Ns(V10*
p742
L3L
L-1L
tp743
g3
s(V14*DS
p744
L10L
L-1L
tp745
g3
s(V18*D
p746
L9L
L-1L
tp747
g10
s(V5*D
p748
L9L
L-1L
tp749
g3
s(V9*
p750
L7L
L-1L
tp751
g3
s(L8L
L18L
Ntp752
Ns(g112
L11L
L-1L
tp753
g3
s(L8L
L21L
Ntp754
Ns(V16*A
p755
L11L
L-1L
tp756
g3
s(V14*DS
p757
L3L
L-1L
tp758
g10
s(V9*D
p759
L10L
L-1L
tp760
g3
s(V10*
p761
L6L
L-1L
tp762
g3
s(L6L
L19L
Ntp763
Ns(V14*A
p764
L8L
L-1L
tp765
g3
s(V16*D
p766
L2L
L-1L
tp767
g10
s(V15*A
p768
L3L
L-1L
tp769
g3
s(L6L
L25L
Ntp770
Ns(V16*DS
p771
L2L
L-1L
tp772
g10
s(g601
L21L
Ntp773
Ns(V16*A
p774
L2L
L-1L
tp775
g3
s(V13*AD
p776
L6L
L-1L
tp777
g56
s(V17*D
p778
L6L
L-1L
tp779
g10
s(V10*DS
p780
L8L
L-1L
tp781
g56
s(V16*D
p782
L11L
L-1L
tp783
g3
s(V15*A
p784
L10L
L-1L
tp785
g3
s(V7*
p786
L2L
L-1L
tp787
g3
s(V14*A
p788
L5L
L-1L
tp789
g3
s(g248
L21L
Ntp790
Ns(g44
L21L
Ntp791
Ns(V18*
p792
L6L
L-1L
tp793
g10
s(V13*AD
p794
L3L
L-1L
tp795
g3
s(V17*D
p796
L3L
L-1L
tp797
g10
s(V
p798
g798
L-1L
tp799
VBegin
p800
s(L20L
L25L
Ntp801
Ns(V14*
p802
L11L
L-1L
tp803
g3
s(V11*
p804
L6L
L-1L
tp805
g3
s(L9L
L17L
Ntp806
Ns(L9L
L22L
Ntp807
Ns(V13*AD
p808
L10L
L-1L
tp809
g3
s(V17*D
p810
L10L
L-1L
tp811
g10
s(V10*D
p812
L3L
L-1L
tp813
g56
s(V8*DS
p814
L8L
L-1L
tp815
g3
s(V18*
p816
L3L
L-1L
tp817
g10
s(V15*
p818
L10L
L-1L
tp819
g3
s(V14*
p820
L6L
L-1L
tp821
g10
s(V4*DS
p822
L9L
L-1L
tp823
g3
s(V15*
p824
L3L
L-1L
tp825
g10
s(V10*D
p826
L6L
L-1L
tp827
g56
s(V20*
p828
L6L
L-1L
tp829
g10
s(L25L
NNtp830
Ns(L8L
L24L
Ntp831
Ns(V11*
p832
L10L
L-1L
tp833
g3
s(L14L
L20L
Ntp834
Ns(V19*A
p835
L8L
L-1L
tp836
g10
s(V8*DS
p837
L4L
L-1L
tp838
g3
s(L26L
NNtp839
Ns(L21L
L26L
Ntp840
Ns(V12*DS
p841
L10L
L-1L
tp842
g3
s(V20*A
p843
L21L
Ntp844
Ns(L21L
L19L
Ntp845
Ns(V15*
p846
L6L
L-1L
tp847
g10
s(V20*
p848
L3L
L-1L
tp849
g10
s(g782
L21L
Ntp850
Ns(L11L
L19L
Ntp851
Ns(V4*DS
p852
L5L
L-1L
tp853
g3
s(L11L
L20L
Ntp854
Ns(V12*D
p855
L6L
L-1L
tp856
g10
s(V21*A
p857
L7L
L-1L
tp858
g10
s(V15*D
p859
L9L
L-1L
tp860
g3
s(L14L
L18L
Ntp861
Ns(L4L
L23L
Ntp862
Ns(V12*
p863
L2L
L-1L
tp864
g3
s(L18L
L21L
Ntp865
Ns(V13*D
p866
L11L
L-1L
tp867
g3
s(V21*
p868
L6L
L-1L
tp869
g10
s(V7*D
p870
L9L
L-1L
tp871
g3
s(V12*DS
p872
L6L
L-1L
tp873
g10
s(V21*A
p874
L10L
L-1L
tp875
g10
s(V20*D
p876
L8L
L-1L
tp877
g10
s(g802
L21L
Ntp878
Ns(V6*D
p879
L3L
L-1L
tp880
g3
s(L15L
L19L
Ntp881
Ns(V13*D
p882
L2L
L-1L
tp883
g10
s(V19*AD
p884
L5L
L-1L
tp885
g10
s(V12*D
p886
L10L
L-1L
tp887
g3
s(V15*D
p888
L5L
L-1L
tp889
g10
s(V13*A
p890
L5L
L-1L
tp891
g3
s(V14*AD
p892
L10L
L-1L
tp893
g3
s(V18*A
p894
L7L
L-1L
tp895
g10
s(L6L
L20L
Ntp896
Ns(L8L
L26L
Ntp897
Ns(V13*D
p898
L7L
L-1L
tp899
g3
s(V21*
p900
L10L
L-1L
tp901
g10
s(V18*DS
p902
L3L
L-1L
tp903
g10
s(V12*ADS
p904
L6L
L-1L
tp905
g3
s(V15*AD
p906
L7L
L-1L
tp907
g3
s(L12L
L24L
Ntp908
Ns(V14*AD
p909
L3L
L-1L
tp910
g3
s(V16*
p911
L2L
L-1L
tp912
g10
s(V20*D
p913
L4L
L-1L
tp914
g10
s(V18*A
p915
L2L
L-1L
tp916
g10
s(g218
L11L
L-1L
tp917
g3
s(L27L
NNtp918
Ns(g401
L21L
Ntp919
Ns(V12*ADS
p920
L11L
L-1L
tp921
g3
s(L10L
L23L
Ntp922
Ns(V15*AD
p923
L10L
L-1L
tp924
g3
s(V13*A
p925
L9L
L-1L
tp926
g3
s(V6*
p927
L6L
L-1L
tp928
g3
s(V18*AD
p929
L6L
L-1L
tp930
g56
s(V13*
p931
L5L
L-1L
tp932
g10
s(V17*A
p933
L6L
L-1L
tp934
g3
s(V20*DS
p935
L7L
L-1L
tp936
g10
s(L9L
L25L
Ntp937
Ns(g330
L21L
Ntp938
Ns(V20*A
p939
L2L
L-1L
tp940
g10
s(L9L
L23L
Ntp941
Ns(V8*
p942
L2L
L-1L
tp943
g3
s(L9L
L20L
Ntp944
Ns(V20*DS
p945
L10L
L-1L
tp946
g10
s(V18*AD
p947
L10L
L-1L
tp948
g3
s(L16L
L19L
Ntp949
Ns(V17*
p950
L9L
L-1L
tp951
g10
s(g866
L21L
Ntp952
Ns(V8*
p953
L11L
L-1L
tp954
g3
s(L11L
L24L
Ntp955
Ns(V18*D
p956
L2L
L-1L
tp957
g10
s(V5*D
p958
L2L
L-1L
tp959
g3
s(V14*D
p960
L9L
L-1L
tp961
g3
s(V20*AD
p962
L5L
L-1L
tp963
g10
s(V8*D
p964
L10L
L-1L
tp965
g3
s(L29L
NNtp966
Ns(V14*DS
p967
L8L
L-1L
tp968
g3
s(g733
L21L
Ntp969
Ns(V18*D
p970
L7L
L-1L
tp971
g10
s(L21L
L24L
Ntp972
Ns(V16*AD
p973
L6L
L-1L
tp974
g56
s(L14L
L25L
Ntp975
Ns(L10L
L18L
Ntp976
Ns(V6*
p977
L7L
L-1L
tp978
g3
s(L10L
L17L
Ntp979
Ns(V16*A
p980
L9L
L-1L
tp981
g3
s(g16
L21L
Ntp982
Ns(V7*
p983
L9L
L-1L
tp984
g3
s(V14*A
p985
L10L
L-1L
tp986
g3
s(V22*
p987
NNtp988
Ns(V16*DS
p989
L4L
L-1L
tp990
g10
s(V16*AD
p991
L3L
L-1L
tp992
g3
s(V6*
p993
L2L
L-1L
tp994
g3
s(L8L
L17L
Ntp995
Ns(V8*D
p996
L6L
L-1L
tp997
g3
s(V13*AD
p998
L4L
L-1L
tp999
g3
s(V17*D
p1000
L4L
L-1L
tp1001
g10
s(L18L
L19L
Ntp1002
Ns(V16*D
p1003
L9L
L-1L
tp1004
g3
s(L21L
L23L
Ntp1005
Ns(V15*A
p1006
L8L
L-1L
tp1007
g3
s(V8*DS
p1008
L21L
Ntp1009
Ns(V14*A
p1010
L7L
L-1L
tp1011
g3
s(V16*AD
p1012
L10L
L-1L
tp1013
g3
s(V19*
p1014
L2L
L-1L
tp1015
g10
s(V6*
p1016
L11L
L-1L
tp1017
g3
s(V18*
p1018
L4L
L-1L
tp1019
g10
s(V10*DS
p1020
L7L
L-1L
tp1021
g56
s(V7*
p1022
L5L
L-1L
tp1023
g3
s(V13*AD
p1024
L8L
L-1L
tp1025
g3
s(V17*D
p1026
L8L
L-1L
tp1027
g10
s(V10*DS
p1028
L2L
L-1L
tp1029
g56
s(L16L
L26L
Ntp1030
Ns(V14*
p1031
L8L
L-1L
tp1032
g3
s(L9L
L18L
Ntp1033
Ns(V11*D
p1034
L2L
L-1L
tp1035
g56
s(V19*A
p1036
L3L
L-1L
tp1037
g10
s(g1008
L11L
L-1L
tp1038
g3
s(V20*
p1039
L4L
L-1L
tp1040
g10
s(V23*
p1041
NNtp1042
Ns(g314
L21L
Ntp1043
Ns(V19*A
p1044
L10L
L-1L
tp1045
g10
s(V10*D
p1046
L9L
L-1L
tp1047
g56
s(V8*DS
p1048
L2L
L-1L
tp1049
g3
s(V12*DS
p1050
L8L
L-1L
tp1051
g3
s(V12*
p1052
L9L
L-1L
tp1053
g3
s(L23L
NNtp1054
Ns(L8L
L20L
Ntp1055
Ns(L8L
L23L
Ntp1056
Ns(V4*DS
p1057
L3L
L-1L
tp1058
g3
s(V8*DS
p1059
L7L
L-1L
tp1060
g3
s(V21*A
p1061
L5L
L-1L
tp1062
g10
s(V15*D
p1063
L11L
L-1L
tp1064
g3
s(L21L
L20L
Ntp1065
Ns(L16L
L21L
Ntp1066
Ns(V19*D
p1067
L2L
L-1L
tp1068
g10
s(V21*
p1069
L4L
L-1L
tp1070
g10
s(V7*D
p1071
L7L
L-1L
tp1072
g3
s(V15*D
p1073
L2L
L-1L
tp1074
g10
s(L19L
L17L
Ntp1075
Ns(g138
L21L
Ntp1076
Ns(V12*DS
p1077
L4L
L-1L
tp1078
g3
s(V21*A
p1079
L8L
L-1L
tp1080
g10
s(V12*
p1081
L5L
L-1L
tp1082
g10
s(V20*D
p1083
L10L
L-1L
tp1084
g10
s(V6*D
p1085
L5L
L-1L
tp1086
g3
s(g740
L11L
L-1L
tp1087
g10
s(L20L
L24L
Ntp1088
Ns(V7*D
p1089
L10L
L-1L
tp1090
g3
s(V15*D
p1091
L7L
L-1L
tp1092
g3
s(V6*DS
p1093
L10L
L-1L
tp1094
g3
s(L20L
L18L
Ntp1095
Ns(V16*
p1096
L9L
L-1L
tp1097
g3
s(V28*
p1098
NNtp1099
Ns(L15L
L23L
Ntp1100
Ns(V18*A
p1101
L5L
L-1L
tp1102
g10
s(V19*AD
p1103
L6L
L-1L
tp1104
g10
s(V21*
p1105
L8L
L-1L
tp1106
g10
s(V18*DS
p1107
L5L
L-1L
tp1108
g10
s(V15*AD
p1109
L5L
L-1L
tp1110
g56
s(V13*A
p1111
L2L
L-1L
tp1112
g3
s(V14*AD
p1113
L5L
L-1L
tp1114
g56
s(V20*D
p1115
L6L
L-1L
tp1116
g10
s(V6*D
p1117
L9L
L-1L
tp1118
g3
s(L17L
L22L
Ntp1119
Ns(V17*A
p1120
L9L
L-1L
tp1121
g3
s(L8L
L25L
Ntp1122
Ns(L20L
L20L
Ntp1123
Ns(V12*ADS
p1124
L5L
L-1L
tp1125
g3
s(V15*AD
p1126
L8L
L-1L
tp1127
g3
s(V6*DS
p1128
L6L
L-1L
tp1129
g3
s(V16*
p1130
L5L
L-1L
tp1131
g10
s(L14L
L26L
Ntp1132
Ns(L21L
L2L
L-1L
tp1133
g10
s(V18*AD
p1134
L4L
L-1L
tp1135
g56
s(V13*
p1136
L3L
L-1L
tp1137
g10
s(V17*A
p1138
L4L
L-1L
tp1139
g3
s(V18*DS
p1140
L9L
L-1L
tp1141
g10
s(L21L
L17L
Ntp1142
Ns(V13*
p1143
L10L
L-1L
tp1144
g3
s(V17*AD
p1145
L3L
L-1L
tp1146
g56
s(L15L
L24L
Ntp1147
Ns(L19L
L24L
Ntp1148
Ns(L4L
L17L
Ntp1149
Ns(V20*DS
p1150
L4L
L-1L
tp1151
g10
s(L19L
L18L
Ntp1152
Ns(V18*AD
p1153
L8L
L-1L
tp1154
g10
s(L9L
L26L
Ntp1155
Ns(L18L
L25L
Ntp1156
Ns(V8*
p1157
L9L
L-1L
tp1158
g3
s(V18*DS
p1159
L21L
Ntp1160
Ns(g409
L21L
Ntp1161
Ns(V14*D
p1162
L7L
L-1L
tp1163
g3
s(V20*AD
p1164
L3L
L-1L
tp1165
g10
s(V17*
p1166
L6L
L-1L
tp1167
g10
s(L16L
L25L
Ntp1168
Ns(V8*D
p1169
L8L
L-1L
tp1170
g3
s(V9*D
p1171
L3L
L-1L
tp1172
g56
s(V18*D
p1173
L5L
L-1L
tp1174
g10
s(V20*AD
p1175
L10L
L-1L
tp1176
g10
s(V6*D
p1177
L21L
Ntp1178
Ns(V9*
p1179
L3L
L-1L
tp1180
g3
s(V14*D
p1181
L10L
L-1L
tp1182
g3
s(V16*AD
p1183
L4L
L-1L
tp1184
g56
s(V6*
p1185
L5L
L-1L
tp1186
g3
s(L8L
L22L
Ntp1187
Ns(V17*
p1188
L3L
L-1L
tp1189
g10
s(V14*DS
p1190
L7L
L-1L
tp1191
g3
s(L20L
L23L
Ntp1192
Ns(V10*
p1193
L2L
L-1L
tp1194
g3
s(V7*
p1195
L11L
L-1L
tp1196
g3
s(V19*
p1197
L9L
L-1L
tp1198
g10
s(V16*DS
p1199
L6L
L-1L
tp1200
g10
s(V16*A
p1201
L6L
L-1L
tp1202
g3
s(L10L
L21L
Ntp1203
Ns(V8*D
p1204
L4L
L-1L
tp1205
g3
s(L18L
L18L
Ntp1206
Ns(V14*DS
p1207
L2L
L-1L
tp1208
g10
s(V16*D
p1209
L7L
L-1L
tp1210
g3
s(V15*A
p1211
L6L
L-1L
tp1212
g3
s(V14*A
p1213
L9L
L-1L
tp1214
g3
s(V16*AD
p1215
L8L
L-1L
tp1216
g3
s(L17L
L26L
Ntp1217
Ns(V6*
p1218
L9L
L-1L
tp1219
g3
s(V16*DS
p1220
L3L
L-1L
tp1221
g10
s(L19L
L23L
Ntp1222
Ns(V16*A
p1223
L3L
L-1L
tp1224
g3
s(V18*
p1225
L10L
L-1L
tp1226
g10
s(V13*AD
p1227
L7L
L-1L
tp1228
g3
s(V10*DS
p1229
L5L
L-1L
tp1230
g56
s(V17*D
p1231
L7L
L-1L
tp1232
g10
s(L20L
L26L
Ntp1233
Ns(V7*
p1234
L7L
L-1L
tp1235
g3
s(V19*
p1236
L5L
L-1L
tp1237
g10
s(V16*D
p1238
L10L
L-1L
tp1239
g3
s(g465
L11L
L-1L
tp1240
g3
s(g920
L21L
Ntp1241
Ns(L9L
L21L
Ntp1242
Ns(g616
L21L
Ntp1243
Ns(V18*
p1244
L7L
L-1L
tp1245
g10
s(V11*
p1246
L3L
L-1L
tp1247
g3
s(V14*
p1248
L10L
L-1L
tp1249
g3
s(L15L
L20L
Ntp1250
Ns(V11*D
p1251
L4L
L-1L
tp1252
g56
s(g107
L11L
L-1L
tp1253
g3
s(g105
L11L
L-1L
tp1254
g10
s(V10*D
p1255
L2L
L-1L
tp1256
g56
s(V8*DS
p1257
L9L
L-1L
tp1258
g3
s(V20*
p1259
L10L
L-1L
tp1260
g10
s(V14*
p1261
L3L
L-1L
tp1262
g10
s(V19*A
p1263
L4L
L-1L
tp1264
g10
s(g49
L11L
L-1L
tp1265
g3
s(L21L
L25L
Ntp1266
Ns(g685
L21L
Ntp1267
Ns(V15*
p1268
L2L
L-1L
tp1269
g10
s(V20*
p1270
L7L
L-1L
tp1271
g10
s(g681
L11L
L-1L
tp1272
g3
s(g655
L21L
Ntp1273
Ns(L14L
L21L
Ntp1274
Ns(V11*D
p1275
L8L
L-1L
tp1276
g56
s(V19*A
p1277
L9L
L-1L
tp1278
g10
s(V8*DS
p1279
L5L
L-1L
tp1280
g3
s(V21*A
p1281
L3L
L-1L
tp1282
g10
s(L19L
L26L
Ntp1283
Ns(V12*DS
p1284
L11L
L-1L
tp1285
g3
s(L8L
L19L
Ntp1286
Ns(g755
L21L
Ntp1287
Ns(V19*D
p1288
L4L
L-1L
tp1289
g10
s(V12*D
p1290
L3L
L-1L
tp1291
g3
s(V7*D
p1292
L5L
L-1L
tp1293
g3
s(V12*DS
p1294
L2L
L-1L
tp1295
g3
s(V21*A
p1296
L6L
L-1L
tp1297
g10
s(V12*
p1298
L7L
L-1L
tp1299
g3
s(V6*D
p1300
L7L
L-1L
tp1301
g3
s(V19*AD
p1302
L9L
L-1L
tp1303
g10
s(L16L
L17L
Ntp1304
Ns(V21*
p1305
L3L
L-1L
tp1306
g10
s(V7*D
p1307
L8L
L-1L
tp1308
g3
s(V6*DS
p1309
L8L
L-1L
tp1310
g3
s(g564
L11L
L-1L
tp1311
g3
s(V12*DS
p1312
L7L
L-1L
tp1313
g3
s(g507
L11L
L-1L
tp1314
g3
s(V20*D
p1315
L9L
L-1L
tp1316
g10
s(L15L
L18L
Ntp1317
Ns(V6*D
p1318
L2L
L-1L
tp1319
g3
s(g1063
L21L
Ntp1320
Ns(V13*D
p1321
L3L
L-1L
tp1322
g10
s(V19*D
p1323
L8L
L-1L
tp1324
g10
s(V19*AD
p1325
L4L
L-1L
tp1326
g10
s(V18*DS
p1327
L7L
L-1L
tp1328
g10
s(V12*ADS
p1329
L2L
L-1L
tp1330
g3
s(V15*AD
p1331
L3L
L-1L
tp1332
g3
s(L20L
L22L
Ntp1333
Ns(V14*AD
p1334
L7L
L-1L
tp1335
g3
s(L20L
L17L
Ntp1336
Ns(L22L
NNtp1337
Ns(g1177
L11L
L-1L
tp1338
g3
s(V18*A
p1339
L6L
L-1L
tp1340
g10
s(V18*DS
p1341
L2L
L-1L
tp1342
g10
s(V12*ADS
p1343
L7L
L-1L
tp1344
g3
s(V15*AD
p1345
L6L
L-1L
tp1346
g56
s(V6*DS
p1347
L4L
L-1L
tp1348
g3
s(V16*
p1349
L7L
L-1L
tp1350
g3
s(V14*AD
p1351
L2L
L-1L
tp1352
g3
s(V17*AD
p1353
L8L
L-1L
tp1354
g3
s(L21L
L4L
L-1L
tp1355
g10
s(V20*D
p1356
L5L
L-1L
tp1357
g10
s(g843
L11L
L-1L
tp1358
g10
s(L17L
L18L
Ntp1359
Ns(g387
L21L
Ntp1360
Ns(L17L
L24L
Ntp1361
Ns(g1159
L11L
L-1L
tp1362
g10
s(V17*A
p1363
L10L
L-1L
tp1364
g3
s(V20*DS
p1365
L3L
L-1L
tp1366
g10
s(L19L
L25L
Ntp1367
Ns(V18*AD
p1368
L3L
L-1L
tp1369
g56
s(V13*
p1370
L8L
L-1L
tp1371
g3
s(V17*A
p1372
L3L
L-1L
tp1373
g3
s(L21L
L21L
Ntp1374
Ns(V20*DS
p1375
L6L
L-1L
tp1376
g10
s(L21L
L18L
Ntp1377
Ns(L14L
L19L
Ntp1378
Ns(V17*AD
p1379
L4L
L-1L
tp1380
g56
s(L21L
L8L
L-1L
tp1381
g10
s(L16L
L23L
Ntp1382
Ns(V20*A
p1383
L7L
L-1L
tp1384
g10
s(V8*
p1385
L7L
L-1L
tp1386
g3
s(L4L
L21L
Ntp1387
Ns(L12L
L22L
Ntp1388
Ns(L12L
L17L
Ntp1389
Ns(V5*D
p1390
L6L
L-1L
tp1391
g3
s(V9*
p1392
L8L
L-1L
tp1393
g3
s(V14*D
p1394
L5L
L-1L
tp1395
g10
s(V17*
p1396
L4L
L-1L
tp1397
g10
s(g441
L21L
Ntp1398
Ns(V8*
p1399
L10L
L-1L
tp1400
g3
s(V9*D
p1401
L5L
L-1L
tp1402
g56
s(V10*
p1403
L9L
L-1L
tp1404
g3
s(V18*D
p1405
L3L
L-1L
tp1406
g10
s(V20*AD
p1407
L8L
L-1L
tp1408
g10
s(V5*D
p1409
L3L
L-1L
tp1410
g3
s(V14*D
p1411
L8L
L-1L
tp1412
g3
s(g543
L11L
L-1L
tp1413
g3
s(V14*DS
p1414
L5L
L-1L
tp1415
g10
s(V18*D
p1416
L10L
L-1L
tp1417
g10
s(g1284
L21L
Ntp1418
Ns(L6L
L22L
Ntp1419
Ns(V5*D
p1420
L10L
L-1L
tp1421
g3
s(V9*
p1422
L4L
L-1L
tp1423
g3
s(g526
L11L
L-1L
tp1424
g10
s(V16*DS
p1425
L8L
L-1L
tp1426
g3
s(V16*AD
p1427
L7L
L-1L
tp1428
g3
s(V16*A
p1429
L4L
L-1L
tp1430
g3
s(V8*D
p1431
L2L
L-1L
tp1432
g3
s.