(dp0
(V7*
p1
L7L
L-4L
tp2
VDraw
p3
s(L13L
L21L
Ntp4
Ns(L13L
L18L
Ntp5
Ns(L13L
L24L
Ntp6
Ns(V8*DS
p7
L9L
L-4L
tp8
g3
s(V14*AD
p9
L7L
L-4L
tp10
g3
s(V19*D
p11
L10L
L-4L
tp12
VStay
p13
s(L6L
L26L
Ntp14
Ns(V12*
p15
L8L
L-4L
tp16
g3
s(V8*D
p17
L3L
L-4L
tp18
g3
s(V18*DS
p19
L3L
L-4L
tp20
g13
s(V11*D
p21
L21L
Ntp22
Ns(L15L
L26L
Ntp23
Ns(V8*D
p24
L9L
L-4L
tp25
g3
s(V18*DS
p26
L9L
L-4L
tp27
g13
s(V15*A
p28
L6L
L-4L
tp29
g3
s(V6*D
p30
L11L
L-4L
tp31
g3
s(L19L
L19L
Ntp32
Ns(V5*D
p33
L2L
L-4L
tp34
g3
s(L21L
L5L
L-4L
tp35
g13
s(L19L
L20L
Ntp36
Ns(V20*A
p37
L21L
Ntp38
Ns(V15*D
p39
L2L
L-4L
tp40
g13
s(V15*D
p41
L4L
L-4L
tp42
g13
s(V14*DS
p43
L2L
L-4L
tp44
g13
s(V9*D
p45
L3L
L-4L
tp46
g3
s(L17L
L21L
Ntp47
Ns(V14*AD
p48
L11L
L-4L
tp49
g3
s(V9*D
p50
L9L
L-4L
tp51
g3
s(V19*D
p52
L6L
L-4L
tp53
g13
s(V16*
p54
L11L
L-4L
tp55
g3
s(V9*
p56
L9L
L-4L
tp57
g3
s(V14*D
p58
L7L
L-4L
tp59
g3
s(V12*
p60
L4L
L-4L
tp61
g3
s(V20*A
p62
L2L
L-4L
tp63
g13
s(V18*AD
p64
L2L
L-4L
tp65
g13
s(V13*
p66
L5L
L-4L
tp67
g13
s(V12*
p68
L2L
L-4L
tp69
g3
s(V8*D
p70
L5L
L-4L
tp71
g3
s(V18*DS
p72
L5L
L-4L
tp73
g13
s(V6*D
p74
L7L
L-4L
tp75
g3
s(L21L
L9L
L-4L
tp76
g13
s(V5*D
p77
L8L
L-4L
tp78
g3
s(V10*D
p79
L11L
L-4L
tp80
g3
s(V17*D
p81
L7L
L-4L
tp82
g13
s(V12*ADS
p83
L11L
L-4L
tp84
g3
s(V15*D
p85
L8L
L-4L
tp86
g3
s(V25*
p87
NNtp88
Ns(V16*DS
p89
L10L
L-4L
tp90
g3
s(V8*DS
p91
L21L
Ntp92
Ns(V9*D
p93
L5L
L-4L
tp94
VDouble
p95
s(L4L
L24L
Ntp96
Ns(V16*
p97
L7L
L-4L
tp98
g3
s(V12*
p99
L21L
Ntp100
Ns(V9*
p101
L5L
L-4L
tp102
g3
s(L4L
L18L
Ntp103
Ns(V13*
p104
L9L
L-4L
tp105
g3
s(V20*D
p106
L9L
L-4L
tp107
g13
s(L14L
L17L
Ntp108
Ns(V13*AD
p109
L5L
L-4L
tp110
g3
s(V19*AD
p111
L5L
L-4L
tp112
g13
s(L18L
L22L
Ntp113
Ns(V17*A
p114
L7L
L-4L
tp115
g3
s(V13*AD
p116
L3L
L-4L
tp117
g3
s(V21*A
p118
L7L
L-4L
tp119
g13
s(V4*DS
p120
L21L
Ntp121
Ns(V10*DS
p122
L21L
Ntp123
Ns(V14*A
p124
L8L
L-4L
tp125
g3
s(V17*A
p126
L21L
Ntp127
Ns(V11*
p128
L10L
L-4L
tp129
g3
s(L4L
L20L
Ntp130
Ns(V18*D
p131
L21L
Ntp132
Ns(V14*A
p133
L2L
L-4L
tp134
g3
s(V10*DS
p135
L10L
L-4L
tp136
g3
s(V10*
p137
L4L
L-4L
tp138
g3
s(V17*
p139
L6L
L-4L
tp140
g13
s(V10*DS
p141
L4L
L-4L
tp142
g95
s(V20*D
p143
L7L
L-4L
tp144
g13
s(V10*
p145
L10L
L-4L
tp146
g3
s(V19*AD
p147
L9L
L-4L
tp148
g13
s(g126
L11L
L-4L
tp149
g3
s(V15*AD
p150
L2L
L-4L
tp151
g3
s(V15*
p152
L6L
L-4L
tp153
g13
s(L15L
L22L
Ntp154
Ns(V6*DS
p155
L6L
L-4L
tp156
g3
s(V13*A
p157
L8L
L-4L
tp158
g3
s(L13L
L19L
Ntp159
Ns(L20L
L21L
Ntp160
Ns(V12*DS
p161
L10L
L-4L
tp162
g3
s(L6L
L17L
Ntp163
Ns(L17L
L25L
Ntp164
Ns(V17*
p165
L8L
L-4L
tp166
g13
s(V28*
p167
NNtp168
Ns(V15*
p169
L10L
L-4L
tp170
g3
s(V6*DS
p171
L10L
L-4L
tp172
g3
s(V18*AD
p173
L21L
Ntp174
Ns(V18*
p175
L6L
L-4L
tp176
g13
s(L19L
L21L
Ntp177
Ns(V16*A
p178
L2L
L-4L
tp179
g3
s(L19L
L22L
Ntp180
Ns(V18*
p181
L8L
L-4L
tp182
g13
s(V20*DS
p183
L11L
L-4L
tp184
g13
s(L16L
L22L
Ntp185
Ns(V13*A
p186
L6L
L-4L
tp187
g3
s(V16*A
p188
L4L
L-4L
tp189
g3
s(V12*DS
p190
L6L
L-4L
tp191
g3
s(V16*AD
p192
L6L
L-4L
tp193
g95
s(V16*AD
p194
L8L
L-4L
tp195
g3
s(V14*
p196
L9L
L-4L
tp197
g3
s(L21L
L22L
Ntp198
Ns(V14*DS
p199
L21L
Ntp200
Ns(V12*D
p201
L6L
L-4L
tp202
g3
s(V11*D
p203
L10L
L-4L
tp204
g95
s(V15*A
p205
L11L
L-4L
tp206
g3
s(V6*
p207
L5L
L-4L
tp208
g3
s(V20*DS
p209
L7L
L-4L
tp210
g13
s(V20*AD
p211
L2L
L-4L
tp212
g13
s(V11*D
p213
L4L
L-4L
tp214
g95
s(L12L
L21L
Ntp215
Ns(g48
L21L
Ntp216
Ns(V8*
p217
L4L
L-4L
tp218
g3
s(V17*AD
p219
L11L
L-4L
tp220
g3
s(V6*
p221
L11L
L-4L
tp222
g3
s(V7*
p223
L2L
L-4L
tp224
g3
s(V14*
p225
L5L
L-4L
tp226
g13
s(L20L
L19L
Ntp227
Ns(L4L
L26L
Ntp228
Ns(V14*
p229
L3L
L-4L
tp230
g13
s(V8*DS
p231
L4L
L-4L
tp232
g3
s(L17L
L19L
Ntp233
Ns(V16*DS
p234
L21L
Ntp235
Ns(V14*AD
p236
L6L
L-4L
tp237
g95
s(V8*DS
p238
L2L
L-4L
tp239
g3
s(V19*D
p240
L11L
L-4L
tp241
g13
s(V21*
p242
L10L
L-4L
tp243
g13
s(V18*A
p244
L11L
L-4L
tp245
g3
s(L11L
L21L
Ntp246
Ns(V15*A
p247
L7L
L-4L
tp248
g3
s(L11L
L22L
Ntp249
Ns(V6*D
p250
L10L
L-4L
tp251
g3
s(L6L
L24L
Ntp252
Ns(V6*DS
p253
L21L
Ntp254
Ns(V8*
p255
L2L
L-4L
tp256
g3
s(V18*D
p257
L5L
L-4L
tp258
g13
s(V15*D
p259
L5L
L-4L
tp260
g13
s(V16*D
p261
L6L
L-4L
tp262
g13
s(L13L
L22L
Ntp263
Ns(V14*DS
p264
L3L
L-4L
tp265
g13
s(g131
L11L
L-4L
tp266
g13
s(V14*AD
p267
L10L
L-4L
tp268
g3
s(V19*D
p269
L7L
L-4L
tp270
g13
s(V21*
p271
L6L
L-4L
tp272
g13
s(V9*
p273
L8L
L-4L
tp274
g3
s(V20*A
p275
L3L
L-4L
tp276
g13
s(V14*D
p277
L2L
L-4L
tp278
g13
s(V19*
p279
L21L
Ntp280
Ns(V12*
p281
L3L
L-4L
tp282
g3
s(V6*D
p283
L6L
L-4L
tp284
g3
s(V12*
p285
L9L
L-4L
tp286
g3
s(V18*AD
p287
L9L
L-4L
tp288
g3
s(L24L
NNtp289
Ns(V5*D
p290
L9L
L-4L
tp291
g3
s(V10*D
p292
L10L
L-4L
tp293
g3
s(V17*D
p294
L6L
L-4L
tp295
g13
s(V12*ADS
p296
L10L
L-4L
tp297
g3
s(V15*D
p298
L9L
L-4L
tp299
g3
s(V16*D
p300
L10L
L-4L
tp301
g3
s(L21L
L4L
L-4L
tp302
g13
s(V5*D
p303
L3L
L-4L
tp304
g3
s(L12L
L19L
Ntp305
Ns(L12L
L26L
Ntp306
Ns(V15*D
p307
L3L
L-4L
tp308
g13
s(L17L
L17L
Ntp309
Ns(V9*
p310
L4L
L-4L
tp311
g3
s(V16*
p312
L8L
L-4L
tp313
g3
s(V14*
p314
L21L
Ntp315
Ns(V14*D
p316
L8L
L-4L
tp317
g3
s(V12*
p318
L5L
L-4L
tp319
g3
s(V18*AD
p320
L5L
L-4L
tp321
g95
s(V13*
p322
L4L
L-4L
tp323
g3
s(V13*AD
p324
L2L
L-4L
tp325
g3
s(L10L
L22L
Ntp326
Ns(L21L
L8L
L-4L
tp327
g13
s(L6L
L18L
Ntp328
Ns(V17*
p329
L21L
Ntp330
Ns(V16*DS
p331
L3L
L-4L
tp332
g13
s(V11*
p333
L11L
L-4L
tp334
g3
s(V16*DS
p335
L5L
L-4L
tp336
g13
s(V18*DS
p337
L21L
Ntp338
Ns(V8*D
p339
L21L
Ntp340
Ns(L13L
L25L
Ntp341
Ns(V16*
p342
L4L
L-4L
tp343
g13
s(V10*DS
p344
L5L
L-4L
tp345
g95
s(V10*
p346
L11L
L-4L
tp347
g3
s(L4L
L22L
Ntp348
Ns(V16*
p349
L2L
L-4L
tp350
g13
s(V13*
p351
L8L
L-4L
tp352
g3
s(V20*D
p353
L10L
L-4L
tp354
g13
s(L18L
L20L
Ntp355
Ns(V13*AD
p356
L4L
L-4L
tp357
g3
s(L18L
L26L
Ntp358
Ns(V19*AD
p359
L2L
L-4L
tp360
g13
s(V17*A
p361
L4L
L-4L
tp362
g3
s(L11L
L26L
Ntp363
Ns(V15*D
p364
L21L
Ntp365
Ns(V21*A
p366
L6L
L-4L
tp367
g13
s(L11L
L25L
Ntp368
Ns(V4*DS
p369
L3L
L-4L
tp370
g3
s(V14*A
p371
L11L
L-4L
tp372
g3
s(V12*DS
p373
L11L
L-4L
tp374
g3
s(V4*DS
p375
L5L
L-4L
tp376
g3
s(V14*A
p377
L5L
L-4L
tp378
g3
s(g122
L11L
L-4L
tp379
g3
s(V10*
p380
L5L
L-4L
tp381
g3
s(L10L
L26L
Ntp382
Ns(V17*
p383
L5L
L-4L
tp384
g13
s(L10L
L25L
Ntp385
Ns(V17*
p386
L3L
L-4L
tp387
g13
s(V17*A
p388
L8L
L-4L
tp389
g3
s(V15*AD
p390
L3L
L-4L
tp391
g3
s(V15*
p392
L7L
L-4L
tp393
g3
s(V18*
p394
L9L
L-4L
tp395
g13
s(V16*A
p396
L5L
L-4L
tp397
g3
s(V13*A
p398
L11L
L-4L
tp399
g3
s(V12*DS
p400
L7L
L-4L
tp401
g3
s(V4*DS
p402
L9L
L-4L
tp403
g3
s(V15*AD
p404
L21L
Ntp405
Ns(L13L
L20L
Ntp406
Ns(V16*AD
p407
L9L
L-4L
tp408
g3
s(g279
L11L
L-4L
tp409
g13
s(L14L
L23L
Ntp410
Ns(V15*
p411
L11L
L-4L
tp412
g3
s(V7*D
p413
L2L
L-4L
tp414
g3
s(V7*D
p415
L4L
L-4L
tp416
g3
s(V11*D
p417
L5L
L-4L
tp418
g95
s(V6*
p419
L10L
L-4L
tp420
g3
s(V18*
p421
L7L
L-4L
tp422
g13
s(L28L
NNtp423
Ns(V17*AD
p424
L10L
L-4L
tp425
g3
s(L12L
L18L
Ntp426
Ns(V16*A
p427
L3L
L-4L
tp428
g3
s(L16L
L18L
Ntp429
Ns(V20*DS
p430
L10L
L-4L
tp431
g13
s(V16*AD
p432
L7L
L-4L
tp433
g3
s(V14*
p434
L2L
L-4L
tp435
g13
s(V22*
p436
NNtp437
Ns(V19*
p438
L7L
L-4L
tp439
g13
s(V14*
p440
L8L
L-4L
tp441
g3
s(V8*DS
p442
L3L
L-4L
tp443
g3
s(V21*
p444
L11L
L-4L
tp445
g13
s(L9L
L19L
Ntp446
Ns(V18*A
p447
L10L
L-4L
tp448
g3
s(V7*D
p449
L8L
L-4L
tp450
g3
s(g373
L21L
Ntp451
Ns(V12*D
p452
L7L
L-4L
tp453
g3
s(g21
L11L
L-4L
tp454
g3
s(V15*A
p455
L8L
L-4L
tp456
g3
s(V6*
p457
L4L
L-4L
tp458
g3
s(V20*DS
p459
L6L
L-4L
tp460
g13
s(L14L
L24L
Ntp461
Ns(V8*
p462
L7L
L-4L
tp463
g3
s(V16*D
p464
L7L
L-4L
tp465
g3
s(V20*AD
p466
L7L
L-4L
tp467
g13
s(V18*D
p468
L10L
L-4L
tp469
g13
s(V8*
p470
L9L
L-4L
tp471
g3
s(V7*
p472
L3L
L-4L
tp473
g3
s(L13L
L17L
Ntp474
Ns(V14*
p475
L4L
L-4L
tp476
g13
s(V21*
p477
L7L
L-4L
tp478
g13
s(L13L
L23L
Ntp479
Ns(L6L
L23L
Ntp480
Ns(V19*A
p481
L10L
L-4L
tp482
g13
s(V8*DS
p483
L5L
L-4L
tp484
g3
s(V26*
p485
NNtp486
Ns(V14*AD
p487
L5L
L-4L
tp488
g3
s(V19*D
p489
L8L
L-4L
tp490
g13
s(V18*AD
p491
L8L
L-4L
tp492
g13
s(L11L
L18L
Ntp493
Ns(V15*A
p494
L4L
L-4L
tp495
g3
s(V13*D
p496
L21L
Ntp497
Ns(V6*D
p498
L9L
L-4L
tp499
g3
s(V15*A
p500
L2L
L-4L
tp501
g3
s(V16*D
p502
L11L
L-4L
tp503
g3
s(V20*AD
p504
L11L
L-4L
tp505
g13
s(L18L
L23L
Ntp506
Ns(V18*D
p507
L4L
L-4L
tp508
g13
s(V15*D
p509
L6L
L-4L
tp510
g13
s(V19*A
p511
L6L
L-4L
tp512
g13
s(V14*DS
p513
L6L
L-4L
tp514
g13
s(L15L
L17L
Ntp515
Ns(V14*AD
p516
L9L
L-4L
tp517
g3
s(V19*D
p518
L4L
L-4L
tp519
g13
s(V9*
p520
L11L
L-4L
tp521
g3
s(V14*D
p522
L9L
L-4L
tp523
g3
s(V19*D
p524
L2L
L-4L
tp525
g13
s(L10L
L24L
Ntp526
Ns(V18*AD
p527
L4L
L-4L
tp528
g95
s(V14*D
p529
L3L
L-4L
tp530
g13
s(V20*A
p531
L6L
L-4L
tp532
g13
s(V6*D
p533
L5L
L-4L
tp534
g3
s(V6*D
p535
L3L
L-4L
tp536
g3
s(L17L
L20L
Ntp537
Ns(V10*D
p538
L9L
L-4L
tp539
g3
s(V5*D
p540
L10L
L-4L
tp541
g3
s(V17*D
p542
L5L
L-4L
tp543
g13
s(V12*ADS
p544
L9L
L-4L
tp545
g3
s(V15*D
p546
L10L
L-4L
tp547
g3
s(L12L
L23L
Ntp548
Ns(V10*D
p549
L7L
L-4L
tp550
g95
s(V5*D
p551
L4L
L-4L
tp552
g3
s(V17*D
p553
L11L
L-4L
tp554
g13
s(V16*DS
p555
L4L
L-4L
tp556
g13
s(L21L
L3L
L-4L
tp557
g13
s(V12*ADS
p558
L7L
L-4L
tp559
g3
s(L12L
L25L
Ntp560
Ns(V14*DS
p561
L10L
L-4L
tp562
g3
s(V9*
p563
L7L
L-4L
tp564
g3
s(V16*
p565
L3L
L-4L
tp566
g13
s(V20*A
p567
L10L
L-4L
tp568
g13
s(V16*
p569
L9L
L-4L
tp570
g3
s(V19*AD
p571
L3L
L-4L
tp572
g13
s(V13*
p573
L3L
L-4L
tp574
g3
s(L11L
L23L
Ntp575
Ns(L11L
L17L
Ntp576
Ns(L4L
L25L
Ntp577
Ns(L4L
L19L
Ntp578
Ns(V21*A
p579
L3L
L-4L
tp580
g13
s(V16*DS
p581
L2L
L-4L
tp582
g13
s(L16L
L20L
Ntp583
Ns(L18L
L17L
Ntp584
Ns(V11*
p585
L8L
L-4L
tp586
g3
s(V4*DS
p587
L4L
L-4L
tp588
g3
s(L9L
L24L
Ntp589
Ns(V14*A
p590
L4L
L-4L
tp591
g3
s(V11*
p592
L6L
L-4L
tp593
g3
s(L13L
L26L
Ntp594
Ns(V16*
p595
L5L
L-4L
tp596
g13
s(V10*DS
p597
L6L
L-4L
tp598
g95
s(V10*
p599
L8L
L-4L
tp600
g3
s(V17*
p601
L2L
L-4L
tp602
g13
s(L30L
NNtp603
Ns(V20*D
p604
L11L
L-4L
tp605
g13
s(V13*AD
p606
L11L
L-4L
tp607
g3
s(V17*A
p608
L5L
L-4L
tp609
g3
s(V15*AD
p610
L8L
L-4L
tp611
g3
s(L16L
L24L
Ntp612
Ns(V21*A
p613
L9L
L-4L
tp614
g13
s(V13*D
p615
L3L
L-4L
tp616
g3
s(V4*DS
p617
L8L
L-4L
tp618
g3
s(L12L
L20L
Ntp619
Ns(V13*D
p620
L5L
L-4L
tp621
g13
s(V4*DS
p622
L2L
L-4L
tp623
g3
s(V14*A
p624
L10L
L-4L
tp625
g3
s(V12*DS
p626
L8L
L-4L
tp627
g3
s(L17L
L23L
Ntp628
Ns(V10*
p629
L2L
L-4L
tp630
g3
s(L6L
L21L
Ntp631
Ns(V19*
p632
L10L
L-4L
tp633
g13
s(V17*
p634
L4L
L-4L
tp635
g13
s(L10L
L20L
Ntp636
Ns(L10L
L19L
Ntp637
Ns(V17*A
p638
L9L
L-4L
tp639
g3
s(V20*
p640
L3L
L-4L
tp641
g13
s(V15*AD
p642
L4L
L-4L
tp643
g3
s(V7*D
p644
L5L
L-4L
tp645
g3
s(V20*
p646
L5L
L-4L
tp647
g13
s(V13*
p648
L21L
Ntp649
Ns(V18*
p650
L10L
L-4L
tp651
g13
s(V13*D
p652
L9L
L-4L
tp653
g3
s(V16*A
p654
L6L
L-4L
tp655
g3
s(L14L
L22L
Ntp656
Ns(V12*DS
p657
L4L
L-4L
tp658
g3
s(V13*A
p659
L10L
L-4L
tp660
g3
s(V16*A
p661
L8L
L-4L
tp662
g3
s(V12*DS
p663
L2L
L-4L
tp664
g3
s(L15L
L25L
Ntp665
Ns(V16*AD
p666
L10L
L-4L
tp667
g3
s(V19*
p668
L6L
L-4L
tp669
g13
s(V7*D
p670
L9L
L-4L
tp671
g3
s(V20*
p672
L9L
L-4L
tp673
g13
s(L18L
L24L
Ntp674
Ns(V7*D
p675
L3L
L-4L
tp676
g3
s(V12*D
p677
L2L
L-4L
tp678
g3
s(V11*D
p679
L6L
L-4L
tp680
g95
s(V6*
p681
L9L
L-4L
tp682
g3
s(V17*AD
p683
L9L
L-4L
tp684
g3
s(V20*AD
p685
L6L
L-4L
tp686
g13
s(V20*DS
p687
L3L
L-4L
tp688
g13
s(V8*
p689
L8L
L-4L
tp690
g3
s(V17*AD
p691
L7L
L-4L
tp692
g3
s(L15L
L21L
Ntp693
Ns(V19*A
p694
L11L
L-4L
tp695
g13
s(V7*
p696
L8L
L-4L
tp697
g3
s(V18*
p698
L21L
Ntp699
Ns(V21*
p700
L8L
L-4L
tp701
g13
s(L21L
NNtp702
Ns(V18*A
p703
L9L
L-4L
tp704
g3
s(V18*A
p705
L7L
L-4L
tp706
g13
s(V15*A
p707
L3L
L-4L
tp708
g3
s(V12*D
p709
L8L
L-4L
tp710
g3
s(V20*AD
p711
L10L
L-4L
tp712
g13
s(V6*
p713
L3L
L-4L
tp714
g3
s(V15*A
p715
L9L
L-4L
tp716
g3
s(g244
L21L
Ntp717
Ns(V27*
p718
NNtp719
Ns(L8L
L18L
Ntp720
Ns(V8*
p721
L6L
L-4L
tp722
g3
s(V16*D
p723
L4L
L-4L
tp724
g13
s(L8L
L21L
Ntp725
Ns(V18*D
p726
L9L
L-4L
tp727
g13
s(V19*A
p728
L7L
L-4L
tp729
g13
s(V7*
p730
L4L
L-4L
tp731
g3
s(V14*DS
p732
L7L
L-4L
tp733
g3
s(V21*
p734
L4L
L-4L
tp735
g13
s(L6L
L19L
Ntp736
Ns(V19*D
p737
L3L
L-4L
tp738
g13
s(V8*DS
p739
L10L
L-4L
tp740
g3
s(V21*
p741
L2L
L-4L
tp742
g13
s(g183
L21L
Ntp743
Ns(L6L
L25L
Ntp744
Ns(V14*AD
p745
L4L
L-4L
tp746
g3
s(V19*D
p747
L9L
L-4L
tp748
g13
s(V20*A
p749
L7L
L-4L
tp750
g13
s(g219
L21L
Ntp751
Ns(g173
L11L
L-4L
tp752
g3
s(V6*D
p753
L2L
L-4L
tp754
g3
s(V15*A
p755
L5L
L-4L
tp756
g3
s(V6*D
p757
L8L
L-4L
tp758
g3
s(V8*D
p759
L10L
L-4L
tp760
g3
s(V18*DS
p761
L10L
L-4L
tp762
g13
s(V16*D
p763
L8L
L-4L
tp764
g3
s(V5*D
p765
L5L
L-4L
tp766
g3
s(V10*D
p767
L6L
L-4L
tp768
g95
s(V17*D
p769
L10L
L-4L
tp770
g13
s(L21L
L2L
L-4L
tp771
g13
s(V12*ADS
p772
L6L
L-4L
tp773
g3
s(g604
L21L
Ntp774
Ns(g199
L11L
L-4L
tp775
g3
s(V18*D
p776
L3L
L-4L
tp777
g13
s(V15*D
p778
L7L
L-4L
tp779
g3
s(L20L
L25L
Ntp780
Ns(L9L
L17L
Ntp781
Ns(L9L
L22L
Ntp782
Ns(V14*AD
p783
L8L
L-4L
tp784
g3
s(V19*D
p785
L5L
L-4L
tp786
g13
s(g37
L11L
L-4L
tp787
g13
s(V9*
p788
L10L
L-4L
tp789
g3
s(V14*D
p790
L10L
L-4L
tp791
g3
s(V9*D
p792
L10L
L-4L
tp793
g3
s(V18*AD
p794
L7L
L-4L
tp795
g13
s(V13*
p796
L2L
L-4L
tp797
g3
s(V14*D
p798
L4L
L-4L
tp799
g13
s(V6*D
p800
L4L
L-4L
tp801
g3
s(V8*D
p802
L6L
L-4L
tp803
g3
s(V18*DS
p804
L6L
L-4L
tp805
g13
s(V10*D
p806
L8L
L-4L
tp807
g95
s(V5*D
p808
L11L
L-4L
tp809
g3
s(V17*D
p810
L4L
L-4L
tp811
g13
s(V12*ADS
p812
L8L
L-4L
tp813
g3
s(g364
L11L
L-4L
tp814
g3
s(L25L
NNtp815
Ns(L8L
L24L
Ntp816
Ns(V16*DS
p817
L7L
L-4L
tp818
g3
s(L14L
L20L
Ntp819
Ns(V24*
p820
NNtp821
Ns(V16*DS
p822
L9L
L-4L
tp823
g3
s(V11*
p824
L7L
L-4L
tp825
g3
s(V9*
p826
L6L
L-4L
tp827
g3
s(g553
L21L
Ntp828
Ns(V9*D
p829
L6L
L-4L
tp830
g95
s(L26L
NNtp831
Ns(L21L
L26L
Ntp832
Ns(L21L
L19L
Ntp833
Ns(V13*AD
p834
L10L
L-4L
tp835
g3
s(L11L
L19L
Ntp836
Ns(L11L
L20L
Ntp837
Ns(V15*AD
p838
L9L
L-4L
tp839
g3
s(V19*AD
p840
L6L
L-4L
tp841
g13
s(g371
L21L
Ntp842
Ns(L14L
L18L
Ntp843
Ns(V21*A
p844
L8L
L-4L
tp845
g13
s(L4L
L23L
Ntp846
Ns(V21*A
p847
L2L
L-4L
tp848
g13
s(V13*D
p849
L4L
L-4L
tp850
g3
s(L18L
L21L
Ntp851
Ns(V11*
p852
L9L
L-4L
tp853
g3
s(V4*DS
p854
L7L
L-4L
tp855
g3
s(V14*A
p856
L7L
L-4L
tp857
g3
s(V10*
p858
L3L
L-4L
tp859
g3
s(L15L
L19L
Ntp860
Ns(V10*DS
p861
L7L
L-4L
tp862
g95
s(V20*D
p863
L2L
L-4L
tp864
g13
s(V10*
p865
L9L
L-4L
tp866
g3
s(V20*D
p867
L4L
L-4L
tp868
g13
s(V15*AD
p869
L5L
L-4L
tp870
g95
s(V19*AD
p871
L10L
L-4L
tp872
g13
s(V20*
p873
L4L
L-4L
tp874
g13
s(V16*A
p875
L21L
Ntp876
Ns(V17*A
p877
L2L
L-4L
tp878
g3
s(L6L
L20L
Ntp879
Ns(V6*DS
p880
L3L
L-4L
tp881
g3
s(V13*D
p882
L8L
L-4L
tp883
g3
s(L8L
L26L
Ntp884
Ns(V6*DS
p885
L5L
L-4L
tp886
g3
s(V13*D
p887
L2L
L-4L
tp888
g3
s(g120
L11L
L-4L
tp889
g3
s(L12L
L24L
Ntp890
Ns(V16*A
p891
L9L
L-4L
tp892
g3
s(V12*DS
p893
L3L
L-4L
tp894
g3
s(V12*DS
p895
L9L
L-4L
tp896
g3
s(L27L
NNtp897
Ns(V19*
p898
L9L
L-4L
tp899
g13
s(g329
L11L
L-4L
tp900
g13
s(L10L
L23L
Ntp901
Ns(V20*
p902
L8L
L-4L
tp903
g13
s(V20*
p904
L2L
L-4L
tp905
g13
s(V7*D
p906
L6L
L-4L
tp907
g3
s(V6*DS
p908
L9L
L-4L
tp909
g3
s(g698
L11L
L-4L
tp910
g13
s(V13*A
p911
L3L
L-4L
tp912
g3
s(V17*AD
p913
L6L
L-4L
tp914
g95
s(V16*A
p915
L7L
L-4L
tp916
g3
s(V14*D
p917
L21L
Ntp918
Ns(V13*A
p919
L5L
L-4L
tp920
g3
s(V12*DS
p921
L5L
L-4L
tp922
g3
s(L9L
L25L
Ntp923
Ns(V7*
p924
L9L
L-4L
tp925
g3
s(V16*AD
p926
L11L
L-4L
tp927
g3
s(V19*
p928
L5L
L-4L
tp929
g13
s(L9L
L23L
Ntp930
Ns(L9L
L20L
Ntp931
Ns(V19*
p932
L3L
L-4L
tp933
g13
s(L16L
L19L
Ntp934
Ns(V7*D
p935
L10L
L-4L
tp936
g3
s(V18*A
p937
L6L
L-4L
tp938
g13
s(V12*D
p939
L9L
L-4L
tp940
g3
s(L11L
L24L
Ntp941
Ns(V6*
p942
L2L
L-4L
tp943
g3
s(V12*D
p944
L3L
L-4L
tp945
g3
s(V11*D
p946
L7L
L-4L
tp947
g95
s(V6*
p948
L8L
L-4L
tp949
g3
s(V17*AD
p950
L8L
L-4L
tp951
g3
s(V20*AD
p952
L5L
L-4L
tp953
g13
s(V20*DS
p954
L2L
L-4L
tp955
g13
s(V8*
p956
L11L
L-4L
tp957
g3
s(V7*
p958
L5L
L-4L
tp959
g3
s(g444
L21L
Ntp960
Ns(L29L
NNtp961
Ns(V19*A
p962
L8L
L-4L
tp963
g13
s(g91
L11L
L-4L
tp964
g3
s(V21*
p965
L3L
L-4L
tp966
g13
s(L21L
L24L
Ntp967
Ns(V21*
p968
L9L
L-4L
tp969
g13
s(L14L
L25L
Ntp970
Ns(L10L
L18L
Ntp971
Ns(L10L
L17L
Ntp972
Ns(V18*A
p973
L8L
L-4L
tp974
g13
s(g339
L11L
L-4L
tp975
g3
s(g337
L11L
L-4L
tp976
g13
s(V20*AD
p977
L9L
L-4L
tp978
g13
s(L8L
L17L
Ntp979
Ns(V18*D
p980
L2L
L-4L
tp981
g13
s(V16*D
p982
L5L
L-4L
tp983
g13
s(L18L
L19L
Ntp984
Ns(V18*D
p985
L8L
L-4L
tp986
g13
s(V19*A
p987
L4L
L-4L
tp988
g13
s(L21L
L23L
Ntp989
Ns(V14*DS
p990
L4L
L-4L
tp991
g13
s(V19*A
p992
L2L
L-4L
tp993
g13
s(V21*
p994
L5L
L-4L
tp995
g13
s(V9*D
p996
L11L
L-4L
tp997
g3
s(V21*A
p998
L21L
Ntp999
Ns(V14*D
p1000
L5L
L-4L
tp1001
g13
s(V14*AD
p1002
L3L
L-4L
tp1003
g3
s(V20*A
p1004
L4L
L-4L
tp1005
g13
s(V8*D
p1006
L7L
L-4L
tp1007
g3
s(V18*DS
p1008
L7L
L-4L
tp1009
g13
s(V18*AD
p1010
L10L
L-4L
tp1011
g3
s(V12*
p1012
L10L
L-4L
tp1013
g3
s(V16*D
p1014
L9L
L-4L
tp1015
g3
s(V17*D
p1016
L9L
L-4L
tp1017
g13
s(V10*D
p1018
L5L
L-4L
tp1019
g95
s(V5*D
p1020
L6L
L-4L
tp1021
g3
s(V12*ADS
p1022
L5L
L-4L
tp1023
g3
s(V10*D
p1024
L3L
L-4L
tp1025
g95
s(L21L
L7L
L-4L
tp1026
g13
s(V14*DS
p1027
L8L
L-4L
tp1028
g3
s(V16*DS
p1029
L8L
L-4L
tp1030
g3
s(V12*ADS
p1031
L3L
L-4L
tp1032
g3
s(L16L
L26L
Ntp1033
Ns(L9L
L18L
Ntp1034
Ns(V9*D
p1035
L7L
L-4L
tp1036
g3
s(V9*
p1037
L3L
L-4L
tp1038
g3
s(V20*A
p1039
L8L
L-4L
tp1040
g13
s(g917
L11L
L-4L
tp1041
g3
s(g502
L21L
Ntp1042
Ns(V18*AD
p1043
L6L
L-4L
tp1044
g95
s(V12*
p1045
L6L
L-4L
tp1046
g3
s(V19*AD
p1047
L7L
L-4L
tp1048
g13
s(V13*
p1049
L7L
L-4L
tp1050
g3
s(V17*D
p1051
L3L
L-4L
tp1052
g13
s(L21L
L11L
L-4L
tp1053
g13
s(L23L
NNtp1054
Ns(L8L
L20L
Ntp1055
Ns(L8L
L23L
Ntp1056
Ns(V16*DS
p1057
L6L
L-4L
tp1058
g13
s(V11*
p1059
L4L
L-4L
tp1060
g3
s(V11*
p1061
L2L
L-4L
tp1062
g3
s(V10*DS
p1063
L2L
L-4L
tp1064
g95
s(V20*D
p1065
L5L
L-4L
tp1066
g13
s(L21L
L20L
Ntp1067
Ns(V19*AD
p1068
L11L
L-4L
tp1069
g13
s(g648
L11L
L-4L
tp1070
g3
s(V13*AD
p1071
L9L
L-4L
tp1072
g3
s(L16L
L21L
Ntp1073
Ns(V17*A
p1074
L3L
L-4L
tp1075
g3
s(V13*AD
p1076
L7L
L-4L
tp1077
g3
s(L19L
L17L
Ntp1078
Ns(V15*AD
p1079
L10L
L-4L
tp1080
g3
s(g998
L11L
L-4L
tp1081
g13
s(V6*DS
p1082
L4L
L-4L
tp1083
g3
s(g606
L21L
Ntp1084
Ns(V21*A
p1085
L5L
L-4L
tp1086
g13
s(V13*D
p1087
L7L
L-4L
tp1088
g3
s(L20L
L24L
Ntp1089
Ns(V4*DS
p1090
L6L
L-4L
tp1091
g3
s(L20L
L18L
Ntp1092
Ns(V14*A
p1093
L6L
L-4L
tp1094
g3
s(L15L
L23L
Ntp1095
Ns(V17*
p1096
L10L
L-4L
tp1097
g13
s(V10*DS
p1098
L8L
L-4L
tp1099
g95
s(V20*D
p1100
L3L
L-4L
tp1101
g13
s(g1068
L21L
Ntp1102
Ns(V10*
p1103
L6L
L-4L
tp1104
g3
s(V15*AD
p1105
L6L
L-4L
tp1106
g95
s(V20*
p1107
L7L
L-4L
tp1108
g13
s(V15*
p1109
L2L
L-4L
tp1110
g13
s(V6*DS
p1111
L8L
L-4L
tp1112
g3
s(L17L
L22L
Ntp1113
Ns(V15*
p1114
L4L
L-4L
tp1115
g13
s(V6*DS
p1116
L2L
L-4L
tp1117
g3
s(g496
L11L
L-4L
tp1118
g3
s(L8L
L25L
Ntp1119
Ns(L20L
L20L
Ntp1120
Ns(V13*A
p1121
L4L
L-4L
tp1122
g3
s(V4*DS
p1123
L10L
L-4L
tp1124
g3
s(V16*A
p1125
L10L
L-4L
tp1126
g3
s(g996
L21L
Ntp1127
Ns(L14L
L26L
Ntp1128
Ns(V19*
p1129
L2L
L-4L
tp1130
g13
s(V
p1131
g1131
L-4L
tp1132
VBegin
p1133
s(V19*
p1134
L8L
L-4L
tp1135
g13
s(g83
L21L
Ntp1136
Ns(L21L
L17L
Ntp1137
Ns(g79
L21L
Ntp1138
Ns(V20*
p1139
L11L
L-4L
tp1140
g13
s(V15*
p1141
L8L
L-4L
tp1142
g3
s(V7*D
p1143
L7L
L-4L
tp1144
g3
s(L15L
L24L
Ntp1145
Ns(L19L
L24L
Ntp1146
Ns(V18*
p1147
L2L
L-4L
tp1148
g13
s(V11*D
p1149
L2L
L-4L
tp1150
g95
s(L4L
L17L
Ntp1151
Ns(L19L
L18L
Ntp1152
Ns(V18*
p1153
L4L
L-4L
tp1154
g13
s(V17*AD
p1155
L5L
L-4L
tp1156
g95
s(V13*A
p1157
L2L
L-4L
tp1158
g3
s(V17*AD
p1159
L3L
L-4L
tp1160
g95
s(V20*DS
p1161
L9L
L-4L
tp1162
g13
s(V16*AD
p1163
L2L
L-4L
tp1164
g3
s(L9L
L26L
Ntp1165
Ns(L18L
L25L
Ntp1166
Ns(V7*
p1167
L10L
L-4L
tp1168
g3
s(V16*AD
p1169
L4L
L-4L
tp1170
g3
s(V19*
p1171
L4L
L-4L
tp1172
g13
s(g398
L21L
Ntp1173
Ns(g314
L11L
L-4L
tp1174
g3
s(V7*D
p1175
L11L
L-4L
tp1176
g3
s(L16L
L25L
Ntp1177
Ns(V18*A
p1178
L5L
L-4L
tp1179
g13
s(V12*D
p1180
L10L
L-4L
tp1181
g3
s(V18*A
p1182
L3L
L-4L
tp1183
g13
s(V23*
p1184
NNtp1185
Ns(V12*D
p1186
L4L
L-4L
tp1187
g3
s(V11*D
p1188
L8L
L-4L
tp1189
g95
s(V6*
p1190
L7L
L-4L
tp1191
g3
s(V20*DS
p1192
L5L
L-4L
tp1193
g13
s(V20*AD
p1194
L4L
L-4L
tp1195
g13
s(L8L
L22L
Ntp1196
Ns(V8*
p1197
L10L
L-4L
tp1198
g3
s(V7*
p1199
L6L
L-4L
tp1200
g3
s(V19*A
p1201
L3L
L-4L
tp1202
g13
s(L20L
L23L
Ntp1203
Ns(V14*
p1204
L7L
L-4L
tp1205
g3
s(V19*A
p1206
L9L
L-4L
tp1207
g13
s(V8*DS
p1208
L8L
L-4L
tp1209
g3
s(V14*AD
p1210
L2L
L-4L
tp1211
g3
s(V8*DS
p1212
L6L
L-4L
tp1213
g3
s(g504
L21L
Ntp1214
Ns(L10L
L21L
Ntp1215
Ns(L18L
L18L
Ntp1216
Ns(g99
L11L
L-4L
tp1217
g3
s(V8*D
p1218
L8L
L-4L
tp1219
g3
s(V18*DS
p1220
L8L
L-4L
tp1221
g13
s(V20*AD
p1222
L8L
L-4L
tp1223
g13
s(L17L
L26L
Ntp1224
Ns(g240
L21L
Ntp1225
Ns(L21L
L6L
L-4L
tp1226
g13
s(V10*D
p1227
L2L
L-4L
tp1228
g95
s(V12*ADS
p1229
L2L
L-4L
tp1230
g3
s(L19L
L23L
Ntp1231
Ns(V16*D
p1232
L2L
L-4L
tp1233
g13
s(L20L
L26L
Ntp1234
Ns(V18*D
p1235
L7L
L-4L
tp1236
g13
s(V19*A
p1237
L5L
L-4L
tp1238
g13
s(V14*DS
p1239
L5L
L-4L
tp1240
g13
s(L9L
L21L
Ntp1241
Ns(V9*D
p1242
L8L
L-4L
tp1243
g3
s(V14*D
p1244
L6L
L-4L
tp1245
g13
s(V12*
p1246
L7L
L-4L
tp1247
g3
s(g205
L21L
Ntp1248
Ns(V20*A
p1249
L5L
L-4L
tp1250
g13
s(V18*AD
p1251
L3L
L-4L
tp1252
g13
s(V13*
p1253
L6L
L-4L
tp1254
g13
s(V8*D
p1255
L4L
L-4L
tp1256
g3
s(V18*DS
p1257
L4L
L-4L
tp1258
g13
s(g926
L21L
Ntp1259
Ns(V8*D
p1260
L2L
L-4L
tp1261
g3
s(V18*DS
p1262
L2L
L-4L
tp1263
g13
s(L15L
L20L
Ntp1264
Ns(V17*D
p1265
L2L
L-4L
tp1266
g13
s(L21L
L10L
L-4L
tp1267
g13
s(V5*D
p1268
L7L
L-4L
tp1269
g3
s(V10*D
p1270
L4L
L-4L
tp1271
g95
s(V17*D
p1272
L8L
L-4L
tp1273
g13
s(V12*ADS
p1274
L4L
L-4L
tp1275
g3
s(V14*DS
p1276
L9L
L-4L
tp1277
g3
s(g234
L11L
L-4L
tp1278
g3
s(V11*
p1279
L3L
L-4L
tp1280
g3
s(V9*D
p1281
L4L
L-4L
tp1282
g3
s(V9*
p1283
L2L
L-4L
tp1284
g3
s(L21L
L25L
Ntp1285
Ns(V9*D
p1286
L2L
L-4L
tp1287
g3
s(V20*A
p1288
L9L
L-4L
tp1289
g13
s(V13*
p1290
L10L
L-4L
tp1291
g3
s(V16*
p1292
L10L
L-4L
tp1293
g3
s(V13*AD
p1294
L6L
L-4L
tp1295
g3
s(L14L
L21L
Ntp1296
Ns(g1139
L21L
Ntp1297
Ns(V19*AD
p1298
L4L
L-4L
tp1299
g13
s(L19L
L26L
Ntp1300
Ns(V21*A
p1301
L4L
L-4L
tp1302
g13
s(L8L
L19L
Ntp1303
Ns(V11*
p1304
L5L
L-4L
tp1305
g3
s(V14*A
p1306
L3L
L-4L
tp1307
g3
s(V10*DS
p1308
L9L
L-4L
tp1309
g3
s(V10*
p1310
L7L
L-4L
tp1311
g3
s(V12*D
p1312
L21L
Ntp1313
Ns(V16*
p1314
L6L
L-4L
tp1315
g13
s(V10*DS
p1316
L3L
L-4L
tp1317
g95
s(V20*D
p1318
L6L
L-4L
tp1319
g13
s(V19*AD
p1320
L8L
L-4L
tp1321
g13
s(L16L
L17L
Ntp1322
Ns(V20*D
p1323
L8L
L-4L
tp1324
g13
s(V13*AD
p1325
L8L
L-4L
tp1326
g3
s(g694
L21L
Ntp1327
Ns(g404
L11L
L-4L
tp1328
g3
s(V15*
p1329
L5L
L-4L
tp1330
g13
s(V17*A
p1331
L6L
L-4L
tp1332
g3
s(L15L
L18L
Ntp1333
Ns(V21*A
p1334
L10L
L-4L
tp1335
g13
s(V6*DS
p1336
L7L
L-4L
tp1337
g3
s(V13*D
p1338
L6L
L-4L
tp1339
g13
s(L20L
L22L
Ntp1340
Ns(L20L
L17L
Ntp1341
Ns(L22L
NNtp1342
Ns(V14*A
p1343
L9L
L-4L
tp1344
g3
s(V17*
p1345
L9L
L-4L
tp1346
g13
s(V17*
p1347
L7L
L-4L
tp1348
g13
s(V15*AD
p1349
L7L
L-4L
tp1350
g3
s(V15*
p1351
L9L
L-4L
tp1352
g3
s(V17*A
p1353
L10L
L-4L
tp1354
g3
s(V20*
p1355
L6L
L-4L
tp1356
g13
s(V15*
p1357
L3L
L-4L
tp1358
g13
s(g253
L11L
L-4L
tp1359
g3
s(L17L
L18L
Ntp1360
Ns(V18*
p1361
L5L
L-4L
tp1362
g13
s(L17L
L24L
Ntp1363
Ns(V13*D
p1364
L10L
L-4L
tp1365
g3
s(L19L
L25L
Ntp1366
Ns(V13*A
p1367
L7L
L-4L
tp1368
g3
s(V20*DS
p1369
L8L
L-4L
tp1370
g13
s(V17*AD
p1371
L2L
L-4L
tp1372
g3
s(g875
L11L
L-4L
tp1373
g3
s(V13*A
p1374
L9L
L-4L
tp1375
g3
s(V16*AD
p1376
L5L
L-4L
tp1377
g95
s(g30
L21L
Ntp1378
Ns(g411
L21L
Ntp1379
Ns(V14*
p1380
L10L
L-4L
tp1381
g3
s(L21L
L21L
Ntp1382
Ns(L21L
L18L
Ntp1383
Ns(V20*
p1384
L10L
L-4L
tp1385
g13
s(L14L
L19L
Ntp1386
Ns(L16L
L23L
Ntp1387
Ns(V18*A
p1388
L2L
L-4L
tp1389
g13
s(V12*D
p1390
L5L
L-4L
tp1391
g3
s(V11*D
p1392
L9L
L-4L
tp1393
g95
s(V6*
p1394
L6L
L-4L
tp1395
g3
s(V18*
p1396
L3L
L-4L
tp1397
g13
s(L4L
L21L
Ntp1398
Ns(V20*DS
p1399
L4L
L-4L
tp1400
g13
s(L12L
L22L
Ntp1401
Ns(V11*D
p1402
L3L
L-4L
tp1403
g95
s(L12L
L17L
Ntp1404
Ns(g54
L21L
Ntp1405
Ns(V17*AD
p1406
L4L
L-4L
tp1407
g95
s(V16*AD
p1408
L3L
L-4L
tp1409
g3
s(g1175
L21L
Ntp1410
Ns(V14*
p1411
L6L
L-4L
tp1412
g13
s(V7*
p1413
L11L
L-4L
tp1414
g3
s(V8*DS
p1415
L7L
L-4L
tp1416
g3
s(V18*A
p1417
L4L
L-4L
tp1418
g13
s(g1312
L11L
L-4L
tp1419
g3
s(L6L
L22L
Ntp1420
Ns(V15*A
p1421
L10L
L-4L
tp1422
g3
s(V8*
p1423
L3L
L-4L
tp1424
g3
s(V16*D
p1425
L3L
L-4L
tp1426
g13
s(V20*AD
p1427
L3L
L-4L
tp1428
g13
s(V18*D
p1429
L6L
L-4L
tp1430
g13
s(V8*
p1431
L5L
L-4L
tp1432
g3
s.