(dp0
(V18*AD
p1
L11L
L-8L
tp2
F-0.29501419106167986
s(V6*D
p3
L2L
L-8L
tp4
F-0.16638315645535137
s(L13L
L21L
Ntp5
L0L
s(L13L
L18L
Ntp6
L0L
s(V6*D
p7
L8L
L-8L
tp8
F-0.14896535785614645
s(V12*D
p9
L8L
L-8L
tp10
F-0.20418026035585504
s(L13L
L24L
Ntp11
L0L
s(V20*AD
p12
L10L
L-8L
tp13
F0.4931611781713343
s(V18*D
p14
L3L
L-8L
tp15
F0.10224496235088879
s(V15*D
p16
L7L
L-8L
tp17
F-0.2786576862897966
s(L6L
L26L
Ntp18
L0L
s(V18*D
p19
L9L
L-8L
tp20
F-0.12307581043750207
s(V19*A
p21
L7L
L-8L
tp22
F0.5542863661514554
s(V11*D
p23
L21L
Ntp24
L0L
s(L15L
L26L
Ntp25
L0L
s(V21*
p26
L4L
L-8L
tp27
F0.8889600369053866
s(V9*
p28
L10L
L-8L
tp29
F-0.17776500971812345
s(V14*D
p30
L10L
L-8L
tp31
F-0.4106752685795923
s(L19L
L19L
Ntp32
L0L
s(V8*DS
p33
L10L
L-8L
tp34
F-0.25055371182244435
s(V21*
p35
L2L
L-8L
tp36
F0.8828171055790964
s(L19L
L20L
Ntp37
L0L
s(V14*D
p38
L4L
L-8L
tp39
F-0.288701469835721
s(V20*A
p40
L21L
Ntp41
L0L
s(V8*D
p42
L6L
L-8L
tp43
F0.00759917967430648
s(V18*DS
p44
L6L
L-8L
tp45
F0.19776203462831018
s(V15*A
p46
L5L
L-8L
tp47
F0.07101442125046578
s(L17L
L21L
Ntp48
L0L
s(V10*D
p49
L8L
L-8L
tp50
F0.13388425580293778
s(V5*D
p51
L11L
L-8L
tp52
F-0.4134401288214393
s(V17*D
p53
L4L
L-8L
tp54
F-0.17055806168223217
s(V8*D
p55
L10L
L-8L
tp56
F-0.25055371182244435
s(V18*DS
p57
L10L
L-8L
tp58
F-0.17756588741920376
s(V16*D
p59
L8L
L-8L
tp60
F-0.37612490492178097
s(V5*D
p61
L5L
L-8L
tp62
F-0.10398253089545492
s(V10*D
p63
L6L
L-8L
tp64
F0.29763665218958507
s(V17*D
p65
L10L
L-8L
tp66
F-0.4272932471552114
s(V16*DS
p67
L7L
L-8L
tp68
F-0.34511509526507983
s(L21L
L2L
L-8L
tp69
F1.5
s(V12*ADS
p70
L6L
L-8L
tp71
F0.17805895237576808
s(V14*DS
p72
L11L
L-8L
tp73
F-0.523750030137236
s(V16*DS
p74
L9L
L-8L
tp75
F-0.4213020792670204
s(V9*D
p76
L6L
L-8L
tp77
F0.07880085835403405
s(V14*AD
p78
L8L
L-8L
tp79
F0.10494855219311543
s(V19*D
p80
L5L
L-8L
tp81
F0.39478000639949196
s(g40
L11L
L-8L
tp82
F0.2395223625967938
s(V13*AD
p83
L10L
L-8L
tp84
F-0.06327086648530252
s(V9*D
p85
L10L
L-8L
tp86
F-0.17776500971812345
s(V18*AD
p87
L7L
L-8L
tp88
F0.3169135256421365
s(V13*
p89
L2L
L-8L
tp90
F-0.26744219721656237
s(V25*
p91
NNtp92
L0L
s(V15*AD
p93
L9L
L-8L
tp94
F0.013397131796876327
s(V8*DS
p95
L21L
Ntp96
L0L
s(V6*D
p97
L4L
L-8L
tp98
F-0.13593672681493338
s(L4L
L24L
Ntp99
L0L
s(V21*A
p100
L8L
L-8L
tp101
F0.9211467346899049
s(V12*
p102
L21L
Ntp103
L0L
s(L4L
L18L
Ntp104
L0L
s(V21*A
p105
L2L
L-8L
tp106
F0.8828171055790964
s(V13*D
p107
L4L
L-8L
tp108
F-0.2492976456448976
s(V15*D
p109
L11L
L-8L
tp110
F-0.5425937308751899
s(L14L
L17L
Ntp111
L0L
s(V11*
p112
L9L
L-8L
tp113
F0.11569667804784178
s(V4*DS
p114
L7L
L-8L
tp115
F-0.0471145460635227
s(L18L
L22L
Ntp116
L0L
s(V11*
p117
L7L
L-8L
tp118
F0.22753585569215504
s(V9*
p119
L6L
L-8L
tp120
F0.07880085835403405
s(V19*AD
p121
L10L
L-8L
tp122
F0.07464607505289732
s(V20*
p123
L4L
L-8L
tp124
F0.6523866952735767
s(V4*DS
p125
L21L
Ntp126
L0L
s(V10*DS
p127
L21L
Ntp128
L0L
s(L4L
L20L
Ntp129
L0L
s(V17*A
p130
L21L
Ntp131
L0L
s(V17*A
p132
L2L
L-8L
tp133
F0.003893562091481918
s(V18*D
p134
L21L
Ntp135
L0L
s(V19*AD
p136
L6L
L-8L
tp137
F0.4424333035461847
s(V12*DS
p138
L3L
L-8L
tp139
F-0.21223436208643556
s(V12*DS
p140
L9L
L-8L
tp141
F-0.26397091316817484
s(V14*A
p142
L7L
L-8L
tp143
F0.15591385408965722
s(V10*
p144
L3L
L-8L
tp145
F0.10397691423001845
s(L15L
L22L
Ntp146
L0L
s(V19*
p147
L9L
L-8L
tp148
F0.3181306131723243
s(V10*DS
p149
L7L
L-8L
tp150
F0.1813477187431476
s(V20*D
p151
L2L
L-8L
tp152
F0.6390146799611923
s(V10*
p153
L9L
L-8L
tp154
F0.06740478838696573
s(V20*D
p155
L4L
L-8L
tp156
F0.6523866952735767
s(V15*AD
p157
L5L
L-8L
tp158
F0.07101442125046578
s(L13L
L19L
Ntp159
L0L
s(V7*D
p160
L6L
L-8L
tp161
F-0.059900072755126293
s(L20L
L21L
Ntp162
L0L
s(V6*DS
p163
L9L
L-8L
tp164
F-0.21323887490687488
s(L6L
L17L
Ntp165
L0L
s(L17L
L25L
Ntp166
L0L
s(V6*DS
p167
L3L
L-8L
tp168
F-0.1512501837528027
s(V13*D
p169
L8L
L-8L
tp170
F-0.24856522708359965
s(V16*A
p171
L7L
L-8L
tp172
F0.08393752318817996
s(V28*
p173
NNtp174
L0L
s(V6*DS
p175
L5L
L-8L
tp176
F-0.11931335923653083
s(V13*D
p177
L2L
L-8L
tp178
F-0.26744219721656237
s(g125
L11L
L-8L
tp179
F-0.4036487124269398
s(V16*A
p180
L9L
L-8L
tp181
F-0.028791748137717146
s(V7*
p182
L9L
L-8L
tp183
F-0.2266711371020615
s(g1
L21L
Ntp184
L0L
s(L19L
L21L
Ntp185
L0L
s(V17*
p186
L11L
L-8L
tp187
F-0.6235520416980631
s(L19L
L22L
Ntp188
L0L
s(L16L
L22L
Ntp189
L0L
s(V20*
p190
L8L
L-8L
tp191
F0.7600768053522603
s(V12*D
p192
L9L
L-8L
tp193
F-0.26397091316817484
s(V20*
p194
L2L
L-8L
tp195
F0.6390146799611923
s(V12*D
p196
L3L
L-8L
tp197
F-0.21223436208643556
s(V17*AD
p198
L8L
L-8L
tp199
F0.006560112696013908
s(V20*AD
p200
L5L
L-8L
tp201
F0.6484725231834412
s(V20*DS
p202
L2L
L-8L
tp203
F0.6390146799611923
s(L21L
L22L
Ntp204
L0L
s(V18*
p205
L11L
L-8L
tp206
F-0.33815563045254415
s(V13*A
p207
L3L
L-8L
tp208
F0.09534895141526248
s(V17*AD
p209
L6L
L-8L
tp210
F0.1454349011232776
s(V13*A
p211
L5L
L-8L
tp212
F0.11163967121723731
s(V12*DS
p213
L5L
L-8L
tp214
F-0.19338373930063643
s(g72
L21L
Ntp215
L0L
s(V19*A
p216
L8L
L-8L
tp217
F0.5479431866910893
s(g95
L11L
L-8L
tp218
F-0.39683961765055303
s(V21*
p219
L3L
L-8L
tp220
F0.88626206850408
s(V16*AD
p221
L11L
L-8L
tp222
F-0.2951512924304025
s(V19*
p223
L5L
L-8L
tp224
F0.39478000639949196
s(V21*
p225
L9L
L-8L
tp226
F0.9295032078690372
s(L12L
L21L
Ntp227
L0L
s(V14*AD
p228
L21L
Ntp229
L0L
s(V19*
p230
L3L
L-8L
tp231
F0.3870940410957285
s(V18*A
p232
L8L
L-8L
tp233
F0.10185529472016061
s(V7*D
p234
L10L
L-8L
tp235
F-0.3015052330506161
s(V18*A
p236
L6L
L-8L
tp237
F0.19776203462831018
s(V8*D
p238
L11L
L-8L
tp239
F-0.39683961765055303
s(V18*DS
p240
L11L
L-8L
tp241
F-0.33815563045254415
s(L20L
L19L
Ntp242
L0L
s(L4L
L26L
Ntp243
L0L
s(V6*
p244
L2L
L-8L
tp245
F-0.16638315645535137
s(V11*D
p246
L7L
L-8L
tp247
F0.26274192921943884
s(L17L
L19L
Ntp248
L0L
s(V16*DS
p249
L21L
Ntp250
L0L
s(V6*
p251
L8L
L-8L
tp252
F-0.14896535785614645
s(V16*D
p253
L5L
L-8L
tp254
F-0.2851442543840745
s(V8*
p255
L11L
L-8L
tp256
F-0.39683961765055303
s(V7*
p257
L5L
L-8L
tp258
F-0.10287440981029958
s(L11L
L21L
Ntp259
L0L
s(V14*DS
p260
L4L
L-8L
tp261
F-0.288701469835721
s(L11L
L22L
Ntp262
L0L
s(V9*D
p263
L11L
L-8L
tp264
F-0.3204818998013818
s(L6L
L24L
Ntp265
L0L
s(V6*DS
p266
L21L
Ntp267
L0L
s(V14*AD
p268
L3L
L-8L
tp269
F0.07014400087492134
s(V20*A
p270
L4L
L-8L
tp271
F0.6523866952735767
s(V18*AD
p272
L10L
L-8L
tp273
F-0.124543462006417
s(L13L
L22L
Ntp274
L0L
s(V20*AD
p275
L9L
L-8L
tp276
F0.7408009351050386
s(V18*D
p277
L2L
L-8L
tp278
F0.08832922139126723
s(V19*
p279
L21L
Ntp280
L0L
s(V18*D
p281
L8L
L-8L
tp282
F0.10185529472016061
s(V19*A
p283
L4L
L-8L
tp284
F0.3927497316946456
s(L24L
NNtp285
L0L
s(V9*
p286
L3L
L-8L
tp287
F0.015340866357227222
s(V19*A
p288
L2L
L-8L
tp289
F0.375871489835838
s(V21*
p290
L5L
L-8L
tp291
F0.8856857033399561
s(V14*D
p292
L11L
L-8L
tp293
F-0.523750030137236
s(L12L
L19L
Ntp294
L0L
s(V14*D
p295
L5L
L-8L
tp296
F-0.28159703269772285
s(L12L
L26L
Ntp297
L0L
s(V12*
p298
L6L
L-8L
tp299
F-0.16333657128554524
s(V19*AD
p300
L7L
L-8L
tp301
F0.5542863661514554
s(V8*D
p302
L7L
L-8L
tp303
F0.035115406922420135
s(V18*DS
p304
L7L
L-8L
tp305
F0.3169135256421365
s(L17L
L17L
Ntp306
L0L
s(V12*
p307
L10L
L-8L
tp308
F-0.34018614801960684
s(L21L
L11L
L-8L
tp309
F1.1307692307692307
s(V17*D
p310
L3L
L-8L
tp311
F-0.1943604022710287
s(V16*D
p312
L9L
L-8L
tp313
F-0.4213020792670204
s(V10*D
p314
L5L
L-8L
tp315
F0.2221831391286029
s(V5*D
p316
L6L
L-8L
tp317
F-0.06771029113242207
s(V17*D
p318
L9L
L-8L
tp319
F-0.3941972066524281
s(V16*DS
p320
L6L
L-8L
tp321
F-0.24955867367972662
s(V12*ADS
p322
L5L
L-8L
tp323
F0.14160562856963338
s(V14*
p324
L21L
Ntp325
L0L
s(V10*D
p326
L3L
L-8L
tp327
F0.15613458422866014
s(L21L
L7L
L-8L
tp328
F1.5
s(V14*DS
p329
L8L
L-8L
tp330
F-0.28638653383555623
s(V16*DS
p331
L8L
L-8L
tp332
F-0.37612490492178097
s(V12*ADS
p333
L3L
L-8L
tp334
F0.1250556400925575
s(L10L
L22L
Ntp335
L0L
s(V9*D
p336
L7L
L-8L
tp337
F0.10836281939923122
s(V10*DS
p338
L2L
L-8L
tp339
F0.11771668635132625
s(V20*D
p340
L5L
L-8L
tp341
F0.6484725231834412
s(L6L
L18L
Ntp342
L0L
s(V20*A
p343
L8L
L-8L
tp344
F0.7600768053522603
s(g186
L21L
Ntp345
L0L
s(V13*
p346
L11L
L-8L
tp347
F-0.4994378754433301
s(V13*AD
p348
L9L
L-8L
tp349
F0.05461309935831822
s(V18*AD
p350
L6L
L-8L
tp351
F0.2133012622543614
s(V13*AD
p352
L7L
L-8L
tp353
F0.1840126257176076
s(V15*AD
p354
L10L
L-8L
tp355
F-0.09838251209429845
s(V13*
p356
L7L
L-8L
tp357
F-0.20163016525215394
s(g240
L21L
Ntp358
L0L
s(g238
L21L
Ntp359
L0L
s(L13L
L25L
Ntp360
L0L
s(V21*A
p361
L11L
L-8L
tp362
F0.44474138582234424
s(V6*DS
p363
L4L
L-8L
tp364
F-0.13593672681493338
s(L4L
L22L
Ntp365
L0L
s(V21*A
p366
L5L
L-8L
tp367
F0.8856857033399561
s(V13*D
p368
L7L
L-8L
tp369
F-0.20163016525215394
s(L18L
L20L
Ntp370
L0L
s(V4*DS
p371
L6L
L-8L
tp372
F-0.05773350213163912
s(L18L
L26L
Ntp373
L0L
s(V11*
p374
L4L
L-8L
tp375
F0.17201622487481602
s(L11L
L26L
Ntp376
L0L
s(g109
L21L
Ntp377
L0L
s(V17*
p378
L10L
L-8L
tp379
F-0.4272932471552114
s(V11*
p380
L2L
L-8L
tp381
F0.15013839429954737
s(L11L
L25L
Ntp382
L0L
s(V19*AD
p383
L11L
L-8L
tp384
F-0.047307113179791485
s(V20*
p385
L7L
L-8L
tp386
F0.7406092931962056
s(V17*A
p387
L3L
L-8L
tp388
F0.01783531096740969
s(L10L
L26L
Ntp389
L0L
s(V13*A
p390
L4L
L-8L
tp391
F0.10453603926320058
s(L10L
L25L
Ntp392
L0L
s(V19*
p393
L2L
L-8L
tp394
F0.375871489835838
s(V14*A
p395
L6L
L-8L
tp396
F0.12153832524593916
s(V19*
p397
L8L
L-8L
tp398
F0.5479431866910893
s(V10*DS
p399
L8L
L-8L
tp400
F0.13388425580293778
s(V20*D
p401
L3L
L-8L
tp402
F0.6488775452530932
s(V10*
p403
L6L
L-8L
tp404
F0.16018093086595633
s(V15*AD
p405
L6L
L-8L
tp406
F0.12322225076784506
s(V15*AD
p407
L21L
Ntp408
L0L
s(L13L
L20L
Ntp409
L0L
s(V7*D
p410
L7L
L-8L
tp411
F-0.06911980834033284
s(V15*
p412
L8L
L-8L
tp413
F-0.3179960602141694
s(V15*
p414
L2L
L-8L
tp415
F-0.3365651200190504
s(V6*DS
p416
L8L
L-8L
tp417
F-0.14896535785614645
s(V11*D
p418
L2L
L-8L
tp419
F0.24360848010691616
s(V15*
p420
L4L
L-8L
tp421
F-0.3157794264900092
s(V6*DS
p422
L2L
L-8L
tp423
F-0.16638315645535137
s(V13*D
p424
L11L
L-8L
tp425
F-0.4994378754433301
s(V4*DS
p426
L10L
L-8L
tp427
F-0.26130739329125025
s(L14L
L23L
Ntp428
L0L
s(V16*A
p429
L10L
L-8L
tp430
F-0.1360627952244181
s(V7*
p431
L10L
L-8L
tp432
F-0.3015052330506161
s(V
p433
g433
L-8L
tp434
F-0.044968033121002615
s(L28L
NNtp435
L0L
s(L12L
L18L
Ntp436
L0L
s(L16L
L18L
Ntp437
L0L
s(V20*
p438
L11L
L-8L
tp439
F0.2395223625967938
s(V12*D
p440
L10L
L-8L
tp441
F-0.34018614801960684
s(V12*D
p442
L4L
L-8L
tp443
F-0.20264138801329262
s(V22*
p444
NNtp445
L0L
s(V18*
p446
L2L
L-8L
tp447
F0.08832922139126723
s(V20*DS
p448
L5L
L-8L
tp449
F0.6484725231834412
s(V20*AD
p450
L4L
L-8L
tp451
F0.6523866952735767
s(V18*
p452
L4L
L-8L
tp453
F0.11665472488922568
s(V13*A
p454
L2L
L-8L
tp455
F0.08484612499554435
s(V17*AD
p456
L5L
L-8L
tp457
F0.061338323707631995
s(L9L
L19L
Ntp458
L0L
s(V19*A
p459
L3L
L-8L
tp460
F0.3870940410957285
s(V17*AD
p461
L3L
L-8L
tp462
F0.01783531096740969
s(V20*DS
p463
L9L
L-8L
tp464
F0.7408009351050386
s(V16*AD
p465
L2L
L-8L
tp466
F0.0015062018742261866
s(V12*DS
p467
L21L
Ntp468
L0L
s(V14*
p469
L7L
L-8L
tp470
F-0.2435947257335392
s(V19*A
p471
L9L
L-8L
tp472
F0.3181306131723243
s(V8*DS
p473
L8L
L-8L
tp474
F-0.06179954166427144
s(V16*AD
p475
L4L
L-8L
tp476
F0.029110419910456327
s(V19*
p477
L4L
L-8L
tp478
F0.3927497316946456
s(V8*DS
p479
L6L
L-8L
tp480
F0.00759917967430648
s(L14L
L24L
Ntp481
L0L
s(g324
L11L
L-8L
tp482
F-0.523750030137236
s(g102
L11L
L-8L
tp483
F-0.46863702081053016
s(V7*D
p484
L11L
L-8L
tp485
F-0.45589431121839713
s(V18*A
p486
L5L
L-8L
tp487
F0.12559030056497003
s(L13L
L17L
Ntp488
L0L
s(V8*D
p489
L8L
L-8L
tp490
F-0.06179954166427144
s(V18*DS
p491
L8L
L-8L
tp492
F0.10185529472016061
s(V18*A
p493
L3L
L-8L
tp494
F0.10224496235088879
s(L13L
L23L
Ntp495
L0L
s(L6L
L23L
Ntp496
L0L
s(V26*
p497
NNtp498
L0L
s(V10*D
p499
L2L
L-8L
tp500
F0.11771668635132625
s(V11*D
p501
L8L
L-8L
tp502
F0.17607985181765537
s(L21L
L6L
L-8L
tp503
F1.5
s(V12*ADS
p504
L2L
L-8L
tp505
F0.11436242606537693
s(V6*
p506
L7L
L-8L
tp507
F-0.09841622771424385
s(V16*D
p508
L2L
L-8L
tp509
F-0.3721228024954008
s(V8*
p510
L10L
L-8L
tp511
F-0.25055371182244435
s(V7*
p512
L6L
L-8L
tp513
F-0.059900072755126293
s(L11L
L18L
Ntp514
L0L
s(V14*DS
p515
L5L
L-8L
tp516
F-0.28159703269772285
s(g424
L21L
Ntp517
L0L
s(V9*D
p518
L8L
L-8L
tp519
F0.051645329581672395
s(V14*AD
p520
L2L
L-8L
tp521
F0.059857384113483146
s(V20*A
p522
L5L
L-8L
tp523
F0.6484725231834412
s(V18*AD
p524
L3L
L-8L
tp525
F0.10224496235088879
s(L18L
L23L
Ntp526
L0L
s(V13*
p527
L6L
L-8L
tp528
F-0.21268589105296815
s(L15L
L17L
Ntp529
L0L
s(V20*AD
p530
L8L
L-8L
tp531
F0.7600768053522603
s(L10L
L24L
Ntp532
L0L
s(V11*
p533
L3L
L-8L
tp534
F0.1613246087864304
s(V18*D
p535
L7L
L-8L
tp536
F0.3169135256421365
s(V19*A
p537
L5L
L-8L
tp538
F0.39478000639949196
s(V9*
p539
L2L
L-8L
tp540
F0.002700622764475656
s(L17L
L20L
Ntp541
L0L
s(L12L
L23L
Ntp542
L0L
s(V14*D
p543
L6L
L-8L
tp544
F-0.24955867367972662
s(L12L
L25L
Ntp545
L0L
s(V12*
p546
L7L
L-8L
tp547
F-0.1531378033848793
s(V19*AD
p548
L4L
L-8L
tp549
F0.3927497316946456
s(V8*D
p550
L4L
L-8L
tp551
F-0.05071840074681552
s(V18*DS
p552
L4L
L-8L
tp553
F0.11665472488922568
s(V8*D
p554
L2L
L-8L
tp555
F-0.07741459137411394
s(V18*DS
p556
L2L
L-8L
tp557
F0.08832922139126723
s(L21L
L10L
L-8L
tp558
F1.4076923076923078
s(V17*D
p559
L2L
L-8L
tp560
F-0.2174060953101727
s(V10*D
p561
L4L
L-8L
tp562
F0.19122696774789857
s(V5*D
p563
L7L
L-8L
tp564
F-0.06484967020535963
s(V17*D
p565
L8L
L-8L
tp566
F-0.3585627371590627
s(V12*ADS
p567
L4L
L-8L
tp568
F0.1344301391740428
s(V14*DS
p569
L9L
L-8L
tp570
F-0.33997760774544833
s(g249
L11L
L-8L
tp571
F-0.5800215713549453
s(L11L
L23L
Ntp572
L0L
s(V14*A
p573
L3L
L-8L
tp574
F0.07014400087492134
s(V10*DS
p575
L9L
L-8L
tp576
F0.06740478838696573
s(V10*
p577
L7L
L-8L
tp578
F0.1813477187431476
s(L11L
L17L
Ntp579
L0L
s(V9*D
p580
L4L
L-8L
tp581
F0.02674932986367587
s(L4L
L25L
Ntp582
L0L
s(V16*
p583
L6L
L-8L
tp584
F-0.24955867367972662
s(V10*DS
p585
L3L
L-8L
tp586
F0.15613458422866014
s(V20*D
p587
L6L
L-8L
tp588
F0.676234027853738
s(V9*D
p589
L2L
L-8L
tp590
F0.002700622764475656
s(V20*A
p591
L9L
L-8L
tp592
F0.7408009351050386
s(L4L
L19L
Ntp593
L0L
s(V13*
p594
L10L
L-8L
tp595
F-0.37994352187046904
s(V20*D
p596
L8L
L-8L
tp597
F0.7600768053522603
s(V13*AD
p598
L8L
L-8L
tp599
F0.1306968721915223
s(L16L
L20L
Ntp600
L0L
s(L18L
L17L
Ntp601
L0L
s(V16*
p602
L10L
L-8L
tp603
F-0.48274022285146917
s(V13*AD
p604
L6L
L-8L
tp605
F0.14734664316001828
s(L9L
L24L
Ntp606
L0L
s(g407
L11L
L-8L
tp607
F-0.265272241539217
s(V15*
p608
L5L
L-8L
tp609
F-0.2851442543840745
s(L13L
L26L
Ntp610
L0L
s(V21*A
p611
L10L
L-8L
tp612
F0.8316017180741977
s(V6*DS
p613
L7L
L-8L
tp614
F-0.09841622771424385
s(V21*A
p615
L4L
L-8L
tp616
F0.8889600369053866
s(L30L
NNtp617
L0L
s(V13*D
p618
L6L
L-8L
tp619
F-0.21268589105296815
s(V11*
p620
L5L
L-8L
tp621
F0.1814148934939177
s(V17*
p622
L9L
L-8L
tp623
F-0.3941972066524281
s(L16L
L24L
Ntp624
L0L
s(V17*
p625
L7L
L-8L
tp626
F-0.1499040177731338
s(L12L
L20L
Ntp627
L0L
s(V19*AD
p628
L8L
L-8L
tp629
F0.5479431866910893
s(V17*A
p630
L10L
L-8L
tp631
F-0.15219543595378976
s(V20*
p632
L6L
L-8L
tp633
F0.676234027853738
s(L17L
L23L
Ntp634
L0L
s(V18*
p635
L5L
L-8L
tp636
F0.12559030056497003
s(V17*A
p637
L6L
L-8L
tp638
F0.0840800553328025
s(L6L
L21L
Ntp639
L0L
s(V13*A
p640
L7L
L-8L
tp641
F0.1840126257176076
s(V17*AD
p642
L2L
L-8L
tp643
F0.003893562091481918
s(V20*DS
p644
L8L
L-8L
tp645
F0.7600768053522603
s(L10L
L20L
Ntp646
L0L
s(L10L
L19L
Ntp647
L0L
s(V13*A
p648
L9L
L-8L
tp649
F0.05461309935831822
s(V16*AD
p650
L5L
L-8L
tp651
F0.0421711976914913
s(g346
L21L
Ntp652
L0L
s(V14*
p653
L10L
L-8L
tp654
F-0.4106752685795923
s(V14*A
p655
L9L
L-8L
tp656
F0.03185074780315803
s(L14L
L22L
Ntp657
L0L
s(V18*A
p658
L2L
L-8L
tp659
F0.08832922139126723
s(V15*AD
p660
L7L
L-8L
tp661
F0.1319364788032472
s(V15*
p662
L9L
L-8L
tp663
F-0.3670498135804502
s(L15L
L25L
Ntp664
L0L
s(V11*D
p665
L9L
L-8L
tp666
F0.11569667804784178
s(V6*
p667
L6L
L-8L
tp668
F-0.08351757528978472
s(V15*
p669
L3L
L-8L
tp670
F-0.3291739248093088
s(g266
L11L
L-8L
tp671
F-0.43159221435497325
s(V11*D
p672
L3L
L-8L
tp673
F0.2789542341700364
s(V13*D
p674
L10L
L-8L
tp675
F-0.37994352187046904
s(V16*A
p676
L11L
L-8L
tp677
F-0.2951512924304025
s(L18L
L24L
Ntp678
L0L
s(V7*
p679
L11L
L-8L
tp680
F-0.45589431121839713
s(L15L
L21L
Ntp681
L0L
s(V20*
p682
L10L
L-8L
tp683
F0.4931611781713343
s(V12*D
p684
L11L
L-8L
tp685
F-0.46863702081053016
s(V12*D
p686
L5L
L-8L
tp687
F-0.19338373930063643
s(g205
L21L
Ntp688
L0L
s(V18*
p689
L3L
L-8L
tp690
F0.10224496235088879
s(V20*DS
p691
L4L
L-8L
tp692
F0.6523866952735767
s(V20*AD
p693
L3L
L-8L
tp694
F0.6488775452530932
s(L21L
NNtp695
L0L
s(V18*D
p696
L6L
L-8L
tp697
F0.19776203462831018
s(V17*AD
p698
L4L
L-8L
tp699
F0.031220505843923142
s(V16*AD
p700
L3L
L-8L
tp701
F0.015635181996784177
s(V14*
p702
L6L
L-8L
tp703
F-0.24955867367972662
s(V8*DS
p704
L9L
L-8L
tp705
F-0.1688387969945373
s(V8*DS
p706
L7L
L-8L
tp707
F0.035115406922420135
s(V18*A
p708
L21L
Ntp709
L0L
s(V27*
p710
NNtp711
L0L
s(L8L
L18L
Ntp712
L0L
s(L8L
L21L
Ntp713
L0L
s(V12*
p714
L8L
L-8L
tp715
F-0.20418026035585504
s(V8*D
p716
L3L
L-8L
tp717
F-0.0640884979214177
s(V18*DS
p718
L3L
L-8L
tp719
F0.10224496235088879
s(V18*A
p720
L4L
L-8L
tp721
F0.11665472488922568
s(V15*A
p722
L6L
L-8L
tp723
F0.10711380462091587
s(V8*D
p724
L9L
L-8L
tp725
F-0.1688387969945373
s(V18*DS
p726
L9L
L-8L
tp727
F-0.12307581043750207
s(L6L
L19L
Ntp728
L0L
s(L6L
L25L
Ntp729
L0L
s(V20*DS
p730
L21L
Ntp731
L0L
s(V5*D
p732
L2L
L-8L
tp733
F-0.14219587703162462
s(L21L
L5L
L-8L
tp734
F1.5
s(V15*A
p735
L10L
L-8L
tp736
F-0.09838251209429845
s(V8*
p737
L3L
L-8L
tp738
F-0.0640884979214177
s(V16*D
p739
L3L
L-8L
tp740
F-0.34425360055041015
s(V17*AD
p741
L21L
Ntp742
L0L
s(V8*
p743
L5L
L-8L
tp744
F-0.037996092584203625
s(V7*
p745
L7L
L-8L
tp746
F-0.06911980834033284
s(V14*DS
p747
L2L
L-8L
tp748
F-0.3053854767982212
s(V9*D
p749
L3L
L-8L
tp750
F0.015340866357227222
s(g228
L11L
L-8L
tp751
F-0.25259347220379014
s(V9*D
p752
L9L
L-8L
tp753
F-0.05555991512583325
s(V19*D
p754
L6L
L-8L
tp755
F0.4424333035461847
s(V16*
p756
L11L
L-8L
tp757
F-0.5800215713549453
s(V20*D
p758
L21L
Ntp759
L0L
s(V20*A
p760
L2L
L-8L
tp761
F0.6390146799611923
s(V18*AD
p762
L2L
L-8L
tp763
F0.08832922139126723
s(V13*
p764
L5L
L-8L
tp765
F-0.24075317366299176
s(V14*AD
p766
L7L
L-8L
tp767
F0.15591385408965722
s(V19*D
p768
L10L
L-8L
tp769
F0.07464607505289732
s(L20L
L25L
Ntp770
L0L
s(V6*D
p771
L7L
L-8L
tp772
F-0.09841622771424385
s(L9L
L17L
Ntp773
L0L
s(L9L
L22L
Ntp774
L0L
s(V6*D
p775
L11L
L-8L
tp776
F-0.43159221435497325
s(V15*D
p777
L8L
L-8L
tp778
F-0.3179960602141694
s(V15*D
p779
L2L
L-8L
tp780
F-0.3365651200190504
s(V15*D
p781
L4L
L-8L
tp782
F-0.3157794264900092
s(V9*
p783
L5L
L-8L
tp784
F0.03770685416624159
s(L25L
NNtp785
L0L
s(V9*
p786
L9L
L-8L
tp787
F-0.05555991512583325
s(V14*D
p788
L7L
L-8L
tp789
F-0.2435947257335392
s(V12*
p790
L4L
L-8L
tp791
F-0.20264138801329262
s(L14L
L20L
Ntp792
L0L
s(L8L
L24L
Ntp793
L0L
s(V19*AD
p794
L5L
L-8L
tp795
F0.39478000639949196
s(V17*A
p796
L7L
L-8L
tp797
F0.08722151069144084
s(V12*
p798
L2L
L-8L
tp799
F-0.22215621617500128
s(V8*D
p800
L5L
L-8L
tp801
F-0.037996092584203625
s(V18*DS
p802
L5L
L-8L
tp803
F0.12559030056497003
s(V24*
p804
NNtp805
L0L
s(V17*D
p806
L21L
Ntp807
L0L
s(L26L
NNtp808
L0L
s(L21L
L9L
L-8L
tp809
F1.5
s(L21L
L26L
Ntp810
L0L
s(L21L
L19L
Ntp811
L0L
s(V5*D
p812
L8L
L-8L
tp813
F-0.12039506294168908
s(V10*D
p814
L11L
L-8L
tp815
F-0.23262141607873663
s(V17*D
p816
L7L
L-8L
tp817
F-0.1499040177731338
s(V12*ADS
p818
L11L
L-8L
tp819
F-0.2134908007035296
s(V14*A
p820
L8L
L-8L
tp821
F0.10494855219311543
s(L11L
L19L
Ntp822
L0L
s(V16*DS
p823
L10L
L-8L
tp824
F-0.48274022285146917
s(L11L
L20L
Ntp825
L0L
s(V14*A
p826
L21L
Ntp827
L0L
s(V10*DS
p828
L10L
L-8L
tp829
F-0.05715497194997125
s(V14*A
p830
L2L
L-8L
tp831
F0.059857384113483146
s(V10*
p832
L4L
L-8L
tp833
F0.11469327857943681
s(V9*D
p834
L5L
L-8L
tp835
F0.03770685416624159
s(L14L
L18L
Ntp836
L0L
s(V16*
p837
L7L
L-8L
tp838
F-0.34511509526507983
s(V10*DS
p839
L4L
L-8L
tp840
F0.19122696774789857
s(V20*D
p841
L7L
L-8L
tp842
F0.7406092931962056
s(V10*
p843
L10L
L-8L
tp844
F-0.05715497194997125
s(L4L
L23L
Ntp845
L0L
s(V13*
p846
L9L
L-8L
tp847
F-0.3066670076415673
s(V20*D
p848
L9L
L-8L
tp849
F0.7408009351050386
s(L18L
L21L
Ntp850
L0L
s(V15*AD
p851
L2L
L-8L
tp852
F0.039778763094007664
s(V13*AD
p853
L5L
L-8L
tp854
F0.11163967121723731
s(V15*
p855
L6L
L-8L
tp856
F-0.24955867367972662
s(V13*AD
p857
L3L
L-8L
tp858
F0.09534895141526248
s(L15L
L19L
Ntp859
L0L
s(V6*DS
p860
L6L
L-8L
tp861
F-0.08351757528978472
s(V21*A
p862
L7L
L-8L
tp863
F0.9160466281539267
s(g676
L21L
Ntp864
L0L
s(V11*
p865
L10L
L-8L
tp866
F0.01680697737140875
s(L6L
L20L
Ntp867
L0L
s(V17*
p868
L8L
L-8L
tp869
F-0.3585627371590627
s(L8L
L26L
Ntp870
L0L
s(V17*
p871
L6L
L-8L
tp872
F-0.08790341836296364
s(L12L
L24L
Ntp873
L0L
s(V19*AD
p874
L9L
L-8L
tp875
F0.3181306131723243
s(g130
L11L
L-8L
tp876
F-0.32885271275657024
s(V18*
p877
L6L
L-8L
tp878
F0.19776203462831018
s(L27L
NNtp879
L0L
s(V18*
p880
L8L
L-8L
tp881
F0.10185529472016061
s(V13*A
p882
L6L
L-8L
tp883
F0.14734664316001828
s(g730
L11L
L-8L
tp884
F0.2395223625967938
s(L10L
L23L
Ntp885
L0L
s(V13*A
p886
L8L
L-8L
tp887
F0.1306968721915223
s(V12*DS
p888
L6L
L-8L
tp889
F-0.16333657128554524
s(V16*AD
p890
L6L
L-8L
tp891
F0.11327423505604421
s(V16*AD
p892
L8L
L-8L
tp893
F0.0385315809558322
s(V14*
p894
L9L
L-8L
tp895
F-0.33997760774544833
s(V12*DS
p896
L10L
L-8L
tp897
F-0.34018614801960684
s(g292
L21L
Ntp898
L0L
s(L9L
L25L
Ntp899
L0L
s(V15*
p900
L10L
L-8L
tp901
F-0.433287105708643
s(L9L
L23L
Ntp902
L0L
s(V11*D
p903
L10L
L-8L
tp904
F0.01680697737140875
s(V15*A
p905
L11L
L-8L
tp906
F-0.265272241539217
s(L9L
L20L
Ntp907
L0L
s(V6*DS
p908
L10L
L-8L
tp909
F-0.29700443722772346
s(V6*
p910
L5L
L-8L
tp911
F-0.11931335923653083
s(V11*D
p912
L4L
L-8L
tp913
F0.31283520116799335
s(V6*
p914
L11L
L-8L
tp915
F-0.43159221435497325
s(V8*
p916
L4L
L-8L
tp917
F-0.05071840074681552
s(V16*A
p918
L2L
L-8L
tp919
F0.0015062018742261866
s(L16L
L19L
Ntp920
L0L
s(V7*
p921
L2L
L-8L
tp922
F-0.14869635650479515
s(V16*A
p923
L4L
L-8L
tp924
F0.029110419910456327
s(L11L
L24L
Ntp925
L0L
s(V14*AD
p926
L6L
L-8L
tp927
F0.12153832524593916
s(V19*D
p928
L11L
L-8L
tp929
F-0.047307113179791485
s(V21*
p930
L21L
Ntp931
L0L
s(L29L
NNtp932
L0L
s(V6*D
p933
L10L
L-8L
tp934
F-0.29700443722772346
s(V12*D
p935
L6L
L-8L
tp936
F-0.16333657128554524
s(V12*ADS
p937
L8L
L-8L
tp938
F0.16016786281393508
s(L21L
L24L
Ntp939
L0L
s(V20*DS
p940
L7L
L-8L
tp941
F0.7406092931962056
s(V20*AD
p942
L2L
L-8L
tp943
F0.6390146799611923
s(L14L
L25L
Ntp944
L0L
s(L10L
L18L
Ntp945
L0L
s(V18*D
p946
L5L
L-8L
tp947
F0.12559030056497003
s(V15*D
p948
L5L
L-8L
tp949
F-0.2851442543840745
s(g741
L11L
L-8L
tp950
F-0.32885271275657024
s(L10L
L17L
Ntp951
L0L
s(g134
L11L
L-8L
tp952
F-0.33815563045254415
s(V14*
p953
L5L
L-8L
tp954
F-0.28159703269772285
s(V21*
p955
L6L
L-8L
tp956
F0.8946868404589636
s(V9*
p957
L8L
L-8L
tp958
F0.051645329581672395
s(V14*
p959
L3L
L-8L
tp960
F-0.296734924329957
s(V8*DS
p961
L4L
L-8L
tp962
F-0.05071840074681552
s(V14*D
p963
L2L
L-8L
tp964
F-0.3053854767982212
s(V12*
p965
L3L
L-8L
tp966
F-0.21223436208643556
s(V8*DS
p967
L2L
L-8L
tp968
F-0.07741459137411394
s(V21*
p969
L10L
L-8L
tp970
F0.8316017180741977
s(L18L
L19L
Ntp971
L0L
s(L8L
L17L
Ntp972
L0L
s(V12*
p973
L9L
L-8L
tp974
F-0.26397091316817484
s(g708
L11L
L-8L
tp975
F-0.29501419106167986
s(L21L
L23L
Ntp976
L0L
s(V15*A
p977
L7L
L-8L
tp978
F0.1319364788032472
s(V5*D
p979
L9L
L-8L
tp980
F-0.1869067978374966
s(V10*D
p981
L10L
L-8L
tp982
F-0.05715497194997125
s(V17*D
p983
L6L
L-8L
tp984
F-0.08790341836296364
s(V12*ADS
p985
L10L
L-8L
tp986
F-0.0349530912374195
s(V16*D
p987
L10L
L-8L
tp988
F-0.48274022285146917
s(V5*D
p989
L3L
L-8L
tp990
F-0.1314286575104371
s(L21L
L4L
L-8L
tp991
F1.5
s(g361
L21L
Ntp992
L0L
s(V8*
p993
L2L
L-8L
tp994
F-0.07741459137411394
s(V16*D
p995
L6L
L-8L
tp996
F-0.24955867367972662
s(V14*DS
p997
L3L
L-8L
tp998
F-0.296734924329957
s(V14*AD
p999
L10L
L-8L
tp1000
F-0.08426133805072807
s(V19*D
p1001
L7L
L-8L
tp1002
F0.5542863661514554
s(V16*
p1003
L8L
L-8L
tp1004
F-0.37612490492178097
s(V20*A
p1005
L3L
L-8L
tp1006
F0.6488775452530932
s(V18*AD
p1007
L5L
L-8L
tp1008
F0.12559030056497003
s(V14*AD
p1009
L4L
L-8L
tp1010
F0.07901072009437649
s(V13*
p1011
L4L
L-8L
tp1012
F-0.2492976456448976
s(V13*AD
p1013
L2L
L-8L
tp1014
F0.08484612499554435
s(L16L
L26L
Ntp1015
L0L
s(V6*D
p1016
L6L
L-8L
tp1017
F-0.08351757528978472
s(L9L
L18L
Ntp1018
L0L
s(V18*AD
p1019
L9L
L-8L
tp1020
F-0.031558528081491045
s(V15*D
p1021
L9L
L-8L
tp1022
F-0.3670498135804502
s(V16*D
p1023
L21L
Ntp1024
L0L
s(V11*
p1025
L11L
L-8L
tp1026
F-0.1862233749748609
s(V15*D
p1027
L3L
L-8L
tp1028
F-0.3291739248093088
s(V9*
p1029
L4L
L-8L
tp1030
F0.02674932986367587
s(L23L
NNtp1031
L0L
s(L8L
L20L
Ntp1032
L0L
s(V14*D
p1033
L8L
L-8L
tp1034
F-0.28638653383555623
s(V12*
p1035
L5L
L-8L
tp1036
F-0.19338373930063643
s(L8L
L23L
Ntp1037
L0L
s(V19*AD
p1038
L2L
L-8L
tp1039
F0.375871489835838
s(V17*A
p1040
L4L
L-8L
tp1041
F0.031220505843923142
s(L21L
L8L
L-8L
tp1042
F1.5
s(L21L
L20L
Ntp1043
L0L
s(V16*DS
p1044
L3L
L-8L
tp1045
F-0.34425360055041015
s(L16L
L21L
Ntp1046
L0L
s(g826
L11L
L-8L
tp1047
F-0.25259347220379014
s(g467
L11L
L-8L
tp1048
F-0.46863702081053016
s(V16*DS
p1049
L5L
L-8L
tp1050
F-0.2851442543840745
s(L19L
L17L
Ntp1051
L0L
s(V14*A
p1052
L5L
L-8L
tp1053
F0.08559065307710871
s(g127
L11L
L-8L
tp1054
F-0.23262141607873663
s(V10*
p1055
L5L
L-8L
tp1056
F0.12398684502499738
s(V16*
p1057
L4L
L-8L
tp1058
F-0.3157794264900092
s(V10*DS
p1059
L5L
L-8L
tp1060
F0.2221831391286029
s(V10*
p1061
L11L
L-8L
tp1062
F-0.23262141607873663
s(V13*AD
p1063
L21L
Ntp1064
L0L
s(V16*
p1065
L2L
L-8L
tp1066
F-0.3721228024954008
s(V13*
p1067
L8L
L-8L
tp1068
F-0.24856522708359965
s(V20*D
p1069
L10L
L-8L
tp1070
F0.4931611781713343
s(V15*AD
p1071
L3L
L-8L
tp1072
F0.0494442599669731
s(L20L
L24L
Ntp1073
L0L
s(V13*AD
p1074
L4L
L-8L
tp1075
F0.10453603926320058
s(L20L
L18L
Ntp1076
L0L
s(V15*
p1077
L7L
L-8L
tp1078
F-0.2786576862897966
s(L15L
L23L
Ntp1079
L0L
s(g383
L21L
Ntp1080
L0L
s(V16*A
p1081
L5L
L-8L
tp1082
F0.0421711976914913
s(V21*A
p1083
L6L
L-8L
tp1084
F0.8946868404589636
s(V4*DS
p1085
L9L
L-8L
tp1086
F-0.17296034096641646
s(V4*DS
p1087
L3L
L-8L
tp1088
F-0.11498091708431588
s(V4*DS
p1089
L5L
L-8L
tp1090
F-0.0934776326017485
s(L17L
L22L
Ntp1091
L0L
s(L8L
L25L
Ntp1092
L0L
s(L20L
L20L
Ntp1093
L0L
s(V17*
p1094
L5L
L-8L
tp1095
F-0.14897501318307277
s(V17*
p1096
L3L
L-8L
tp1097
F-0.1943604022710287
s(L14L
L26L
Ntp1098
L0L
s(V17*A
p1099
L8L
L-8L
tp1100
F0.006560112696013908
s(g263
L21L
Ntp1101
L0L
s(V18*
p1102
L7L
L-8L
tp1103
F0.3169135256421365
s(V17*AD
p1104
L10L
L-8L
tp1105
F-0.15219543595378976
s(g818
L21L
Ntp1106
L0L
s(L21L
L17L
Ntp1107
L0L
s(V20*DS
p1108
L10L
L-8L
tp1109
F0.4931611781713343
s(V18*
p1110
L9L
L-8L
tp1111
F-0.12307581043750207
s(g814
L21L
Ntp1112
L0L
s(V13*A
p1113
L11L
L-8L
tp1114
F-0.23558157069898908
s(V12*DS
p1115
L7L
L-8L
tp1116
F-0.1531378033848793
s(V16*AD
p1117
L7L
L-8L
tp1118
F0.08393752318817996
s(V14*
p1119
L2L
L-8L
tp1120
F-0.3053854767982212
s(L15L
L24L
Ntp1121
L0L
s(V16*AD
p1122
L9L
L-8L
tp1123
F-0.028791748137717146
s(V19*
p1124
L7L
L-8L
tp1125
F0.5542863661514554
s(V14*
p1126
L8L
L-8L
tp1127
F-0.28638653383555623
s(L19L
L24L
Ntp1128
L0L
s(V8*DS
p1129
L3L
L-8L
tp1130
F-0.0640884979214177
s(g930
L11L
L-8L
tp1131
F0.44474138582234424
s(L4L
L17L
Ntp1132
L0L
s(L19L
L18L
Ntp1133
L0L
s(V18*A
p1134
L10L
L-8L
tp1135
F-0.124543462006417
s(g279
L11L
L-8L
tp1136
F-0.047307113179791485
s(V7*D
p1137
L8L
L-8L
tp1138
F-0.16582994358587358
s(L9L
L26L
Ntp1139
L0L
s(L18L
L25L
Ntp1140
L0L
s(V15*
p1141
L11L
L-8L
tp1142
F-0.5425937308751899
s(V7*D
p1143
L2L
L-8L
tp1144
F-0.14869635650479515
s(g23
L11L
L-8L
tp1145
F-0.1862233749748609
s(V15*A
p1146
L8L
L-8L
tp1147
F0.08301562910836568
s(V6*
p1148
L4L
L-8L
tp1149
F-0.13593672681493338
s(V7*D
p1150
L4L
L-8L
tp1151
F-0.11837681389967815
s(g1113
L21L
Ntp1152
L0L
s(V11*D
p1153
L5L
L-8L
tp1154
F0.3426860369946552
s(V6*
p1155
L10L
L-8L
tp1156
F-0.29700443722772346
s(V8*
p1157
L7L
L-8L
tp1158
F0.035115406922420135
s(V16*D
p1159
L7L
L-8L
tp1160
F-0.34511509526507983
s(V16*A
p1161
L3L
L-8L
tp1162
F0.015635181996784177
s(V8*
p1163
L9L
L-8L
tp1164
F-0.1688387969945373
s(V7*
p1165
L3L
L-8L
tp1166
F-0.13369619230414062
s(L16L
L25L
Ntp1167
L0L
s(V23*
p1168
NNtp1169
L0L
s(V14*AD
p1170
L5L
L-8L
tp1171
F0.08559065307710871
s(V19*D
p1172
L8L
L-8L
tp1173
F0.5479431866910893
s(L8L
L22L
Ntp1174
L0L
s(V18*AD
p1175
L8L
L-8L
tp1176
F0.10185529472016061
s(L20L
L23L
Ntp1177
L0L
s(V6*D
p1178
L9L
L-8L
tp1179
F-0.21323887490687488
s(V12*D
p1180
L7L
L-8L
tp1181
F-0.1531378033848793
s(V20*AD
p1182
L11L
L-8L
tp1183
F0.2395223625967938
s(g1182
L21L
Ntp1184
L0L
s(V20*DS
p1185
L6L
L-8L
tp1186
F0.676234027853738
s(L10L
L21L
Ntp1187
L0L
s(V18*D
p1188
L4L
L-8L
tp1189
F0.11665472488922568
s(V15*D
p1190
L6L
L-8L
tp1191
F-0.24955867367972662
s(L18L
L18L
Ntp1192
L0L
s(V20*AD
p1193
L7L
L-8L
tp1194
F0.7406092931962056
s(V18*D
p1195
L10L
L-8L
tp1196
F-0.17756588741920376
s(V19*A
p1197
L6L
L-8L
tp1198
F0.4424333035461847
s(V14*
p1199
L4L
L-8L
tp1200
F-0.288701469835721
s(V21*
p1201
L7L
L-8L
tp1202
F0.9160466281539267
s(L17L
L26L
Ntp1203
L0L
s(V14*D
p1204
L9L
L-8L
tp1205
F-0.33997760774544833
s(V19*A
p1206
L10L
L-8L
tp1207
F0.07464607505289732
s(V8*DS
p1208
L5L
L-8L
tp1209
F-0.037996092584203625
s(g928
L21L
Ntp1210
L0L
s(L19L
L23L
Ntp1211
L0L
s(V9*
p1212
L11L
L-8L
tp1213
F-0.3204818998013818
s(V14*D
p1214
L3L
L-8L
tp1215
F-0.296734924329957
s(L20L
L26L
Ntp1216
L0L
s(V15*A
p1217
L4L
L-8L
tp1218
F0.059270746245733405
s(L9L
L21L
Ntp1219
L0L
s(V10*D
p1220
L9L
L-8L
tp1221
F0.06740478838696573
s(V5*D
p1222
L10L
L-8L
tp1223
F-0.2731069697901288
s(V17*D
p1224
L5L
L-8L
tp1225
F-0.14897501318307277
s(V12*ADS
p1226
L9L
L-8L
tp1227
F0.08487007828467097
s(V15*A
p1228
L2L
L-8L
tp1229
F0.039778763094007664
s(g1023
L11L
L-8L
tp1230
F-0.5800215713549453
s(L21L
L3L
L-8L
tp1231
F1.5
s(V5*D
p1232
L4L
L-8L
tp1233
F-0.11958538880389209
s(V10*D
p1234
L7L
L-8L
tp1235
F0.1813477187431476
s(g806
L11L
L-8L
tp1236
F-0.6235520416980631
s(V16*DS
p1237
L4L
L-8L
tp1238
F-0.3157794264900092
s(V12*ADS
p1239
L7L
L-8L
tp1240
F0.21531950169719216
s(g905
L21L
Ntp1241
L0L
s(V14*DS
p1242
L10L
L-8L
tp1243
F-0.4106752685795923
s(g221
L21L
Ntp1244
L0L
s(L15L
L20L
Ntp1245
L0L
s(V16*
p1246
L3L
L-8L
tp1247
F-0.34425360055041015
s(V14*DS
p1248
L6L
L-8L
tp1249
F-0.24955867367972662
s(V14*AD
p1250
L9L
L-8L
tp1251
F0.03185074780315803
s(V19*D
p1252
L4L
L-8L
tp1253
F0.3927497316946456
s(V20*A
p1254
L10L
L-8L
tp1255
F0.4931611781713343
s(V16*
p1256
L9L
L-8L
tp1257
F-0.4213020792670204
s(V19*D
p1258
L2L
L-8L
tp1259
F0.375871489835838
s(V18*AD
p1260
L4L
L-8L
tp1261
F0.11665472488922568
s(V13*
p1262
L3L
L-8L
tp1263
F-0.2581836180559807
s(V20*A
p1264
L6L
L-8L
tp1265
F0.676234027853738
s(V6*D
p1266
L5L
L-8L
tp1267
F-0.11931335923653083
s(V6*D
p1268
L3L
L-8L
tp1269
F-0.1512501837528027
s(L21L
L25L
Ntp1270
L0L
s(V21*A
p1271
L3L
L-8L
tp1272
F0.88626206850408
s(V15*D
p1273
L10L
L-8L
tp1274
F-0.433287105708643
s(V11*
p1275
L8L
L-8L
tp1276
F0.17607985181765537
s(V4*DS
p1277
L4L
L-8L
tp1278
F-0.1040506487624764
s(L14L
L21L
Ntp1279
L0L
s(g438
L21L
Ntp1280
L0L
s(V11*
p1281
L6L
L-8L
tp1282
F0.21458766168633436
s(V9*
p1283
L7L
L-8L
tp1284
F0.10836281939923122
s(L19L
L26L
Ntp1285
L0L
s(V17*
p1286
L2L
L-8L
tp1287
F-0.2174060953101727
s(L8L
L19L
Ntp1288
L0L
s(V19*AD
p1289
L3L
L-8L
tp1290
F0.3870940410957285
s(V17*A
p1291
L5L
L-8L
tp1292
F0.043509864673183435
s(g684
L21L
Ntp1293
L0L
s(L16L
L17L
Ntp1294
L0L
s(V16*DS
p1295
L2L
L-8L
tp1296
F-0.3721228024954008
s(V14*A
p1297
L10L
L-8L
tp1298
F-0.08426133805072807
s(V12*DS
p1299
L8L
L-8L
tp1300
F-0.20418026035585504
s(V19*A
p1301
L21L
Ntp1302
L0L
s(V14*A
p1303
L4L
L-8L
tp1304
F0.07901072009437649
s(V10*
p1305
L2L
L-8L
tp1306
F0.09180685392391856
s(V19*
p1307
L10L
L-8L
tp1308
F0.07464607505289732
s(L15L
L18L
Ntp1309
L0L
s(V16*
p1310
L5L
L-8L
tp1311
F-0.2851442543840745
s(V10*DS
p1312
L6L
L-8L
tp1313
F0.29763665218958507
s(V10*
p1314
L8L
L-8L
tp1315
F0.13388425580293778
s(g758
L11L
L-8L
tp1316
F0.2395223625967938
s(V15*AD
p1317
L4L
L-8L
tp1318
F0.059270746245733405
s(V7*D
p1319
L5L
L-8L
tp1320
F-0.10287440981029958
s(g1063
L11L
L-8L
tp1321
F-0.23558157069898908
s(L20L
L22L
Ntp1322
L0L
s(L20L
L17L
Ntp1323
L0L
s(L22L
NNtp1324
L0L
s(V15*AD
p1325
L8L
L-8L
tp1326
F0.08301562910836568
s(V13*D
p1327
L9L
L-8L
tp1328
F-0.3066670076415673
s(V16*A
p1329
L6L
L-8L
tp1330
F0.07801604710159057
s(V21*A
p1331
L9L
L-8L
tp1332
F0.9295032078690372
s(V13*D
p1333
L3L
L-8L
tp1334
F-0.2581836180559807
s(V4*DS
p1335
L8L
L-8L
tp1336
F-0.10430887734179295
s(V16*A
p1337
L8L
L-8L
tp1338
F0.0385315809558322
s(V13*D
p1339
L5L
L-8L
tp1340
F-0.24075317366299176
s(V4*DS
p1341
L2L
L-8L
tp1342
F-0.12634291814138623
s(L17L
L18L
Ntp1343
L0L
s(L17L
L24L
Ntp1344
L0L
s(L19L
L25L
Ntp1345
L0L
s(V17*
p1346
L4L
L-8L
tp1347
F-0.17055806168223217
s(V20*
p1348
L9L
L-8L
tp1349
F0.7408009351050386
s(V17*A
p1350
L9L
L-8L
tp1351
F-0.05489625350391411
s(V20*
p1352
L3L
L-8L
tp1353
F0.6488775452530932
s(g775
L21L
Ntp1354
L0L
s(V12*D
p1355
L2L
L-8L
tp1356
F-0.22215621617500128
s(g1141
L21L
Ntp1357
L0L
s(V20*
p1358
L5L
L-8L
tp1359
F0.6484725231834412
s(V17*AD
p1360
L9L
L-8L
tp1361
F-0.05489625350391411
s(V20*AD
p1362
L6L
L-8L
tp1363
F0.676234027853738
s(V20*DS
p1364
L3L
L-8L
tp1365
F0.6488775452530932
s(L21L
L21L
Ntp1366
L0L
s(L21L
L18L
Ntp1367
L0L
s(V18*
p1368
L10L
L-8L
tp1369
F-0.17756588741920376
s(V17*AD
p1370
L7L
L-8L
tp1371
F0.08722151069144084
s(L14L
L19L
Ntp1372
L0L
s(L16L
L23L
Ntp1373
L0L
s(V13*A
p1374
L10L
L-8L
tp1375
F-0.06327086648530252
s(V12*DS
p1376
L4L
L-8L
tp1377
F-0.20264138801329262
s(g1301
L11L
L-8L
tp1378
F-0.047307113179791485
s(V12*DS
p1379
L2L
L-8L
tp1380
F-0.22215621617500128
s(V16*AD
p1381
L10L
L-8L
tp1382
F-0.1360627952244181
s(V19*
p1383
L6L
L-8L
tp1384
F0.4424333035461847
s(V21*
p1385
L8L
L-8L
tp1386
F0.9211467346899049
s(L12L
L22L
Ntp1387
L0L
s(g756
L21L
Ntp1388
L0L
s(L4L
L21L
Ntp1389
L0L
s(L12L
L17L
Ntp1390
L0L
s(V18*A
p1391
L9L
L-8L
tp1392
F-0.031558528081491045
s(V7*D
p1393
L9L
L-8L
tp1394
F-0.2266711371020615
s(V18*A
p1395
L7L
L-8L
tp1396
F0.3169135256421365
s(g484
L21L
Ntp1397
L0L
s(V15*A
p1398
L3L
L-8L
tp1399
F0.0494442599669731
s(V7*D
p1400
L3L
L-8L
tp1401
F-0.13369619230414062
s(V6*
p1402
L3L
L-8L
tp1403
F-0.1512501837528027
s(V15*A
p1404
L9L
L-8L
tp1405
F0.013397131796876327
s(V11*D
p1406
L6L
L-8L
tp1407
F0.41175608936229086
s(V6*
p1408
L9L
L-8L
tp1409
F-0.21323887490687488
s(V8*
p1410
L6L
L-8L
tp1411
F0.00759917967430648
s(V16*D
p1412
L4L
L-8L
tp1413
F-0.3157794264900092
s(V8*
p1414
L8L
L-8L
tp1415
F-0.06179954166427144
s(V7*
p1416
L4L
L-8L
tp1417
F-0.11837681389967815
s(V14*DS
p1418
L7L
L-8L
tp1419
F-0.2435947257335392
s(L6L
L22L
Ntp1420
L0L
s(V19*D
p1421
L3L
L-8L
tp1422
F0.3870940410957285
s(V7*
p1423
L8L
L-8L
tp1424
F-0.16582994358587358
s(V19*D
p1425
L9L
L-8L
tp1426
F0.3181306131723243
s(V20*A
p1427
L7L
L-8L
tp1428
F0.7406092931962056
s.