(dp0
(L13L
L21L
Ntp1
L0L
s(V16*
p2
L4L
L-6L
tp3
F-0.2910376537205053
s(V10*DS
p4
L5L
L-6L
tp5
F0.2949771393440681
s(L13L
L18L
Ntp6
L0L
s(V10*
p7
L11L
L-6L
tp8
F-0.23878387407380536
s(V20*D
p9
L10L
L-6L
tp10
F0.47905913965829006
s(L13L
L24L
Ntp11
L0L
s(V14*A
p12
L6L
L-6L
tp13
F0.12241930109320405
s(V19*
p14
L8L
L-6L
tp15
F0.5594774760940747
s(L6L
L26L
Ntp16
L0L
s(V10*DS
p17
L8L
L-6L
tp18
F0.1485124197818747
s(V20*D
p19
L3L
L-6L
tp20
F0.6493555766871207
s(V10*
p21
L6L
L-6L
tp22
F0.19010436235355965
s(V16*A
p23
L5L
L-6L
tp24
F0.04498945892776693
s(V11*D
p25
L21L
Ntp26
L0L
s(L15L
L26L
Ntp27
L0L
s(V15*
p28
L8L
L-6L
tp29
F-0.34209792611666484
s(V7*D
p30
L7L
L-6L
tp31
F-0.06933427734433824
s(V4*DS
p32
L3L
L-6L
tp33
F-0.1170682817775998
s(L19L
L19L
Ntp34
L0L
s(L19L
L20L
Ntp35
L0L
s(V20*A
p36
L21L
Ntp37
L0L
s(V15*
p38
L4L
L-6L
tp39
F-0.2910376537205053
s(V6*DS
p40
L2L
L-6L
tp41
F-0.16678050994273713
s(V17*
p42
L5L
L-6L
tp43
F-0.12464166091736721
s(V4*DS
p44
L10L
L-6L
tp45
F-0.28116408865954245
s(L17L
L21L
Ntp46
L0L
s(V17*A
p47
L8L
L-6L
tp48
F-0.012805060879692326
s(V
p49
g49
L-6L
tp50
F-0.037979024525484406
s(V17*AD
p51
L10L
L-6L
tp52
F-0.1786744546368265
s(V18*
p53
L9L
L-6L
tp54
F-0.13713172888034802
s(V13*A
p55
L11L
L-6L
tp56
F-0.26531893055809036
s(V12*DS
p57
L7L
L-6L
tp58
F-0.16789990363744872
s(V14*
p59
L2L
L-6L
tp60
F-0.32100622590969413
s(V12*D
p61
L4L
L-6L
tp62
F-0.20778161561124497
s(V16*AD
p63
L9L
L-6L
tp64
F-0.057799358517284447
s(V25*
p65
NNtp66
L0L
s(V8*DS
p67
L3L
L-6L
tp68
F-0.051425023717221824
s(V20*DS
p69
L5L
L-6L
tp70
F0.6530519988788657
s(V20*AD
p71
L4L
L-6L
tp72
F0.6542803023844632
s(V21*
p73
L11L
L-6L
tp74
F0.4162943426545416
s(V8*DS
p75
L21L
Ntp76
L0L
s(V18*
p77
L4L
L-6L
tp78
F0.1304143960708309
s(V13*A
p79
L2L
L-6L
tp80
F0.07116210073054212
s(V18*A
p81
L10L
L-6L
tp82
F-0.14538937711317557
s(L4L
L24L
Ntp83
L0L
s(V12*
p84
L21L
Ntp85
L0L
s(V17*AD
p86
L3L
L-6L
tp87
F0.015112563176847352
s(V20*DS
p88
L9L
L-6L
tp89
F0.7452495074318418
s(L4L
L18L
Ntp90
L0L
s(V14*
p91
L7L
L-6L
tp92
F-0.2621610448694839
s(V19*A
p93
L9L
L-6L
tp94
F0.3109628974731138
s(V7*D
p95
L2L
L-6L
tp96
F-0.14500057039867695
s(V16*AD
p97
L4L
L-6L
tp98
F0.026552831722845244
s(V19*
p99
L4L
L-6L
tp100
F0.3996266828526759
s(L14L
L17L
Ntp101
L0L
s(V15*A
p102
L8L
L-6L
tp103
F0.05731473832985834
s(V8*DS
p104
L6L
L-6L
tp105
F0.031529681194260695
s(V11*D
p106
L5L
L-6L
tp107
F0.41077780245747997
s(V14*
p108
L11L
L-6L
tp109
F-0.5477016365461513
s(L18L
L22L
Ntp110
L0L
s(V8*
p111
L7L
L-6L
tp112
F0.045793980345951515
s(V16*D
p113
L7L
L-6L
tp114
F-0.3620798436207824
s(V6*
p115
L10L
L-6L
tp116
F-0.3191814945348041
s(V7*D
p117
L11L
L-6L
tp118
F-0.47732311482045114
s(V18*A
p119
L3L
L-6L
tp120
F0.11327244988271346
s(V4*DS
p121
L21L
Ntp122
L0L
s(V11*D
p123
L8L
L-6L
tp124
F0.21683563827132235
s(V10*DS
p125
L21L
Ntp126
L0L
s(V14*AD
p127
L5L
L-6L
tp128
F0.08637955265235943
s(V19*D
p129
L8L
L-6L
tp130
F0.5594774760940747
s(V16*D
p131
L2L
L-6L
tp132
F-0.3528655188372036
s(V17*A
p133
L21L
Ntp134
L0L
s(V18*D
p135
L21L
Ntp136
L0L
s(L4L
L20L
Ntp137
L0L
s(V6*
p138
L7L
L-6L
tp139
F-0.11040059494498775
s(V8*
p140
L10L
L-6L
tp141
F-0.26410222334249944
s(V18*AD
p142
L8L
L-6L
tp143
F0.10347856652012377
s(V14*DS
p144
L5L
L-6L
tp145
F-0.25727957872459184
s(V6*D
p146
L9L
L-6L
tp147
F-0.23203529243385962
s(V20*A
p148
L5L
L-6L
tp149
F0.6530519988788657
s(V15*D
p150
L6L
L-6L
tp151
F-0.22583425216108372
s(L15L
L22L
Ntp152
L0L
s(V18*D
p153
L10L
L-6L
tp154
F-0.19219478263526105
s(V21*
p155
L7L
L-6L
tp156
F0.9184290855869329
s(V20*AD
p157
L8L
L-6L
tp158
F0.7678132392445812
s(V9*
p159
L11L
L-6L
tp160
F-0.33037070584925377
s(V14*D
p161
L9L
L-6L
tp162
F-0.3626760515870562
s(L13L
L19L
Ntp163
L0L
s(L20L
L21L
Ntp164
L0L
s(L6L
L17L
Ntp165
L0L
s(L17L
L25L
Ntp166
L0L
s(V18*D
p167
L7L
L-6L
tp168
F0.3378176915209065
s(V19*A
p169
L5L
L-6L
tp170
F0.40465077228822727
s(V28*
p171
NNtp172
L0L
s(V9*
p173
L2L
L-6L
tp174
F0.015357233836615872
s(V15*A
p175
L4L
L-6L
tp176
F0.053837486418017826
s(V10*D
p177
L9L
L-6L
tp178
F0.07837786281446599
s(V5*D
p179
L10L
L-6L
tp180
F-0.2952305750102941
s(V17*D
p181
L5L
L-6L
tp182
F-0.12464166091736721
s(V12*ADS
p183
L9L
L-6L
tp184
F0.06357319770759583
s(V16*D
p185
L11L
L-6L
tp186
F-0.6029956339635548
s(V16*DS
p187
L4L
L-6L
tp188
F-0.2910376537205053
s(V18*AD
p189
L21L
Ntp190
L0L
s(L19L
L21L
Ntp191
L0L
s(L19L
L22L
Ntp192
L0L
s(V8*D
p193
L2L
L-6L
tp194
F-0.06909785601039369
s(V18*DS
p195
L2L
L-6L
tp196
F0.09672625272770127
s(L16L
L22L
Ntp197
L0L
s(V16*
p198
L3L
L-6L
tp199
F-0.3222216093285698
s(V14*AD
p200
L9L
L-6L
tp201
F0.005887322426499996
s(V19*D
p202
L4L
L-6L
tp203
F0.3996266828526759
s(V10*D
p204
L4L
L-6L
tp205
F0.2595908181336364
s(V5*D
p206
L7L
L-6L
tp207
F-0.0763697560091833
s(V17*D
p208
L8L
L-6L
tp209
F-0.3632606750271702
s(V12*ADS
p210
L4L
L-6L
tp211
F0.12923106894306205
s(V18*AD
p212
L4L
L-6L
tp213
F0.1304143960708309
s(V14*DS
p214
L9L
L-6L
tp215
F-0.3626760515870562
s(L21L
L22L
Ntp216
L0L
s(V6*D
p217
L5L
L-6L
tp218
F-0.102996109745381
s(V16*
p219
L6L
L-6L
tp220
F-0.22583425216108372
s(V10*DS
p221
L3L
L-6L
tp222
F0.2210635953013322
s(V9*D
p223
L2L
L-6L
tp224
F0.015357233836615872
s(V20*A
p225
L9L
L-6L
tp226
F0.7452495074318418
s(V21*A
p227
L3L
L-6L
tp228
F0.8860733961769097
s(V14*DS
p229
L21L
Ntp230
L0L
s(V20*D
p231
L8L
L-6L
tp232
F0.7678132392445812
s(V13*AD
p233
L8L
L-6L
tp234
F0.11241325658389098
s(V15*D
p235
L10L
L-6L
tp236
F-0.46073219394979253
s(V16*
p237
L10L
L-6L
tp238
F-0.5060707093043176
s(V11*
p239
L8L
L-6L
tp240
F0.188809286783622
s(V4*DS
p241
L4L
L-6L
tp242
F-0.09980283955878616
s(L12L
L21L
Ntp243
L0L
s(V15*AD
p244
L11L
L-6L
tp245
F-0.2998058745665474
s(V14*AD
p246
L21L
Ntp247
L0L
s(V21*A
p248
L10L
L-6L
tp249
F0.8267470819069176
s(V9*
p250
L7L
L-6L
tp251
F0.12301625889513709
s(V17*
p252
L2L
L-6L
tp253
F-0.20167177018850768
s(V13*D
p254
L6L
L-6L
tp255
F-0.21784413397741098
s(L20L
L19L
Ntp256
L0L
s(L4L
L26L
Ntp257
L0L
s(V19*AD
p258
L3L
L-6L
tp259
F0.3913262648897817
s(L17L
L19L
Ntp260
L0L
s(V16*DS
p261
L21L
Ntp262
L0L
s(V11*
p263
L5L
L-6L
tp264
F0.21057111082589566
s(L11L
L21L
Ntp265
L0L
s(V17*
p266
L7L
L-6L
tp267
F-0.13829306208897174
s(L11L
L22L
Ntp268
L0L
s(V17*A
p269
L10L
L-6L
tp270
F-0.1786744546368265
s(V20*
p271
L6L
L-6L
tp272
F0.682460643205031
s(L6L
L24L
Ntp273
L0L
s(V6*DS
p274
L21L
Ntp275
L0L
s(V12*DS
p276
L8L
L-6L
tp277
F-0.22136861858562146
s(V14*A
p278
L4L
L-6L
tp279
F0.07010124777810765
s(V17*A
p280
L6L
L-6L
tp281
F0.09146249122735277
s(V19*
p282
L10L
L-6L
tp283
F0.05217856563031299
s(L13L
L22L
Ntp284
L0L
s(V10*DS
p285
L6L
L-6L
tp286
F0.3681424978788247
s(V10*
p287
L8L
L-6L
tp288
F0.1485124197818747
s(V13*A
p289
L9L
L-6L
tp290
F0.031744868179587174
s(V7*D
p291
L5L
L-6L
tp292
F-0.08359536040708176
s(V14*A
p293
L9L
L-6L
tp294
F0.005887322426499996
s(V19*
p295
L21L
Ntp296
L0L
s(V16*A
p297
L6L
L-6L
tp298
F0.07995610288729743
s(L24L
NNtp299
L0L
s(V13*D
p300
L3L
L-6L
tp301
F-0.268568581448453
s(V4*DS
p302
L8L
L-6L
tp303
F-0.11671564541216324
s(V15*AD
p304
L7L
L-6L
tp305
F0.11037740997330986
s(L12L
L19L
Ntp306
L0L
s(L12L
L26L
Ntp307
L0L
s(V15*
p308
L3L
L-6L
tp309
F-0.3222216093285698
s(V11*D
p310
L3L
L-6L
tp311
F0.3397278865515523
s(V13*D
p312
L10L
L-6L
tp313
F-0.40284090539936684
s(L17L
L17L
Ntp314
L0L
s(V16*A
p315
L11L
L-6L
tp316
F-0.32841584723054273
s(V7*
p317
L11L
L-6L
tp318
F-0.47732311482045114
s(V20*
p319
L3L
L-6L
tp320
F0.6493555766871207
s(g108
L21L
Ntp321
L0L
s(V12*D
p322
L2L
L-6L
tp323
F-0.23379261521618475
s(V17*AD
p324
L9L
L-6L
tp325
F-0.0781336660085198
s(V20*AD
p326
L6L
L-6L
tp327
F0.682460643205031
s(V20*DS
p328
L3L
L-6L
tp329
F0.6493555766871207
s(V18*
p330
L10L
L-6L
tp331
F-0.19219478263526105
s(L10L
L22L
Ntp332
L0L
s(V20*
p333
L10L
L-6L
tp334
F0.47905913965829006
s(V12*D
p335
L11L
L-6L
tp336
F-0.49133367783518167
s(V12*DS
p337
L4L
L-6L
tp338
F-0.20778161561124497
s(L6L
L18L
Ntp339
L0L
s(V17*
p340
L21L
Ntp341
L0L
s(V19*A
p342
L11L
L-6L
tp343
F-0.0639300710144791
s(V16*AD
p344
L10L
L-6L
tp345
F-0.16877624147091044
s(V19*
p346
L6L
L-6L
tp347
F0.45479947097058276
s(V18*
p348
L3L
L-6L
tp349
F0.11327244988271346
s(V21*
p350
L8L
L-6L
tp351
F0.9234076709365094
s(V20*AD
p352
L3L
L-6L
tp353
F0.6493555766871207
s(V18*DS
p354
L21L
Ntp355
L0L
s(V8*D
p356
L21L
Ntp357
L0L
s(V17*AD
p358
L4L
L-6L
tp359
F0.04534860177164297
s(L13L
L25L
Ntp360
L0L
s(V18*A
p361
L9L
L-6L
tp362
F-0.048360339588226935
s(L4L
L22L
Ntp363
L0L
s(V7*D
p364
L9L
L-6L
tp365
F-0.240840785455377
s(V16*AD
p366
L3L
L-6L
tp367
F0.008326496380056572
s(V15*A
p368
L3L
L-6L
tp369
F0.036554580337359296
s(V8*DS
p370
L9L
L-6L
tp371
F-0.17868398199909363
s(L18L
L20L
Ntp372
L0L
s(L18L
L26L
Ntp373
L0L
s(V11*D
p374
L6L
L-6L
tp375
F0.4768001274369203
s(V6*
p376
L9L
L-6L
tp377
F-0.23203529243385962
s(V16*D
p378
L4L
L-6L
tp379
F-0.2910376537205053
s(L11L
L26L
Ntp380
L0L
s(V15*D
p381
L21L
Ntp382
L0L
s(V8*
p383
L8L
L-6L
tp384
F-0.06166913975315858
s(V18*A
p385
L4L
L-6L
tp386
F0.1304143960708309
s(V14*DS
p387
L7L
L-6L
tp388
F-0.2621610448694839
s(V15*A
p389
L6L
L-6L
tp390
F0.1065775860149161
s(V18*DS
p391
L9L
L-6L
tp392
F-0.13713172888034802
s(V8*D
p393
L9L
L-6L
tp394
F-0.17868398199909363
s(L11L
L25L
Ntp395
L0L
s(V19*D
p396
L3L
L-6L
tp397
F0.3913262648897817
s(V15*A
p398
L10L
L-6L
tp399
F-0.13244897593713337
s(V20*A
p400
L7L
L-6L
tp401
F0.7485576647462068
s(V8*
p402
L5L
L-6L
tp403
F-0.01483875137267094
s(V7*
p404
L7L
L-6L
tp405
F-0.06933427734433824
s(g189
L11L
L-6L
tp406
F-0.3164724376098293
s(V6*D
p407
L2L
L-6L
tp408
F-0.16678050994273713
s(V14*DS
p409
L2L
L-6L
tp410
F-0.32100622590969413
s(L10L
L26L
Ntp411
L0L
s(L10L
L25L
Ntp412
L0L
s(g246
L11L
L-6L
tp413
F-0.2841622293957056
s(V9*D
p414
L9L
L-6L
tp415
F-0.05511013424572316
s(V19*D
p416
L6L
L-6L
tp417
F0.45479947097058276
s(V20*AD
p418
L10L
L-6L
tp419
F0.47905913965829006
s(V20*A
p420
L2L
L-6L
tp421
F0.6393345707389179
s(V18*AD
p422
L2L
L-6L
tp423
F0.09672625272770127
s(V14*AD
p424
L7L
L-6L
tp425
F0.13864596861160844
s(V19*D
p426
L10L
L-6L
tp427
F0.05217856563031299
s(V6*D
p428
L7L
L-6L
tp429
F-0.11040059494498775
s(V18*D
p430
L9L
L-6L
tp431
F-0.13713172888034802
s(V19*A
p432
L7L
L-6L
tp433
F0.5695530674550459
s(V21*
p434
L4L
L-6L
tp435
F0.8889097934100455
s(V6*D
p436
L11L
L-6L
tp437
F-0.45448772925297015
s(g244
L21L
Ntp438
L0L
s(V14*D
p439
L10L
L-6L
tp440
F-0.4351518585601507
s(L13L
L20L
Ntp441
L0L
s(V15*D
p442
L8L
L-6L
tp443
F-0.34209792611666484
s(V15*D
p444
L4L
L-6L
tp445
F-0.2910376537205053
s(V9*
p446
L5L
L-6L
tp447
F0.06432945320501411
s(L14L
L23L
Ntp448
L0L
s(V16*D
p449
L8L
L-6L
tp450
F-0.39626677523527015
s(V5*D
p451
L5L
L-6L
tp452
F-0.08871271812052274
s(V10*D
p453
L6L
L-6L
tp454
F0.3681424978788247
s(V14*D
p455
L7L
L-6L
tp456
F-0.2621610448694839
s(V16*DS
p457
L7L
L-6L
tp458
F-0.3620798436207824
s(V17*D
p459
L10L
L-6L
tp460
F-0.4347973249416793
s(L21L
L2L
L-6L
tp461
F1.5
s(V19*AD
p462
L5L
L-6L
tp463
F0.40465077228822727
s(V12*ADS
p464
L6L
L-6L
tp465
F0.1772367313484153
s(g229
L11L
L-6L
tp466
F-0.5477016365461513
s(V12*
p467
L2L
L-6L
tp468
F-0.23379261521618475
s(V8*D
p469
L5L
L-6L
tp470
F-0.01483875137267094
s(V18*DS
p471
L5L
L-6L
tp472
F0.14247591482161617
s(L12L
L18L
Ntp473
L0L
s(L28L
NNtp474
L0L
s(L16L
L18L
Ntp475
L0L
s(g36
L11L
L-6L
tp476
F0.2163600980341765
s(V5*D
p477
L8L
L-6L
tp478
F-0.1355504860925905
s(V10*D
p479
L11L
L-6L
tp480
F-0.23878387407380536
s(V17*D
p481
L7L
L-6L
tp482
F-0.13829306208897174
s(V13*AD
p483
L10L
L-6L
tp484
F-0.09100551151290903
s(V12*ADS
p485
L11L
L-6L
tp486
F-0.2426130900726629
s(V22*
p487
NNtp488
L0L
s(V18*AD
p489
L7L
L-6L
tp490
F0.3378176915209065
s(V13*
p491
L2L
L-6L
tp492
F-0.2805920053931741
s(V16*DS
p493
L10L
L-6L
tp494
F-0.5060707093043176
s(V15*AD
p495
L9L
L-6L
tp496
F-0.01674136713051374
s(V14*A
p497
L2L
L-6L
tp498
F0.043121486849108
s(L9L
L19L
Ntp499
L0L
s(V9*D
p500
L5L
L-6L
tp501
F0.06432945320501411
s(V21*A
p502
L8L
L-6L
tp503
F0.9234076709365094
s(V10*DS
p504
L4L
L-6L
tp505
F0.2595908181336364
s(V20*D
p506
L7L
L-6L
tp507
F0.7485576647462068
s(V12*DS
p508
L21L
Ntp509
L0L
s(V10*
p510
L10L
L-6L
tp511
F-0.05662531808701135
s(V13*D
p512
L4L
L-6L
tp513
F-0.2565996898485294
s(V4*DS
p514
L7L
L-6L
tp515
F-0.05567580627108783
s(L14L
L24L
Ntp516
L0L
s(V11*
p517
L7L
L-6L
tp518
F0.24328909771268056
s(V13*AD
p519
L3L
L-6L
tp520
F0.08447803058144099
s(V6*DS
p521
L6L
L-6L
tp522
F-0.06878074138270365
s(L13L
L17L
Ntp523
L0L
s(L13L
L23L
Ntp524
L0L
s(L6L
L23L
Ntp525
L0L
s(V20*
p526
L4L
L-6L
tp527
F0.6542803023844632
s(V26*
p528
NNtp529
L0L
s(V11*
p530
L10L
L-6L
tp531
F0.02046037119640604
s(V17*
p532
L8L
L-6L
tp533
F-0.3632606750271702
s(L11L
L18L
Ntp534
L0L
s(V13*D
p535
L21L
Ntp536
L0L
s(V19*AD
p537
L9L
L-6L
tp538
F0.3109628974731138
s(V12*DS
p539
L3L
L-6L
tp540
F-0.22088127493508958
s(L18L
L23L
Ntp541
L0L
s(V14*A
p542
L7L
L-6L
tp543
F0.13864596861160844
s(V10*
p544
L3L
L-6L
tp545
F0.12529948140371272
s(V19*
p546
L9L
L-6L
tp547
F0.3109628974731138
s(V18*
p548
L8L
L-6L
tp549
F0.10347856652012377
s(V13*A
p550
L6L
L-6L
tp551
F0.14385554032967868
s(V20*D
p552
L2L
L-6L
tp553
F0.6393345707389179
s(L15L
L17L
Ntp554
L0L
s(V12*DS
p555
L6L
L-6L
tp556
F-0.16562395783700418
s(V15*AD
p557
L5L
L-6L
tp558
F0.07113282455038625
s(L10L
L24L
Ntp559
L0L
s(V7*D
p560
L6L
L-6L
tp561
F-0.04077743253963728
s(V16*AD
p562
L8L
L-6L
tp563
F0.013679202230341038
s(V12*DS
p564
L10L
L-6L
tp565
F-0.3629014524764479
s(V6*DS
p566
L3L
L-6L
tp567
F-0.14663876331847164
s(V13*D
p568
L8L
L-6L
tp569
F-0.2672684322388699
s(g121
L11L
L-6L
tp570
F-0.4247698812688754
s(L17L
L20L
Ntp571
L0L
s(V16*A
p572
L9L
L-6L
tp573
F-0.057799358517284447
s(L12L
L23L
Ntp574
L0L
s(V7*
p575
L9L
L-6L
tp576
F-0.240840785455377
s(L12L
L25L
Ntp577
L0L
s(V6*DS
p578
L10L
L-6L
tp579
F-0.3191814945348041
s(V11*D
p580
L4L
L-6L
tp581
F0.37672227242423695
s(V6*
p582
L11L
L-6L
tp583
F-0.45448772925297015
s(V20*
p584
L8L
L-6L
tp585
F0.7678132392445812
s(V16*A
p586
L4L
L-6L
tp587
F0.026552831722845244
s(V12*D
p588
L9L
L-6L
tp589
F-0.2835568837904705
s(L11L
L23L
Ntp590
L0L
s(V20*AD
p591
L5L
L-6L
tp592
F0.6530519988788657
s(V13*A
p593
L3L
L-6L
tp594
F0.08447803058144099
s(V17*AD
p595
L6L
L-6L
tp596
F0.17085875562641087
s(L11L
L17L
Ntp597
L0L
s(L4L
L25L
Ntp598
L0L
s(L4L
L19L
Ntp599
L0L
s(V19*A
p600
L8L
L-6L
tp601
F0.5594774760940747
s(g75
L11L
L-6L
tp602
F-0.410644096621211
s(L16L
L20L
Ntp603
L0L
s(V21*
p604
L3L
L-6L
tp605
F0.8860733961769097
s(L18L
L17L
Ntp606
L0L
s(V19*
p607
L5L
L-6L
tp608
F0.40465077228822727
s(L9L
L24L
Ntp609
L0L
s(V17*AD
p610
L11L
L-6L
tp611
F-0.35958173844651026
s(L13L
L26L
Ntp612
L0L
s(g135
L11L
L-6L
tp613
F-0.34724013900479794
s(V7*D
p614
L10L
L-6L
tp615
F-0.3185780918839421
s(V18*A
p616
L6L
L-6L
tp617
F0.2180166086196026
s(L30L
NNtp618
L0L
s(g356
L11L
L-6L
tp619
F-0.410644096621211
s(g354
L11L
L-6L
tp620
F-0.34724013900479794
s(V21*
p621
L6L
L-6L
tp622
F0.896464900814727
s(V6*
p623
L2L
L-6L
tp624
F-0.16678050994273713
s(V14*
p625
L3L
L-6L
tp626
F-0.3102759378720758
s(V8*DS
p627
L2L
L-6L
tp628
F-0.06909785601039369
s(V21*
p629
L10L
L-6L
tp630
F0.8267470819069176
s(V12*
p631
L9L
L-6L
tp632
F-0.2835568837904705
s(V8*
p633
L11L
L-6L
tp634
F-0.410644096621211
s(L16L
L24L
Ntp635
L0L
s(V18*A
p636
L11L
L-6L
tp637
F-0.3164724376098293
s(V7*
p638
L5L
L-6L
tp639
F-0.08359536040708176
s(V14*DS
p640
L4L
L-6L
tp641
F-0.2910376537205053
s(L12L
L20L
Ntp642
L0L
s(V9*D
p643
L11L
L-6L
tp644
F-0.33037070584925377
s(V16*D
p645
L10L
L-6L
tp646
F-0.5060707093043176
s(V5*D
p647
L3L
L-6L
tp648
F-0.1308303161322147
s(L21L
L4L
L-6L
tp649
F1.5
s(V8*
p650
L2L
L-6L
tp651
F-0.06909785601039369
s(V20*A
p652
L4L
L-6L
tp653
F0.6542803023844632
s(L17L
L23L
Ntp654
L0L
s(L6L
L21L
Ntp655
L0L
s(V16*D
p656
L6L
L-6L
tp657
F-0.22583425216108372
s(L10L
L20L
Ntp658
L0L
s(L10L
L19L
Ntp659
L0L
s(V20*AD
p660
L9L
L-6L
tp661
F0.7452495074318418
s(V18*AD
p662
L5L
L-6L
tp663
F0.16499639469157165
s(V13*
p664
L21L
Ntp665
L0L
s(V13*
p666
L4L
L-6L
tp667
F-0.2565996898485294
s(V18*D
p668
L2L
L-6L
tp669
F0.09672625272770127
s(V19*A
p670
L4L
L-6L
tp671
F0.3996266828526759
s(V18*AD
p672
L9L
L-6L
tp673
F-0.048360339588226935
s(V9*
p674
L3L
L-6L
tp675
F0.03207902943054193
s(L14L
L22L
Ntp676
L0L
s(L15L
L25L
Ntp677
L0L
s(V14*D
p678
L5L
L-6L
tp679
F-0.25727957872459184
s(V15*D
p680
L3L
L-6L
tp681
F-0.3222216093285698
s(V19*AD
p682
L7L
L-6L
tp683
F0.5695530674550459
s(V8*D
p684
L7L
L-6L
tp685
F0.045793980345951515
s(V18*DS
p686
L7L
L-6L
tp687
F0.3378176915209065
s(L18L
L24L
Ntp688
L0L
s(V10*D
p689
L5L
L-6L
tp690
F0.2949771393440681
s(V5*D
p691
L6L
L-6L
tp692
F-0.05385740535754948
s(V14*D
p693
L8L
L-6L
tp694
F-0.30734211230206654
s(V17*D
p695
L9L
L-6L
tp696
F-0.39995207916808256
s(V12*ADS
p697
L5L
L-6L
tp698
F0.14072535589638083
s(V12*
p699
L5L
L-6L
tp700
F-0.19467307346180274
s(V19*AD
p701
L2L
L-6L
tp702
F0.37868570228022097
s(V14*DS
p703
L8L
L-6L
tp704
F-0.30734211230206654
s(V16*DS
p705
L8L
L-6L
tp706
F-0.39626677523527015
s(V9*D
p707
L7L
L-6L
tp708
F0.12301625889513709
s(L15L
L21L
Ntp709
L0L
s(L21L
L8L
L-6L
tp710
F1.5
s(V10*DS
p711
L2L
L-6L
tp712
F0.17980353910471836
s(V20*D
p713
L5L
L-6L
tp714
F0.6530519988788657
s(V20*A
p715
L8L
L-6L
tp716
F0.7678132392445812
s(V13*AD
p717
L9L
L-6L
tp718
F0.031744868179587174
s(V18*
p719
L21L
Ntp720
L0L
s(V16*DS
p721
L5L
L-6L
tp722
F-0.25727957872459184
s(L21L
NNtp723
L0L
s(V15*AD
p724
L10L
L-6L
tp725
F-0.13244897593713337
s(V14*A
p726
L5L
L-6L
tp727
F0.08637955265235943
s(g125
L11L
L-6L
tp728
F-0.23878387407380536
s(V10*
p729
L5L
L-6L
tp730
F0.15411554477525413
s(V21*A
p731
L11L
L-6L
tp732
F0.4162943426545416
s(V6*DS
p733
L4L
L-6L
tp734
F-0.12568179480413952
s(V16*
p735
L2L
L-6L
tp736
F-0.3528655188372036
s(V13*
p737
L8L
L-6L
tp738
F-0.2672684322388699
s(V13*D
p739
L7L
L-6L
tp740
F-0.21795072012330194
s(V15*AD
p741
L3L
L-6L
tp742
F0.036554580337359296
s(V13*AD
p743
L4L
L-6L
tp744
F0.09712309246002439
s(g636
L21L
Ntp745
L0L
s(V27*
p746
NNtp747
L0L
s(V15*
p748
L7L
L-6L
tp749
F-0.30048413482880976
s(L8L
L18L
Ntp750
L0L
s(V11*
p751
L4L
L-6L
tp752
F0.19685123550793715
s(L8L
L21L
Ntp753
L0L
s(V17*
p754
L10L
L-6L
tp755
F-0.4347973249416793
s(V21*A
p756
L6L
L-6L
tp757
F0.896464900814727
s(V4*DS
p758
L9L
L-6L
tp759
F-0.18885264358014303
s(L6L
L19L
Ntp760
L0L
s(V19*AD
p761
L11L
L-6L
tp762
F-0.0639300710144791
s(V20*
p763
L7L
L-6L
tp764
F0.7485576647462068
s(V20*DS
p765
L21L
Ntp766
L0L
s(L6L
L25L
Ntp767
L0L
s(V17*A
p768
L3L
L-6L
tp769
F0.015112563176847352
s(V4*DS
p770
L5L
L-6L
tp771
F-0.07875346837646538
s(g610
L21L
Ntp772
L0L
s(V13*A
p773
L4L
L-6L
tp774
F0.09712309246002439
s(V17*
p775
L3L
L-6L
tp776
F-0.1758824391611427
s(V20*D
p777
L21L
Ntp778
L0L
s(V19*
p779
L2L
L-6L
tp780
F0.37868570228022097
s(V18*
p781
L7L
L-6L
tp782
F0.3378176915209065
s(L20L
L25L
Ntp783
L0L
s(V20*DS
p784
L10L
L-6L
tp785
F0.47905913965829006
s(L9L
L17L
Ntp786
L0L
s(L9L
L22L
Ntp787
L0L
s(V16*AD
p788
L7L
L-6L
tp789
F0.0632680602413123
s(V15*AD
p790
L6L
L-6L
tp791
F0.13522225477479627
s(V19*
p792
L7L
L-6L
tp793
F0.5695530674550459
s(V14*
p794
L8L
L-6L
tp795
F-0.30734211230206654
s(V15*
p796
L2L
L-6L
tp797
F-0.3528655188372036
s(V6*DS
p798
L8L
L-6L
tp799
F-0.16469816616279287
s(V11*D
p800
L2L
L-6L
tp801
F0.30162999400288004
s(g535
L11L
L-6L
tp802
F-0.5222106015556454
s(g295
L11L
L-6L
tp803
F-0.0639300710144791
s(V7*D
p804
L8L
L-6L
tp805
F-0.1765729579137125
s(V16*A
p806
L10L
L-6L
tp807
F-0.16877624147091044
s(V15*
p808
L11L
L-6L
tp809
F-0.568720464513554
s(V7*
p810
L10L
L-6L
tp811
F-0.3185780918839421
s(g25
L11L
L-6L
tp812
F-0.1931109365586415
s(L25L
NNtp813
L0L
s(L8L
L24L
Ntp814
L0L
s(V7*D
p815
L4L
L-6L
tp816
F-0.10468991855131095
s(L14L
L20L
Ntp817
L0L
s(V6*
p818
L4L
L-6L
tp819
F-0.12568179480413952
s(V24*
p820
NNtp821
L0L
s(V16*A
p822
L3L
L-6L
tp823
F0.008326496380056572
s(V8*
p824
L9L
L-6L
tp825
F-0.17868398199909363
s(V17*D
p826
L21L
Ntp827
L0L
s(V20*
p828
L11L
L-6L
tp829
F0.2163600980341765
s(L26L
NNtp830
L0L
s(L21L
L26L
Ntp831
L0L
s(V7*
p832
L3L
L-6L
tp833
F-0.125283304626302
s(V12*D
p834
L10L
L-6L
tp835
F-0.3629014524764479
s(L21L
L19L
Ntp836
L0L
s(L11L
L19L
Ntp837
L0L
s(V18*
p838
L2L
L-6L
tp839
F0.09672625272770127
s(L11L
L20L
Ntp840
L0L
s(V14*A
p841
L21L
Ntp842
L0L
s(V17*AD
p843
L5L
L-6L
tp844
F0.08769387153747235
s(L14L
L18L
Ntp845
L0L
s(L4L
L23L
Ntp846
L0L
s(V19*A
p847
L3L
L-6L
tp848
F0.3913262648897817
s(V16*AD
p849
L2L
L-6L
tp850
F-0.009881400339189371
s(V12*D
p851
L7L
L-6L
tp852
F-0.16789990363744872
s(V8*DS
p853
L8L
L-6L
tp854
F-0.06166913975315858
s(L18L
L21L
Ntp855
L0L
s(V20*AD
p856
L11L
L-6L
tp857
F0.2163600980341765
s(V20*DS
p858
L6L
L-6L
tp859
F0.682460643205031
s(V18*D
p860
L4L
L-6L
tp861
F0.1304143960708309
s(V20*AD
p862
L7L
L-6L
tp863
F0.7485576647462068
s(L15L
L19L
Ntp864
L0L
s(g84
L11L
L-6L
tp865
F-0.49133367783518167
s(V19*A
p866
L6L
L-6L
tp867
F0.45479947097058276
s(V18*A
p868
L5L
L-6L
tp869
F0.14247591482161617
s(V14*
p870
L4L
L-6L
tp871
F-0.2910376537205053
s(V8*D
p872
L8L
L-6L
tp873
F-0.06166913975315858
s(V18*DS
p874
L8L
L-6L
tp875
F0.10347856652012377
s(V19*A
p876
L10L
L-6L
tp877
F0.05217856563031299
s(V8*DS
p878
L5L
L-6L
tp879
F-0.01483875137267094
s(V10*D
p880
L2L
L-6L
tp881
F0.17980353910471836
s(L21L
L6L
L-6L
tp882
F1.5
s(V14*D
p883
L3L
L-6L
tp884
F-0.3102759378720758
s(V12*ADS
p885
L2L
L-6L
tp886
F0.10266443882394152
s(g315
L21L
Ntp887
L0L
s(L6L
L20L
Ntp888
L0L
s(L8L
L26L
Ntp889
L0L
s(V7*
p890
L6L
L-6L
tp891
F-0.04077743253963728
s(L12L
L24L
Ntp892
L0L
s(V15*A
p893
L2L
L-6L
tp894
F0.01924968165010955
s(V9*D
p895
L8L
L-6L
tp896
F0.06208905141272806
s(L21L
L3L
L-6L
tp897
F1.5
s(V5*D
p898
L4L
L-6L
tp899
F-0.11058498270189779
s(V10*D
p900
L7L
L-6L
tp901
F0.21122252748626963
s(g826
L11L
L-6L
tp902
F-0.6395883609365522
s(V14*AD
p903
L2L
L-6L
tp904
F0.043121486849108
s(V12*ADS
p905
L7L
L-6L
tp906
F0.20369051059785748
s(V18*AD
p907
L3L
L-6L
tp908
F0.11327244988271346
s(V13*
p909
L6L
L-6L
tp910
F-0.21784413397741098
s(V14*DS
p911
L10L
L-6L
tp912
F-0.4351518585601507
s(L27L
NNtp913
L0L
s(L10L
L23L
Ntp914
L0L
s(V14*DS
p915
L6L
L-6L
tp916
F-0.22583425216108372
s(V20*A
p917
L10L
L-6L
tp918
F0.47905913965829006
s(V16*
p919
L9L
L-6L
tp920
F-0.44318266992233213
s(V19*D
p921
L2L
L-6L
tp922
F0.37868570228022097
s(V13*
p923
L3L
L-6L
tp924
F-0.268568581448453
s(V20*A
p925
L6L
L-6L
tp926
F0.682460643205031
s(V11*
p927
L3L
L-6L
tp928
F0.1822930039274347
s(V6*D
p929
L3L
L-6L
tp930
F-0.14663876331847164
s(V14*D
p931
L21L
Ntp932
L0L
s(L9L
L25L
Ntp933
L0L
s(L9L
L23L
Ntp934
L0L
s(V14*D
p935
L6L
L-6L
tp936
F-0.22583425216108372
s(V12*
p937
L7L
L-6L
tp938
F-0.16789990363744872
s(L9L
L20L
Ntp939
L0L
s(V19*AD
p940
L4L
L-6L
tp941
F0.3996266828526759
s(V11*
p942
L6L
L-6L
tp943
F0.2430437088020518
s(V8*D
p944
L4L
L-6L
tp945
F-0.033035334268003466
s(V18*DS
p946
L4L
L-6L
tp947
F0.1304143960708309
s(L16L
L19L
Ntp948
L0L
s(V17*D
p949
L2L
L-6L
tp950
F-0.20167177018850768
s(L21L
L10L
L-6L
tp951
F1.4019230769230768
s(L11L
L24L
Ntp952
L0L
s(V17*A
p953
L5L
L-6L
tp954
F0.050473910871956185
s(g261
L11L
L-6L
tp955
F-0.6029956339635548
s(V14*A
p956
L3L
L-6L
tp957
F0.055904544735949774
s(V10*DS
p958
L9L
L-6L
tp959
F0.07837786281446599
s(V10*
p960
L7L
L-6L
tp961
F0.19905203735624435
s(V9*D
p962
L4L
L-6L
tp963
F0.0482953024928279
s(g73
L21L
Ntp964
L0L
s(L29L
NNtp965
L0L
s(V20*D
p966
L6L
L-6L
tp967
F0.682460643205031
s(V13*
p968
L10L
L-6L
tp969
F-0.40284090539936684
s(V16*DS
p970
L2L
L-6L
tp971
F-0.3528655188372036
s(V14*A
p972
L10L
L-6L
tp973
F-0.11438023059321487
s(L21L
L24L
Ntp974
L0L
s(V13*AD
p975
L6L
L-6L
tp976
F0.14385554032967868
s(L14L
L25L
Ntp977
L0L
s(V15*
p978
L5L
L-6L
tp979
F-0.25727957872459184
s(L10L
L18L
Ntp980
L0L
s(V10*
p981
L2L
L-6L
tp982
F0.10964689005170096
s(L10L
L17L
Ntp983
L0L
s(V16*
p984
L5L
L-6L
tp985
F-0.25727957872459184
s(V6*DS
p986
L7L
L-6L
tp987
F-0.11040059494498775
s(V21*A
p988
L4L
L-6L
tp989
F0.8889097934100455
s(g777
L11L
L-6L
tp990
F0.2163600980341765
s(V15*AD
p991
L4L
L-6L
tp992
F0.053837486418017826
s(V13*AD
p993
L11L
L-6L
tp994
F-0.26531893055809036
s(L8L
L17L
Ntp995
L0L
s(V15*AD
p996
L8L
L-6L
tp997
F0.05731473832985834
s(L18L
L19L
Ntp998
L0L
s(V17*
p999
L9L
L-6L
tp1000
F-0.39995207916808256
s(V13*D
p1001
L9L
L-6L
tp1002
F-0.32713301365913594
s(L21L
L23L
Ntp1003
L0L
s(V21*A
p1004
L9L
L-6L
tp1005
F0.9318624181515257
s(V16*A
p1006
L8L
L-6L
tp1007
F0.013679202230341038
s(V19*AD
p1008
L8L
L-6L
tp1009
F0.5594774760940747
s(V13*D
p1010
L5L
L-6L
tp1011
F-0.24497245238576348
s(V4*DS
p1012
L2L
L-6L
tp1013
F-0.13199136192415709
s(g731
L21L
Ntp1014
L0L
s(V18*
p1015
L5L
L-6L
tp1016
F0.14247591482161617
s(V17*
p1017
L4L
L-6L
tp1018
F-0.14936060466767997
s(V13*A
p1019
L7L
L-6L
tp1020
F0.16994817754496214
s(V17*AD
p1021
L2L
L-6L
tp1022
F-0.002770516568114484
s(V20*DS
p1023
L8L
L-6L
tp1024
F0.7678132392445812
s(V20*
p1025
L9L
L-6L
tp1026
F0.7452495074318418
s(V17*A
p1027
L9L
L-6L
tp1028
F-0.0781336660085198
s(V16*AD
p1029
L5L
L-6L
tp1030
F0.05410924963830908
s(V20*
p1031
L5L
L-6L
tp1032
F0.6530519988788657
s(V14*
p1033
L10L
L-6L
tp1034
F-0.4351518585601507
s(L16L
L26L
Ntp1035
L0L
s(V17*AD
p1036
L7L
L-6L
tp1037
F0.07850124434636464
s(L9L
L18L
Ntp1038
L0L
s(V13*A
p1039
L10L
L-6L
tp1040
F-0.09100551151290903
s(V18*A
p1041
L2L
L-6L
tp1042
F0.09672625272770127
s(V15*
p1043
L9L
L-6L
tp1044
F-0.3929281232442096
s(V12*DS
p1045
L2L
L-6L
tp1046
F-0.23379261521618475
s(g185
L21L
Ntp1047
L0L
s(V11*D
p1048
L9L
L-6L
tp1049
F0.12551052448461206
s(V6*
p1050
L6L
L-6L
tp1051
F-0.06878074138270365
s(g274
L11L
L-6L
tp1052
F-0.45448772925297015
s(V9*
p1053
L9L
L-6L
tp1054
F-0.05511013424572316
s(V18*A
p1055
L7L
L-6L
tp1056
F0.3378176915209065
s(V7*D
p1057
L3L
L-6L
tp1058
F-0.125283304626302
s(L23L
NNtp1059
L0L
s(L8L
L20L
Ntp1060
L0L
s(V15*A
p1061
L9L
L-6L
tp1062
F-0.01674136713051374
s(L8L
L23L
Ntp1063
L0L
s(V6*
p1064
L3L
L-6L
tp1065
F-0.14663876331847164
s(V8*
p1066
L6L
L-6L
tp1067
F0.031529681194260695
s(V7*
p1068
L4L
L-6L
tp1069
F-0.10468991855131095
s(L21L
L20L
Ntp1070
L0L
s(V12*D
p1071
L5L
L-6L
tp1072
F-0.19467307346180274
s(L16L
L21L
Ntp1073
L0L
s(V7*
p1074
L8L
L-6L
tp1075
F-0.1765729579137125
s(V14*AD
p1076
L4L
L-6L
tp1077
F0.07010124777810765
s(V19*D
p1078
L9L
L-6L
tp1079
F0.3109628974731138
s(V20*DS
p1080
L4L
L-6L
tp1081
F0.6542803023844632
s(L19L
L17L
Ntp1082
L0L
s(V18*D
p1083
L6L
L-6L
tp1084
F0.2180166086196026
s(g993
L21L
Ntp1085
L0L
s(V6*D
p1086
L8L
L-6L
tp1087
F-0.16469816616279287
s(V14*
p1088
L6L
L-6L
tp1089
F-0.22583425216108372
s(V12*D
p1090
L8L
L-6L
tp1091
F-0.22136861858562146
s(L20L
L24L
Ntp1092
L0L
s(V8*DS
p1093
L7L
L-6L
tp1094
F0.045793980345951515
s(L20L
L18L
Ntp1095
L0L
s(V18*D
p1096
L3L
L-6L
tp1097
F0.11327244988271346
s(V15*D
p1098
L7L
L-6L
tp1099
F-0.30048413482880976
s(L15L
L23L
Ntp1100
L0L
s(V12*
p1101
L8L
L-6L
tp1102
F-0.22136861858562146
s(V8*D
p1103
L3L
L-6L
tp1104
F-0.051425023717221824
s(V18*DS
p1105
L3L
L-6L
tp1106
F0.11327244988271346
s(g761
L21L
Ntp1107
L0L
s(V9*
p1108
L10L
L-6L
tp1109
F-0.18736895668697215
s(V8*DS
p1110
L10L
L-6L
tp1111
F-0.26410222334249944
s(V21*
p1112
L2L
L-6L
tp1113
F0.8826141319563009
s(V5*D
p1114
L2L
L-6L
tp1115
F-0.15023132349566118
s(L21L
L5L
L-6L
tp1116
F1.5
s(V14*D
p1117
L4L
L-6L
tp1118
F-0.2910376537205053
s(V8*
p1119
L3L
L-6L
tp1120
F-0.051425023717221824
s(V16*D
p1121
L3L
L-6L
tp1122
F-0.3222216093285698
s(L17L
L22L
Ntp1123
L0L
s(V8*D
p1124
L6L
L-6L
tp1125
F0.031529681194260695
s(V18*DS
p1126
L6L
L-6L
tp1127
F0.2180166086196026
s(L8L
L25L
Ntp1128
L0L
s(L20L
L20L
Ntp1129
L0L
s(V15*A
p1130
L5L
L-6L
tp1131
F0.07113282455038625
s(V9*D
p1132
L3L
L-6L
tp1133
F0.03207902943054193
s(V10*D
p1134
L8L
L-6L
tp1135
F0.1485124197818747
s(V5*D
p1136
L11L
L-6L
tp1137
F-0.43629311522989034
s(V17*D
p1138
L4L
L-6L
tp1139
F-0.14936060466767997
s(V8*D
p1140
L10L
L-6L
tp1141
F-0.26410222334249944
s(V18*DS
p1142
L10L
L-6L
tp1143
F-0.19219478263526105
s(V12*ADS
p1144
L8L
L-6L
tp1145
F0.14426397255748094
s(V16*
p1146
L11L
L-6L
tp1147
F-0.6029956339635548
s(L14L
L26L
Ntp1148
L0L
s(g643
L21L
Ntp1149
L0L
s(V13*
p1150
L5L
L-6L
tp1151
F-0.24497245238576348
s(V16*DS
p1152
L9L
L-6L
tp1153
F-0.44318266992233213
s(g485
L21L
Ntp1154
L0L
s(L21L
L17L
Ntp1155
L0L
s(g479
L21L
Ntp1156
L0L
s(V9*D
p1157
L6L
L-6L
tp1158
F0.11636013977158888
s(V14*AD
p1159
L8L
L-6L
tp1160
F0.08345452791376735
s(V19*D
p1161
L5L
L-6L
tp1162
F0.40465077228822727
s(V9*D
p1163
L10L
L-6L
tp1164
F-0.18736895668697215
s(L15L
L24L
Ntp1165
L0L
s(L19L
L24L
Ntp1166
L0L
s(V15*D
p1167
L2L
L-6L
tp1168
F-0.3528655188372036
s(L4L
L17L
Ntp1169
L0L
s(V6*D
p1170
L4L
L-6L
tp1171
F-0.12568179480413952
s(L19L
L18L
Ntp1172
L0L
s(L9L
L26L
Ntp1173
L0L
s(V21*A
p1174
L2L
L-6L
tp1175
F0.8826141319563009
s(L18L
L25L
Ntp1176
L0L
s(g381
L11L
L-6L
tp1177
F-0.568720464513554
s(V11*
p1178
L9L
L-6L
tp1179
F0.12551052448461206
s(V12*
p1180
L4L
L-6L
tp1181
F-0.20778161561124497
s(g55
L21L
Ntp1182
L0L
s(V17*A
p1183
L7L
L-6L
tp1184
F0.07850124434636464
s(V9*
p1185
L6L
L-6L
tp1186
F0.10569084907744994
s(L16L
L25L
Ntp1187
L0L
s(L21L
L9L
L-6L
tp1188
F1.5
s(V23*
p1189
NNtp1190
L0L
s(V19*AD
p1191
L10L
L-6L
tp1192
F0.05217856563031299
s(V14*A
p1193
L8L
L-6L
tp1194
F0.08345452791376735
s(V17*A
p1195
L2L
L-6L
tp1196
F-0.002770516568114484
s(V19*AD
p1197
L6L
L-6L
tp1198
F0.45479947097058276
s(L8L
L22L
Ntp1199
L0L
s(V10*DS
p1200
L10L
L-6L
tp1201
F-0.05662531808701135
s(V10*
p1202
L4L
L-6L
tp1203
F0.14020680154977364
s(V16*
p1204
L7L
L-6L
tp1205
F-0.3620798436207824
s(L20L
L23L
Ntp1206
L0L
s(V13*
p1207
L9L
L-6L
tp1208
F-0.32713301365913594
s(V20*D
p1209
L9L
L-6L
tp1210
F0.7452495074318418
s(V15*AD
p1211
L2L
L-6L
tp1212
F0.01924968165010955
s(V12*DS
p1213
L9L
L-6L
tp1214
F-0.2835568837904705
s(V13*AD
p1215
L5L
L-6L
tp1216
F0.10819657821482985
s(g856
L21L
Ntp1217
L0L
s(V15*
p1218
L6L
L-6L
tp1219
F-0.22583425216108372
s(L18L
L18L
Ntp1220
L0L
s(L10L
L21L
Ntp1221
L0L
s(V10*DS
p1222
L7L
L-6L
tp1223
F0.21122252748626963
s(V10*
p1224
L9L
L-6L
tp1225
F0.07837786281446599
s(V21*A
p1226
L7L
L-6L
tp1227
F0.9184290855869329
s(V20*D
p1228
L4L
L-6L
tp1229
F0.6542803023844632
s(L17L
L26L
Ntp1230
L0L
s(V19*D
p1231
L21L
Ntp1232
L0L
s(L19L
L23L
Ntp1233
L0L
s(V6*DS
p1234
L9L
L-6L
tp1235
F-0.23203529243385962
s(L20L
L26L
Ntp1236
L0L
s(V16*A
p1237
L7L
L-6L
tp1238
F0.0632680602413123
s(V17*
p1239
L6L
L-6L
tp1240
F-0.06370424604121734
s(V6*DS
p1241
L5L
L-6L
tp1242
F-0.102996109745381
s(V13*D
p1243
L2L
L-6L
tp1244
F-0.2805920053931741
s(L9L
L21L
Ntp1245
L0L
s(g133
L11L
L-6L
tp1246
F-0.35958173844651026
s(V15*A
p1247
L21L
Ntp1248
L0L
s(V18*
p1249
L6L
L-6L
tp1250
F0.2180166086196026
s(V16*AD
p1251
L21L
Ntp1252
L0L
s(g340
L11L
L-6L
tp1253
F-0.6395883609365522
s(g765
L11L
L-6L
tp1254
F0.2163600980341765
s(L15L
L20L
Ntp1255
L0L
s(V13*A
p1256
L8L
L-6L
tp1257
F0.11241325658389098
s(V20*
p1258
L2L
L-6L
tp1259
F0.6393345707389179
s(V16*AD
p1260
L6L
L-6L
tp1261
F0.12773933141541785
s(V12*D
p1262
L3L
L-6L
tp1263
F-0.22088127493508958
s(V14*
p1264
L9L
L-6L
tp1265
F-0.3626760515870562
s(V17*AD
p1266
L8L
L-6L
tp1267
F-0.012805060879692326
s(V20*DS
p1268
L2L
L-6L
tp1269
F0.6393345707389179
s(g719
L11L
L-6L
tp1270
F-0.34724013900479794
s(V13*A
p1271
L5L
L-6L
tp1272
F0.10819657821482985
s(V12*DS
p1273
L5L
L-6L
tp1274
F-0.19467307346180274
s(L21L
L25L
Ntp1275
L0L
s(V15*
p1276
L10L
L-6L
tp1277
F-0.46073219394979253
s(g1251
L11L
L-6L
tp1278
F-0.32841584723054273
s(V11*D
p1279
L10L
L-6L
tp1280
F0.02046037119640604
s(g1247
L11L
L-6L
tp1281
F-0.2998058745665474
s(V6*
p1282
L5L
L-6L
tp1283
F-0.102996109745381
s(V21*
p1284
L9L
L-6L
tp1285
F0.9318624181515257
s(L14L
L21L
Ntp1286
L0L
s(g828
L21L
Ntp1287
L0L
s(V19*
p1288
L3L
L-6L
tp1289
F0.3913262648897817
s(V8*
p1290
L4L
L-6L
tp1291
F-0.033035334268003466
s(V18*A
p1292
L8L
L-6L
tp1293
F0.10347856652012377
s(V16*A
p1294
L2L
L-6L
tp1295
F-0.009881400339189371
s(L19L
L26L
Ntp1296
L0L
s(V7*
p1297
L2L
L-6L
tp1298
F-0.14500057039867695
s(L8L
L19L
Ntp1299
L0L
s(V11*D
p1300
L7L
L-6L
tp1301
F0.31379538482948516
s(V6*
p1302
L8L
L-6L
tp1303
F-0.16469816616279287
s(V14*AD
p1304
L6L
L-6L
tp1305
F0.12241930109320405
s(g1231
L11L
L-6L
tp1306
F-0.0639300710144791
s(V16*D
p1307
L5L
L-6L
tp1308
F-0.25727957872459184
s(g335
L21L
Ntp1309
L0L
s(V6*D
p1310
L10L
L-6L
tp1311
F-0.3191814945348041
s(L16L
L17L
Ntp1312
L0L
s(V12*D
p1313
L6L
L-6L
tp1314
F-0.16562395783700418
s(V14*AD
p1315
L3L
L-6L
tp1316
F0.055904544735949774
s(V20*DS
p1317
L7L
L-6L
tp1318
F0.7485576647462068
s(V20*AD
p1319
L2L
L-6L
tp1320
F0.6393345707389179
s(g342
L21L
Ntp1321
L0L
s(V18*D
p1322
L5L
L-6L
tp1323
F0.14247591482161617
s(V15*D
p1324
L5L
L-6L
tp1325
F-0.25727957872459184
s(V18*AD
p1326
L10L
L-6L
tp1327
F-0.14538937711317557
s(L15L
L18L
Ntp1328
L0L
s(V14*
p1329
L5L
L-6L
tp1330
F-0.25727957872459184
s(V9*
p1331
L8L
L-6L
tp1332
F0.06208905141272806
s(L20L
L22L
Ntp1333
L0L
s(V8*DS
p1334
L4L
L-6L
tp1335
F-0.033035334268003466
s(L20L
L17L
Ntp1336
L0L
s(V14*D
p1337
L2L
L-6L
tp1338
F-0.32100622590969413
s(L22L
NNtp1339
L0L
s(V12*
p1340
L3L
L-6L
tp1341
F-0.22088127493508958
s(V18*D
p1342
L8L
L-6L
tp1343
F0.10347856652012377
s(V15*A
p1344
L7L
L-6L
tp1345
F0.11037740997330986
s(V19*A
p1346
L2L
L-6L
tp1347
F0.37868570228022097
s(V21*
p1348
L5L
L-6L
tp1349
F0.8868790129673261
s(V5*D
p1350
L9L
L-6L
tp1351
F-0.2053711536650952
s(V10*D
p1352
L10L
L-6L
tp1353
F-0.05662531808701135
s(g931
L11L
L-6L
tp1354
F-0.5477016365461513
s(V17*D
p1355
L6L
L-6L
tp1356
F-0.06370424604121734
s(V12*ADS
p1357
L10L
L-6L
tp1358
F-0.06183763567085258
s(L17L
L18L
Ntp1359
L0L
s(V12*
p1360
L6L
L-6L
tp1361
F-0.16562395783700418
s(L17L
L24L
Ntp1362
L0L
s(V14*DS
p1363
L3L
L-6L
tp1364
F-0.3102759378720758
s(L19L
L25L
Ntp1365
L0L
s(V12*
p1366
L10L
L-6L
tp1367
F-0.3629014524764479
s(V17*D
p1368
L3L
L-6L
tp1369
F-0.1758824391611427
s(L21L
L11L
L-6L
tp1370
F1.1076923076923078
s(V14*AD
p1371
L10L
L-6L
tp1372
F-0.11438023059321487
s(V19*D
p1373
L7L
L-6L
tp1374
F0.5695530674550459
s(V16*D
p1375
L9L
L-6L
tp1376
F-0.44318266992233213
s(V16*
p1377
L8L
L-6L
tp1378
F-0.39626677523527015
s(g436
L21L
Ntp1379
L0L
s(g808
L21L
Ntp1380
L0L
s(V16*DS
p1381
L6L
L-6L
tp1382
F-0.22583425216108372
s(V20*A
p1383
L3L
L-6L
tp1384
F0.6493555766871207
s(V10*D
p1385
L3L
L-6L
tp1386
F0.2210635953013322
s(L21L
L7L
L-6L
tp1387
F1.5
s(V12*ADS
p1388
L3L
L-6L
tp1389
F0.11623925946278156
s(V13*AD
p1390
L2L
L-6L
tp1391
F0.07116210073054212
s(L21L
L21L
Ntp1392
L0L
s(V6*D
p1393
L6L
L-6L
tp1394
F-0.06878074138270365
s(L21L
L18L
Ntp1395
L0L
s(L14L
L19L
Ntp1396
L0L
s(L16L
L23L
Ntp1397
L0L
s(g664
L11L
L-6L
tp1398
F-0.5222106015556454
s(V15*D
p1399
L9L
L-6L
tp1400
F-0.3929281232442096
s(V18*AD
p1401
L6L
L-6L
tp1402
F0.25370761152849874
s(V11*
p1403
L11L
L-6L
tp1404
F-0.1931109365586415
s(V13*AD
p1405
L7L
L-6L
tp1406
F0.16994817754496214
s(L12L
L22L
Ntp1407
L0L
s(g1146
L21L
Ntp1408
L0L
s(L4L
L21L
Ntp1409
L0L
s(L12L
L17L
Ntp1410
L0L
s(V13*
p1411
L7L
L-6L
tp1412
F-0.21795072012330194
s(V9*
p1413
L4L
L-6L
tp1414
F0.0482953024928279
s(V21*A
p1415
L5L
L-6L
tp1416
F0.8868790129673261
s(g117
L21L
Ntp1417
L0L
s(V4*DS
p1418
L6L
L-6L
tp1419
F-0.0436337050568462
s(V17*A
p1420
L4L
L-6L
tp1421
F0.033085693368776904
s(V11*
p1422
L2L
L-6L
tp1423
F0.16781228126337353
s(L6L
L22L
Ntp1424
L0L
s(V16*DS
p1425
L3L
L-6L
tp1426
F-0.3222216093285698
s(g841
L11L
L-6L
tp1427
F-0.2841622293957056
s(g508
L11L
L-6L
tp1428
F-0.49133367783518167
s.