(dp0
(V13*AD
p1
L11L
L-9L
tp2
VDraw
p3
s(L13L
L21L
Ntp4
Ns(L13L
L18L
Ntp5
Ns(V20*A
p6
L6L
L-9L
tp7
VStay
p8
s(L13L
L24L
Ntp9
Ns(V14*A
p10
L3L
L-9L
tp11
g3
s(V17*
p12
L8L
L-9L
tp13
g8
s(V13*D
p14
L8L
L-9L
tp15
g3
s(V21*A
p16
L9L
L-9L
tp17
g8
s(V12*DS
p18
L3L
L-9L
tp19
g3
s(L6L
L26L
Ntp20
Ns(V11*D
p21
L21L
Ntp22
Ns(V6*DS
p23
L10L
L-9L
tp24
g3
s(L15L
L26L
Ntp25
Ns(V18*AD
p26
L3L
L-9L
tp27
g8
s(V14*DS
p28
L10L
L-9L
tp29
g3
s(V8*D
p30
L4L
L-9L
tp31
g3
s(V18*DS
p32
L4L
L-9L
tp33
g8
s(L19L
L19L
Ntp34
Ns(V6*DS
p35
L7L
L-9L
tp36
g3
s(L19L
L20L
Ntp37
Ns(V13*A
p38
L6L
L-9L
tp39
g3
s(V20*A
p40
L21L
Ntp41
Ns(V20*
p42
L8L
L-9L
tp43
g8
s(V8*D
p44
L11L
L-9L
tp45
g3
s(V18*DS
p46
L11L
L-9L
tp47
g8
s(V20*A
p48
L10L
L-9L
tp49
g8
s(L17L
L21L
Ntp50
Ns(V12*
p51
L9L
L-9L
tp52
g3
s(V9*D
p53
L4L
L-9L
tp54
g3
s(V16*A
p55
L8L
L-9L
tp56
g3
s(V12*DS
p57
L2L
L-9L
tp58
g3
s(V9*D
p59
L11L
L-9L
tp60
g3
s(V5*D
p61
L3L
L-9L
tp62
g3
s(L21L
L4L
L-9L
tp63
g8
s(V14*D
p64
L5L
L-9L
tp65
g3
s(V15*D
p66
L3L
L-9L
tp67
g3
s(V25*
p68
NNtp69
Ns(V12*D
p70
L9L
L-9L
tp71
g3
s(V8*DS
p72
L21L
Ntp73
Ns(V6*
p74
L2L
L-9L
tp75
g3
s(L4L
L24L
Ntp76
Ns(V12*
p77
L21L
Ntp78
Ns(V13*
p79
L4L
L-9L
tp80
g3
s(L4L
L18L
Ntp81
Ns(V16*DS
p82
L8L
L-9L
tp83
g3
s(V15*AD
p84
L8L
L-9L
tp85
g3
s(V17*AD
p86
L7L
L-9L
tp87
g3
s(L14L
L17L
Ntp88
Ns(V7*
p89
L5L
L-9L
tp90
g3
s(V20*D
p91
L6L
L-9L
tp92
g8
s(L18L
L22L
Ntp93
Ns(V19*AD
p94
L8L
L-9L
tp95
g8
s(V13*D
p96
L5L
L-9L
tp97
g3
s(g72
L11L
L-9L
tp98
g3
s(V21*
p99
L3L
L-9L
tp100
g8
s(V8*
p101
L2L
L-9L
tp102
g3
s(V19*AD
p103
L7L
L-9L
tp104
g8
s(V10*
p105
L2L
L-9L
tp106
g3
s(V4*DS
p107
L21L
Ntp108
Ns(V10*DS
p109
L21L
Ntp110
Ns(V18*A
p111
L7L
L-9L
tp112
g8
s(V17*A
p113
L21L
Ntp114
Ns(L4L
L20L
Ntp115
Ns(V12*D
p116
L8L
L-9L
tp117
g3
s(V18*D
p118
L21L
Ntp119
Ns(V15*AD
p120
L4L
L-9L
tp121
g3
s(V13*AD
p122
L4L
L-9L
tp123
g3
s(V20*
p124
L5L
L-9L
tp125
g8
s(V18*D
p126
L2L
L-9L
tp127
g8
s(V17*
p128
L9L
L-9L
tp129
g8
s(V13*D
p130
L9L
L-9L
tp131
g3
s(V21*A
p132
L6L
L-9L
tp133
g8
s(L15L
L22L
Ntp134
Ns(V8*DS
p135
L10L
L-9L
tp136
g3
s(V21*
p137
L2L
L-9L
tp138
g8
s(V17*A
p139
L3L
L-9L
tp140
g3
s(V6*DS
p141
L11L
L-9L
tp142
g3
s(V8*D
p143
L7L
L-9L
tp144
g3
s(V18*DS
p145
L7L
L-9L
tp146
g8
s(L13L
L19L
Ntp147
Ns(L20L
L21L
Ntp148
Ns(V6*DS
p149
L4L
L-9L
tp150
g3
s(V13*A
p151
L7L
L-9L
tp152
g3
s(V20*
p153
L9L
L-9L
tp154
g8
s(L6L
L17L
Ntp155
Ns(L17L
L25L
Ntp156
Ns(V28*
p157
NNtp158
Ns(V12*
p159
L5L
L-9L
tp160
g3
s(V15*
p161
L7L
L-9L
tp162
g3
s(V12*
p163
L8L
L-9L
tp164
g3
s(V9*D
p165
L7L
L-9L
tp166
g3
s(V18*AD
p167
L21L
Ntp168
Ns(L21L
L8L
L-9L
tp169
g8
s(L19L
L21L
Ntp170
Ns(V7*
p171
L8L
L-9L
tp172
g3
s(L19L
L22L
Ntp173
Ns(V5*D
p174
L2L
L-9L
tp175
g3
s(L21L
L5L
L-9L
tp176
g8
s(V14*D
p177
L4L
L-9L
tp178
g3
s(L16L
L22L
Ntp179
Ns(V15*D
p180
L2L
L-9L
tp181
g3
s(L21L
L22L
Ntp182
Ns(V13*
p183
L8L
L-9L
tp184
g3
s(V6*
p185
L3L
L-9L
tp186
g3
s(V13*
p187
L5L
L-9L
tp188
g3
s(V16*DS
p189
L9L
L-9L
tp190
g3
s(V14*DS
p191
L21L
Ntp192
Ns(V20*DS
p193
L10L
L-9L
tp194
g8
s(V7*
p195
L4L
L-9L
tp196
g3
s(L12L
L21L
Ntp197
Ns(V14*AD
p198
L21L
Ntp199
Ns(V20*D
p200
L5L
L-9L
tp201
g8
s(V19*AD
p202
L11L
L-9L
tp203
g8
s(V14*
p204
L8L
L-9L
tp205
g3
s(V8*
p206
L3L
L-9L
tp207
g3
s(L20L
L19L
Ntp208
Ns(g109
L11L
L-9L
tp209
g3
s(V10*
p210
L5L
L-9L
tp211
g3
s(L4L
L26L
Ntp212
Ns(L17L
L19L
Ntp213
Ns(V16*DS
p214
L21L
Ntp215
Ns(V12*D
p216
L7L
L-9L
tp217
g3
s(V8*D
p218
L10L
L-9L
tp219
g3
s(V18*DS
p220
L10L
L-9L
tp221
g8
s(V15*AD
p222
L3L
L-9L
tp223
g3
s(V13*AD
p224
L5L
L-9L
tp225
g3
s(L11L
L21L
Ntp226
Ns(L11L
L22L
Ntp227
Ns(V18*D
p228
L3L
L-9L
tp229
g8
s(L6L
L24L
Ntp230
Ns(V17*
p231
L10L
L-9L
tp232
g8
s(g141
L21L
Ntp233
Ns(V21*A
p234
L7L
L-9L
tp235
g8
s(V20*D
p236
L4L
L-9L
tp237
g8
s(V8*DS
p238
L5L
L-9L
tp239
g3
s(V9*D
p240
L10L
L-9L
tp241
g3
s(L13L
L22L
Ntp242
Ns(V17*A
p243
L2L
L-9L
tp244
g3
s(V6*DS
p245
L8L
L-9L
tp246
g3
s(V8*D
p247
L6L
L-9L
tp248
g3
s(V18*DS
p249
L6L
L-9L
tp250
g8
s(V13*A
p251
L4L
L-9L
tp252
g3
s(V19*
p253
L21L
Ntp254
Ns(V15*
p255
L11L
L-9L
tp256
g3
s(V14*AD
p257
L2L
L-9L
tp258
g3
s(V12*
p259
L4L
L-9L
tp260
g3
s(L24L
NNtp261
Ns(V19*
p262
L2L
L-9L
tp263
g8
s(V15*
p264
L6L
L-9L
tp265
g8
s(V18*
p266
L7L
L-9L
tp267
g8
s(V16*A
p268
L3L
L-9L
tp269
g3
s(V17*
p270
L11L
L-9L
tp271
g3
s(g77
L11L
L-9L
tp272
g3
s(L12L
L19L
Ntp273
Ns(V9*D
p274
L6L
L-9L
tp275
g3
s(L12L
L26L
Ntp276
Ns(L21L
L9L
L-9L
tp277
g8
s(V16*AD
p278
L7L
L-9L
tp279
g3
s(L17L
L17L
Ntp280
Ns(L21L
L6L
L-9L
tp281
g8
s(V10*D
p282
L2L
L-9L
tp283
VDouble
p284
s(V14*D
p285
L3L
L-9L
tp286
g3
s(V12*ADS
p287
L2L
L-9L
tp288
g3
s(V19*AD
p289
L6L
L-9L
tp290
g8
s(V14*
p291
L21L
Ntp292
Ns(V13*A
p293
L5L
L-9L
tp294
g3
s(V13*
p295
L9L
L-9L
tp296
g3
s(L10L
L22L
Ntp297
Ns(g21
L11L
L-9L
tp298
g3
s(V6*
p299
L4L
L-9L
tp300
g3
s(V20*DS
p301
L6L
L-9L
tp302
g8
s(V19*
p303
L3L
L-9L
tp304
g8
s(V13*
p305
L6L
L-9L
tp306
g3
s(L6L
L18L
Ntp307
Ns(g270
L21L
Ntp308
Ns(V20*DS
p309
L11L
L-9L
tp310
g8
s(V7*
p311
L3L
L-9L
tp312
g3
s(V14*
p313
L4L
L-9L
tp314
g3
s(g46
L21L
Ntp315
Ns(g44
L21L
Ntp316
Ns(V16*
p317
L9L
L-9L
tp318
g3
s(V19*AD
p319
L10L
L-9L
tp320
g8
s(L13L
L25L
Ntp321
Ns(L4L
L22L
Ntp322
Ns(V14*
p323
L9L
L-9L
tp324
g3
s(L18L
L20L
Ntp325
Ns(V11*
p326
L3L
L-9L
tp327
g3
s(V10*DS
p328
L10L
L-9L
tp329
g3
s(V10*
p330
L4L
L-9L
tp331
g3
s(L18L
L26L
Ntp332
Ns(V6*DS
p333
L5L
L-9L
tp334
g3
s(V19*A
p335
L3L
L-9L
tp336
g8
s(L11L
L26L
Ntp337
Ns(V12*D
p338
L6L
L-9L
tp339
g3
s(V15*D
p340
L21L
Ntp341
Ns(V15*AD
p342
L2L
L-9L
tp343
g3
s(V13*AD
p344
L6L
L-9L
tp345
g3
s(L11L
L25L
Ntp346
Ns(V18*D
p347
L4L
L-9L
tp348
g8
s(V21*A
p349
L4L
L-9L
tp350
g8
s(V20*D
p351
L11L
L-9L
tp352
g8
s(V8*DS
p353
L4L
L-9L
tp354
g3
s(L10L
L26L
Ntp355
Ns(L10L
L25L
Ntp356
Ns(V17*A
p357
L5L
L-9L
tp358
g3
s(V6*DS
p359
L9L
L-9L
tp360
g3
s(V19*A
p361
L2L
L-9L
tp362
g8
s(V15*
p363
L10L
L-9L
tp364
g3
s(V4*DS
p365
L2L
L-9L
tp366
g3
s(V14*AD
p367
L3L
L-9L
tp368
g3
s(V12*
p369
L7L
L-9L
tp370
g3
s(V15*
p371
L5L
L-9L
tp372
g8
s(V18*
p373
L6L
L-9L
tp374
g8
s(V15*AD
p375
L21L
Ntp376
Ns(L13L
L20L
Ntp377
Ns(V16*A
p378
L2L
L-9L
tp379
g3
s(V17*
p380
L4L
L-9L
tp381
g8
s(V17*D
p382
L2L
L-9L
tp383
g8
s(L21L
L10L
L-9L
tp384
g8
s(V16*AD
p385
L6L
L-9L
tp386
g284
s(V14*D
p387
L2L
L-9L
tp388
g3
s(L14L
L23L
Ntp389
Ns(V13*A
p390
L10L
L-9L
tp391
g3
s(L28L
NNtp392
Ns(L12L
L18L
Ntp393
Ns(V13*
p394
L10L
L-9L
tp395
g3
s(V16*DS
p396
L2L
L-9L
tp397
g8
s(L16L
L18L
Ntp398
Ns(V11*D
p399
L10L
L-9L
tp400
g3
s(V6*
p401
L5L
L-9L
tp402
g3
s(V20*DS
p403
L7L
L-9L
tp404
g8
s(V16*
p405
L5L
L-9L
tp406
g8
s(V22*
p407
NNtp408
Ns(V17*AD
p409
L2L
L-9L
tp410
g3
s(V20*DS
p411
L8L
L-9L
tp412
g8
s(V7*
p413
L2L
L-9L
tp414
g3
s(V14*
p415
L5L
L-9L
tp416
g3
s(V7*D
p417
L3L
L-9L
tp418
g3
s(V16*
p419
L8L
L-9L
tp420
g3
s(L9L
L19L
Ntp421
Ns(V14*
p422
L10L
L-9L
tp423
g3
s(V12*DS
p424
L21L
Ntp425
Ns(V10*DS
p426
L9L
L-9L
tp427
g3
s(V10*
p428
L7L
L-9L
tp429
g3
s(L14L
L24L
Ntp430
Ns(V18*A
p431
L2L
L-9L
tp432
g8
s(V12*D
p433
L5L
L-9L
tp434
g3
s(V14*A
p435
L10L
L-9L
tp436
g3
s(V13*AD
p437
L7L
L-9L
tp438
g3
s(L13L
L17L
Ntp439
Ns(V18*D
p440
L5L
L-9L
tp441
g8
s(L13L
L23L
Ntp442
Ns(L6L
L23L
Ntp443
Ns(V26*
p444
NNtp445
Ns(V12*
p446
L10L
L-9L
tp447
g3
s(V21*A
p448
L5L
L-9L
tp449
g8
s(V20*D
p450
L10L
L-9L
tp451
g8
s(V17*A
p452
L9L
L-9L
tp453
g3
s(V15*A
p454
L9L
L-9L
tp455
g3
s(V8*DS
p456
L7L
L-9L
tp457
g3
s(L11L
L18L
Ntp458
Ns(V10*D
p459
L3L
L-9L
tp460
g284
s(L21L
L7L
L-9L
tp461
g8
s(V12*ADS
p462
L3L
L-9L
tp463
g3
s(V17*A
p464
L4L
L-9L
tp465
g3
s(V13*D
p466
L21L
Ntp467
Ns(V10*DS
p468
L8L
L-9L
tp469
g3
s(V10*
p470
L6L
L-9L
tp471
g3
s(L18L
L23L
Ntp472
Ns(V15*
p473
L9L
L-9L
tp474
g3
s(V4*DS
p475
L3L
L-9L
tp476
g3
s(V14*AD
p477
L4L
L-9L
tp478
g3
s(V19*D
p479
L9L
L-9L
tp480
g8
s(V16*D
p481
L3L
L-9L
tp482
g8
s(L15L
L17L
Ntp483
Ns(V12*
p484
L6L
L-9L
tp485
g3
s(V13*
p486
L7L
L-9L
tp487
g3
s(V18*
p488
L5L
L-9L
tp489
g8
s(L10L
L24L
Ntp490
Ns(V17*
p491
L5L
L-9L
tp492
g8
s(V6*D
p493
L8L
L-9L
tp494
g3
s(V17*D
p495
L3L
L-9L
tp496
g8
s(L21L
L11L
L-9L
tp497
g8
s(V16*AD
p498
L5L
L-9L
tp499
g3
s(V
p500
g500
L-9L
tp501
VBegin
p502
s(L17L
L20L
Ntp503
Ns(V15*D
p504
L7L
L-9L
tp505
g3
s(L12L
L23L
Ntp506
Ns(V11*
p507
L2L
L-9L
tp508
g3
s(L12L
L25L
Ntp509
Ns(V13*A
p510
L11L
L-9L
tp511
g3
s(V9*
p512
L10L
L-9L
tp513
g3
s(V13*
p514
L11L
L-9L
tp515
g3
s(V16*DS
p516
L3L
L-9L
tp517
g8
s(V11*D
p518
L9L
L-9L
tp519
g3
s(V6*
p520
L6L
L-9L
tp521
g3
s(V20*DS
p522
L4L
L-9L
tp523
g8
s(V18*
p524
L4L
L-9L
tp525
g8
s(V16*
p526
L4L
L-9L
tp527
g8
s(L11L
L23L
Ntp528
Ns(V14*
p529
L6L
L-9L
tp530
g3
s(V7*D
p531
L2L
L-9L
tp532
g3
s(V16*AD
p533
L4L
L-9L
tp534
g3
s(V16*
p535
L11L
L-9L
tp536
g3
s(L11L
L17L
Ntp537
Ns(L4L
L25L
Ntp538
Ns(L4L
L19L
Ntp539
Ns(V8*
p540
L6L
L-9L
tp541
g3
s(L16L
L20L
Ntp542
Ns(L18L
L17L
Ntp543
Ns(L9L
L24L
Ntp544
Ns(L13L
L26L
Ntp545
Ns(V12*D
p546
L4L
L-9L
tp547
g3
s(V11*D
p548
L8L
L-9L
tp549
g3
s(V6*
p550
L7L
L-9L
tp551
g3
s(V14*A
p552
L11L
L-9L
tp553
g3
s(L30L
NNtp554
Ns(V15*
p555
L4L
L-9L
tp556
g3
s(V18*D
p557
L6L
L-9L
tp558
g8
s(V15*A
p559
L5L
L-9L
tp560
g3
s(V21*A
p561
L2L
L-9L
tp562
g8
s(V20*D
p563
L9L
L-9L
tp564
g8
s(V17*A
p565
L8L
L-9L
tp566
g3
s(L16L
L24L
Ntp567
Ns(V15*A
p568
L8L
L-9L
tp569
g3
s(V8*DS
p570
L6L
L-9L
tp571
g3
s(V17*A
p572
L7L
L-9L
tp573
g3
s(L12L
L20L
Ntp574
Ns(V10*DS
p575
L7L
L-9L
tp576
g3
s(V10*
p577
L9L
L-9L
tp578
g3
s(V8*D
p579
L3L
L-9L
tp580
g3
s(V18*DS
p581
L3L
L-9L
tp582
g8
s(L17L
L23L
Ntp583
Ns(V14*AD
p584
L8L
L-9L
tp585
g3
s(V19*D
p586
L5L
L-9L
tp587
g8
s(L6L
L21L
Ntp588
Ns(V15*
p589
L8L
L-9L
tp590
g3
s(L10L
L20L
Ntp591
Ns(V19*D
p592
L8L
L-9L
tp593
g8
s(V14*AD
p594
L5L
L-9L
tp595
g3
s(V16*D
p596
L2L
L-9L
tp597
g8
s(L10L
L19L
Ntp598
Ns(V6*D
p599
L4L
L-9L
tp600
g3
s(V18*D
p601
L7L
L-9L
tp602
g8
s(V17*
p603
L6L
L-9L
tp604
g8
s(V13*D
p605
L2L
L-9L
tp606
g3
s(V20*DS
p607
L9L
L-9L
tp608
g8
s(V17*AD
p609
L3L
L-9L
tp610
g3
s(V9*D
p611
L3L
L-9L
tp612
g3
s(V10*D
p613
L8L
L-9L
tp614
g3
s(V6*D
p615
L9L
L-9L
tp616
g3
s(V5*D
p617
L11L
L-9L
tp618
g3
s(V17*D
p619
L4L
L-9L
tp620
g8
s(g340
L11L
L-9L
tp621
g3
s(V12*ADS
p622
L8L
L-9L
tp623
g3
s(g514
L21L
Ntp624
Ns(V12*DS
p625
L9L
L-9L
tp626
g3
s(L14L
L22L
Ntp627
Ns(g291
L11L
L-9L
tp628
g3
s(V15*D
p629
L6L
L-9L
tp630
g8
s(L15L
L25L
Ntp631
Ns(V9*
p632
L6L
L-9L
tp633
g3
s(V8*D
p634
L2L
L-9L
tp635
g3
s(V18*DS
p636
L2L
L-9L
tp637
g8
s(V13*A
p638
L8L
L-9L
tp639
g3
s(V20*
p640
L2L
L-9L
tp641
g8
s(V18*A
p642
L3L
L-9L
tp643
g8
s(V9*
p644
L11L
L-9L
tp645
g3
s(V20*DS
p646
L5L
L-9L
tp647
g8
s(L18L
L24L
Ntp648
Ns(V18*
p649
L11L
L-9L
tp650
g8
s(V16*
p651
L7L
L-9L
tp652
g3
s(V9*D
p653
L2L
L-9L
tp654
g3
s(V14*
p655
L7L
L-9L
tp656
g3
s(V16*AD
p657
L11L
L-9L
tp658
g3
s(L15L
L21L
Ntp659
Ns(V11*
p660
L9L
L-9L
tp661
g3
s(V8*
p662
L7L
L-9L
tp663
g3
s(g649
L21L
Ntp664
Ns(L21L
NNtp665
Ns(V12*D
p666
L3L
L-9L
tp667
g3
s(V11*D
p668
L7L
L-9L
tp669
g284
s(V6*
p670
L8L
L-9L
tp671
g3
s(V14*A
p672
L8L
L-9L
tp673
g3
s(V18*A
p674
L21L
Ntp675
Ns(V15*A
p676
L4L
L-9L
tp677
g3
s(V27*
p678
NNtp679
Ns(L8L
L18L
Ntp680
Ns(V21*A
p681
L3L
L-9L
tp682
g8
s(L8L
L21L
Ntp683
Ns(V20*D
p684
L8L
L-9L
tp685
g8
s(g113
L11L
L-9L
tp686
g3
s(V15*A
p687
L11L
L-9L
tp688
g3
s(V21*
p689
L9L
L-9L
tp690
g8
s(V20*AD
p691
L2L
L-9L
tp692
g8
s(L6L
L19L
Ntp693
Ns(L6L
L25L
Ntp694
Ns(V10*DS
p695
L6L
L-9L
tp696
g284
s(g309
L21L
Ntp697
Ns(V10*
p698
L8L
L-9L
tp699
g3
s(V17*AD
p700
L21L
Ntp701
Ns(V14*AD
p702
L9L
L-9L
tp703
g3
s(V19*D
p704
L4L
L-9L
tp705
g8
s(V14*A
p706
L9L
L-9L
tp707
g3
s(V14*AD
p708
L6L
L-9L
tp709
g3
s(V19*D
p710
L11L
L-9L
tp711
g8
s(V16*D
p712
L5L
L-9L
tp713
g8
s(V6*D
p714
L5L
L-9L
tp715
g3
s(V18*D
p716
L8L
L-9L
tp717
g8
s(g351
L21L
Ntp718
Ns(V16*A
p719
L7L
L-9L
tp720
g3
s(V17*
p721
L7L
L-9L
tp722
g8
s(V13*D
p723
L3L
L-9L
tp724
g3
s(V12*DS
p725
L5L
L-9L
tp726
g3
s(V6*D
p727
L10L
L-9L
tp728
g3
s(V10*D
p729
L9L
L-9L
tp730
g3
s(V5*D
p731
L10L
L-9L
tp732
g3
s(V17*D
p733
L5L
L-9L
tp734
g8
s(V12*ADS
p735
L9L
L-9L
tp736
g3
s(V15*D
p737
L10L
L-9L
tp738
g3
s(L20L
L25L
Ntp739
Ns(V16*
p740
L10L
L-9L
tp741
g3
s(L9L
L17L
Ntp742
Ns(V12*DS
p743
L8L
L-9L
tp744
g3
s(L9L
L22L
Ntp745
Ns(V15*D
p746
L5L
L-9L
tp747
g8
s(V18*AD
p748
L10L
L-9L
tp749
g3
s(V14*DS
p750
L3L
L-9L
tp751
g3
s(V9*
p752
L7L
L-9L
tp753
g3
s(V13*A
p754
L9L
L-9L
tp755
g3
s(V20*
p756
L3L
L-9L
tp757
g8
s(V9*
p758
L8L
L-9L
tp759
g3
s(V20*A
p760
L3L
L-9L
tp761
g8
s(V17*AD
p762
L8L
L-9L
tp763
g3
s(V20*DS
p764
L2L
L-9L
tp765
g8
s(V18*
p766
L10L
L-9L
tp767
g8
s(L25L
NNtp768
Ns(L8L
L24L
Ntp769
Ns(L14L
L20L
Ntp770
Ns(V16*
p771
L6L
L-9L
tp772
g8
s(V24*
p773
NNtp774
Ns(V16*AD
p775
L10L
L-9L
tp776
g3
s(V17*D
p777
L21L
Ntp778
Ns(L26L
NNtp779
Ns(V11*
p780
L8L
L-9L
tp781
g3
s(L21L
L26L
Ntp782
Ns(L21L
L19L
Ntp783
Ns(V17*A
p784
L6L
L-9L
tp785
g3
s(V8*
p786
L4L
L-9L
tp787
g3
s(V18*A
p788
L8L
L-9L
tp789
g8
s(L11L
L19L
Ntp790
Ns(L11L
L20L
Ntp791
Ns(g552
L21L
Ntp792
Ns(V12*D
p793
L2L
L-9L
tp794
g3
s(L14L
L18L
Ntp795
Ns(L4L
L23L
Ntp796
Ns(V11*D
p797
L6L
L-9L
tp798
g284
s(V6*
p799
L9L
L-9L
tp800
g3
s(V13*AD
p801
L2L
L-9L
tp802
g3
s(L18L
L21L
Ntp803
Ns(V15*A
p804
L7L
L-9L
tp805
g3
s(V21*
p806
L5L
L-9L
tp807
g8
s(L15L
L19L
Ntp808
Ns(V17*A
p809
L10L
L-9L
tp810
g3
s(V21*
p811
L8L
L-9L
tp812
g8
s(V20*AD
p813
L3L
L-9L
tp814
g8
s(V8*
p815
L5L
L-9L
tp816
g3
s(V10*DS
p817
L5L
L-9L
tp818
g284
s(V10*
p819
L11L
L-9L
tp820
g3
s(V16*A
p821
L21L
Ntp822
Ns(L6L
L20L
Ntp823
Ns(V14*AD
p824
L10L
L-9L
tp825
g3
s(V19*D
p826
L7L
L-9L
tp827
g8
s(V16*D
p828
L9L
L-9L
tp829
g3
s(L8L
L26L
Ntp830
Ns(V4*DS
p831
L6L
L-9L
tp832
g3
s(L12L
L24L
Ntp833
Ns(V14*A
p834
L6L
L-9L
tp835
g3
s(V12*
p836
L3L
L-9L
tp837
g3
s(V16*D
p838
L4L
L-9L
tp839
g8
s(V6*D
p840
L6L
L-9L
tp841
g3
s(V18*D
p842
L9L
L-9L
tp843
g8
s(V16*A
p844
L6L
L-9L
tp845
g3
s(V12*DS
p846
L4L
L-9L
tp847
g3
s(V5*D
p848
L9L
L-9L
tp849
g3
s(V10*D
p850
L10L
L-9L
tp851
g3
s(V14*D
p852
L11L
L-9L
tp853
g3
s(V17*D
p854
L6L
L-9L
tp855
g8
s(V15*D
p856
L9L
L-9L
tp857
g3
s(V12*ADS
p858
L10L
L-9L
tp859
g3
s(V18*AD
p860
L6L
L-9L
tp861
g284
s(L27L
NNtp862
Ns(g424
L11L
L-9L
tp863
g3
s(L10L
L23L
Ntp864
Ns(V6*DS
p865
L2L
L-9L
tp866
g3
s(g167
L11L
L-9L
tp867
g3
s(V14*DS
p868
L2L
L-9L
tp869
g3
s(V9*
p870
L4L
L-9L
tp871
g3
s(V16*DS
p872
L6L
L-9L
tp873
g8
s(V20*A
p874
L2L
L-9L
tp875
g8
s(g852
L21L
Ntp876
Ns(V12*
p877
L2L
L-9L
tp878
g3
s(L9L
L25L
Ntp879
Ns(V17*AD
p880
L9L
L-9L
tp881
g3
s(V20*DS
p882
L3L
L-9L
tp883
g8
s(V19*
p884
L8L
L-9L
tp885
g8
s(V18*
p886
L9L
L-9L
tp887
g8
s(L9L
L23L
Ntp888
Ns(L9L
L20L
Ntp889
Ns(V5*D
p890
L8L
L-9L
tp891
g3
s(V10*D
p892
L11L
L-9L
tp893
g3
s(V17*D
p894
L7L
L-9L
tp895
g8
s(V7*D
p896
L7L
L-9L
tp897
g3
s(V12*ADS
p898
L11L
L-9L
tp899
g3
s(V16*AD
p900
L9L
L-9L
tp901
g3
s(L16L
L19L
Ntp902
Ns(V15*A
p903
L10L
L-9L
tp904
g3
s(V11*
p905
L11L
L-9L
tp906
g3
s(L11L
L24L
Ntp907
Ns(V18*A
p908
L9L
L-9L
tp909
g3
s(V21*
p910
L21L
Ntp911
Ns(L29L
NNtp912
Ns(V11*D
p913
L5L
L-9L
tp914
g284
s(V6*
p915
L10L
L-9L
tp916
g3
s(V14*AD
p917
L7L
L-9L
tp918
g3
s(V19*D
p919
L10L
L-9L
tp920
g8
s(V20*D
p921
L3L
L-9L
tp922
g8
s(L21L
L24L
Ntp923
Ns(V15*A
p924
L6L
L-9L
tp925
g3
s(L14L
L25L
Ntp926
Ns(V21*
p927
L4L
L-9L
tp928
g8
s(L10L
L18L
Ntp929
Ns(V6*D
p930
L11L
L-9L
tp931
g3
s(L10L
L17L
Ntp932
Ns(V11*
p933
L10L
L-9L
tp934
g3
s(V8*DS
p935
L3L
L-9L
tp936
g3
s(g910
L11L
L-9L
tp937
g8
s(V20*AD
p938
L4L
L-9L
tp939
g8
s(V8*
p940
L10L
L-9L
tp941
g3
s(V15*D
p942
L4L
L-9L
tp943
g3
s(V10*DS
p944
L4L
L-9L
tp945
g284
s(V10*
p946
L10L
L-9L
tp947
g3
s(V4*DS
p948
L10L
L-9L
tp949
g3
s(L8L
L17L
Ntp950
Ns(L18L
L19L
Ntp951
Ns(g198
L11L
L-9L
tp952
g3
s(V19*D
p953
L6L
L-9L
tp954
g8
s(V16*D
p955
L8L
L-9L
tp956
g3
s(V19*A
p957
L9L
L-9L
tp958
g8
s(V9*
p959
L9L
L-9L
tp960
g3
s(V4*DS
p961
L7L
L-9L
tp962
g3
s(L21L
L23L
Ntp963
Ns(V14*A
p964
L7L
L-9L
tp965
g3
s(V16*D
p966
L7L
L-9L
tp967
g3
s(V6*D
p968
L7L
L-9L
tp969
g3
s(V18*D
p970
L10L
L-9L
tp971
g8
s(V21*A
p972
L21L
Ntp973
Ns(V16*A
p974
L5L
L-9L
tp975
g3
s(V12*DS
p976
L7L
L-9L
tp977
g3
s(V14*D
p978
L10L
L-9L
tp979
g3
s(V15*D
p980
L8L
L-9L
tp981
g3
s(V18*AD
p982
L7L
L-9L
tp983
g8
s(V6*DS
p984
L3L
L-9L
tp985
g3
s(V13*A
p986
L2L
L-9L
tp987
g3
s(V18*AD
p988
L8L
L-9L
tp989
g8
s(V14*DS
p990
L5L
L-9L
tp991
g3
s(V9*
p992
L5L
L-9L
tp993
g3
s(L16L
L26L
Ntp994
Ns(V19*
p995
L4L
L-9L
tp996
g8
s(L9L
L18L
Ntp997
Ns(V16*DS
p998
L7L
L-9L
tp999
g3
s(V20*A
p1000
L5L
L-9L
tp1001
g8
s(V13*AD
p1002
L3L
L-9L
tp1003
g3
s(V17*AD
p1004
L10L
L-9L
tp1005
g3
s(V19*
p1006
L9L
L-9L
tp1007
g8
s(V18*
p1008
L8L
L-9L
tp1009
g8
s(V16*D
p1010
L21L
Ntp1011
Ns(V7*D
p1012
L11L
L-9L
tp1013
g3
s(V16*A
p1014
L4L
L-9L
tp1015
g3
s(V10*D
p1016
L4L
L-9L
tp1017
g284
s(V5*D
p1018
L7L
L-9L
tp1019
g3
s(V17*D
p1020
L8L
L-9L
tp1021
g8
s(V7*D
p1022
L6L
L-9L
tp1023
g3
s(V12*ADS
p1024
L4L
L-9L
tp1025
g3
s(V16*AD
p1026
L8L
L-9L
tp1027
g3
s(V14*
p1028
L2L
L-9L
tp1029
g3
s(L23L
NNtp1030
Ns(L8L
L20L
Ntp1031
Ns(V18*A
p1032
L10L
L-9L
tp1033
g3
s(L8L
L23L
Ntp1034
Ns(V11*D
p1035
L4L
L-9L
tp1036
g284
s(L21L
L20L
Ntp1037
Ns(V6*
p1038
L11L
L-9L
tp1039
g3
s(g700
L11L
L-9L
tp1040
g3
s(L16L
L21L
Ntp1041
Ns(V20*D
p1042
L2L
L-9L
tp1043
g8
s(L19L
L17L
Ntp1044
Ns(V21*
p1045
L7L
L-9L
tp1046
g8
s(V20*AD
p1047
L8L
L-9L
tp1048
g8
s(V14*
p1049
L3L
L-9L
tp1050
g3
s(g1
L21L
Ntp1051
Ns(V19*AD
p1052
L3L
L-9L
tp1053
g8
s(V11*
p1054
L5L
L-9L
tp1055
g3
s(V12*DS
p1056
L10L
L-9L
tp1057
g3
s(V20*AD
p1058
L5L
L-9L
tp1059
g8
s(L20L
L24L
Ntp1060
Ns(V19*A
p1061
L5L
L-9L
tp1062
g8
s(g674
L11L
L-9L
tp1063
g3
s(V8*
p1064
L11L
L-9L
tp1065
g3
s(V10*DS
p1066
L3L
L-9L
tp1067
g284
s(L20L
L18L
Ntp1068
Ns(g107
L11L
L-9L
tp1069
g3
s(L15L
L23L
Ntp1070
Ns(V19*A
p1071
L8L
L-9L
tp1072
g8
s(g1010
L11L
L-9L
tp1073
g3
s(g202
L21L
Ntp1074
Ns(V4*DS
p1075
L4L
L-9L
tp1076
g3
s(g375
L11L
L-9L
tp1077
g3
s(V14*A
p1078
L4L
L-9L
tp1079
g3
s(g118
L11L
L-9L
tp1080
g8
s(V17*
p1081
L2L
L-9L
tp1082
g8
s(V13*D
p1083
L6L
L-9L
tp1084
g3
s(V12*DS
p1085
L6L
L-9L
tp1086
g3
s(L17L
L22L
Ntp1087
Ns(L8L
L25L
Ntp1088
Ns(V14*D
p1089
L9L
L-9L
tp1090
g3
s(L20L
L20L
Ntp1091
Ns(V18*AD
p1092
L4L
L-9L
tp1093
g8
s(V14*DS
p1094
L9L
L-9L
tp1095
g3
s(g59
L21L
Ntp1096
Ns(L14L
L26L
Ntp1097
Ns(V13*A
p1098
L3L
L-9L
tp1099
g3
s(V14*DS
p1100
L4L
L-9L
tp1101
g3
s(V9*
p1102
L2L
L-9L
tp1103
g3
s(V20*A
p1104
L9L
L-9L
tp1105
g8
s(V20*
p1106
L6L
L-9L
tp1107
g8
s(g898
L21L
Ntp1108
Ns(L21L
L17L
Ntp1109
Ns(V19*
p1110
L5L
L-9L
tp1111
g8
s(V15*
p1112
L3L
L-9L
tp1113
g3
s(g892
L21L
Ntp1114
Ns(V16*DS
p1115
L4L
L-9L
tp1116
g8
s(V20*A
p1117
L4L
L-9L
tp1118
g8
s(V19*
p1119
L10L
L-9L
tp1120
g8
s(L15L
L24L
Ntp1121
Ns(V7*D
p1122
L10L
L-9L
tp1123
g3
s(g821
L11L
L-9L
tp1124
g3
s(L19L
L24L
Ntp1125
Ns(V16*
p1126
L3L
L-9L
tp1127
g8
s(L4L
L17L
Ntp1128
Ns(L19L
L18L
Ntp1129
Ns(V10*D
p1130
L5L
L-9L
tp1131
g284
s(V5*D
p1132
L6L
L-9L
tp1133
g3
s(V14*D
p1134
L8L
L-9L
tp1135
g3
s(V7*D
p1136
L5L
L-9L
tp1137
g3
s(V17*D
p1138
L9L
L-9L
tp1139
g8
s(V12*ADS
p1140
L5L
L-9L
tp1141
g3
s(L9L
L26L
Ntp1142
Ns(V8*DS
p1143
L2L
L-9L
tp1144
g3
s(L18L
L25L
Ntp1145
Ns(V21*
p1146
L10L
L-9L
tp1147
g8
s(g510
L21L
Ntp1148
Ns(V13*AD
p1149
L8L
L-9L
tp1150
g3
s(L16L
L25L
Ntp1151
Ns(V16*DS
p1152
L5L
L-9L
tp1153
g8
s(V11*D
p1154
L3L
L-9L
tp1155
g284
s(V23*
p1156
NNtp1157
Ns(V17*AD
p1158
L4L
L-9L
tp1159
g3
s(V16*D
p1160
L6L
L-9L
tp1161
g8
s(V21*A
p1162
L10L
L-9L
tp1163
g8
s(V16*
p1164
L2L
L-9L
tp1165
g8
s(V7*
p1166
L11L
L-9L
tp1167
g3
s(V21*
p1168
L6L
L-9L
tp1169
g8
s(L8L
L22L
Ntp1170
Ns(V20*AD
p1171
L9L
L-9L
tp1172
g8
s(V19*AD
p1173
L2L
L-9L
tp1174
g8
s(L20L
L23L
Ntp1175
Ns(V11*
p1176
L4L
L-9L
tp1177
g3
s(V20*AD
p1178
L6L
L-9L
tp1179
g8
s(V8*
p1180
L8L
L-9L
tp1181
g3
s(V19*A
p1182
L4L
L-9L
tp1183
g8
s(V18*A
p1184
L4L
L-9L
tp1185
g8
s(V18*AD
p1186
L9L
L-9L
tp1187
g3
s(V20*AD
p1188
L21L
Ntp1189
Ns(V10*DS
p1190
L2L
L-9L
tp1191
g284
s(V4*DS
p1192
L8L
L-9L
tp1193
g3
s(L18L
L18L
Ntp1194
Ns(V15*AD
p1195
L7L
L-9L
tp1196
g3
s(L10L
L21L
Ntp1197
Ns(V19*A
p1198
L11L
L-9L
tp1199
g8
s(V16*D
p1200
L10L
L-9L
tp1201
g3
s(V15*AD
p1202
L10L
L-9L
tp1203
g3
s(V14*A
p1204
L5L
L-9L
tp1205
g3
s(V13*D
p1206
L10L
L-9L
tp1207
g3
s(L17L
L26L
Ntp1208
Ns(g710
L21L
Ntp1209
Ns(L19L
L23L
Ntp1210
Ns(V13*D
p1211
L7L
L-9L
tp1212
g3
s(L20L
L26L
Ntp1213
Ns(V18*AD
p1214
L5L
L-9L
tp1215
g8
s(L9L
L21L
Ntp1216
Ns(V14*DS
p1217
L8L
L-9L
tp1218
g3
s(V20*
p1219
L10L
L-9L
tp1220
g8
s(V14*DS
p1221
L7L
L-9L
tp1222
g3
s(g687
L21L
Ntp1223
Ns(V8*D
p1224
L9L
L-9L
tp1225
g3
s(V18*DS
p1226
L9L
L-9L
tp1227
g8
s(V9*
p1228
L3L
L-9L
tp1229
g3
s(V20*A
p1230
L8L
L-9L
tp1231
g8
s(g657
L21L
Ntp1232
Ns(V20*
p1233
L7L
L-9L
tp1234
g8
s(V19*
p1235
L6L
L-9L
tp1236
g8
s(V15*
p1237
L2L
L-9L
tp1238
g3
s(L15L
L20L
Ntp1239
Ns(V18*
p1240
L3L
L-9L
tp1241
g8
s(V20*A
p1242
L7L
L-9L
tp1243
g8
s(V7*D
p1244
L9L
L-9L
tp1245
g3
s(V16*A
p1246
L10L
L-9L
tp1247
g3
s(V16*AD
p1248
L3L
L-9L
tp1249
g3
s(V9*D
p1250
L9L
L-9L
tp1251
g3
s(V5*D
p1252
L5L
L-9L
tp1253
g3
s(V10*D
p1254
L6L
L-9L
tp1255
g284
s(V14*D
p1256
L7L
L-9L
tp1257
g3
s(V17*D
p1258
L10L
L-9L
tp1259
g8
s(L21L
L2L
L-9L
tp1260
g8
s(V12*ADS
p1261
L6L
L-9L
tp1262
g3
s(L21L
L25L
Ntp1263
Ns(L14L
L21L
Ntp1264
Ns(V20*
p1265
L21L
Ntp1266
Ns(V12*D
p1267
L11L
L-9L
tp1268
g3
s(V13*AD
p1269
L9L
L-9L
tp1270
g3
s(L19L
L26L
Ntp1271
Ns(V13*
p1272
L2L
L-9L
tp1273
g3
s(V16*DS
p1274
L10L
L-9L
tp1275
g3
s(V4*DS
p1276
L5L
L-9L
tp1277
g3
s(V11*D
p1278
L2L
L-9L
tp1279
g284
s(L8L
L19L
Ntp1280
Ns(V17*AD
p1281
L5L
L-9L
tp1282
g284
s(V7*
p1283
L7L
L-9L
tp1284
g3
s(g972
L11L
L-9L
tp1285
g8
s(V17*
p1286
L3L
L-9L
tp1287
g8
s(V15*A
p1288
L3L
L-9L
tp1289
g3
s(V7*
p1290
L10L
L-9L
tp1291
g3
s(V8*DS
p1292
L9L
L-9L
tp1293
g3
s(g1267
L21L
Ntp1294
Ns(V20*AD
p1295
L10L
L-9L
tp1296
g8
s(V19*AD
p1297
L5L
L-9L
tp1298
g8
s(V11*
p1299
L7L
L-9L
tp1300
g3
s(L16L
L17L
Ntp1301
Ns(V8*
p1302
L9L
L-9L
tp1303
g3
s(V19*A
p1304
L7L
L-9L
tp1305
g8
s(V18*A
p1306
L5L
L-9L
tp1307
g8
s(g1198
L21L
Ntp1308
Ns(V4*DS
p1309
L9L
L-9L
tp1310
g3
s(V15*AD
p1311
L6L
L-9L
tp1312
g284
s(V19*D
p1313
L3L
L-9L
tp1314
g8
s(L15L
L18L
Ntp1315
Ns(V15*AD
p1316
L9L
L-9L
tp1317
g3
s(V14*A
p1318
L2L
L-9L
tp1319
g3
s(g466
L11L
L-9L
tp1320
g3
s(g253
L11L
L-9L
tp1321
g8
s(V6*D
p1322
L2L
L-9L
tp1323
g3
s(L20L
L22L
Ntp1324
Ns(L20L
L17L
Ntp1325
Ns(L22L
NNtp1326
Ns(V15*A
p1327
L2L
L-9L
tp1328
g3
s(V13*D
p1329
L4L
L-9L
tp1330
g3
s(V7*D
p1331
L4L
L-9L
tp1332
g3
s(V18*AD
p1333
L2L
L-9L
tp1334
g8
s(g191
L11L
L-9L
tp1335
g3
s(V18*DS
p1336
L5L
L-9L
tp1337
g8
s(V8*D
p1338
L5L
L-9L
tp1339
g3
s(V6*DS
p1340
L6L
L-9L
tp1341
g3
s(g1265
L11L
L-9L
tp1342
g8
s(L17L
L18L
Ntp1343
Ns(V8*D
p1344
L8L
L-9L
tp1345
g3
s(V18*DS
p1346
L8L
L-9L
tp1347
g8
s(g40
L11L
L-9L
tp1348
g8
s(L17L
L24L
Ntp1349
Ns(V19*D
p1350
L2L
L-9L
tp1351
g8
s(V20*
p1352
L4L
L-9L
tp1353
g8
s(L19L
L25L
Ntp1354
Ns(V19*
p1355
L7L
L-9L
tp1356
g8
s(V18*
p1357
L2L
L-9L
tp1358
g8
s(g930
L21L
Ntp1359
Ns(V9*D
p1360
L5L
L-9L
tp1361
g3
s(V6*D
p1362
L3L
L-9L
tp1363
g3
s(g255
L21L
Ntp1364
Ns(V7*D
p1365
L8L
L-9L
tp1366
g3
s(V16*A
p1367
L9L
L-9L
tp1368
g3
s(V16*AD
p1369
L2L
L-9L
tp1370
g3
s(L21L
L21L
Ntp1371
Ns(V9*D
p1372
L8L
L-9L
tp1373
g3
s(L21L
L18L
Ntp1374
Ns(V5*D
p1375
L4L
L-9L
tp1376
g3
s(V10*D
p1377
L7L
L-9L
tp1378
g3
s(V14*D
p1379
L6L
L-9L
tp1380
g3
s(g777
L11L
L-9L
tp1381
g3
s(L21L
L3L
L-9L
tp1382
g8
s(V12*ADS
p1383
L7L
L-9L
tp1384
g3
s(L14L
L19L
Ntp1385
Ns(L16L
L23L
Ntp1386
Ns(V20*AD
p1387
L7L
L-9L
tp1388
g8
s(L4L
L21L
Ntp1389
Ns(L12L
L22L
Ntp1390
Ns(g535
L21L
Ntp1391
Ns(V12*D
p1392
L10L
L-9L
tp1393
g3
s(L12L
L17L
Ntp1394
Ns(V19*A
p1395
L10L
L-9L
tp1396
g8
s(V13*AD
p1397
L10L
L-9L
tp1398
g3
s(V13*
p1399
L3L
L-9L
tp1400
g3
s(g214
L11L
L-9L
tp1401
g3
s(g1012
L21L
Ntp1402
Ns(V17*AD
p1403
L6L
L-9L
tp1404
g284
s(V7*
p1405
L6L
L-9L
tp1406
g3
s(V21*A
p1407
L8L
L-9L
tp1408
g8
s(V20*D
p1409
L7L
L-9L
tp1410
g8
s(V19*AD
p1411
L9L
L-9L
tp1412
g8
s(V7*
p1413
L9L
L-9L
tp1414
g3
s(V8*DS
p1415
L8L
L-9L
tp1416
g3
s(g1188
L11L
L-9L
tp1417
g8
s(V19*AD
p1418
L4L
L-9L
tp1419
g8
s(V11*
p1420
L6L
L-9L
tp1421
g3
s(V10*
p1422
L3L
L-9L
tp1423
g3
s(L6L
L22L
Ntp1424
Ns(V19*A
p1425
L6L
L-9L
tp1426
g8
s(V18*A
p1427
L6L
L-9L
tp1428
g8
s(V14*DS
p1429
L6L
L-9L
tp1430
g3
s(V15*AD
p1431
L5L
L-9L
tp1432
g3
s.