(dp0
(L13L
L21L
Ntp1
Ns(V16*
p2
L4L
L-6L
tp3
VStay
p4
s(V10*DS
p5
L5L
L-6L
tp6
VDouble
p7
s(L13L
L18L
Ntp8
Ns(V10*
p9
L11L
L-6L
tp10
VDraw
p11
s(V20*D
p12
L10L
L-6L
tp13
g4
s(L13L
L24L
Ntp14
Ns(V14*A
p15
L6L
L-6L
tp16
g11
s(V19*
p17
L8L
L-6L
tp18
g4
s(L6L
L26L
Ntp19
Ns(V10*DS
p20
L8L
L-6L
tp21
g11
s(V20*D
p22
L3L
L-6L
tp23
g4
s(V10*
p24
L6L
L-6L
tp25
g11
s(V16*A
p26
L5L
L-6L
tp27
g11
s(V11*D
p28
L21L
Ntp29
Ns(L15L
L26L
Ntp30
Ns(V15*
p31
L8L
L-6L
tp32
g11
s(V7*D
p33
L7L
L-6L
tp34
g11
s(V4*DS
p35
L3L
L-6L
tp36
g11
s(L19L
L19L
Ntp37
Ns(L19L
L20L
Ntp38
Ns(V20*A
p39
L21L
Ntp40
Ns(V15*
p41
L4L
L-6L
tp42
g4
s(V6*DS
p43
L2L
L-6L
tp44
g11
s(V17*
p45
L5L
L-6L
tp46
g4
s(V4*DS
p47
L10L
L-6L
tp48
g11
s(L17L
L21L
Ntp49
Ns(V17*A
p50
L8L
L-6L
tp51
g11
s(V
p52
g52
L-6L
tp53
VBegin
p54
s(V17*AD
p55
L10L
L-6L
tp56
g11
s(V18*
p57
L9L
L-6L
tp58
g4
s(V13*A
p59
L11L
L-6L
tp60
g11
s(V12*DS
p61
L7L
L-6L
tp62
g11
s(V14*
p63
L2L
L-6L
tp64
g11
s(V12*D
p65
L4L
L-6L
tp66
g11
s(V16*AD
p67
L9L
L-6L
tp68
g11
s(V25*
p69
NNtp70
Ns(V8*DS
p71
L3L
L-6L
tp72
g11
s(V20*DS
p73
L5L
L-6L
tp74
g4
s(V20*AD
p75
L4L
L-6L
tp76
g4
s(V21*
p77
L11L
L-6L
tp78
g4
s(V8*DS
p79
L21L
Ntp80
Ns(V18*
p81
L4L
L-6L
tp82
g4
s(V13*A
p83
L2L
L-6L
tp84
g11
s(V18*A
p85
L10L
L-6L
tp86
g11
s(L4L
L24L
Ntp87
Ns(V12*
p88
L21L
Ntp89
Ns(V17*AD
p90
L3L
L-6L
tp91
g11
s(V20*DS
p92
L9L
L-6L
tp93
g4
s(L4L
L18L
Ntp94
Ns(V14*
p95
L7L
L-6L
tp96
g11
s(V19*A
p97
L9L
L-6L
tp98
g4
s(V7*D
p99
L2L
L-6L
tp100
g11
s(V16*AD
p101
L4L
L-6L
tp102
g11
s(V19*
p103
L4L
L-6L
tp104
g4
s(L14L
L17L
Ntp105
Ns(V15*A
p106
L8L
L-6L
tp107
g11
s(V8*DS
p108
L6L
L-6L
tp109
g11
s(V11*D
p110
L5L
L-6L
tp111
g7
s(V14*
p112
L11L
L-6L
tp113
g11
s(L18L
L22L
Ntp114
Ns(V8*
p115
L7L
L-6L
tp116
g11
s(V16*D
p117
L7L
L-6L
tp118
g11
s(V6*
p119
L10L
L-6L
tp120
g11
s(V7*D
p121
L11L
L-6L
tp122
g11
s(V18*A
p123
L3L
L-6L
tp124
g4
s(V4*DS
p125
L21L
Ntp126
Ns(V11*D
p127
L8L
L-6L
tp128
g7
s(V10*DS
p129
L21L
Ntp130
Ns(V14*AD
p131
L5L
L-6L
tp132
g11
s(V19*D
p133
L8L
L-6L
tp134
g4
s(V16*D
p135
L2L
L-6L
tp136
g4
s(V17*A
p137
L21L
Ntp138
Ns(V18*D
p139
L21L
Ntp140
Ns(L4L
L20L
Ntp141
Ns(V6*
p142
L7L
L-6L
tp143
g11
s(V8*
p144
L10L
L-6L
tp145
g11
s(V18*AD
p146
L8L
L-6L
tp147
g4
s(V14*DS
p148
L5L
L-6L
tp149
g4
s(V6*D
p150
L9L
L-6L
tp151
g11
s(V20*A
p152
L5L
L-6L
tp153
g4
s(V15*D
p154
L6L
L-6L
tp155
g4
s(L15L
L22L
Ntp156
Ns(V18*D
p157
L10L
L-6L
tp158
g4
s(V21*
p159
L7L
L-6L
tp160
g4
s(V20*AD
p161
L8L
L-6L
tp162
g4
s(V9*
p163
L11L
L-6L
tp164
g11
s(V14*D
p165
L9L
L-6L
tp166
g11
s(L13L
L19L
Ntp167
Ns(L20L
L21L
Ntp168
Ns(L6L
L17L
Ntp169
Ns(L17L
L25L
Ntp170
Ns(V18*D
p171
L7L
L-6L
tp172
g4
s(V19*A
p173
L5L
L-6L
tp174
g4
s(V28*
p175
NNtp176
Ns(V9*
p177
L2L
L-6L
tp178
g11
s(V15*A
p179
L4L
L-6L
tp180
g11
s(V10*D
p181
L9L
L-6L
tp182
g11
s(V5*D
p183
L10L
L-6L
tp184
g11
s(V17*D
p185
L5L
L-6L
tp186
g4
s(V12*ADS
p187
L9L
L-6L
tp188
g11
s(V16*D
p189
L11L
L-6L
tp190
g11
s(V16*DS
p191
L4L
L-6L
tp192
g4
s(V18*AD
p193
L21L
Ntp194
Ns(L19L
L21L
Ntp195
Ns(L19L
L22L
Ntp196
Ns(V8*D
p197
L2L
L-6L
tp198
g11
s(V18*DS
p199
L2L
L-6L
tp200
g4
s(L16L
L22L
Ntp201
Ns(V16*
p202
L3L
L-6L
tp203
g4
s(V14*AD
p204
L9L
L-6L
tp205
g11
s(V19*D
p206
L4L
L-6L
tp207
g4
s(V10*D
p208
L4L
L-6L
tp209
g7
s(V5*D
p210
L7L
L-6L
tp211
g11
s(V17*D
p212
L8L
L-6L
tp213
g4
s(V12*ADS
p214
L4L
L-6L
tp215
g11
s(V18*AD
p216
L4L
L-6L
tp217
g4
s(V14*DS
p218
L9L
L-6L
tp219
g11
s(L21L
L22L
Ntp220
Ns(V6*D
p221
L5L
L-6L
tp222
g11
s(V16*
p223
L6L
L-6L
tp224
g4
s(V10*DS
p225
L3L
L-6L
tp226
g7
s(V9*D
p227
L2L
L-6L
tp228
g11
s(V20*A
p229
L9L
L-6L
tp230
g4
s(V21*A
p231
L3L
L-6L
tp232
g4
s(V14*DS
p233
L21L
Ntp234
Ns(V20*D
p235
L8L
L-6L
tp236
g4
s(V13*AD
p237
L8L
L-6L
tp238
g11
s(V15*D
p239
L10L
L-6L
tp240
g11
s(V16*
p241
L10L
L-6L
tp242
g11
s(V11*
p243
L8L
L-6L
tp244
g11
s(V4*DS
p245
L4L
L-6L
tp246
g11
s(L12L
L21L
Ntp247
Ns(V15*AD
p248
L11L
L-6L
tp249
g11
s(V14*AD
p250
L21L
Ntp251
Ns(V21*A
p252
L10L
L-6L
tp253
g4
s(V9*
p254
L7L
L-6L
tp255
g11
s(V17*
p256
L2L
L-6L
tp257
g4
s(V13*D
p258
L6L
L-6L
tp259
g11
s(L20L
L19L
Ntp260
Ns(L4L
L26L
Ntp261
Ns(V19*AD
p262
L3L
L-6L
tp263
g4
s(L17L
L19L
Ntp264
Ns(V16*DS
p265
L21L
Ntp266
Ns(V11*
p267
L5L
L-6L
tp268
g11
s(L11L
L21L
Ntp269
Ns(V17*
p270
L7L
L-6L
tp271
g4
s(L11L
L22L
Ntp272
Ns(V17*A
p273
L10L
L-6L
tp274
g11
s(V20*
p275
L6L
L-6L
tp276
g4
s(L6L
L24L
Ntp277
Ns(V6*DS
p278
L21L
Ntp279
Ns(V12*DS
p280
L8L
L-6L
tp281
g11
s(V14*A
p282
L4L
L-6L
tp283
g11
s(V17*A
p284
L6L
L-6L
tp285
g11
s(V19*
p286
L10L
L-6L
tp287
g4
s(L13L
L22L
Ntp288
Ns(V10*DS
p289
L6L
L-6L
tp290
g7
s(V10*
p291
L8L
L-6L
tp292
g11
s(V13*A
p293
L9L
L-6L
tp294
g11
s(V7*D
p295
L5L
L-6L
tp296
g11
s(V14*A
p297
L9L
L-6L
tp298
g11
s(V19*
p299
L21L
Ntp300
Ns(V16*A
p301
L6L
L-6L
tp302
g11
s(L24L
NNtp303
Ns(V13*D
p304
L3L
L-6L
tp305
g11
s(V4*DS
p306
L8L
L-6L
tp307
g11
s(V15*AD
p308
L7L
L-6L
tp309
g11
s(L12L
L19L
Ntp310
Ns(L12L
L26L
Ntp311
Ns(V15*
p312
L3L
L-6L
tp313
g4
s(V11*D
p314
L3L
L-6L
tp315
g7
s(V13*D
p316
L10L
L-6L
tp317
g11
s(L17L
L17L
Ntp318
Ns(V16*A
p319
L11L
L-6L
tp320
g11
s(V7*
p321
L11L
L-6L
tp322
g11
s(V20*
p323
L3L
L-6L
tp324
g4
s(g112
L21L
Ntp325
Ns(V12*D
p326
L2L
L-6L
tp327
g11
s(V17*AD
p328
L9L
L-6L
tp329
g11
s(V20*AD
p330
L6L
L-6L
tp331
g4
s(V20*DS
p332
L3L
L-6L
tp333
g4
s(V18*
p334
L10L
L-6L
tp335
g4
s(L10L
L22L
Ntp336
Ns(V20*
p337
L10L
L-6L
tp338
g4
s(V12*D
p339
L11L
L-6L
tp340
g11
s(V12*DS
p341
L4L
L-6L
tp342
g11
s(L6L
L18L
Ntp343
Ns(V17*
p344
L21L
Ntp345
Ns(V19*A
p346
L11L
L-6L
tp347
g4
s(V16*AD
p348
L10L
L-6L
tp349
g11
s(V19*
p350
L6L
L-6L
tp351
g4
s(V18*
p352
L3L
L-6L
tp353
g4
s(V21*
p354
L8L
L-6L
tp355
g4
s(V20*AD
p356
L3L
L-6L
tp357
g4
s(V18*DS
p358
L21L
Ntp359
Ns(V8*D
p360
L21L
Ntp361
Ns(V17*AD
p362
L4L
L-6L
tp363
g7
s(L13L
L25L
Ntp364
Ns(V18*A
p365
L9L
L-6L
tp366
g11
s(L4L
L22L
Ntp367
Ns(V7*D
p368
L9L
L-6L
tp369
g11
s(V16*AD
p370
L3L
L-6L
tp371
g11
s(V15*A
p372
L3L
L-6L
tp373
g11
s(V8*DS
p374
L9L
L-6L
tp375
g11
s(L18L
L20L
Ntp376
Ns(L18L
L26L
Ntp377
Ns(V11*D
p378
L6L
L-6L
tp379
g7
s(V6*
p380
L9L
L-6L
tp381
g11
s(V16*D
p382
L4L
L-6L
tp383
g4
s(L11L
L26L
Ntp384
Ns(V15*D
p385
L21L
Ntp386
Ns(V8*
p387
L8L
L-6L
tp388
g11
s(V18*A
p389
L4L
L-6L
tp390
g4
s(V14*DS
p391
L7L
L-6L
tp392
g11
s(V15*A
p393
L6L
L-6L
tp394
g11
s(V18*DS
p395
L9L
L-6L
tp396
g4
s(V8*D
p397
L9L
L-6L
tp398
g11
s(L11L
L25L
Ntp399
Ns(V19*D
p400
L3L
L-6L
tp401
g4
s(V15*A
p402
L10L
L-6L
tp403
g11
s(V20*A
p404
L7L
L-6L
tp405
g4
s(V8*
p406
L5L
L-6L
tp407
g11
s(V7*
p408
L7L
L-6L
tp409
g11
s(g193
L11L
L-6L
tp410
g11
s(V6*D
p411
L2L
L-6L
tp412
g11
s(V14*DS
p413
L2L
L-6L
tp414
g11
s(L10L
L26L
Ntp415
Ns(L10L
L25L
Ntp416
Ns(g250
L11L
L-6L
tp417
g11
s(V9*D
p418
L9L
L-6L
tp419
g11
s(V19*D
p420
L6L
L-6L
tp421
g4
s(V20*AD
p422
L10L
L-6L
tp423
g4
s(V20*A
p424
L2L
L-6L
tp425
g4
s(V18*AD
p426
L2L
L-6L
tp427
g4
s(V14*AD
p428
L7L
L-6L
tp429
g11
s(V19*D
p430
L10L
L-6L
tp431
g4
s(V6*D
p432
L7L
L-6L
tp433
g11
s(V18*D
p434
L9L
L-6L
tp435
g4
s(V19*A
p436
L7L
L-6L
tp437
g4
s(V21*
p438
L4L
L-6L
tp439
g4
s(V6*D
p440
L11L
L-6L
tp441
g11
s(g248
L21L
Ntp442
Ns(V14*D
p443
L10L
L-6L
tp444
g11
s(L13L
L20L
Ntp445
Ns(V15*D
p446
L8L
L-6L
tp447
g11
s(V15*D
p448
L4L
L-6L
tp449
g4
s(V9*
p450
L5L
L-6L
tp451
g11
s(L14L
L23L
Ntp452
Ns(V16*D
p453
L8L
L-6L
tp454
g11
s(V5*D
p455
L5L
L-6L
tp456
g11
s(V10*D
p457
L6L
L-6L
tp458
g7
s(V14*D
p459
L7L
L-6L
tp460
g11
s(V16*DS
p461
L7L
L-6L
tp462
g11
s(V17*D
p463
L10L
L-6L
tp464
g4
s(L21L
L2L
L-6L
tp465
g4
s(V19*AD
p466
L5L
L-6L
tp467
g4
s(V12*ADS
p468
L6L
L-6L
tp469
g11
s(g233
L11L
L-6L
tp470
g11
s(V12*
p471
L2L
L-6L
tp472
g11
s(V8*D
p473
L5L
L-6L
tp474
g11
s(V18*DS
p475
L5L
L-6L
tp476
g4
s(L12L
L18L
Ntp477
Ns(L28L
NNtp478
Ns(L16L
L18L
Ntp479
Ns(g39
L11L
L-6L
tp480
g4
s(V5*D
p481
L8L
L-6L
tp482
g11
s(V10*D
p483
L11L
L-6L
tp484
g11
s(V17*D
p485
L7L
L-6L
tp486
g4
s(V13*AD
p487
L10L
L-6L
tp488
g11
s(V12*ADS
p489
L11L
L-6L
tp490
g11
s(V22*
p491
NNtp492
Ns(V18*AD
p493
L7L
L-6L
tp494
g4
s(V13*
p495
L2L
L-6L
tp496
g11
s(V16*DS
p497
L10L
L-6L
tp498
g11
s(V15*AD
p499
L9L
L-6L
tp500
g11
s(V14*A
p501
L2L
L-6L
tp502
g11
s(L9L
L19L
Ntp503
Ns(V9*D
p504
L5L
L-6L
tp505
g11
s(V21*A
p506
L8L
L-6L
tp507
g4
s(V10*DS
p508
L4L
L-6L
tp509
g7
s(V20*D
p510
L7L
L-6L
tp511
g4
s(V12*DS
p512
L21L
Ntp513
Ns(V10*
p514
L10L
L-6L
tp515
g11
s(V13*D
p516
L4L
L-6L
tp517
g11
s(V4*DS
p518
L7L
L-6L
tp519
g11
s(L14L
L24L
Ntp520
Ns(V11*
p521
L7L
L-6L
tp522
g11
s(V13*AD
p523
L3L
L-6L
tp524
g11
s(V6*DS
p525
L6L
L-6L
tp526
g11
s(L13L
L17L
Ntp527
Ns(L13L
L23L
Ntp528
Ns(L6L
L23L
Ntp529
Ns(V20*
p530
L4L
L-6L
tp531
g4
s(V26*
p532
NNtp533
Ns(V11*
p534
L10L
L-6L
tp535
g11
s(V17*
p536
L8L
L-6L
tp537
g4
s(L11L
L18L
Ntp538
Ns(V13*D
p539
L21L
Ntp540
Ns(V19*AD
p541
L9L
L-6L
tp542
g4
s(V12*DS
p543
L3L
L-6L
tp544
g11
s(L18L
L23L
Ntp545
Ns(V14*A
p546
L7L
L-6L
tp547
g11
s(V10*
p548
L3L
L-6L
tp549
g11
s(V19*
p550
L9L
L-6L
tp551
g4
s(V18*
p552
L8L
L-6L
tp553
g4
s(V13*A
p554
L6L
L-6L
tp555
g11
s(V20*D
p556
L2L
L-6L
tp557
g4
s(L15L
L17L
Ntp558
Ns(V12*DS
p559
L6L
L-6L
tp560
g11
s(V15*AD
p561
L5L
L-6L
tp562
g11
s(L10L
L24L
Ntp563
Ns(V7*D
p564
L6L
L-6L
tp565
g11
s(V16*AD
p566
L8L
L-6L
tp567
g11
s(V12*DS
p568
L10L
L-6L
tp569
g11
s(V6*DS
p570
L3L
L-6L
tp571
g11
s(V13*D
p572
L8L
L-6L
tp573
g11
s(g125
L11L
L-6L
tp574
g11
s(L17L
L20L
Ntp575
Ns(V16*A
p576
L9L
L-6L
tp577
g11
s(L12L
L23L
Ntp578
Ns(V7*
p579
L9L
L-6L
tp580
g11
s(L12L
L25L
Ntp581
Ns(V6*DS
p582
L10L
L-6L
tp583
g11
s(V11*D
p584
L4L
L-6L
tp585
g7
s(V6*
p586
L11L
L-6L
tp587
g11
s(V20*
p588
L8L
L-6L
tp589
g4
s(V16*A
p590
L4L
L-6L
tp591
g11
s(V12*D
p592
L9L
L-6L
tp593
g11
s(L11L
L23L
Ntp594
Ns(V20*AD
p595
L5L
L-6L
tp596
g4
s(V13*A
p597
L3L
L-6L
tp598
g11
s(V17*AD
p599
L6L
L-6L
tp600
g7
s(L11L
L17L
Ntp601
Ns(L4L
L25L
Ntp602
Ns(L4L
L19L
Ntp603
Ns(V19*A
p604
L8L
L-6L
tp605
g4
s(g79
L11L
L-6L
tp606
g11
s(L16L
L20L
Ntp607
Ns(V21*
p608
L3L
L-6L
tp609
g4
s(L18L
L17L
Ntp610
Ns(V19*
p611
L5L
L-6L
tp612
g4
s(L9L
L24L
Ntp613
Ns(V17*AD
p614
L11L
L-6L
tp615
g11
s(L13L
L26L
Ntp616
Ns(g139
L11L
L-6L
tp617
g4
s(V7*D
p618
L10L
L-6L
tp619
g11
s(V18*A
p620
L6L
L-6L
tp621
g4
s(L30L
NNtp622
Ns(g360
L11L
L-6L
tp623
g11
s(g358
L11L
L-6L
tp624
g4
s(V21*
p625
L6L
L-6L
tp626
g4
s(V6*
p627
L2L
L-6L
tp628
g11
s(V14*
p629
L3L
L-6L
tp630
g11
s(V8*DS
p631
L2L
L-6L
tp632
g11
s(V21*
p633
L10L
L-6L
tp634
g4
s(V12*
p635
L9L
L-6L
tp636
g11
s(V8*
p637
L11L
L-6L
tp638
g11
s(L16L
L24L
Ntp639
Ns(V18*A
p640
L11L
L-6L
tp641
g11
s(V7*
p642
L5L
L-6L
tp643
g11
s(V14*DS
p644
L4L
L-6L
tp645
g4
s(L12L
L20L
Ntp646
Ns(V9*D
p647
L11L
L-6L
tp648
g11
s(V16*D
p649
L10L
L-6L
tp650
g11
s(V5*D
p651
L3L
L-6L
tp652
g11
s(L21L
L4L
L-6L
tp653
g4
s(V8*
p654
L2L
L-6L
tp655
g11
s(V20*A
p656
L4L
L-6L
tp657
g4
s(L17L
L23L
Ntp658
Ns(L6L
L21L
Ntp659
Ns(V16*D
p660
L6L
L-6L
tp661
g4
s(L10L
L20L
Ntp662
Ns(L10L
L19L
Ntp663
Ns(V20*AD
p664
L9L
L-6L
tp665
g4
s(V18*AD
p666
L5L
L-6L
tp667
g7
s(V13*
p668
L21L
Ntp669
Ns(V13*
p670
L4L
L-6L
tp671
g11
s(V18*D
p672
L2L
L-6L
tp673
g4
s(V19*A
p674
L4L
L-6L
tp675
g4
s(V18*AD
p676
L9L
L-6L
tp677
g11
s(V9*
p678
L3L
L-6L
tp679
g11
s(L14L
L22L
Ntp680
Ns(L15L
L25L
Ntp681
Ns(V14*D
p682
L5L
L-6L
tp683
g4
s(V15*D
p684
L3L
L-6L
tp685
g4
s(V19*AD
p686
L7L
L-6L
tp687
g4
s(V8*D
p688
L7L
L-6L
tp689
g11
s(V18*DS
p690
L7L
L-6L
tp691
g4
s(L18L
L24L
Ntp692
Ns(V10*D
p693
L5L
L-6L
tp694
g7
s(V5*D
p695
L6L
L-6L
tp696
g11
s(V14*D
p697
L8L
L-6L
tp698
g11
s(V17*D
p699
L9L
L-6L
tp700
g4
s(V12*ADS
p701
L5L
L-6L
tp702
g11
s(V12*
p703
L5L
L-6L
tp704
g11
s(V19*AD
p705
L2L
L-6L
tp706
g4
s(V14*DS
p707
L8L
L-6L
tp708
g11
s(V16*DS
p709
L8L
L-6L
tp710
g11
s(V9*D
p711
L7L
L-6L
tp712
g11
s(L15L
L21L
Ntp713
Ns(L21L
L8L
L-6L
tp714
g4
s(V10*DS
p715
L2L
L-6L
tp716
g7
s(V20*D
p717
L5L
L-6L
tp718
g4
s(V20*A
p719
L8L
L-6L
tp720
g4
s(V13*AD
p721
L9L
L-6L
tp722
g11
s(V18*
p723
L21L
Ntp724
Ns(V16*DS
p725
L5L
L-6L
tp726
g4
s(L21L
NNtp727
Ns(V15*AD
p728
L10L
L-6L
tp729
g11
s(V14*A
p730
L5L
L-6L
tp731
g11
s(g129
L11L
L-6L
tp732
g11
s(V10*
p733
L5L
L-6L
tp734
g11
s(V21*A
p735
L11L
L-6L
tp736
g4
s(V6*DS
p737
L4L
L-6L
tp738
g11
s(V16*
p739
L2L
L-6L
tp740
g4
s(V13*
p741
L8L
L-6L
tp742
g11
s(V13*D
p743
L7L
L-6L
tp744
g11
s(V15*AD
p745
L3L
L-6L
tp746
g11
s(V13*AD
p747
L4L
L-6L
tp748
g11
s(g640
L21L
Ntp749
Ns(V27*
p750
NNtp751
Ns(V15*
p752
L7L
L-6L
tp753
g11
s(L8L
L18L
Ntp754
Ns(V11*
p755
L4L
L-6L
tp756
g11
s(L8L
L21L
Ntp757
Ns(V17*
p758
L10L
L-6L
tp759
g4
s(V21*A
p760
L6L
L-6L
tp761
g4
s(V4*DS
p762
L9L
L-6L
tp763
g11
s(L6L
L19L
Ntp764
Ns(V19*AD
p765
L11L
L-6L
tp766
g4
s(V20*
p767
L7L
L-6L
tp768
g4
s(V20*DS
p769
L21L
Ntp770
Ns(L6L
L25L
Ntp771
Ns(V17*A
p772
L3L
L-6L
tp773
g11
s(V4*DS
p774
L5L
L-6L
tp775
g11
s(g614
L21L
Ntp776
Ns(V13*A
p777
L4L
L-6L
tp778
g11
s(V17*
p779
L3L
L-6L
tp780
g4
s(V20*D
p781
L21L
Ntp782
Ns(V19*
p783
L2L
L-6L
tp784
g4
s(V18*
p785
L7L
L-6L
tp786
g4
s(L20L
L25L
Ntp787
Ns(V20*DS
p788
L10L
L-6L
tp789
g4
s(L9L
L17L
Ntp790
Ns(L9L
L22L
Ntp791
Ns(V16*AD
p792
L7L
L-6L
tp793
g11
s(V15*AD
p794
L6L
L-6L
tp795
g7
s(V19*
p796
L7L
L-6L
tp797
g4
s(V14*
p798
L8L
L-6L
tp799
g11
s(V15*
p800
L2L
L-6L
tp801
g4
s(V6*DS
p802
L8L
L-6L
tp803
g11
s(V11*D
p804
L2L
L-6L
tp805
g7
s(g539
L11L
L-6L
tp806
g11
s(g299
L11L
L-6L
tp807
g4
s(V7*D
p808
L8L
L-6L
tp809
g11
s(V16*A
p810
L10L
L-6L
tp811
g11
s(V15*
p812
L11L
L-6L
tp813
g11
s(V7*
p814
L10L
L-6L
tp815
g11
s(g28
L11L
L-6L
tp816
g11
s(L25L
NNtp817
Ns(L8L
L24L
Ntp818
Ns(V7*D
p819
L4L
L-6L
tp820
g11
s(L14L
L20L
Ntp821
Ns(V6*
p822
L4L
L-6L
tp823
g11
s(V24*
p824
NNtp825
Ns(V16*A
p826
L3L
L-6L
tp827
g11
s(V8*
p828
L9L
L-6L
tp829
g11
s(V17*D
p830
L21L
Ntp831
Ns(V20*
p832
L11L
L-6L
tp833
g4
s(L26L
NNtp834
Ns(L21L
L26L
Ntp835
Ns(V7*
p836
L3L
L-6L
tp837
g11
s(V12*D
p838
L10L
L-6L
tp839
g11
s(L21L
L19L
Ntp840
Ns(L11L
L19L
Ntp841
Ns(V18*
p842
L2L
L-6L
tp843
g4
s(L11L
L20L
Ntp844
Ns(V14*A
p845
L21L
Ntp846
Ns(V17*AD
p847
L5L
L-6L
tp848
g7
s(L14L
L18L
Ntp849
Ns(L4L
L23L
Ntp850
Ns(V19*A
p851
L3L
L-6L
tp852
g4
s(V16*AD
p853
L2L
L-6L
tp854
g11
s(V12*D
p855
L7L
L-6L
tp856
g11
s(V8*DS
p857
L8L
L-6L
tp858
g11
s(L18L
L21L
Ntp859
Ns(V20*AD
p860
L11L
L-6L
tp861
g4
s(V20*DS
p862
L6L
L-6L
tp863
g4
s(V18*D
p864
L4L
L-6L
tp865
g4
s(V20*AD
p866
L7L
L-6L
tp867
g4
s(L15L
L19L
Ntp868
Ns(g88
L11L
L-6L
tp869
g11
s(V19*A
p870
L6L
L-6L
tp871
g4
s(V18*A
p872
L5L
L-6L
tp873
g4
s(V14*
p874
L4L
L-6L
tp875
g4
s(V8*D
p876
L8L
L-6L
tp877
g11
s(V18*DS
p878
L8L
L-6L
tp879
g4
s(V19*A
p880
L10L
L-6L
tp881
g4
s(V8*DS
p882
L5L
L-6L
tp883
g11
s(V10*D
p884
L2L
L-6L
tp885
g7
s(L21L
L6L
L-6L
tp886
g4
s(V14*D
p887
L3L
L-6L
tp888
g11
s(V12*ADS
p889
L2L
L-6L
tp890
g11
s(g319
L21L
Ntp891
Ns(L6L
L20L
Ntp892
Ns(L8L
L26L
Ntp893
Ns(V7*
p894
L6L
L-6L
tp895
g11
s(L12L
L24L
Ntp896
Ns(V15*A
p897
L2L
L-6L
tp898
g11
s(V9*D
p899
L8L
L-6L
tp900
g11
s(L21L
L3L
L-6L
tp901
g4
s(V5*D
p902
L4L
L-6L
tp903
g11
s(V10*D
p904
L7L
L-6L
tp905
g7
s(g830
L11L
L-6L
tp906
g4
s(V14*AD
p907
L2L
L-6L
tp908
g11
s(V12*ADS
p909
L7L
L-6L
tp910
g11
s(V18*AD
p911
L3L
L-6L
tp912
g4
s(V13*
p913
L6L
L-6L
tp914
g11
s(V14*DS
p915
L10L
L-6L
tp916
g11
s(L27L
NNtp917
Ns(L10L
L23L
Ntp918
Ns(V14*DS
p919
L6L
L-6L
tp920
g4
s(V20*A
p921
L10L
L-6L
tp922
g4
s(V16*
p923
L9L
L-6L
tp924
g11
s(V19*D
p925
L2L
L-6L
tp926
g4
s(V13*
p927
L3L
L-6L
tp928
g11
s(V20*A
p929
L6L
L-6L
tp930
g4
s(V11*
p931
L3L
L-6L
tp932
g11
s(V6*D
p933
L3L
L-6L
tp934
g11
s(V14*D
p935
L21L
Ntp936
Ns(L9L
L25L
Ntp937
Ns(L9L
L23L
Ntp938
Ns(V14*D
p939
L6L
L-6L
tp940
g4
s(V12*
p941
L7L
L-6L
tp942
g11
s(L9L
L20L
Ntp943
Ns(V19*AD
p944
L4L
L-6L
tp945
g4
s(V11*
p946
L6L
L-6L
tp947
g11
s(V8*D
p948
L4L
L-6L
tp949
g11
s(V18*DS
p950
L4L
L-6L
tp951
g4
s(L16L
L19L
Ntp952
Ns(V17*D
p953
L2L
L-6L
tp954
g4
s(L21L
L10L
L-6L
tp955
g4
s(L11L
L24L
Ntp956
Ns(V17*A
p957
L5L
L-6L
tp958
g11
s(g265
L11L
L-6L
tp959
g11
s(V14*A
p960
L3L
L-6L
tp961
g11
s(V10*DS
p962
L9L
L-6L
tp963
g11
s(V10*
p964
L7L
L-6L
tp965
g11
s(V9*D
p966
L4L
L-6L
tp967
g11
s(g77
L21L
Ntp968
Ns(L29L
NNtp969
Ns(V20*D
p970
L6L
L-6L
tp971
g4
s(V13*
p972
L10L
L-6L
tp973
g11
s(V16*DS
p974
L2L
L-6L
tp975
g4
s(V14*A
p976
L10L
L-6L
tp977
g11
s(L21L
L24L
Ntp978
Ns(V13*AD
p979
L6L
L-6L
tp980
g11
s(L14L
L25L
Ntp981
Ns(V15*
p982
L5L
L-6L
tp983
g4
s(L10L
L18L
Ntp984
Ns(V10*
p985
L2L
L-6L
tp986
g11
s(L10L
L17L
Ntp987
Ns(V16*
p988
L5L
L-6L
tp989
g4
s(V6*DS
p990
L7L
L-6L
tp991
g11
s(V21*A
p992
L4L
L-6L
tp993
g4
s(g781
L11L
L-6L
tp994
g4
s(V15*AD
p995
L4L
L-6L
tp996
g11
s(V13*AD
p997
L11L
L-6L
tp998
g11
s(L8L
L17L
Ntp999
Ns(V15*AD
p1000
L8L
L-6L
tp1001
g11
s(L18L
L19L
Ntp1002
Ns(V17*
p1003
L9L
L-6L
tp1004
g4
s(V13*D
p1005
L9L
L-6L
tp1006
g11
s(L21L
L23L
Ntp1007
Ns(V21*A
p1008
L9L
L-6L
tp1009
g4
s(V16*A
p1010
L8L
L-6L
tp1011
g11
s(V19*AD
p1012
L8L
L-6L
tp1013
g4
s(V13*D
p1014
L5L
L-6L
tp1015
g11
s(V4*DS
p1016
L2L
L-6L
tp1017
g11
s(g735
L21L
Ntp1018
Ns(V18*
p1019
L5L
L-6L
tp1020
g4
s(V17*
p1021
L4L
L-6L
tp1022
g4
s(V13*A
p1023
L7L
L-6L
tp1024
g11
s(V17*AD
p1025
L2L
L-6L
tp1026
g11
s(V20*DS
p1027
L8L
L-6L
tp1028
g4
s(V20*
p1029
L9L
L-6L
tp1030
g4
s(V17*A
p1031
L9L
L-6L
tp1032
g11
s(V16*AD
p1033
L5L
L-6L
tp1034
g7
s(V20*
p1035
L5L
L-6L
tp1036
g4
s(V14*
p1037
L10L
L-6L
tp1038
g11
s(L16L
L26L
Ntp1039
Ns(V17*AD
p1040
L7L
L-6L
tp1041
g11
s(L9L
L18L
Ntp1042
Ns(V13*A
p1043
L10L
L-6L
tp1044
g11
s(V18*A
p1045
L2L
L-6L
tp1046
g4
s(V15*
p1047
L9L
L-6L
tp1048
g11
s(V12*DS
p1049
L2L
L-6L
tp1050
g11
s(g189
L21L
Ntp1051
Ns(V11*D
p1052
L9L
L-6L
tp1053
g11
s(V6*
p1054
L6L
L-6L
tp1055
g11
s(g278
L11L
L-6L
tp1056
g11
s(V9*
p1057
L9L
L-6L
tp1058
g11
s(V18*A
p1059
L7L
L-6L
tp1060
g4
s(V7*D
p1061
L3L
L-6L
tp1062
g11
s(L23L
NNtp1063
Ns(L8L
L20L
Ntp1064
Ns(V15*A
p1065
L9L
L-6L
tp1066
g11
s(L8L
L23L
Ntp1067
Ns(V6*
p1068
L3L
L-6L
tp1069
g11
s(V8*
p1070
L6L
L-6L
tp1071
g11
s(V7*
p1072
L4L
L-6L
tp1073
g11
s(L21L
L20L
Ntp1074
Ns(V12*D
p1075
L5L
L-6L
tp1076
g11
s(L16L
L21L
Ntp1077
Ns(V7*
p1078
L8L
L-6L
tp1079
g11
s(V14*AD
p1080
L4L
L-6L
tp1081
g11
s(V19*D
p1082
L9L
L-6L
tp1083
g4
s(V20*DS
p1084
L4L
L-6L
tp1085
g4
s(L19L
L17L
Ntp1086
Ns(V18*D
p1087
L6L
L-6L
tp1088
g4
s(g997
L21L
Ntp1089
Ns(V6*D
p1090
L8L
L-6L
tp1091
g11
s(V14*
p1092
L6L
L-6L
tp1093
g4
s(V12*D
p1094
L8L
L-6L
tp1095
g11
s(L20L
L24L
Ntp1096
Ns(V8*DS
p1097
L7L
L-6L
tp1098
g11
s(L20L
L18L
Ntp1099
Ns(V18*D
p1100
L3L
L-6L
tp1101
g4
s(V15*D
p1102
L7L
L-6L
tp1103
g11
s(L15L
L23L
Ntp1104
Ns(V12*
p1105
L8L
L-6L
tp1106
g11
s(V8*D
p1107
L3L
L-6L
tp1108
g11
s(V18*DS
p1109
L3L
L-6L
tp1110
g4
s(g765
L21L
Ntp1111
Ns(V9*
p1112
L10L
L-6L
tp1113
g11
s(V8*DS
p1114
L10L
L-6L
tp1115
g11
s(V21*
p1116
L2L
L-6L
tp1117
g4
s(V5*D
p1118
L2L
L-6L
tp1119
g11
s(L21L
L5L
L-6L
tp1120
g4
s(V14*D
p1121
L4L
L-6L
tp1122
g4
s(V8*
p1123
L3L
L-6L
tp1124
g11
s(V16*D
p1125
L3L
L-6L
tp1126
g4
s(L17L
L22L
Ntp1127
Ns(V8*D
p1128
L6L
L-6L
tp1129
g11
s(V18*DS
p1130
L6L
L-6L
tp1131
g4
s(L8L
L25L
Ntp1132
Ns(L20L
L20L
Ntp1133
Ns(V15*A
p1134
L5L
L-6L
tp1135
g11
s(V9*D
p1136
L3L
L-6L
tp1137
g11
s(V10*D
p1138
L8L
L-6L
tp1139
g11
s(V5*D
p1140
L11L
L-6L
tp1141
g11
s(V17*D
p1142
L4L
L-6L
tp1143
g4
s(V8*D
p1144
L10L
L-6L
tp1145
g11
s(V18*DS
p1146
L10L
L-6L
tp1147
g4
s(V12*ADS
p1148
L8L
L-6L
tp1149
g11
s(V16*
p1150
L11L
L-6L
tp1151
g11
s(L14L
L26L
Ntp1152
Ns(g647
L21L
Ntp1153
Ns(V13*
p1154
L5L
L-6L
tp1155
g11
s(V16*DS
p1156
L9L
L-6L
tp1157
g11
s(g489
L21L
Ntp1158
Ns(L21L
L17L
Ntp1159
Ns(g483
L21L
Ntp1160
Ns(V9*D
p1161
L6L
L-6L
tp1162
g7
s(V14*AD
p1163
L8L
L-6L
tp1164
g11
s(V19*D
p1165
L5L
L-6L
tp1166
g4
s(V9*D
p1167
L10L
L-6L
tp1168
g11
s(L15L
L24L
Ntp1169
Ns(L19L
L24L
Ntp1170
Ns(V15*D
p1171
L2L
L-6L
tp1172
g4
s(L4L
L17L
Ntp1173
Ns(V6*D
p1174
L4L
L-6L
tp1175
g11
s(L19L
L18L
Ntp1176
Ns(L9L
L26L
Ntp1177
Ns(V21*A
p1178
L2L
L-6L
tp1179
g4
s(L18L
L25L
Ntp1180
Ns(g385
L11L
L-6L
tp1181
g11
s(V11*
p1182
L9L
L-6L
tp1183
g11
s(V12*
p1184
L4L
L-6L
tp1185
g11
s(g59
L21L
Ntp1186
Ns(V17*A
p1187
L7L
L-6L
tp1188
g11
s(V9*
p1189
L6L
L-6L
tp1190
g11
s(L16L
L25L
Ntp1191
Ns(L21L
L9L
L-6L
tp1192
g4
s(V23*
p1193
NNtp1194
Ns(V19*AD
p1195
L10L
L-6L
tp1196
g4
s(V14*A
p1197
L8L
L-6L
tp1198
g11
s(V17*A
p1199
L2L
L-6L
tp1200
g11
s(V19*AD
p1201
L6L
L-6L
tp1202
g4
s(L8L
L22L
Ntp1203
Ns(V10*DS
p1204
L10L
L-6L
tp1205
g11
s(V10*
p1206
L4L
L-6L
tp1207
g11
s(V16*
p1208
L7L
L-6L
tp1209
g11
s(L20L
L23L
Ntp1210
Ns(V13*
p1211
L9L
L-6L
tp1212
g11
s(V20*D
p1213
L9L
L-6L
tp1214
g4
s(V15*AD
p1215
L2L
L-6L
tp1216
g11
s(V12*DS
p1217
L9L
L-6L
tp1218
g11
s(V13*AD
p1219
L5L
L-6L
tp1220
g11
s(g860
L21L
Ntp1221
Ns(V15*
p1222
L6L
L-6L
tp1223
g4
s(L18L
L18L
Ntp1224
Ns(L10L
L21L
Ntp1225
Ns(V10*DS
p1226
L7L
L-6L
tp1227
g7
s(V10*
p1228
L9L
L-6L
tp1229
g11
s(V21*A
p1230
L7L
L-6L
tp1231
g4
s(V20*D
p1232
L4L
L-6L
tp1233
g4
s(L17L
L26L
Ntp1234
Ns(V19*D
p1235
L21L
Ntp1236
Ns(L19L
L23L
Ntp1237
Ns(V6*DS
p1238
L9L
L-6L
tp1239
g11
s(L20L
L26L
Ntp1240
Ns(V16*A
p1241
L7L
L-6L
tp1242
g11
s(V17*
p1243
L6L
L-6L
tp1244
g4
s(V6*DS
p1245
L5L
L-6L
tp1246
g11
s(V13*D
p1247
L2L
L-6L
tp1248
g11
s(L9L
L21L
Ntp1249
Ns(g137
L11L
L-6L
tp1250
g11
s(V15*A
p1251
L21L
Ntp1252
Ns(V18*
p1253
L6L
L-6L
tp1254
g4
s(V16*AD
p1255
L21L
Ntp1256
Ns(g344
L11L
L-6L
tp1257
g4
s(g769
L11L
L-6L
tp1258
g4
s(L15L
L20L
Ntp1259
Ns(V13*A
p1260
L8L
L-6L
tp1261
g11
s(V20*
p1262
L2L
L-6L
tp1263
g4
s(V16*AD
p1264
L6L
L-6L
tp1265
g7
s(V12*D
p1266
L3L
L-6L
tp1267
g11
s(V14*
p1268
L9L
L-6L
tp1269
g11
s(V17*AD
p1270
L8L
L-6L
tp1271
g11
s(V20*DS
p1272
L2L
L-6L
tp1273
g4
s(g723
L11L
L-6L
tp1274
g4
s(V13*A
p1275
L5L
L-6L
tp1276
g11
s(V12*DS
p1277
L5L
L-6L
tp1278
g11
s(L21L
L25L
Ntp1279
Ns(V15*
p1280
L10L
L-6L
tp1281
g11
s(g1255
L11L
L-6L
tp1282
g11
s(V11*D
p1283
L10L
L-6L
tp1284
g11
s(g1251
L11L
L-6L
tp1285
g11
s(V6*
p1286
L5L
L-6L
tp1287
g11
s(V21*
p1288
L9L
L-6L
tp1289
g4
s(L14L
L21L
Ntp1290
Ns(g832
L21L
Ntp1291
Ns(V19*
p1292
L3L
L-6L
tp1293
g4
s(V8*
p1294
L4L
L-6L
tp1295
g11
s(V18*A
p1296
L8L
L-6L
tp1297
g4
s(V16*A
p1298
L2L
L-6L
tp1299
g11
s(L19L
L26L
Ntp1300
Ns(V7*
p1301
L2L
L-6L
tp1302
g11
s(L8L
L19L
Ntp1303
Ns(V11*D
p1304
L7L
L-6L
tp1305
g7
s(V6*
p1306
L8L
L-6L
tp1307
g11
s(V14*AD
p1308
L6L
L-6L
tp1309
g11
s(g1235
L11L
L-6L
tp1310
g4
s(V16*D
p1311
L5L
L-6L
tp1312
g4
s(g339
L21L
Ntp1313
Ns(V6*D
p1314
L10L
L-6L
tp1315
g11
s(L16L
L17L
Ntp1316
Ns(V12*D
p1317
L6L
L-6L
tp1318
g11
s(V14*AD
p1319
L3L
L-6L
tp1320
g11
s(V20*DS
p1321
L7L
L-6L
tp1322
g4
s(V20*AD
p1323
L2L
L-6L
tp1324
g4
s(g346
L21L
Ntp1325
Ns(V18*D
p1326
L5L
L-6L
tp1327
g4
s(V15*D
p1328
L5L
L-6L
tp1329
g4
s(V18*AD
p1330
L10L
L-6L
tp1331
g11
s(L15L
L18L
Ntp1332
Ns(V14*
p1333
L5L
L-6L
tp1334
g4
s(V9*
p1335
L8L
L-6L
tp1336
g11
s(L20L
L22L
Ntp1337
Ns(V8*DS
p1338
L4L
L-6L
tp1339
g11
s(L20L
L17L
Ntp1340
Ns(V14*D
p1341
L2L
L-6L
tp1342
g11
s(L22L
NNtp1343
Ns(V12*
p1344
L3L
L-6L
tp1345
g11
s(V18*D
p1346
L8L
L-6L
tp1347
g4
s(V15*A
p1348
L7L
L-6L
tp1349
g11
s(V19*A
p1350
L2L
L-6L
tp1351
g4
s(V21*
p1352
L5L
L-6L
tp1353
g4
s(V5*D
p1354
L9L
L-6L
tp1355
g11
s(V10*D
p1356
L10L
L-6L
tp1357
g11
s(g935
L11L
L-6L
tp1358
g11
s(V17*D
p1359
L6L
L-6L
tp1360
g4
s(V12*ADS
p1361
L10L
L-6L
tp1362
g11
s(L17L
L18L
Ntp1363
Ns(V12*
p1364
L6L
L-6L
tp1365
g11
s(L17L
L24L
Ntp1366
Ns(V14*DS
p1367
L3L
L-6L
tp1368
g11
s(L19L
L25L
Ntp1369
Ns(V12*
p1370
L10L
L-6L
tp1371
g11
s(V17*D
p1372
L3L
L-6L
tp1373
g4
s(L21L
L11L
L-6L
tp1374
g4
s(V14*AD
p1375
L10L
L-6L
tp1376
g11
s(V19*D
p1377
L7L
L-6L
tp1378
g4
s(V16*D
p1379
L9L
L-6L
tp1380
g11
s(V16*
p1381
L8L
L-6L
tp1382
g11
s(g440
L21L
Ntp1383
Ns(g812
L21L
Ntp1384
Ns(V16*DS
p1385
L6L
L-6L
tp1386
g4
s(V20*A
p1387
L3L
L-6L
tp1388
g4
s(V10*D
p1389
L3L
L-6L
tp1390
g7
s(L21L
L7L
L-6L
tp1391
g4
s(V12*ADS
p1392
L3L
L-6L
tp1393
g11
s(V13*AD
p1394
L2L
L-6L
tp1395
g11
s(L21L
L21L
Ntp1396
Ns(V6*D
p1397
L6L
L-6L
tp1398
g11
s(L21L
L18L
Ntp1399
Ns(L14L
L19L
Ntp1400
Ns(L16L
L23L
Ntp1401
Ns(g668
L11L
L-6L
tp1402
g11
s(V15*D
p1403
L9L
L-6L
tp1404
g11
s(V18*AD
p1405
L6L
L-6L
tp1406
g7
s(V11*
p1407
L11L
L-6L
tp1408
g11
s(V13*AD
p1409
L7L
L-6L
tp1410
g11
s(L12L
L22L
Ntp1411
Ns(g1150
L21L
Ntp1412
Ns(L4L
L21L
Ntp1413
Ns(L12L
L17L
Ntp1414
Ns(V13*
p1415
L7L
L-6L
tp1416
g11
s(V9*
p1417
L4L
L-6L
tp1418
g11
s(V21*A
p1419
L5L
L-6L
tp1420
g4
s(g121
L21L
Ntp1421
Ns(V4*DS
p1422
L6L
L-6L
tp1423
g11
s(V17*A
p1424
L4L
L-6L
tp1425
g11
s(V11*
p1426
L2L
L-6L
tp1427
g11
s(L6L
L22L
Ntp1428
Ns(V16*DS
p1429
L3L
L-6L
tp1430
g4
s(g845
L11L
L-6L
tp1431
g11
s(g512
L11L
L-6L
tp1432
g11
s.