(dp0
(V14*D
p1
L6L
L7L
tp2
VStay
p3
s(L13L
L21L
Ntp4
Ns(L13L
L18L
Ntp5
Ns(L13L
L24L
Ntp6
Ns(V9*
p7
L2L
L7L
tp8
VDraw
p9
s(V19*A
p10
L5L
L7L
tp11
g3
s(V18*D
p12
L7L
L7L
tp13
g3
s(V11*
p14
L3L
L7L
tp15
g9
s(L6L
L26L
Ntp16
Ns(V11*D
p17
L21L
Ntp18
Ns(V20*AD
p19
L8L
L7L
tp20
g3
s(L15L
L26L
Ntp21
Ns(L19L
L19L
Ntp22
Ns(L19L
L20L
Ntp23
Ns(V20*A
p24
L21L
Ntp25
Ns(V13*
p26
L6L
L7L
tp27
g3
s(V18*AD
p28
L3L
L7L
tp29
VDouble
p30
s(V20*A
p31
L5L
L7L
tp32
g3
s(V14*AD
p33
L2L
L7L
tp34
g9
s(V9*D
p35
L8L
L7L
tp36
g9
s(L17L
L21L
Ntp37
Ns(V14*DS
p38
L5L
L7L
tp39
g3
s(V7*
p40
L6L
L7L
tp41
g9
s(V8*
p42
L10L
L7L
tp43
g9
s(V16*D
p44
L2L
L7L
tp45
g3
s(V11*D
p46
L8L
L7L
tp47
g30
s(V10*D
p48
L2L
L7L
tp49
g30
s(L21L
L6L
L7L
tp50
g3
s(V12*ADS
p51
L2L
L7L
tp52
g9
s(V6*
p53
L7L
L7L
tp54
g9
s(V18*A
p55
L3L
L7L
tp56
g3
s(V8*D
p57
L8L
L7L
tp58
g9
s(V18*DS
p59
L8L
L7L
tp60
g3
s(V18*A
p61
L5L
L7L
tp62
g3
s(V7*D
p63
L11L
L7L
tp64
g9
s(V12*
p65
L11L
L7L
tp66
g9
s(V25*
p67
NNtp68
Ns(V14*
p69
L11L
L7L
tp70
g9
s(V8*DS
p71
L21L
Ntp72
Ns(V8*DS
p73
L6L
L7L
tp74
g30
s(L4L
L24L
Ntp75
Ns(V19*
p76
L4L
L7L
tp77
g3
s(V16*AD
p78
L4L
L7L
tp79
g30
s(g65
L21L
Ntp80
Ns(V8*DS
p81
L8L
L7L
tp82
g9
s(V19*A
p83
L9L
L7L
tp84
g3
s(V14*
p85
L7L
L7L
tp86
g9
s(L4L
L18L
Ntp87
Ns(V16*AD
p88
L2L
L7L
tp89
g9
s(V17*AD
p90
L3L
L7L
tp91
g30
s(V20*DS
p92
L9L
L7L
tp93
g3
s(V19*A
p94
L3L
L7L
tp95
g3
s(L14L
L17L
Ntp96
Ns(V17*AD
p97
L5L
L7L
tp98
g30
s(V13*A
p99
L2L
L7L
tp100
g9
s(V18*
p101
L4L
L7L
tp102
g3
s(L18L
L22L
Ntp103
Ns(V20*AD
p104
L4L
L7L
tp105
g3
s(V20*DS
p106
L5L
L7L
tp107
g3
s(V18*
p108
L2L
L7L
tp109
g3
s(V12*D
p110
L4L
L7L
tp111
g3
s(V12*D
p112
L10L
L7L
tp113
g9
s(V20*
p114
L11L
L7L
tp115
g3
s(V4*DS
p116
L21L
Ntp117
Ns(V10*DS
p118
L21L
Ntp119
Ns(L4L
L20L
Ntp120
Ns(V17*A
p121
L21L
Ntp122
Ns(V
p123
g123
L7L
tp124
VBegin
p125
s(V18*D
p126
L21L
Ntp127
Ns(V7*
p128
L10L
L7L
tp129
g9
s(V16*A
p130
L10L
L7L
tp131
g9
s(V4*DS
p132
L10L
L7L
tp133
g9
s(V13*D
p134
L11L
L7L
tp135
g9
s(V6*DS
p136
L2L
L7L
tp137
g9
s(V15*
p138
L4L
L7L
tp139
g3
s(V11*D
p140
L2L
L7L
tp141
g30
s(V6*DS
p142
L8L
L7L
tp143
g9
s(L15L
L22L
Ntp144
Ns(V15*
p145
L2L
L7L
tp146
g3
s(V7*D
p147
L7L
L7L
tp148
g9
s(V15*
p149
L8L
L7L
tp150
g9
s(V15*AD
p151
L6L
L7L
tp152
g30
s(L13L
L19L
Ntp153
Ns(V20*D
p154
L3L
L7L
tp155
g3
s(V10*DS
p156
L8L
L7L
tp157
g30
s(L20L
L21L
Ntp158
Ns(V10*
p159
L6L
L7L
tp160
g9
s(V19*
p161
L8L
L7L
tp162
g3
s(L6L
L17L
Ntp163
Ns(V18*DS
p164
L4L
L7L
tp165
g3
s(V14*A
p166
L6L
L7L
tp167
g9
s(L17L
L25L
Ntp168
Ns(V19*
p169
L2L
L7L
tp170
g3
s(V28*
p171
NNtp172
Ns(V13*A
p173
L4L
L7L
tp174
g9
s(V18*AD
p175
L21L
Ntp176
Ns(V17*A
p177
L3L
L7L
tp178
g9
s(L19L
L21L
Ntp179
Ns(L19L
L22L
Ntp180
Ns(V20*
p181
L7L
L7L
tp182
g3
s(L16L
L22L
Ntp183
Ns(V19*AD
p184
L11L
L7L
tp185
g3
s(V11*
p186
L2L
L7L
tp187
g9
s(V17*
p188
L10L
L7L
tp189
g3
s(V11*
p190
L4L
L7L
tp191
g9
s(L21L
L22L
Ntp192
Ns(V4*DS
p193
L6L
L7L
tp194
g9
s(V13*D
p195
L7L
L7L
tp196
g9
s(V21*A
p197
L5L
L7L
tp198
g3
s(V14*DS
p199
L21L
Ntp200
Ns(V6*DS
p201
L4L
L7L
tp202
g9
s(V21*A
p203
L11L
L7L
tp204
g3
s(L12L
L21L
Ntp205
Ns(V13*
p206
L7L
L7L
tp207
g9
s(V14*AD
p208
L21L
Ntp209
Ns(V15*AD
p210
L10L
L7L
tp211
g9
s(V13*AD
p212
L7L
L7L
tp213
g9
s(V18*AD
p214
L6L
L7L
tp215
g30
s(V13*AD
p216
L9L
L7L
tp217
g9
s(V13*
p218
L11L
L7L
tp219
g9
s(V20*A
p220
L8L
L7L
tp221
g3
s(V20*D
p222
L5L
L7L
tp223
g3
s(V10*DS
p224
L2L
L7L
tp225
g30
s(L20L
L19L
Ntp226
Ns(L4L
L26L
Ntp227
Ns(V9*D
p228
L7L
L7L
tp229
g30
s(L17L
L19L
Ntp230
Ns(V16*DS
p231
L21L
Ntp232
Ns(V16*DS
p233
L8L
L7L
tp234
g3
s(V14*DS
p235
L8L
L7L
tp236
g9
s(V10*D
p237
L3L
L7L
tp238
g30
s(L21L
L7L
L7L
tp239
g3
s(V12*ADS
p240
L3L
L7L
tp241
g9
s(V16*DS
p242
L6L
L7L
tp243
g3
s(V10*D
p244
L5L
L7L
tp245
g30
s(V5*D
p246
L6L
L7L
tp247
g9
s(V16*D
p248
L9L
L7L
tp249
g3
s(V17*D
p250
L9L
L7L
tp251
g3
s(V12*ADS
p252
L5L
L7L
tp253
g9
s(L11L
L21L
Ntp254
Ns(V17*D
p255
L3L
L7L
tp256
g3
s(L21L
L11L
L7L
tp257
g3
s(L11L
L22L
Ntp258
Ns(V12*
p259
L10L
L7L
tp260
g9
s(L6L
L24L
Ntp261
Ns(V6*DS
p262
L21L
Ntp263
Ns(V8*D
p264
L7L
L7L
tp265
g9
s(V18*DS
p266
L7L
L7L
tp267
g3
s(V19*AD
p268
L7L
L7L
tp269
g3
s(V12*
p270
L6L
L7L
tp271
g3
s(V14*D
p272
L5L
L7L
tp273
g3
s(L13L
L22L
Ntp274
Ns(V14*D
p275
L11L
L7L
tp276
g9
s(V21*
p277
L5L
L7L
tp278
g3
s(V19*A
p279
L2L
L7L
tp280
g3
s(V9*
p281
L3L
L7L
tp282
g9
s(V19*A
p283
L4L
L7L
tp284
g3
s(V18*D
p285
L8L
L7L
tp286
g3
s(V19*
p287
L21L
Ntp288
Ns(V18*D
p289
L2L
L7L
tp290
g3
s(V20*AD
p291
L9L
L7L
tp292
g3
s(L24L
NNtp293
Ns(L12L
L19L
Ntp294
Ns(V18*AD
p295
L10L
L7L
tp296
g9
s(L12L
L26L
Ntp297
Ns(V20*A
p298
L4L
L7L
tp299
g3
s(V14*AD
p300
L3L
L7L
tp301
g9
s(L17L
L17L
Ntp302
Ns(V9*D
p303
L11L
L7L
tp304
g9
s(L11L
L18L
Ntp305
Ns(V14*DS
p306
L4L
L7L
tp307
g3
s(g69
L21L
Ntp308
Ns(V7*
p309
L5L
L7L
tp310
g9
s(V8*
p311
L11L
L7L
tp312
g9
s(V16*D
p313
L5L
L7L
tp314
g3
s(V11*D
p315
L7L
L7L
tp316
g30
s(V6*
p317
L8L
L7L
tp318
g9
s(L10L
L22L
Ntp319
Ns(V6*
p320
L2L
L7L
tp321
g9
s(V8*D
p322
L11L
L7L
tp323
g9
s(V18*DS
p324
L11L
L7L
tp325
g3
s(L6L
L18L
Ntp326
Ns(V17*
p327
L21L
Ntp328
Ns(V18*A
p329
L6L
L7L
tp330
g3
s(V7*D
p331
L10L
L7L
tp332
g9
s(V18*A
p333
L8L
L7L
tp334
g3
s(V19*
p335
L3L
L7L
tp336
g3
s(g324
L21L
Ntp337
Ns(g322
L21L
Ntp338
Ns(V21*
p339
L9L
L7L
tp340
g3
s(L13L
L25L
Ntp341
Ns(V19*
p342
L5L
L7L
tp343
g3
s(V16*AD
p344
L11L
L7L
tp345
g9
s(L4L
L22L
Ntp346
Ns(g71
L11L
L7L
tp347
g9
s(V19*A
p348
L8L
L7L
tp349
g3
s(V21*
p350
L3L
L7L
tp351
g3
s(V12*DS
p352
L5L
L7L
tp353
g3
s(L18L
L20L
Ntp354
Ns(V13*A
p355
L5L
L7L
tp356
g9
s(V17*AD
p357
L6L
L7L
tp358
g30
s(L18L
L26L
Ntp359
Ns(V18*
p360
L11L
L7L
tp361
g3
s(V13*A
p362
L3L
L7L
tp363
g9
s(V20*AD
p364
L5L
L7L
tp365
g3
s(V17*AD
p366
L8L
L7L
tp367
g9
s(V20*DS
p368
L2L
L7L
tp369
g3
s(L11L
L26L
Ntp370
Ns(V15*D
p371
L21L
Ntp372
Ns(V12*D
p373
L3L
L7L
tp374
g3
s(V20*
p375
L2L
L7L
tp376
g3
s(V12*D
p377
L9L
L7L
tp378
g9
s(L11L
L25L
Ntp379
Ns(V20*
p380
L8L
L7L
tp381
g3
s(g327
L11L
L7L
tp382
g3
s(L10L
L26L
Ntp383
Ns(L10L
L25L
Ntp384
Ns(V7*
p385
L9L
L7L
tp386
g9
s(V16*A
p387
L9L
L7L
tp388
g9
s(g116
L11L
L7L
tp389
g9
s(V13*D
p390
L2L
L7L
tp391
g3
s(V6*DS
p392
L5L
L7L
tp393
g9
s(V16*A
p394
L7L
L7L
tp395
g9
s(V13*D
p396
L8L
L7L
tp397
g9
s(V6*DS
p398
L3L
L7L
tp399
g9
s(V6*DS
p400
L9L
L7L
tp401
g9
s(V7*D
p402
L6L
L7L
tp403
g9
s(V15*AD
p404
L5L
L7L
tp405
g30
s(V20*D
p406
L4L
L7L
tp407
g3
s(V15*AD
p408
L21L
Ntp409
Ns(L13L
L20L
Ntp410
Ns(V20*D
p411
L2L
L7L
tp412
g3
s(V10*DS
p413
L7L
L7L
tp414
g30
s(V10*
p415
L9L
L7L
tp416
g9
s(V19*
p417
L9L
L7L
tp418
g3
s(V10*
p419
L3L
L7L
tp420
g9
s(V14*A
p421
L7L
L7L
tp422
g9
s(V12*DS
p423
L9L
L7L
tp424
g9
s(V12*DS
p425
L3L
L7L
tp426
g3
s(L14L
L23L
Ntp427
Ns(V19*AD
p428
L6L
L7L
tp429
g30
s(L28L
NNtp430
Ns(L12L
L18L
Ntp431
Ns(V17*A
p432
L2L
L7L
tp433
g9
s(L16L
L18L
Ntp434
Ns(V20*
p435
L4L
L7L
tp436
g3
s(V19*AD
p437
L10L
L7L
tp438
g3
s(V9*
p439
L6L
L7L
tp440
g9
s(V22*
p441
NNtp442
Ns(V11*
p443
L7L
L7L
tp444
g9
s(V4*DS
p445
L7L
L7L
tp446
g9
s(V11*
p447
L9L
L7L
tp448
g9
s(L9L
L19L
Ntp449
Ns(g371
L11L
L7L
tp450
g9
s(V13*D
p451
L4L
L7L
tp452
g3
s(V12*DS
p453
L21L
Ntp454
Ns(V21*A
p455
L2L
L7L
tp456
g3
s(V21*A
p457
L8L
L7L
tp458
g3
s(V6*D
p459
L4L
L7L
tp460
g9
s(L14L
L24L
Ntp461
Ns(V15*AD
p462
L9L
L7L
tp463
g9
s(V13*
p464
L2L
L7L
tp465
g3
s(V18*AD
p466
L7L
L7L
tp467
g3
s(V9*D
p468
L10L
L7L
tp469
g9
s(V13*AD
p470
L10L
L7L
tp471
g9
s(L13L
L17L
Ntp472
Ns(g24
L11L
L7L
tp473
g3
s(V14*AD
p474
L8L
L7L
tp475
g9
s(V19*D
p476
L5L
L7L
tp477
g3
s(L13L
L23L
Ntp478
Ns(L6L
L23L
Ntp479
Ns(V9*D
p480
L6L
L7L
tp481
g30
s(V26*
p482
NNtp483
Ns(V16*DS
p484
L9L
L7L
tp485
g3
s(g199
L11L
L7L
tp486
g9
s(V16*DS
p487
L7L
L7L
tp488
g9
s(V5*D
p489
L5L
L7L
tp490
g9
s(V10*D
p491
L6L
L7L
tp492
g30
s(V16*D
p493
L8L
L7L
tp494
g3
s(V8*D
p495
L10L
L7L
tp496
g9
s(V17*D
p497
L10L
L7L
tp498
g3
s(V18*DS
p499
L10L
L7L
tp500
g3
s(V10*D
p501
L8L
L7L
tp502
g30
s(V5*D
p503
L11L
L7L
tp504
g9
s(V17*D
p505
L4L
L7L
tp506
g3
s(L21L
L2L
L7L
tp507
g3
s(V12*ADS
p508
L8L
L7L
tp509
g9
s(V15*A
p510
L5L
L7L
tp511
g9
s(g134
L21L
Ntp512
Ns(V8*D
p513
L6L
L7L
tp514
g30
s(V18*DS
p515
L6L
L7L
tp516
g3
s(L18L
L23L
Ntp517
Ns(V14*D
p518
L4L
L7L
tp519
g3
s(V8*DS
p520
L10L
L7L
tp521
g9
s(V21*
p522
L2L
L7L
tp523
g3
s(V14*D
p524
L10L
L7L
tp525
g9
s(V9*
p526
L10L
L7L
tp527
g9
s(L15L
L17L
Ntp528
Ns(V21*
p529
L4L
L7L
tp530
g3
s(L10L
L24L
Ntp531
Ns(V19*A
p532
L7L
L7L
tp533
g3
s(V18*D
p534
L9L
L7L
tp535
g3
s(V15*D
p536
L7L
L7L
tp537
g9
s(V18*D
p538
L3L
L7L
tp539
g3
s(V20*AD
p540
L10L
L7L
tp541
g3
s(V12*D
p542
L8L
L7L
tp543
g9
s(L17L
L20L
Ntp544
Ns(V6*D
p545
L8L
L7L
tp546
g9
s(L12L
L23L
Ntp547
Ns(V6*D
p548
L2L
L7L
tp549
g9
s(g175
L11L
L7L
tp550
g3
s(L12L
L25L
Ntp551
Ns(V20*A
p552
L7L
L7L
tp553
g3
s(V14*AD
p554
L4L
L7L
tp555
g30
s(V19*D
p556
L9L
L7L
tp557
g3
s(V7*
p558
L8L
L7L
tp559
g9
s(V19*D
p560
L3L
L7L
tp561
g3
s(V14*DS
p562
L7L
L7L
tp563
g9
s(V7*
p564
L4L
L7L
tp565
g9
s(V8*
p566
L8L
L7L
tp567
g9
s(V16*D
p568
L4L
L7L
tp569
g3
s(V8*
p570
L6L
L7L
tp571
g9
s(L11L
L23L
Ntp572
Ns(V11*D
p573
L6L
L7L
tp574
g30
s(V6*
p575
L9L
L7L
tp576
g9
s(L11L
L17L
Ntp577
Ns(V15*A
p578
L9L
L7L
tp579
g9
s(L4L
L25L
Ntp580
Ns(V6*
p581
L3L
L7L
tp582
g9
s(V7*D
p583
L3L
L7L
tp584
g9
s(V15*A
p585
L3L
L7L
tp586
g9
s(L4L
L19L
Ntp587
Ns(V18*A
p588
L7L
L7L
tp589
g3
s(V7*D
p590
L9L
L7L
tp591
g9
s(L16L
L20L
Ntp592
Ns(L18L
L17L
Ntp593
Ns(V18*A
p594
L9L
L7L
tp595
g9
s(L9L
L24L
Ntp596
Ns(V21*
p597
L8L
L7L
tp598
g3
s(L13L
L26L
Ntp599
Ns(V19*
p600
L6L
L7L
tp601
g3
s(V16*AD
p602
L10L
L7L
tp603
g9
s(V12*DS
p604
L2L
L7L
tp605
g3
s(V19*A
p606
L11L
L7L
tp607
g3
s(L30L
NNtp608
Ns(V12*DS
p609
L4L
L7L
tp610
g3
s(V13*A
p611
L10L
L7L
tp612
g9
s(V17*AD
p613
L7L
L7L
tp614
g9
s(V18*
p615
L10L
L7L
tp616
g3
s(V20*AD
p617
L6L
L7L
tp618
g3
s(V17*AD
p619
L9L
L7L
tp620
g9
s(V20*DS
p621
L3L
L7L
tp622
g3
s(V20*
p623
L5L
L7L
tp624
g3
s(V12*D
p625
L2L
L7L
tp626
g3
s(L16L
L24L
Ntp627
Ns(V20*
p628
L3L
L7L
tp629
g3
s(V17*A
p630
L9L
L7L
tp631
g9
s(L12L
L20L
Ntp632
Ns(V20*
p633
L9L
L7L
tp634
g3
s(V17*
p635
L4L
L7L
tp636
g3
s(L17L
L23L
Ntp637
Ns(L6L
L21L
Ntp638
Ns(V4*DS
p639
L2L
L7L
tp640
g9
s(V13*D
p641
L5L
L7L
tp642
g3
s(L10L
L20L
Ntp643
Ns(L10L
L19L
Ntp644
Ns(V16*A
p645
L8L
L7L
tp646
g9
s(V4*DS
p647
L8L
L7L
tp648
g9
s(V13*D
p649
L3L
L7L
tp650
g3
s(V21*A
p651
L9L
L7L
tp652
g3
s(V16*A
p653
L6L
L7L
tp654
g9
s(V13*D
p655
L9L
L7L
tp656
g9
s(V15*AD
p657
L8L
L7L
tp658
g9
s(g218
L21L
Ntp659
Ns(V13*AD
p660
L11L
L7L
tp661
g9
s(V7*D
p662
L5L
L7L
tp663
g9
s(V15*AD
p664
L4L
L7L
tp665
g30
s(L14L
L22L
Ntp666
Ns(V20*D
p667
L11L
L7L
tp668
g3
s(V10*DS
p669
L6L
L7L
tp670
g30
s(L15L
L25L
Ntp671
Ns(V16*
p672
L5L
L7L
tp673
g3
s(V19*
p674
L10L
L7L
tp675
g3
s(V10*
p676
L8L
L7L
tp677
g9
s(V10*
p678
L2L
L7L
tp679
g9
s(V14*A
p680
L4L
L7L
tp681
g9
s(V12*DS
p682
L8L
L7L
tp683
g9
s(V14*A
p684
L10L
L7L
tp685
g9
s(V16*DS
p686
L2L
L7L
tp687
g3
s(L18L
L24L
Ntp688
Ns(V17*A
p689
L5L
L7L
tp690
g9
s(V19*AD
p691
L3L
L7L
tp692
g30
s(L15L
L21L
Ntp693
Ns(V17*
p694
L2L
L7L
tp695
g3
s(V9*
p696
L7L
L7L
tp697
g9
s(g360
L21L
Ntp698
Ns(L21L
NNtp699
Ns(V11*
p700
L6L
L7L
tp701
g9
s(V4*DS
p702
L4L
L7L
tp703
g9
s(V11*
p704
L8L
L7L
tp705
g9
s(V15*D
p706
L10L
L7L
tp707
g3
s(V21*A
p708
L3L
L7L
tp709
g3
s(V6*D
p710
L3L
L7L
tp711
g9
s(V18*A
p712
L21L
Ntp713
Ns(V6*D
p714
L5L
L7L
tp715
g9
s(V27*
p716
NNtp717
Ns(V20*A
p718
L6L
L7L
tp719
g3
s(L8L
L18L
Ntp720
Ns(L8L
L21L
Ntp721
Ns(V13*
p722
L3L
L7L
tp723
g3
s(V18*AD
p724
L4L
L7L
tp725
g30
s(V19*D
p726
L2L
L7L
tp727
g3
s(V16*
p728
L9L
L7L
tp729
g3
s(V20*A
p730
L10L
L7L
tp731
g3
s(V14*AD
p732
L9L
L7L
tp733
g9
s(V19*D
p734
L4L
L7L
tp735
g3
s(V14*DS
p736
L6L
L7L
tp737
g3
s(V16*
p738
L3L
L7L
tp739
g3
s(L6L
L19L
Ntp740
Ns(L6L
L25L
Ntp741
Ns(V20*DS
p742
L21L
Ntp743
Ns(V14*DS
p744
L10L
L7L
tp745
g9
s(V17*AD
p746
L21L
Ntp747
Ns(V16*DS
p748
L4L
L7L
tp749
g3
s(V5*D
p750
L4L
L7L
tp751
g9
s(V10*D
p752
L7L
L7L
tp753
g30
s(V16*D
p754
L11L
L7L
tp755
g9
s(V17*D
p756
L11L
L7L
tp757
g3
s(L21L
L3L
L7L
tp758
g3
s(V12*ADS
p759
L7L
L7L
tp760
g9
s(V10*D
p761
L9L
L7L
tp762
g30
s(V5*D
p763
L10L
L7L
tp764
g9
s(V17*D
p765
L5L
L7L
tp766
g3
s(V12*ADS
p767
L9L
L7L
tp768
g9
s(V15*A
p769
L4L
L7L
tp770
g9
s(V15*A
p771
L2L
L7L
tp772
g9
s(g667
L21L
Ntp773
Ns(V14*D
p774
L3L
L7L
tp775
g3
s(L20L
L25L
Ntp776
Ns(V8*DS
p777
L5L
L7L
tp778
g30
s(V19*A
p779
L10L
L7L
tp780
g3
s(V14*D
p781
L9L
L7L
tp782
g9
s(V9*
p783
L11L
L7L
tp784
g9
s(L9L
L17L
Ntp785
Ns(L9L
L22L
Ntp786
Ns(V21*
p787
L7L
L7L
tp788
g3
s(V14*
p789
L4L
L7L
tp790
g3
s(V19*A
p791
L6L
L7L
tp792
g3
s(V18*D
p793
L10L
L7L
tp794
g3
s(V20*AD
p795
L7L
L7L
tp796
g3
s(V15*D
p797
L6L
L7L
tp798
g3
s(V18*D
p799
L4L
L7L
tp800
g3
s(V20*DS
p801
L6L
L7L
tp802
g3
s(V20*AD
p803
L11L
L7L
tp804
g3
s(V12*D
p805
L7L
L7L
tp806
g9
s(V6*D
p807
L9L
L7L
tp808
g9
s(L25L
NNtp809
Ns(V18*AD
p810
L8L
L7L
tp811
g3
s(L8L
L24L
Ntp812
Ns(L14L
L20L
Ntp813
Ns(V24*
p814
NNtp815
Ns(V14*AD
p816
L5L
L7L
tp817
g30
s(V19*D
p818
L8L
L7L
tp819
g3
s(g756
L21L
Ntp820
Ns(L26L
NNtp821
Ns(L21L
L26L
Ntp822
Ns(L21L
L19L
Ntp823
Ns(V7*
p824
L3L
L7L
tp825
g9
s(V8*
p826
L9L
L7L
tp827
g9
s(V16*A
p828
L3L
L7L
tp829
g9
s(L11L
L19L
Ntp830
Ns(V16*D
p831
L7L
L7L
tp832
g9
s(V8*
p833
L7L
L7L
tp834
g9
s(L11L
L20L
Ntp835
Ns(V11*D
p836
L5L
L7L
tp837
g30
s(V14*A
p838
L21L
Ntp839
Ns(V6*
p840
L10L
L7L
tp841
g9
s(V7*D
p842
L4L
L7L
tp843
g9
s(L14L
L18L
Ntp844
Ns(g17
L11L
L7L
tp845
g30
s(V15*A
p846
L8L
L7L
tp847
g9
s(L4L
L23L
Ntp848
Ns(V7*D
p849
L2L
L7L
tp850
g9
s(V15*
p851
L11L
L7L
tp852
g9
s(V6*
p853
L4L
L7L
tp854
g9
s(V7*D
p855
L8L
L7L
tp856
g9
s(L18L
L21L
Ntp857
Ns(g287
L11L
L7L
tp858
g3
s(V18*A
p859
L10L
L7L
tp860
g9
s(V8*DS
p861
L3L
L7L
tp862
g9
s(V21*
p863
L11L
L7L
tp864
g3
s(V14*
p865
L8L
L7L
tp866
g9
s(L15L
L19L
Ntp867
Ns(V16*AD
p868
L9L
L7L
tp869
g9
s(V19*
p870
L7L
L7L
tp871
g3
s(V14*
p872
L2L
L7L
tp873
g3
s(V16*AD
p874
L7L
L7L
tp875
g9
s(V12*DS
p876
L7L
L7L
tp877
g9
s(V13*A
p878
L11L
L7L
tp879
g9
s(V20*DS
p880
L10L
L7L
tp881
g3
s(V18*
p882
L9L
L7L
tp883
g3
s(V16*A
p884
L21L
Ntp885
Ns(V17*AD
p886
L10L
L7L
tp887
g9
s(V18*
p888
L7L
L7L
tp889
g3
s(L6L
L20L
Ntp890
Ns(L8L
L26L
Ntp891
Ns(L12L
L24L
Ntp892
Ns(V17*A
p893
L8L
L7L
tp894
g9
s(V17*
p895
L3L
L7L
tp896
g3
s(V17*
p897
L5L
L7L
tp898
g3
s(V4*DS
p899
L5L
L7L
tp900
g9
s(L27L
NNtp901
Ns(V4*DS
p902
L3L
L7L
tp903
g9
s(L10L
L23L
Ntp904
Ns(V4*DS
p905
L9L
L7L
tp906
g9
s(V21*A
p907
L6L
L7L
tp908
g3
s(V16*A
p909
L5L
L7L
tp910
g9
s(V15*
p911
L7L
L7L
tp912
g9
s(V13*AD
p913
L4L
L7L
tp914
g30
s(V15*AD
p915
L3L
L7L
tp916
g9
s(g275
L21L
Ntp917
Ns(V20*D
p918
L10L
L7L
tp919
g3
s(V13*
p920
L8L
L7L
tp921
g9
s(V16*
p922
L2L
L7L
tp923
g3
s(L9L
L25L
Ntp924
Ns(V10*DS
p925
L5L
L7L
tp926
g30
s(V16*
p927
L4L
L7L
tp928
g3
s(V10*
p929
L11L
L7L
tp930
g9
s(L9L
L23L
Ntp931
Ns(L9L
L20L
Ntp932
Ns(g118
L11L
L7L
tp933
g30
s(V14*A
p934
L5L
L7L
tp935
g9
s(V10*
p936
L5L
L7L
tp937
g9
s(V16*DS
p938
L5L
L7L
tp939
g3
s(g453
L11L
L7L
tp940
g9
s(g838
L11L
L7L
tp941
g9
s(L16L
L19L
Ntp942
Ns(V16*DS
p943
L3L
L7L
tp944
g3
s(L21L
L8L
L7L
tp945
g3
s(L11L
L24L
Ntp946
Ns(V17*A
p947
L4L
L7L
tp948
g9
s(V19*AD
p949
L2L
L7L
tp950
g3
s(V12*
p951
L5L
L7L
tp952
g3
s(V14*D
p953
L8L
L7L
tp954
g9
s(g863
L21L
Ntp955
Ns(L29L
NNtp956
Ns(V9*
p957
L4L
L7L
tp958
g9
s(L21L
L24L
Ntp959
Ns(L14L
L25L
Ntp960
Ns(L10L
L18L
Ntp961
Ns(V15*D
p962
L3L
L7L
tp963
g3
s(L10L
L17L
Ntp964
Ns(V11*
p965
L11L
L7L
tp966
g9
s(V15*D
p967
L9L
L7L
tp968
g9
s(V18*AD
p969
L9L
L7L
tp970
g9
s(V6*D
p971
L6L
L7L
tp972
g9
s(L8L
L17L
Ntp973
Ns(V13*AD
p974
L2L
L7L
tp975
g9
s(L18L
L19L
Ntp976
Ns(V18*AD
p977
L5L
L7L
tp978
g30
s(V13*
p979
L4L
L7L
tp980
g3
s(V20*A
p981
L3L
L7L
tp982
g3
s(V12*ADS
p983
L6L
L7L
tp984
g9
s(L21L
L23L
Ntp985
Ns(V16*
p986
L8L
L7L
tp987
g3
s(V14*AD
p988
L10L
L7L
tp989
g9
s(V19*D
p990
L7L
L7L
tp991
g3
s(V14*DS
p992
L3L
L7L
tp993
g3
s(g203
L21L
Ntp994
Ns(V16*D
p995
L6L
L7L
tp996
g3
s(V8*
p997
L2L
L7L
tp998
g9
s(V5*D
p999
L3L
L7L
tp1000
g9
s(V16*D
p1001
L10L
L7L
tp1002
g3
s(L21L
L4L
L7L
tp1003
g3
s(V5*D
p1004
L9L
L7L
tp1005
g9
s(V10*D
p1006
L10L
L7L
tp1007
g30
s(V17*D
p1008
L6L
L7L
tp1009
g3
s(V12*ADS
p1010
L10L
L7L
tp1011
g9
s(V15*A
p1012
L7L
L7L
tp1013
g9
s(g712
L11L
L7L
tp1014
g3
s(V12*
p1015
L9L
L7L
tp1016
g9
s(V8*DS
p1017
L2L
L7L
tp1018
g9
s(L16L
L26L
Ntp1019
Ns(V14*D
p1020
L2L
L7L
tp1021
g3
s(V21*
p1022
L10L
L7L
tp1023
g3
s(V12*
p1024
L3L
L7L
tp1025
g3
s(V8*DS
p1026
L4L
L7L
tp1027
g30
s(L9L
L18L
Ntp1028
Ns(V14*
p1029
L3L
L7L
tp1030
g3
s(V9*
p1031
L8L
L7L
tp1032
g9
s(V21*
p1033
L6L
L7L
tp1034
g3
s(V14*
p1035
L5L
L7L
tp1036
g3
s(g126
L11L
L7L
tp1037
g3
s(g754
L21L
Ntp1038
Ns(g746
L11L
L7L
tp1039
g9
s(V15*D
p1040
L5L
L7L
tp1041
g3
s(V18*D
p1042
L5L
L7L
tp1043
g3
s(V20*AD
p1044
L2L
L7L
tp1045
g3
s(V20*DS
p1046
L7L
L7L
tp1047
g3
s(V12*D
p1048
L6L
L7L
tp1049
g3
s(V6*D
p1050
L10L
L7L
tp1051
g9
s(L23L
NNtp1052
Ns(L8L
L20L
Ntp1053
Ns(L8L
L23L
Ntp1054
Ns(V14*AD
p1055
L6L
L7L
tp1056
g30
s(V19*D
p1057
L11L
L7L
tp1058
g3
s(L21L
L20L
Ntp1059
Ns(V16*A
p1060
L4L
L7L
tp1061
g9
s(V7*
p1062
L2L
L7L
tp1063
g9
s(L16L
L21L
Ntp1064
Ns(V16*A
p1065
L2L
L7L
tp1066
g9
s(V8*
p1067
L4L
L7L
tp1068
g9
s(L19L
L17L
Ntp1069
Ns(V11*D
p1070
L4L
L7L
tp1071
g30
s(V6*
p1072
L11L
L7L
tp1073
g9
s(V6*DS
p1074
L10L
L7L
tp1075
g9
s(V15*A
p1076
L11L
L7L
tp1077
g9
s(V11*D
p1078
L10L
L7L
tp1079
g30
s(V6*
p1080
L5L
L7L
tp1081
g9
s(g660
L21L
Ntp1082
Ns(V15*
p1083
L10L
L7L
tp1084
g3
s(L20L
L24L
Ntp1085
Ns(L20L
L18L
Ntp1086
Ns(V12*DS
p1087
L10L
L7L
tp1088
g9
s(L15L
L23L
Ntp1089
Ns(V14*
p1090
L9L
L7L
tp1091
g9
s(V16*AD
p1092
L8L
L7L
tp1093
g9
s(g184
L21L
Ntp1094
Ns(V16*AD
p1095
L6L
L7L
tp1096
g30
s(V12*DS
p1097
L6L
L7L
tp1098
g3
s(V13*A
p1099
L8L
L7L
tp1100
g9
s(g742
L11L
L7L
tp1101
g3
s(V13*A
p1102
L6L
L7L
tp1103
g9
s(V18*
p1104
L8L
L7L
tp1105
g3
s(V18*
p1106
L6L
L7L
tp1107
g3
s(L17L
L22L
Ntp1108
Ns(L8L
L25L
Ntp1109
Ns(L20L
L20L
Ntp1110
Ns(g121
L11L
L7L
tp1111
g9
s(V19*AD
p1112
L9L
L7L
tp1113
g3
s(g303
L21L
Ntp1114
Ns(L14L
L26L
Ntp1115
Ns(V17*
p1116
L6L
L7L
tp1117
g3
s(V17*
p1118
L8L
L7L
tp1119
g3
s(V11*
p1120
L10L
L7L
tp1121
g9
s(V12*ADS
p1122
L21L
Ntp1123
Ns(L21L
L17L
Ntp1124
Ns(V10*D
p1125
L21L
Ntp1126
Ns(V21*A
p1127
L7L
L7L
tp1128
g3
s(V6*DS
p1129
L6L
L7L
tp1130
g9
s(L15L
L24L
Ntp1131
Ns(L19L
L24L
Ntp1132
Ns(V13*AD
p1133
L3L
L7L
tp1134
g9
s(V15*
p1135
L6L
L7L
tp1136
g3
s(L4L
L17L
Ntp1137
Ns(L19L
L18L
Ntp1138
Ns(V13*AD
p1139
L5L
L7L
tp1140
g30
s(V15*AD
p1141
L2L
L7L
tp1142
g9
s(V20*D
p1143
L9L
L7L
tp1144
g3
s(V13*
p1145
L9L
L7L
tp1146
g9
s(L9L
L26L
Ntp1147
Ns(L18L
L25L
Ntp1148
Ns(V20*D
p1149
L7L
L7L
tp1150
g3
s(V10*DS
p1151
L4L
L7L
tp1152
g30
s(V16*
p1153
L7L
L7L
tp1154
g9
s(V10*
p1155
L10L
L7L
tp1156
g9
s(V9*D
p1157
L5L
L7L
tp1158
g30
s(V10*DS
p1159
L10L
L7L
tp1160
g30
s(g878
L21L
Ntp1161
Ns(V14*A
p1162
L2L
L7L
tp1163
g9
s(V10*
p1164
L4L
L7L
tp1165
g9
s(V16*DS
p1166
L10L
L7L
tp1167
g3
s(V14*A
p1168
L8L
L7L
tp1169
g9
s(L16L
L25L
Ntp1170
Ns(V5*D
p1171
L8L
L7L
tp1172
g9
s(g1125
L11L
L7L
tp1173
g30
s(V17*D
p1174
L7L
L7L
tp1175
g3
s(g1122
L11L
L7L
tp1176
g9
s(V23*
p1177
NNtp1178
Ns(L21L
L9L
L7L
tp1179
g3
s(V8*D
p1180
L5L
L7L
tp1181
g30
s(V18*DS
p1182
L5L
L7L
tp1183
g3
s(V17*A
p1184
L7L
L7L
tp1185
g9
s(V12*
p1186
L2L
L7L
tp1187
g3
s(V19*AD
p1188
L5L
L7L
tp1189
g30
s(L8L
L22L
Ntp1190
Ns(V12*
p1191
L4L
L7L
tp1192
g3
s(V14*D
p1193
L7L
L7L
tp1194
g9
s(V9*
p1195
L9L
L7L
tp1196
g9
s(L20L
L23L
Ntp1197
Ns(V9*
p1198
L5L
L7L
tp1199
g9
s(V15*D
p1200
L4L
L7L
tp1201
g3
s(g803
L21L
Ntp1202
Ns(L10L
L21L
Ntp1203
Ns(V15*D
p1204
L2L
L7L
tp1205
g3
s(L18L
L18L
Ntp1206
Ns(V15*D
p1207
L8L
L7L
tp1208
g9
s(V6*D
p1209
L11L
L7L
tp1210
g9
s(L17L
L26L
Ntp1211
Ns(g1057
L21L
Ntp1212
Ns(V6*D
p1213
L7L
L7L
tp1214
g9
s(L19L
L23L
Ntp1215
Ns(V14*AD
p1216
L7L
L7L
tp1217
g9
s(V19*D
p1218
L10L
L7L
tp1219
g3
s(V13*
p1220
L5L
L7L
tp1221
g3
s(V18*AD
p1222
L2L
L7L
tp1223
g30
s(L20L
L26L
Ntp1224
Ns(V20*A
p1225
L2L
L7L
tp1226
g3
s(V16*
p1227
L11L
L7L
tp1228
g9
s(V9*D
p1229
L9L
L7L
tp1230
g9
s(g208
L11L
L7L
tp1231
g9
s(V19*D
p1232
L6L
L7L
tp1233
g3
s(L9L
L21L
Ntp1234
Ns(V9*D
p1235
L3L
L7L
tp1236
g30
s(V14*DS
p1237
L2L
L7L
tp1238
g3
s(V7*
p1239
L7L
L7L
tp1240
g9
s(V8*
p1241
L5L
L7L
tp1242
g9
s(g1076
L21L
Ntp1243
Ns(V16*D
p1244
L3L
L7L
tp1245
g3
s(V8*
p1246
L3L
L7L
tp1247
g9
s(g344
L21L
Ntp1248
Ns(V15*A
p1249
L10L
L7L
tp1250
g9
s(V5*D
p1251
L2L
L7L
tp1252
g9
s(L21L
L5L
L7L
tp1253
g3
s(L15L
L20L
Ntp1254
Ns(V8*D
p1255
L9L
L7L
tp1256
g9
s(V18*DS
p1257
L9L
L7L
tp1258
g3
s(V15*A
p1259
L6L
L7L
tp1260
g9
s(V18*A
p1261
L4L
L7L
tp1262
g3
s(V8*D
p1263
L3L
L7L
tp1264
g9
s(V18*DS
p1265
L3L
L7L
tp1266
g3
s(V12*
p1267
L8L
L7L
tp1268
g9
s(V8*DS
p1269
L7L
L7L
tp1270
g9
s(V8*DS
p1271
L9L
L7L
tp1272
g9
s(L21L
L25L
Ntp1273
Ns(V14*
p1274
L6L
L7L
tp1275
g3
s(V16*AD
p1276
L3L
L7L
tp1277
g30
s(V17*AD
p1278
L4L
L7L
tp1279
g30
s(V18*D
p1280
L6L
L7L
tp1281
g3
s(L14L
L21L
Ntp1282
Ns(g114
L21L
Ntp1283
Ns(V20*AD
p1284
L3L
L7L
tp1285
g3
s(V20*DS
p1286
L4L
L7L
tp1287
g3
s(V18*
p1288
L3L
L7L
tp1289
g3
s(V12*D
p1290
L5L
L7L
tp1291
g3
s(L19L
L26L
Ntp1292
Ns(V12*D
p1293
L11L
L7L
tp1294
g9
s(L8L
L19L
Ntp1295
Ns(V20*
p1296
L10L
L7L
tp1297
g3
s(g1293
L21L
Ntp1298
Ns(V7*
p1299
L11L
L7L
tp1300
g9
s(g884
L11L
L7L
tp1301
g9
s(L16L
L17L
Ntp1302
Ns(V13*D
p1303
L10L
L7L
tp1304
g9
s(g606
L21L
Ntp1305
Ns(V11*D
p1306
L3L
L7L
tp1307
g30
s(g262
L11L
L7L
tp1308
g9
s(V15*
p1309
L3L
L7L
tp1310
g3
s(V11*D
p1311
L9L
L7L
tp1312
g30
s(L15L
L18L
Ntp1313
Ns(V6*
p1314
L6L
L7L
tp1315
g9
s(V15*
p1316
L9L
L7L
tp1317
g9
s(V15*AD
p1318
L7L
L7L
tp1319
g9
s(V18*A
p1320
L2L
L7L
tp1321
g3
s(L20L
L22L
Ntp1322
Ns(L20L
L17L
Ntp1323
Ns(L22L
NNtp1324
Ns(V14*A
p1325
L9L
L7L
tp1326
g9
s(V14*
p1327
L10L
L7L
tp1328
g9
s(V16*AD
p1329
L5L
L7L
tp1330
g30
s(V13*A
p1331
L9L
L7L
tp1332
g9
s(V17*AD
p1333
L2L
L7L
tp1334
g30
s(V20*DS
p1335
L8L
L7L
tp1336
g3
s(V13*A
p1337
L7L
L7L
tp1338
g9
s(L17L
L18L
Ntp1339
Ns(V17*A
p1340
L6L
L7L
tp1341
g9
s(V18*
p1342
L5L
L7L
tp1343
g3
s(L17L
L24L
Ntp1344
Ns(L19L
L25L
Ntp1345
Ns(V20*
p1346
L6L
L7L
tp1347
g3
s(V17*A
p1348
L10L
L7L
tp1349
g9
s(V19*AD
p1350
L8L
L7L
tp1351
g3
s(V17*
p1352
L7L
L7L
tp1353
g3
s(g1209
L21L
Ntp1354
Ns(g851
L21L
Ntp1355
Ns(V17*
p1356
L9L
L7L
tp1357
g3
s(V11*
p1358
L5L
L7L
tp1359
g9
s(L21L
L21L
Ntp1360
Ns(L21L
L18L
Ntp1361
Ns(L14L
L19L
Ntp1362
Ns(L16L
L23L
Ntp1363
Ns(V13*D
p1364
L6L
L7L
tp1365
g3
s(V21*A
p1366
L4L
L7L
tp1367
g3
s(V6*DS
p1368
L7L
L7L
tp1369
g9
s(V21*A
p1370
L10L
L7L
tp1371
g3
s(L4L
L21L
Ntp1372
Ns(L12L
L22L
Ntp1373
Ns(g1227
L21L
Ntp1374
Ns(V15*
p1375
L5L
L7L
tp1376
g3
s(g408
L11L
L7L
tp1377
g9
s(L12L
L17L
Ntp1378
Ns(V13*AD
p1379
L6L
L7L
tp1380
g30
s(V16*
p1381
L10L
L7L
tp1382
g3
s(V13*AD
p1383
L8L
L7L
tp1384
g9
s(V20*D
p1385
L8L
L7L
tp1386
g3
s(V13*
p1387
L10L
L7L
tp1388
g9
s(V20*A
p1389
L9L
L7L
tp1390
g3
s(V9*D
p1391
L2L
L7L
tp1392
g30
s(g63
L21L
Ntp1393
Ns(V20*D
p1394
L6L
L7L
tp1395
g3
s(V10*DS
p1396
L3L
L7L
tp1397
g30
s(V16*
p1398
L6L
L7L
tp1399
g3
s(V9*D
p1400
L4L
L7L
tp1401
g30
s(V10*DS
p1402
L9L
L7L
tp1403
g30
s(V14*A
p1404
L3L
L7L
tp1405
g9
s(V10*
p1406
L7L
L7L
tp1407
g9
s(g231
L11L
L7L
tp1408
g9
s(V14*DS
p1409
L9L
L7L
tp1410
g9
s(V10*D
p1411
L4L
L7L
tp1412
g30
s(V5*D
p1413
L7L
L7L
tp1414
g9
s(V17*D
p1415
L8L
L7L
tp1416
g3
s(V12*ADS
p1417
L4L
L7L
tp1418
g9
s(V17*D
p1419
L2L
L7L
tp1420
g3
s(L21L
L10L
L7L
tp1421
g3
s(L6L
L22L
Ntp1422
Ns(V8*D
p1423
L2L
L7L
tp1424
g9
s(V18*DS
p1425
L2L
L7L
tp1426
g3
s(V8*D
p1427
L4L
L7L
tp1428
g30
s(V19*AD
p1429
L4L
L7L
tp1430
g30
s(V12*
p1431
L7L
L7L
tp1432
g9
s.