(dp0
(L13L
L21L
Ntp1
L0L
s(V12*
p2
L8L
L6L
tp3
F-0.3190198275892937
s(V17*
p4
L10L
L6L
tp5
F-0.5043985369330022
s(L13L
L18L
Ntp6
L0L
s(L13L
L24L
Ntp7
L0L
s(V4*DS
p8
L6L
L6L
tp9
F0.07386052425640999
s(V6*DS
p10
L4L
L6L
tp11
F-0.000549671772162863
s(L6L
L26L
Ntp12
L0L
s(V11*D
p13
L21L
Ntp14
L0L
s(L15L
L26L
Ntp15
L0L
s(V20*AD
p16
L3L
L6L
tp17
F0.65007912940851
s(V18*AD
p18
L6L
L6L
tp19
F0.522088561817829
s(L19L
L19L
Ntp20
L0L
s(L19L
L20L
Ntp21
L0L
s(V20*A
p22
L21L
Ntp23
L0L
s(V20*D
p24
L5L
L6L
tp25
F0.6932857314230422
s(V9*D
p26
L7L
L6L
tp27
F0.2795872652331345
s(L17L
L21L
Ntp28
L0L
s(V16*DS
p29
L8L
L6L
tp30
F-0.5232365327294188
s(V16*DS
p31
L6L
L6L
tp32
F-0.07896719480119146
s(V16*D
p33
L9L
L6L
tp34
F-0.5659473627794577
s(V8*D
p35
L7L
L6L
tp36
F0.1256254945132825
s(V18*DS
p37
L7L
L6L
tp38
F0.4605235500768976
s(V19*AD
p39
L7L
L6L
tp40
F0.6637819598069359
s(V6*DS
p41
L11L
L6L
tp42
F-0.5834090977062745
s(V14*D
p43
L5L
L6L
tp44
F-0.06579837500396798
s(V14*D
p45
L11L
L6L
tp46
F-0.6740083232698317
s(V25*
p47
NNtp48
L0L
s(V21*
p49
L5L
L6L
tp50
F0.898630884888436
s(V8*DS
p51
L21L
Ntp52
L0L
s(L4L
L24L
Ntp53
L0L
s(V18*D
p54
L8L
L6L
tp55
F0.10535030668900891
s(V12*
p56
L21L
Ntp57
L0L
s(L4L
L18L
Ntp58
L0L
s(V18*D
p59
L2L
L6L
tp60
F0.14589541674231674
s(V14*A
p61
L9L
L6L
tp62
F-0.1596582661464525
s(L14L
L17L
Ntp63
L0L
s(L18L
L22L
Ntp64
L0L
s(V13*A
p65
L9L
L6L
tp66
F-0.10654769924896526
s(V13*A
p67
L7L
L6L
tp68
F0.06687011043417472
s(V18*AD
p69
L10L
L6L
tp70
F-0.27292160282788874
s(V17*A
p71
L6L
L6L
tp72
F0.17855509009892073
s(V9*D
p73
L11L
L6L
tp74
F-0.37703459574080195
s(V17*A
p75
L10L
L6L
tp76
F-0.335424686222856
s(V10*DS
p77
L21L
Ntp78
L0L
s(V19*AD
p79
L8L
L6L
tp80
F0.6282477992284139
s(V17*A
p81
L21L
Ntp82
L0L
s(V4*DS
p83
L21L
Ntp84
L0L
s(V18*D
p85
L21L
Ntp86
L0L
s(L4L
L20L
Ntp87
L0L
s(V17*
p88
L7L
L6L
tp89
F-0.07947113481437709
s(V7*
p90
L5L
L6L
tp91
F0.08388046980074546
s(V17*
p92
L9L
L6L
tp93
F-0.4549998053593871
s(V16*D
p94
L5L
L6L
tp95
F-0.06579837500396798
s(V11*D
p96
L7L
L6L
tp97
F0.6083570921528175
s(V6*
p98
L8L
L6L
tp99
F-0.27861692344135286
s(V6*
p100
L2L
L6L
tp101
F-0.09790894476430072
s(V8*D
p102
L11L
L6L
tp103
F-0.47794213828085347
s(V18*DS
p104
L11L
L6L
tp105
F-0.41149484652696877
s(L15L
L22L
Ntp106
L0L
s(V18*A
p107
L6L
L6L
tp108
F0.35664218991997815
s(V6*DS
p109
L7L
L6L
tp110
F-0.20235336712871096
s(V18*A
p111
L8L
L6L
tp112
F0.10535030668900891
s(V21*
p113
L9L
L6L
tp114
F0.9468765405030497
s(L13L
L19L
Ntp115
L0L
s(L20L
L21L
Ntp116
L0L
s(V16*AD
p117
L11L
L6L
tp118
F-0.5124411503331684
s(V16*
p119
L10L
L6L
tp120
F-0.6081619674538539
s(g51
L11L
L6L
tp121
F-0.47794213828085347
s(V20*D
p122
L8L
L6L
tp123
F0.8172062533938136
s(V21*
p124
L3L
L6L
tp125
F0.8840515169972878
s(L6L
L17L
Ntp126
L0L
s(V9*D
p127
L2L
L6L
tp128
F0.21212388003325766
s(V12*DS
p129
L5L
L6L
tp130
F-0.06579837500396798
s(V20*D
p131
L6L
L6L
tp132
F0.7298520299007704
s(L17L
L25L
Ntp133
L0L
s(V16*
p134
L6L
L6L
tp135
F-0.07896719480119146
s(V9*D
p136
L4L
L6L
tp137
F0.37507532470068566
s(V17*AD
p138
L6L
L6L
tp139
F0.3571101801978415
s(V28*
p140
NNtp141
L0L
s(V18*
p142
L11L
L6L
tp143
F-0.41149484652696877
s(V14*A
p144
L3L
L6L
tp145
F0.07078795876666508
s(V17*AD
p146
L8L
L6L
tp147
F-0.136537701861128
s(V16*DS
p148
L11L
L6L
tp149
F-0.7240177064658793
s(V20*DS
p150
L2L
L6L
tp151
F0.6396428752686352
s(V12*D
p152
L3L
L6L
tp153
F-0.17563189374972984
s(V18*AD
p154
L21L
Ntp155
L0L
s(V20*
p156
L2L
L6L
tp157
F0.6396428752686352
s(V12*D
p158
L9L
L6L
tp159
F-0.3914630751602628
s(L19L
L21L
Ntp160
L0L
s(V8*D
p161
L2L
L6L
tp162
F0.03600808711815259
s(V18*DS
p163
L2L
L6L
tp164
F0.14589541674231674
s(L19L
L22L
Ntp165
L0L
s(V20*
p166
L8L
L6L
tp167
F0.8172062533938136
s(L16L
L22L
Ntp168
L0L
s(V8*D
p169
L4L
L6L
tp170
F0.12486110954841774
s(V18*DS
p171
L4L
L6L
tp172
F0.22832619516448627
s(V19*AD
p173
L4L
L6L
tp174
F0.5070830294038323
s(V14*D
p175
L6L
L6L
tp176
F-0.07896719480119146
s(V7*
p177
L9L
L6L
tp178
F-0.3329578313826756
s(V16*A
p179
L9L
L6L
tp180
F-0.2411898906619823
s(L21L
L22L
Ntp181
L0L
s(V13*D
p182
L2L
L6L
tp183
F-0.22924882713812378
s(V16*A
p184
L7L
L6L
tp185
F-0.08231397426600696
s(V13*D
p186
L8L
L6L
tp187
F-0.37972445742866756
s(V18*D
p188
L7L
L6L
tp189
F0.4605235500768976
s(V14*DS
p190
L21L
Ntp191
L0L
s(V15*AD
p192
L5L
L6L
tp193
F0.2237677465535743
s(L12L
L21L
Ntp194
L0L
s(V14*AD
p195
L21L
Ntp196
L0L
s(V10*DS
p197
L7L
L6L
tp198
F0.5757984095242186
s(V10*
p199
L9L
L6L
tp200
F0.16355820803412346
s(V10*
p201
L3L
L6L
tp202
F0.29318046286909694
s(V18*AD
p203
L3L
L6L
tp204
F0.2752120439947432
s(L20L
L19L
Ntp205
L0L
s(V12*DS
p206
L9L
L6L
tp207
F-0.3914630751602628
s(L4L
L26L
Ntp208
L0L
s(V9*D
p209
L8L
L6L
tp210
F0.1425044577841718
s(V12*DS
p211
L3L
L6L
tp212
F-0.17563189374972984
s(L17L
L19L
Ntp213
L0L
s(g148
L21L
Ntp214
L0L
s(V7*
p215
L6L
L6L
tp216
F0.1081850537532372
s(L11L
L21L
Ntp217
L0L
s(L11L
L22L
Ntp218
L0L
s(V16*D
p219
L2L
L6L
tp220
F-0.22924882713812378
s(V11*D
p221
L8L
L6L
tp222
F0.4816743474116125
s(L6L
L24L
Ntp223
L0L
s(V6*
p224
L7L
L6L
tp225
F-0.20235336712871096
s(V20*
p226
L4L
L6L
tp227
F0.6695367281757314
s(g41
L21L
Ntp228
L0L
s(V18*A
p229
L3L
L6L
tp230
F0.18627333018611178
s(V8*D
p231
L8L
L6L
tp232
F-0.05628539631200587
s(V18*DS
p233
L8L
L6L
tp234
F0.10535030668900891
s(V18*A
p235
L5L
L6L
tp236
F0.26741452931792065
s(L13L
L22L
Ntp237
L0L
s(V9*
p238
L6L
L6L
tp239
F0.29263624627892204
s(V11*
p240
L7L
L6L
tp241
F0.34431259660754854
s(V14*
p242
L11L
L6L
tp243
F-0.6740083232698317
s(V8*DS
p244
L6L
L6L
tp245
F0.28688944521921167
s(V11*
p246
L9L
L6L
tp247
F0.19749517939996447
s(V16*AD
p248
L4L
L6L
tp249
F0.13509804674117756
s(V15*D
p250
L11L
L6L
tp251
F-0.7078471368128035
s(V8*DS
p252
L8L
L6L
tp253
F-0.05628539631200587
s(V13*D
p254
L4L
L6L
tp255
F-0.12083749765002366
s(V14*
p256
L7L
L6L
tp257
F-0.3853335052347085
s(V19*
p258
L21L
Ntp259
L0L
s(V16*AD
p260
L2L
L6L
tp261
F-0.012729607565616113
s(V21*A
p262
L2L
L6L
tp263
F0.8812144116080699
s(V17*AD
p264
L3L
L6L
tp265
F0.12355930711830046
s(V20*DS
p266
L9L
L6L
tp267
F0.7712095792320603
s(V21*A
p268
L8L
L6L
tp269
F0.9384865081823058
s(V17*AD
p270
L5L
L6L
tp271
F0.3038136294950997
s(L24L
NNtp272
L0L
s(V6*D
p273
L4L
L6L
tp274
F-0.000549671772162863
s(V18*
p275
L4L
L6L
tp276
F0.22832619516448627
s(V15*AD
p277
L9L
L6L
tp278
F-0.2140136230232348
s(V20*DS
p279
L5L
L6L
tp280
F0.6932857314230422
s(V18*
p281
L2L
L6L
tp282
F0.14589541674231674
s(V13*
p283
L2L
L6L
tp284
F-0.22924882713812378
s(L12L
L19L
Ntp285
L0L
s(V13*AD
p286
L10L
L6L
tp287
F-0.2505609339602046
s(V12*D
p288
L4L
L6L
tp289
F-0.12083749765002366
s(L12L
L26L
Ntp290
L0L
s(g22
L11L
L6L
tp291
F0.07438830453694753
s(V14*AD
p292
L8L
L6L
tp293
F-0.06537805465451246
s(V12*D
p294
L10L
L6L
tp295
F-0.48634883398094436
s(V19*D
p296
L5L
L6L
tp297
F0.48287939860162055
s(V20*
p298
L11L
L6L
tp299
F0.07438830453694753
s(L17L
L17L
Ntp300
L0L
s(g190
L11L
L6L
tp301
F-0.6740083232698317
s(V
p302
g302
L6L
tp303
F0.01690136509631821
s(g242
L21L
Ntp304
L0L
s(L21L
L2L
L6L
tp305
F1.5
s(V5*D
p306
L5L
L6L
tp307
F0.05661807476447582
s(V10*D
p308
L6L
L6L
tp309
F0.7787662816975242
s(V17*D
p310
L10L
L6L
tp311
F-0.5043985369330022
s(V12*ADS
p312
L6L
L6L
tp313
F0.2213664054879376
s(V7*
p314
L10L
L6L
tp315
F-0.4222761451468983
s(V10*D
p316
L8L
L6L
tp317
F0.4510246478081638
s(V5*D
p318
L11L
L6L
tp319
F-0.5684310026421512
s(V17*D
p320
L4L
L6L
tp321
F-0.0026562473892003877
s(V12*ADS
p322
L8L
L6L
tp323
F0.04516508561270042
s(V16*A
p324
L10L
L6L
tp325
F-0.35483304700054075
s(V15*A
p326
L5L
L6L
tp327
F0.13556289483260092
s(L10L
L22L
Ntp328
L0L
s(V13*D
p329
L11L
L6L
tp330
F-0.6395157990418259
s(V15*
p331
L4L
L6L
tp332
F-0.12083749765002366
s(V11*D
p333
L2L
L6L
tp334
F0.630936311681263
s(L6L
L18L
Ntp335
L0L
s(V17*
p336
L21L
Ntp337
L0L
s(V15*
p338
L2L
L6L
tp339
F-0.22924882713812378
s(V15*
p340
L8L
L6L
tp341
F-0.49474748026648036
s(V9*
p342
L10L
L6L
tp343
F-0.24780873766333752
s(V15*AD
p344
L6L
L6L
tp345
F0.23807940944528352
s(g104
L21L
Ntp346
L0L
s(g102
L21L
Ntp347
L0L
s(L13L
L25L
Ntp348
L0L
s(V19*A
p349
L7L
L6L
tp350
F0.6637819598069359
s(V10*DS
p351
L8L
L6L
tp352
F0.4510246478081638
s(V10*
p353
L6L
L6L
tp354
F0.3893831408487621
s(L4L
L22L
Ntp355
L0L
s(V15*D
p356
L7L
L6L
tp357
F-0.4445576698121817
s(L18L
L20L
Ntp358
L0L
s(V20*AD
p359
L10L
L6L
tp360
F0.38821488432560025
s(L18L
L26L
Ntp361
L0L
s(V6*D
p362
L8L
L6L
tp363
F-0.27861692344135286
s(L11L
L26L
Ntp364
L0L
s(g250
L21L
Ntp365
L0L
s(V6*D
p366
L2L
L6L
tp367
F-0.09790894476430072
s(V20*A
p368
L7L
L6L
tp369
F0.7993513804022139
s(L11L
L25L
Ntp370
L0L
s(V19*D
p371
L9L
L6L
tp372
F0.2616143693449181
s(V14*AD
p373
L4L
L6L
tp374
F0.15293900479892578
s(V20*
p375
L7L
L6L
tp376
F0.7993513804022139
s(V19*D
p377
L3L
L6L
tp378
F0.4176669233572404
s(V14*DS
p379
L7L
L6L
tp380
F-0.3853335052347085
s(L10L
L26L
Ntp381
L0L
s(V11*
p382
L2L
L6L
tp383
F0.3154681558406316
s(V8*
p384
L8L
L6L
tp385
F-0.05628539631200587
s(L10L
L25L
Ntp386
L0L
s(V8*
p387
L6L
L6L
tp388
F0.20709070378682065
s(V11*
p389
L4L
L6L
tp390
F0.3757672606155955
s(V15*A
p391
L9L
L6L
tp392
F-0.2140136230232348
s(V7*D
p393
L3L
L6L
tp394
F-0.012476361397540405
s(V13*D
p395
L7L
L6L
tp396
F-0.32301531469747213
s(V15*A
p397
L3L
L6L
tp398
F0.043910547235577996
s(V21*A
p399
L5L
L6L
tp400
F0.898630884888436
s(V7*D
p401
L9L
L6L
tp402
F-0.3329578313826756
s(V21*A
p403
L11L
L6L
tp404
F0.24482314302395314
s(V13*
p405
L7L
L6L
tp406
F-0.32301531469747213
s(V15*AD
p407
L10L
L6L
tp408
F-0.33731152654308244
s(V13*AD
p409
L7L
L6L
tp410
F0.06687011043417472
s(V15*AD
p411
L21L
Ntp412
L0L
s(L13L
L20L
Ntp413
L0L
s(V19*
p414
L6L
L6L
tp415
F0.5437115049926442
s(V13*AD
p416
L9L
L6L
tp417
F-0.10654769924896526
s(V19*A
p418
L11L
L6L
tp419
F-0.1700915896704893
s(V13*
p420
L11L
L6L
tp421
F-0.6395157990418259
s(V20*A
p422
L8L
L6L
tp423
F0.8172062533938136
s(V13*A
p424
L10L
L6L
tp425
F-0.2505609339602046
s(V10*DS
p426
L2L
L6L
tp427
F0.5256986412037115
s(V20*AD
p428
L6L
L6L
tp429
F0.7298520299007704
s(L14L
L23L
Ntp430
L0L
s(V14*DS
p431
L8L
L6L
tp432
F-0.4386871469018866
s(V10*D
p433
L3L
L6L
tp434
F0.5863609257381938
s(L21L
L7L
L6L
tp435
F1.5
s(V12*ADS
p436
L3L
L6L
tp437
F0.122328509644822
s(V10*D
p438
L5L
L6L
tp439
F0.7291510009337382
s(V5*D
p440
L6L
L6L
tp441
F0.0584560252566607
s(V17*D
p442
L9L
L6L
tp443
F-0.4549998053593871
s(V12*ADS
p444
L5L
L6L
tp445
F0.20746037420348176
s(V17*A
p446
L9L
L6L
tp447
F-0.22411283182070116
s(V17*D
p448
L3L
L6L
tp449
F-0.053181927634766805
s(L21L
L11L
L6L
tp450
F0.9692307692307693
s(L12L
L18L
Ntp451
L0L
s(L28L
NNtp452
L0L
s(V12*
p453
L10L
L6L
tp454
F-0.48634883398094436
s(L16L
L18L
Ntp455
L0L
s(V17*
p456
L4L
L6L
tp457
F-0.0026562473892003877
s(V12*
p458
L6L
L6L
tp459
F-0.07896719480119146
s(V4*DS
p460
L2L
L6L
tp461
F-0.07352084133634695
s(V22*
p462
NNtp463
L0L
s(V4*DS
p464
L8L
L6L
tp465
F-0.2106001883719912
s(V19*A
p466
L2L
L6L
tp467
F0.3919937145989574
s(V9*
p468
L3L
L6L
tp469
F0.17860406229158823
s(L9L
L19L
Ntp470
L0L
s(L11L
L20L
Ntp471
L0L
s(V19*A
p472
L4L
L6L
tp473
F0.4514672365303704
s(V12*DS
p474
L21L
Ntp475
L0L
s(V7*D
p476
L5L
L6L
tp477
F0.08388046980074546
s(V20*AD
p478
L9L
L6L
tp479
F0.7712095792320603
s(V20*D
p480
L11L
L6L
tp481
F0.07438830453694753
s(L14L
L24L
Ntp482
L0L
s(V16*
p483
L5L
L6L
tp484
F-0.06579837500396798
s(V19*
p485
L10L
L6L
tp486
F-0.09457521438188037
s(L13L
L17L
Ntp487
L0L
s(V14*A
p488
L4L
L6L
tp489
F0.1151969254446572
s(V20*A
p490
L4L
L6L
tp491
F0.6695367281757314
s(L13L
L23L
Ntp492
L0L
s(V14*AD
p493
L3L
L6L
tp494
F0.07078795876666508
s(V14*A
p495
L10L
L6L
tp496
F-0.29336171704742503
s(L6L
L23L
Ntp497
L0L
s(V26*
p498
NNtp499
L0L
s(V16*DS
p500
L2L
L6L
tp501
F-0.22924882713812378
s(V14*DS
p502
L4L
L6L
tp503
F-0.12083749765002366
s(L11L
L18L
Ntp504
L0L
s(V8*
p505
L11L
L6L
tp506
F-0.47794213828085347
s(g329
L21L
Ntp507
L0L
s(V17*A
p508
L5L
L6L
tp509
F0.1519068147475499
s(V19*AD
p510
L3L
L6L
tp511
F0.4277867239635877
s(L18L
L23L
Ntp512
L0L
s(V17*
p513
L2L
L6L
tp514
F-0.10229424776512522
s(V7*D
p515
L10L
L6L
tp516
F-0.4222761451468983
s(L15L
L17L
Ntp517
L0L
s(V19*
p518
L3L
L6L
tp519
F0.4176669233572404
s(V4*DS
p520
L4L
L6L
tp521
F0.021754371584488216
s(L10L
L24L
Ntp522
L0L
s(V19*
p523
L5L
L6L
tp524
F0.48287939860162055
s(V19*A
p525
L8L
L6L
tp526
F0.6282477992284139
s(V13*A
p527
L5L
L6L
tp528
F0.1842256521540429
s(V13*A
p529
L3L
L6L
tp530
F0.09704770888758799
s(V20*AD
p531
L5L
L6L
tp532
F0.6932857314230422
s(L17L
L20L
Ntp533
L0L
s(L12L
L23L
Ntp534
L0L
s(V18*AD
p535
L4L
L6L
tp536
F0.3602254437826245
s(L12L
L25L
Ntp537
L0L
s(V16*
p538
L9L
L6L
tp539
F-0.5659473627794577
s(V16*
p540
L3L
L6L
tp541
F-0.17563189374972984
s(g336
L11L
L6L
tp542
F-0.642792559752484
s(V16*DS
p543
L4L
L6L
tp544
F-0.12083749765002366
s(V16*D
p545
L11L
L6L
tp546
F-0.7240177064658793
s(L11L
L23L
Ntp547
L0L
s(g83
L11L
L6L
tp548
F-0.5436698676985973
s(V6*DS
p549
L5L
L6L
tp550
F0.04931655869935979
s(L11L
L17L
Ntp551
L0L
s(L4L
L25L
Ntp552
L0L
s(V6*DS
p553
L3L
L6L
tp554
F-0.05016994434661667
s(L4L
L19L
Ntp555
L0L
s(V6*DS
p556
L9L
L6L
tp557
F-0.35583641300662927
s(V14*D
p558
L3L
L6L
tp559
F-0.17563189374972984
s(L16L
L20L
Ntp560
L0L
s(V8*DS
p561
L5L
L6L
tp562
F0.2185337060351421
s(V7*D
p563
L6L
L6L
tp564
F0.1081850537532372
s(V14*D
p565
L9L
L6L
tp566
F-0.49811142024035565
s(L18L
L17L
Ntp567
L0L
s(L9L
L24L
Ntp568
L0L
s(V21*
p569
L7L
L6L
tp570
F0.9340035060749721
s(V20*D
p571
L4L
L6L
tp572
F0.6695367281757314
s(V14*
p573
L4L
L6L
tp574
F-0.12083749765002366
s(L13L
L26L
Ntp575
L0L
s(V20*D
p576
L2L
L6L
tp577
F0.6396428752686352
s(V18*D
p578
L10L
L6L
tp579
F-0.29886662169200107
s(V19*
p580
L9L
L6L
tp581
F0.2616143693449181
s(V18*D
p582
L4L
L6L
tp583
F0.22832619516448627
s(V14*A
p584
L7L
L6L
tp585
F0.008814492574968387
s(L30L
NNtp586
L0L
s(V20*DS
p587
L6L
L6L
tp588
F0.7298520299007704
s(V12*D
p589
L7L
L6L
tp590
F-0.25811533518675217
s(V18*AD
p591
L8L
L6L
tp592
F0.10535030668900891
s(L16L
L24L
Ntp593
L0L
s(V19*AD
p594
L6L
L6L
tp595
F0.6486567920798462
s(L12L
L20L
Ntp596
L0L
s(V17*A
p597
L2L
L6L
tp598
F0.018898465633786124
s(V19*AD
p599
L10L
L6L
tp600
F-0.09457521438188037
s(L17L
L23L
Ntp601
L0L
s(L6L
L21L
Ntp602
L0L
s(V7*
p603
L3L
L6L
tp604
F-0.012476361397540405
s(V16*A
p605
L3L
L6L
tp606
F0.03110133572035255
s(L10L
L20L
Ntp607
L0L
s(V16*D
p608
L7L
L6L
tp609
F-0.4701831129330513
s(L10L
L19L
Ntp610
L0L
s(V11*D
p611
L5L
L6L
tp612
F0.8180378915150646
s(V6*
p613
L10L
L6L
tp614
F-0.44670814886442967
s(V4*DS
p615
L7L
L6L
tp616
F-0.13229502729442355
s(g13
L11L
L6L
tp617
F-0.1629339962556686
s(V6*
p618
L4L
L6L
tp619
F-0.000549671772162863
s(V15*
p620
L11L
L6L
tp621
F-0.7078471368128035
s(g420
L21L
Ntp622
L0L
s(V18*A
p623
L10L
L6L
tp624
F-0.27292160282788874
s(L14L
L22L
Ntp625
L0L
s(V8*DS
p626
L3L
L6L
tp627
F0.07898104026420436
s(V21*
p628
L11L
L6L
tp629
F0.24482314302395314
s(V14*
p630
L8L
L6L
tp631
F-0.4386871469018866
s(V18*AD
p632
L7L
L6L
tp633
F0.4605235500768976
s(V16*AD
p634
L9L
L6L
tp635
F-0.2411898906619823
s(V9*D
p636
L10L
L6L
tp637
F-0.24780873766333752
s(L15L
L25L
Ntp638
L0L
s(V14*
p639
L2L
L6L
tp640
F-0.22924882713812378
s(V16*AD
p641
L7L
L6L
tp642
F-0.08231397426600696
s(V12*DS
p643
L7L
L6L
tp644
F-0.25811533518675217
s(V9*D
p645
L6L
L6L
tp646
F0.5192263433268698
s(V20*DS
p647
L10L
L6L
tp648
F0.38821488432560025
s(V18*
p649
L9L
L6L
tp650
F-0.23474479335375056
s(V17*AD
p651
L10L
L6L
tp652
F-0.335424686222856
s(V16*DS
p653
L9L
L6L
tp654
F-0.5659473627794577
s(L18L
L24L
Ntp655
L0L
s(V18*
p656
L7L
L6L
tp657
F0.4605235500768976
s(V16*DS
p658
L7L
L6L
tp659
F-0.4701831129330513
s(V16*D
p660
L8L
L6L
tp661
F-0.5232365327294188
s(V8*D
p662
L10L
L6L
tp663
F-0.3497539529326312
s(V18*DS
p664
L10L
L6L
tp665
F-0.29886662169200107
s(L15L
L21L
Ntp666
L0L
s(V8*D
p667
L6L
L6L
tp668
F0.28688944521921167
s(V18*DS
p669
L6L
L6L
tp670
F0.35664218991997815
s(V14*D
p671
L4L
L6L
tp672
F-0.12083749765002366
s(V8*DS
p673
L10L
L6L
tp674
F-0.3497539529326312
s(g142
L21L
Ntp675
L0L
s(V14*D
p676
L10L
L6L
tp677
F-0.5733635468097524
s(V21*
p678
L2L
L6L
tp679
F0.8812144116080699
s(L21L
NNtp680
L0L
s(V21*
p681
L4L
L6L
tp682
F0.8886331853740395
s(V21*A
p683
L6L
L6L
tp684
F0.9107950603686287
s(V16*A
p685
L5L
L6L
tp686
F0.1238135023671169
s(V18*D
p687
L9L
L6L
tp688
F-0.23474479335375056
s(V18*D
p689
L3L
L6L
tp690
F0.18627333018611178
s(V15*
p691
L7L
L6L
tp692
F-0.4445576698121817
s(V13*AD
p693
L4L
L6L
tp694
F0.17117841001028936
s(V15*AD
p695
L3L
L6L
tp696
F0.043910547235577996
s(V18*A
p697
L21L
Ntp698
L0L
s(V27*
p699
NNtp700
L0L
s(V12*D
p701
L8L
L6L
tp702
F-0.3190198275892937
s(V13*
p703
L8L
L6L
tp704
F-0.37972445742866756
s(L8L
L18L
Ntp705
L0L
s(L8L
L21L
Ntp706
L0L
s(V10*DS
p707
L5L
L6L
tp708
F0.7291510009337382
s(V10*
p709
L11L
L6L
tp710
F-0.2653049659516549
s(g154
L11L
L6L
tp711
F-0.41149484652696877
s(g77
L11L
L6L
tp712
F-0.23170258775179034
s(V10*
p713
L5L
L6L
tp714
F0.36457550046686904
s(L6L
L19L
Ntp715
L0L
s(g474
L11L
L6L
tp716
F-0.605573830608574
s(L6L
L25L
Ntp717
L0L
s(V20*DS
p718
L21L
Ntp719
L0L
s(V7*
p720
L8L
L6L
tp721
F-0.24825264866621735
s(V17*AD
p722
L21L
Ntp723
L0L
s(L21L
L8L
L6L
tp724
F1.5
s(V7*
p725
L4L
L6L
tp726
F0.03597838429768224
s(V16*D
p727
L4L
L6L
tp728
F-0.12083749765002366
s(V11*D
p729
L6L
L6L
tp730
F0.8521831868713405
s(V6*
p731
L9L
L6L
tp732
F-0.35583641300662927
s(g480
L21L
Ntp733
L0L
s(V12*
p734
L5L
L6L
tp735
F-0.06579837500396798
s(V6*
p736
L3L
L6L
tp737
F-0.05016994434661667
s(L20L
L25L
Ntp738
L0L
s(V18*A
p739
L7L
L6L
tp740
F0.4605235500768976
s(V9*
p741
L4L
L6L
tp742
F0.2200079734677102
s(L9L
L17L
Ntp743
L0L
s(V18*A
p744
L9L
L6L
tp745
F-0.15562491448502086
s(L9L
L22L
Ntp746
L0L
s(V15*D
p747
L3L
L6L
tp748
F-0.17563189374972984
s(V21*
p749
L8L
L6L
tp750
F0.9384865081823058
s(V11*
p751
L11L
L6L
tp752
F-0.2274904519608913
s(V16*AD
p753
L10L
L6L
tp754
F-0.35483304700054075
s(V15*D
p755
L9L
L6L
tp756
F-0.5503366892603476
s(V12*DS
p757
L2L
L6L
tp758
F-0.22924882713812378
s(V12*DS
p759
L4L
L6L
tp760
F-0.12083749765002366
s(V17*AD
p761
L7L
L6L
tp762
F0.03135121856940529
s(V18*
p763
L10L
L6L
tp764
F-0.29886662169200107
s(V6*D
p765
L6L
L6L
tp766
F0.05046053763394921
s(V17*AD
p767
L9L
L6L
tp768
F-0.22411283182070116
s(V13*AD
p769
L2L
L6L
tp770
F0.0564069040086456
s(V20*DS
p771
L3L
L6L
tp772
F0.65007912940851
s(V13*
p773
L4L
L6L
tp774
F-0.12083749765002366
s(V20*A
p775
L3L
L6L
tp776
F0.65007912940851
s(V20*
p777
L5L
L6L
tp778
F0.6932857314230422
s(L25L
NNtp779
L0L
s(V12*D
p780
L2L
L6L
tp781
F-0.22924882713812378
s(L8L
L24L
Ntp782
L0L
s(L14L
L20L
Ntp783
L0L
s(V20*
p784
L3L
L6L
tp785
F0.65007912940851
s(V14*AD
p786
L10L
L6L
tp787
F-0.29336171704742503
s(V19*D
p788
L7L
L6L
tp789
F0.6637819598069359
s(V24*
p790
NNtp791
L0L
s(V20*
p792
L9L
L6L
tp793
F0.7712095792320603
s(V14*DS
p794
L3L
L6L
tp795
F-0.17563189374972984
s(V17*D
p796
L21L
Ntp797
L0L
s(L26L
NNtp798
L0L
s(L21L
L26L
Ntp799
L0L
s(L21L
L19L
Ntp800
L0L
s(V8*
p801
L2L
L6L
tp802
F0.03600808711815259
s(V5*D
p803
L3L
L6L
tp804
F-0.042215933809328705
s(L21L
L4L
L6L
tp805
F1.5
s(V13*D
p806
L5L
L6L
tp807
F-0.06579837500396798
s(L11L
L19L
Ntp808
L0L
s(V5*D
p809
L9L
L6L
tp810
F-0.33577695221397
s(V10*D
p811
L10L
L6L
tp812
F-0.03178366942522783
s(V17*D
p813
L6L
L6L
tp814
F0.09250405705888205
s(V13*D
p815
L3L
L6L
tp816
F-0.17563189374972984
s(V12*ADS
p817
L10L
L6L
tp818
F-0.21466720634421121
s(V14*A
p819
L21L
Ntp820
L0L
s(V21*A
p821
L9L
L6L
tp822
F0.9468765405030497
s(V16*A
p823
L8L
L6L
tp824
F-0.1563334706798819
s(L14L
L18L
Ntp825
L0L
s(V13*D
p826
L9L
L6L
tp827
F-0.4436533963644707
s(V12*
p828
L9L
L6L
tp829
F-0.3914630751602628
s(V15*A
p830
L7L
L6L
tp831
F-0.0500331616578717
s(V16*A
p832
L6L
L6L
tp833
F0.13060894038064685
s(V15*AD
p834
L8L
L6L
tp835
F-0.1225548718635638
s(L4L
L23L
Ntp836
L0L
s(V12*
p837
L3L
L6L
tp838
F-0.17563189374972984
s(L18L
L21L
Ntp839
L0L
s(V13*AD
p840
L11L
L6L
tp841
F-0.4251570250849846
s(V9*
p842
L8L
L6L
tp843
F0.1425044577841718
s(V15*AD
p844
L4L
L6L
tp845
F0.12964352749837033
s(L15L
L19L
Ntp846
L0L
s(V10*DS
p847
L6L
L6L
tp848
F0.7787662816975242
s(V10*
p849
L8L
L6L
tp850
F0.25638237786436857
s(V15*D
p851
L5L
L6L
tp852
F-0.06579837500396798
s(V10*
p853
L2L
L6L
tp854
F0.26284932060185573
s(V20*AD
p855
L2L
L6L
tp856
F0.6396428752686352
s(V12*DS
p857
L8L
L6L
tp858
F-0.3190198275892937
s(V16*A
p859
L21L
Ntp860
L0L
s(V6*D
p861
L10L
L6L
tp862
F-0.44670814886442967
s(L6L
L20L
Ntp863
L0L
s(L8L
L26L
Ntp864
L0L
s(L12L
L24L
Ntp865
L0L
s(V14*AD
p866
L6L
L6L
tp867
F0.26092007687227925
s(V19*D
p868
L11L
L6L
tp869
F-0.1700915896704893
s(L27L
NNtp870
L0L
s(V9*
p871
L7L
L6L
tp872
F0.22898596163494256
s(L10L
L23L
Ntp873
L0L
s(V8*
p874
L4L
L6L
tp875
F0.124254848384488
s(V11*
p876
L6L
L6L
tp877
F0.42609159343567027
s(V6*DS
p878
L10L
L6L
tp879
F-0.44670814886442967
s(V11*
p880
L8L
L6L
tp881
F0.27647236556151894
s(V15*A
p882
L11L
L6L
tp883
F-0.4931072634238164
s(V15*D
p884
L10L
L6L
tp885
F-0.6081619674538539
s(V21*A
p886
L3L
L6L
tp887
F0.8840515169972878
s(V6*D
p888
L3L
L6L
tp889
F-0.05016994434661667
s(g45
L21L
Ntp890
L0L
s(V6*D
p891
L5L
L6L
tp892
F0.04931655869935979
s(V20*A
p893
L6L
L6L
tp894
F0.7298520299007704
s(L9L
L25L
Ntp895
L0L
s(V13*
p896
L3L
L6L
tp897
F-0.17563189374972984
s(L9L
L23L
Ntp898
L0L
s(V19*D
p899
L2L
L6L
tp900
F0.3919937145989574
s(L9L
L20L
Ntp901
L0L
s(V20*A
p902
L10L
L6L
tp903
F0.38821488432560025
s(V14*AD
p904
L9L
L6L
tp905
F-0.1596582661464525
s(V19*D
p906
L4L
L6L
tp907
F0.4514672365303704
s(V14*DS
p908
L6L
L6L
tp909
F-0.07896719480119146
s(V13*A
p910
L8L
L6L
tp911
F-0.00883095079535517
s(V13*A
p912
L6L
L6L
tp913
F0.1956234859124924
s(L16L
L19L
Ntp914
L0L
s(V14*DS
p915
L10L
L6L
tp916
F-0.5733635468097524
s(L11L
L24L
Ntp917
L0L
s(L21L
L3L
L6L
tp918
F1.5
s(V5*D
p919
L4L
L6L
tp920
F0.0070742974512419685
s(V10*D
p921
L7L
L6L
tp922
F0.5757984095242186
s(g796
L11L
L6L
tp923
F-0.642792559752484
s(V12*ADS
p924
L7L
L6L
tp925
F0.12305979735683217
s(V19*AD
p926
L9L
L6L
tp927
F0.2616143693449181
s(V10*D
p928
L9L
L6L
tp929
F0.27739470228693397
s(V5*D
p930
L10L
L6L
tp931
F-0.4348653399592782
s(V17*D
p932
L5L
L6L
tp933
F0.04629078974892508
s(V12*ADS
p934
L9L
L6L
tp935
F-0.06069023653915038
s(g81
L11L
L6L
tp936
F-0.4975009477624573
s(V17*
p937
L6L
L6L
tp938
F0.09250405705888205
s(V15*A
p939
L4L
L6L
tp940
F0.08951247899696896
s(V15*A
p941
L2L
L6L
tp942
F0.0006975397172155125
s(g628
L21L
Ntp943
L0L
s(V17*
p944
L8L
L6L
tp945
F-0.40693231552344034
s(L29L
NNtp946
L0L
s(V19*A
p947
L10L
L6L
tp948
F-0.09457521438188037
s(L21L
L24L
Ntp949
L0L
s(V9*
p950
L11L
L6L
tp951
F-0.37703459574080195
s(L14L
L25L
Ntp952
L0L
s(L10L
L18L
Ntp953
L0L
s(L10L
L17L
Ntp954
L0L
s(V19*A
p955
L6L
L6L
tp956
F0.5437115049926442
s(V6*DS
p957
L6L
L6L
tp958
F0.05046053763394921
s(V20*AD
p959
L7L
L6L
tp960
F0.7993513804022139
s(V15*D
p961
L6L
L6L
tp962
F-0.07896719480119146
s(V20*AD
p963
L11L
L6L
tp964
F0.07438830453694753
s(V20*D
p965
L9L
L6L
tp966
F0.7712095792320603
s(L8L
L17L
Ntp967
L0L
s(V6*D
p968
L9L
L6L
tp969
F-0.35583641300662927
s(L18L
L19L
Ntp970
L0L
s(V20*D
p971
L7L
L6L
tp972
F0.7993513804022139
s(V16*
p973
L7L
L6L
tp974
F-0.4701831129330513
s(V9*D
p975
L5L
L6L
tp976
F0.459505796153841
s(L21L
L23L
Ntp977
L0L
s(V14*A
p978
L2L
L6L
tp979
F0.028855389088278366
s(V16*DS
p980
L10L
L6L
tp981
F-0.6081619674538539
s(V14*AD
p982
L5L
L6L
tp983
F0.2460238063972452
s(V19*D
p984
L8L
L6L
tp985
F0.6282477992284139
s(V14*A
p986
L8L
L6L
tp987
F-0.06537805465451246
s(g403
L21L
Ntp988
L0L
s(V8*
p989
L9L
L6L
tp990
F-0.244353977750857
s(V8*D
p991
L5L
L6L
tp992
F0.2185337060351421
s(V18*DS
p993
L5L
L6L
tp994
F0.26741452931792065
s(V17*A
p995
L7L
L6L
tp996
F0.03135121856940529
s(V8*
p997
L7L
L6L
tp998
F0.1256254945132825
s(V19*AD
p999
L5L
L6L
tp1000
F0.5856234686013093
s(V7*D
p1001
L4L
L6L
tp1002
F0.03597838429768224
s(V14*D
p1003
L7L
L6L
tp1004
F-0.3853335052347085
s(V15*A
p1005
L8L
L6L
tp1006
F-0.1225548718635638
s(V7*D
p1007
L2L
L6L
tp1008
F-0.05909593078178007
s(L16L
L26L
Ntp1009
L0L
s(V7*D
p1010
L8L
L6L
tp1011
F-0.24825264866621735
s(g258
L11L
L6L
tp1012
F-0.1700915896704893
s(L9L
L18L
Ntp1013
L0L
s(V19*
p1014
L7L
L6L
tp1015
F0.6637819598069359
s(g545
L21L
Ntp1016
L0L
s(V13*A
p1017
L11L
L6L
tp1018
F-0.4251570250849846
s(V18*AD
p1019
L2L
L6L
tp1020
F0.19527138021616447
s(L23L
NNtp1021
L0L
s(L8L
L20L
Ntp1022
L0L
s(L8L
L23L
Ntp1023
L0L
s(V16*
p1024
L11L
L6L
tp1025
F-0.7240177064658793
s(V9*D
p1026
L9L
L6L
tp1027
F-0.04604106444390421
s(V17*A
p1028
L8L
L6L
tp1029
F-0.136537701861128
s(V17*
p1030
L3L
L6L
tp1031
F-0.053181927634766805
s(V9*D
p1032
L3L
L6L
tp1033
F0.28921273948128534
s(V17*
p1034
L5L
L6L
tp1035
F0.04629078974892508
s(V7*
p1036
L7L
L6L
tp1037
F-0.06679095524375056
s(L21L
L20L
Ntp1038
L0L
s(V16*D
p1039
L3L
L6L
tp1040
F-0.17563189374972984
s(V4*DS
p1041
L5L
L6L
tp1042
F0.07066285115658046
s(L16L
L21L
Ntp1043
L0L
s(V4*DS
p1044
L3L
L6L
tp1045
F-0.02687993714197793
s(L19L
L17L
Ntp1046
L0L
s(V4*DS
p1047
L9L
L6L
tp1048
F-0.29756445552269617
s(V8*D
p1049
L9L
L6L
tp1050
F-0.244353977750857
s(V18*DS
p1051
L9L
L6L
tp1052
F-0.23474479335375056
s(V18*A
p1053
L4L
L6L
tp1054
F0.22832619516448627
s(V8*D
p1055
L3L
L6L
tp1056
F0.07898104026420436
s(V18*DS
p1057
L3L
L6L
tp1058
F0.18627333018611178
s(g840
L21L
Ntp1059
L0L
s(V8*DS
p1060
L7L
L6L
tp1061
F0.1256254945132825
s(L20L
L24L
Ntp1062
L0L
s(V8*DS
p1063
L9L
L6L
tp1064
F-0.244353977750857
s(V20*D
p1065
L10L
L6L
tp1066
F0.38821488432560025
s(L20L
L18L
Ntp1067
L0L
s(V14*
p1068
L6L
L6L
tp1069
F-0.07896719480119146
s(V16*AD
p1070
L3L
L6L
tp1071
F0.041863314767935186
s(L15L
L23L
Ntp1072
L0L
s(V16*
p1073
L2L
L6L
tp1074
F-0.22924882713812378
s(V16*
p1075
L4L
L6L
tp1076
F-0.12083749765002366
s(V19*AD
p1077
L21L
Ntp1078
L0L
s(V17*AD
p1079
L4L
L6L
tp1080
F0.21394026539413016
s(V18*D
p1081
L6L
L6L
tp1082
F0.35664218991997815
s(V14*A
p1083
L5L
L6L
tp1084
F0.16012799376218473
s(V20*DS
p1085
L4L
L6L
tp1086
F0.6695367281757314
s(V16*DS
p1087
L5L
L6L
tp1088
F-0.06579837500396798
s(V18*
p1089
L3L
L6L
tp1090
F0.18627333018611178
s(g819
L11L
L6L
tp1091
F-0.4582568221701952
s(V16*DS
p1092
L3L
L6L
tp1093
F-0.17563189374972984
s(V12*D
p1094
L5L
L6L
tp1095
F-0.06579837500396798
s(L17L
L22L
Ntp1096
L0L
s(V12*D
p1097
L11L
L6L
tp1098
F-0.605573830608574
s(L8L
L25L
Ntp1099
L0L
s(V20*
p1100
L10L
L6L
tp1101
F0.38821488432560025
s(L20L
L20L
Ntp1102
L0L
s(V17*A
p1103
L4L
L6L
tp1104
F0.10697013269706512
s(L14L
L26L
Ntp1105
L0L
s(V19*AD
p1106
L2L
L6L
tp1107
F0.3919937145989574
s(g73
L21L
Ntp1108
L0L
s(V14*D
p1109
L8L
L6L
tp1110
F-0.4386871469018866
s(V7*
p1111
L11L
L6L
tp1112
F-0.5641244403981259
s(g859
L11L
L6L
tp1113
F-0.5124411503331684
s(V12*ADS
p1114
L21L
Ntp1115
L0L
s(L21L
L17L
Ntp1116
L0L
s(V10*D
p1117
L21L
Ntp1118
L0L
s(V13*D
p1119
L10L
L6L
tp1120
F-0.5286471818825386
s(V11*D
p1121
L3L
L6L
tp1122
F0.6886656317059329
s(V15*
p1123
L3L
L6L
tp1124
F-0.17563189374972984
s(V11*D
p1125
L9L
L6L
tp1126
F0.33721552405157623
s(L15L
L24L
Ntp1127
L0L
s(V6*
p1128
L6L
L6L
tp1129
F0.05046053763394921
s(V15*
p1130
L9L
L6L
tp1131
F-0.5503366892603476
s(L19L
L24L
Ntp1132
L0L
s(V15*AD
p1133
L7L
L6L
tp1134
F-0.0500331616578717
s(V18*A
p1135
L2L
L6L
tp1136
F0.14589541674231674
s(L4L
L17L
Ntp1137
L0L
s(L19L
L18L
Ntp1138
L0L
s(V18*AD
p1139
L9L
L6L
tp1140
F-0.15562491448502086
s(L9L
L26L
Ntp1141
L0L
s(L18L
L25L
Ntp1142
L0L
s(V14*
p1143
L10L
L6L
tp1144
F-0.5733635468097524
s(V18*AD
p1145
L5L
L6L
tp1146
F0.44391622316921936
s(V16*
p1147
L8L
L6L
tp1148
F-0.5232365327294188
s(V16*AD
p1149
L5L
L6L
tp1150
F0.22894109261909246
s(g1017
L21L
Ntp1151
L0L
s(V17*AD
p1152
L2L
L6L
tp1153
F0.037796931267572276
s(V20*DS
p1154
L8L
L6L
tp1155
F0.8172062533938136
s(V16*D
p1156
L6L
L6L
tp1157
F-0.07896719480119146
s(L16L
L25L
Ntp1158
L0L
s(V18*
p1159
L5L
L6L
tp1160
F0.26741452931792065
s(V23*
p1161
NNtp1162
L0L
s(V16*D
p1163
L10L
L6L
tp1164
F-0.6081619674538539
s(V20*
p1165
L6L
L6L
tp1166
F0.7298520299007704
s(L8L
L22L
Ntp1167
L0L
s(g697
L11L
L6L
tp1168
F-0.41149484652696877
s(L20L
L23L
Ntp1169
L0L
s(V8*DS
p1170
L2L
L6L
tp1171
F0.03600808711815259
s(V21*
p1172
L10L
L6L
tp1173
F0.7957794917600161
s(V14*D
p1174
L2L
L6L
tp1175
F-0.22924882713812378
s(V11*
p1176
L5L
L6L
tp1177
F0.4090189457575324
s(V8*DS
p1178
L4L
L6L
tp1179
F0.12486110954841774
s(V14*
p1180
L3L
L6L
tp1181
F-0.17563189374972984
s(g963
L21L
Ntp1182
L0L
s(V21*
p1183
L6L
L6L
tp1184
F0.9107950603686287
s(V13*D
p1185
L6L
L6L
tp1186
F-0.07896719480119146
s(V14*
p1187
L5L
L6L
tp1188
F-0.06579837500396798
s(L18L
L18L
Ntp1189
L0L
s(V21*A
p1190
L4L
L6L
tp1191
F0.8886331853740395
s(L10L
L21L
Ntp1192
L0L
s(g85
L11L
L6L
tp1193
F-0.41149484652696877
s(V21*A
p1194
L10L
L6L
tp1195
F0.7957794917600161
s(g722
L11L
L6L
tp1196
F-0.4975009477624573
s(V18*D
p1197
L5L
L6L
tp1198
F0.26741452931792065
s(V15*
p1199
L5L
L6L
tp1200
F-0.06579837500396798
s(g411
L11L
L6L
tp1201
F-0.4931072634238164
s(V20*DS
p1202
L7L
L6L
tp1203
F0.7993513804022139
s(V13*AD
p1204
L6L
L6L
tp1205
F0.2795851359038632
s(L17L
L26L
Ntp1206
L0L
s(g868
L21L
Ntp1207
L0L
s(V13*AD
p1208
L8L
L6L
tp1209
F-0.00883095079535517
s(V12*D
p1210
L6L
L6L
tp1211
F-0.07896719480119146
s(L19L
L23L
Ntp1212
L0L
s(V13*
p1213
L10L
L6L
tp1214
F-0.5286471818825386
s(V20*A
p1215
L9L
L6L
tp1216
F0.7712095792320603
s(V10*DS
p1217
L3L
L6L
tp1218
F0.5863609257381938
s(L20L
L26L
Ntp1219
L0L
s(V10*DS
p1220
L9L
L6L
tp1221
F0.27739470228693397
s(V10*
p1222
L7L
L6L
tp1223
F0.3228408122862551
s(L9L
L21L
Ntp1224
L0L
s(V14*DS
p1225
L9L
L6L
tp1226
F-0.49811142024035565
s(V10*D
p1227
L4L
L6L
tp1228
F0.6562115280125486
s(V5*D
p1229
L7L
L6L
tp1230
F-0.17648963701899373
s(V17*D
p1231
L8L
L6L
tp1232
F-0.40693231552344034
s(V12*ADS
p1233
L4L
L6L
tp1234
F0.16460330651036648
s(g882
L21L
Ntp1235
L0L
s(V17*D
p1236
L2L
L6L
tp1237
F-0.10229424776512522
s(L21L
L10L
L6L
tp1238
F1.3673076923076923
s(V16*A
p1239
L4L
L6L
tp1240
F0.07724674160898912
s(g117
L21L
Ntp1241
L0L
s(V7*
p1242
L2L
L6L
tp1243
F-0.05909593078178007
s(V16*A
p1244
L2L
L6L
tp1245
F-0.012729607565616113
s(L15L
L20L
Ntp1246
L0L
s(V11*D
p1247
L4L
L6L
tp1248
F0.751534521231191
s(V6*
p1249
L11L
L6L
tp1250
F-0.5834090977062745
s(V12*
p1251
L7L
L6L
tp1252
F-0.25811533518675217
s(V11*D
p1253
L10L
L6L
tp1254
F0.15915123108303195
s(V6*
p1255
L5L
L6L
tp1256
F0.04931655869935979
s(V15*
p1257
L10L
L6L
tp1258
F-0.6081619674538539
s(V9*
p1259
L2L
L6L
tp1260
F0.14167805044216292
s(V19*A
p1261
L5L
L6L
tp1262
F0.48287939860162055
s(V11*
p1263
L3L
L6L
tp1264
F0.3443328158529664
s(L21L
L25L
Ntp1265
L0L
s(V12*DS
p1266
L10L
L6L
tp1267
F-0.48634883398094436
s(V14*
p1268
L9L
L6L
tp1269
F-0.49811142024035565
s(V16*AD
p1270
L8L
L6L
tp1271
F-0.1563334706798819
s(V20*AD
p1272
L8L
L6L
tp1273
F0.8172062533938136
s(V16*AD
p1274
L6L
L6L
tp1275
F0.24599346722344076
s(L14L
L21L
Ntp1276
L0L
s(V12*DS
p1277
L6L
L6L
tp1278
F-0.07896719480119146
s(g298
L21L
Ntp1279
L0L
s(g718
L11L
L6L
tp1280
F0.07438830453694753
s(V18*
p1281
L8L
L6L
tp1282
F0.10535030668900891
s(L19L
L26L
Ntp1283
L0L
s(V18*
p1284
L6L
L6L
tp1285
F0.35664218991997815
s(V13*
p1286
L6L
L6L
tp1287
F-0.07896719480119146
s(V20*A
p1288
L5L
L6L
tp1289
F0.6932857314230422
s(L8L
L19L
Ntp1290
L0L
s(V14*AD
p1291
L2L
L6L
tp1292
F0.028855389088278366
s(g1097
L21L
Ntp1293
L0L
s(V14*DS
p1294
L5L
L6L
tp1295
F-0.06579837500396798
s(V8*
p1296
L10L
L6L
tp1297
F-0.3497539529326312
s(L16L
L17L
Ntp1298
L0L
s(V11*
p1299
L10L
L6L
tp1300
F0.05359494852435809
s(V10*D
p1301
L2L
L6L
tp1302
F0.5256986412037115
s(L21L
L6L
L6L
tp1303
F1.5
s(V12*ADS
p1304
L2L
L6L
tp1305
F0.08288838148644763
s(g418
L21L
Ntp1306
L0L
s(V21*A
p1307
L7L
L6L
tp1308
F0.9340035060749721
s(V7*D
p1309
L11L
L6L
tp1310
F-0.5641244403981259
s(L15L
L18L
Ntp1311
L0L
s(g56
L11L
L6L
tp1312
F-0.605573830608574
s(V13*AD
p1313
L3L
L6L
tp1314
F0.09704770888758799
s(V15*
p1315
L6L
L6L
tp1316
F-0.07896719480119146
s(V13*AD
p1317
L5L
L6L
tp1318
F0.26354113193017614
s(L20L
L22L
Ntp1319
L0L
s(V15*AD
p1320
L2L
L6L
tp1321
F0.0006975397172155125
s(V19*
p1322
L4L
L6L
tp1323
F0.4514672365303704
s(L20L
L17L
Ntp1324
L0L
s(V19*A
p1325
L9L
L6L
tp1326
F0.2616143693449181
s(L22L
NNtp1327
L0L
s(V13*
p1328
L9L
L6L
tp1329
F-0.4436533963644707
s(V19*A
p1330
L3L
L6L
tp1331
F0.4176669233572404
s(V10*DS
p1332
L4L
L6L
tp1333
F0.6562115280125486
s(V10*
p1334
L10L
L6L
tp1335
F-0.04468357404068511
s(V13*A
p1336
L2L
L6L
tp1337
F0.0564069040086456
s(V10*DS
p1338
L10L
L6L
tp1339
F-0.03178366942522783
s(V10*
p1340
L4L
L6L
tp1341
F0.3281057640062742
s(V20*AD
p1342
L4L
L6L
tp1343
F0.6695367281757314
s(V5*D
p1344
L8L
L6L
tp1345
F-0.2521428154774396
s(g1117
L11L
L6L
tp1346
F-0.23170258775179034
s(V17*D
p1347
L7L
L6L
tp1348
F-0.07947113481437709
s(g1114
L11L
L6L
tp1349
F-0.3955577195217269
s(L17L
L18L
Ntp1350
L0L
s(L21L
L9L
L6L
tp1351
F1.5
s(L17L
L24L
Ntp1352
L0L
s(L19L
L25L
Ntp1353
L0L
s(V12*
p1354
L2L
L6L
tp1355
F-0.22924882713812378
s(V6*D
p1356
L21L
Ntp1357
L0L
s(V12*
p1358
L4L
L6L
tp1359
F-0.12083749765002366
s(g620
L21L
Ntp1360
L0L
s(V9*
p1361
L9L
L6L
tp1362
F-0.04604106444390421
s(V4*DS
p1363
L10L
L6L
tp1364
F-0.4054863389352705
s(L21L
L21L
Ntp1365
L0L
s(L21L
L18L
Ntp1366
L0L
s(V9*
p1367
L5L
L6L
tp1368
F0.26079864597286473
s(V15*D
p1369
L4L
L6L
tp1370
F-0.12083749765002366
s(V6*DS
p1371
L2L
L6L
tp1372
F-0.09790894476430072
s(L14L
L19L
Ntp1373
L0L
s(L16L
L23L
Ntp1374
L0L
s(V15*D
p1375
L2L
L6L
tp1376
F-0.22924882713812378
s(V6*DS
p1377
L8L
L6L
tp1378
F-0.27861692344135286
s(V15*D
p1379
L8L
L6L
tp1380
F-0.49474748026648036
s(V7*D
p1381
L7L
L6L
tp1382
F-0.06679095524375056
s(g1356
L11L
L6L
tp1383
F-0.5834090977062745
s(L12L
L22L
Ntp1384
L0L
s(g1024
L21L
Ntp1385
L0L
s(L4L
L21L
Ntp1386
L0L
s(L12L
L17L
Ntp1387
L0L
s(V20*D
p1388
L3L
L6L
tp1389
F0.65007912940851
s(V6*D
p1390
L7L
L6L
tp1391
F-0.20235336712871096
s(V19*
p1392
L8L
L6L
tp1393
F0.6282477992284139
s(V14*AD
p1394
L7L
L6L
tp1395
F0.008814492574968387
s(V19*D
p1396
L10L
L6L
tp1397
F-0.09457521438188037
s(V14*A
p1398
L6L
L6L
tp1399
F0.1694432495622205
s(V13*
p1400
L5L
L6L
tp1401
F-0.06579837500396798
s(V20*A
p1402
L2L
L6L
tp1403
F0.6396428752686352
s(V19*
p1404
L2L
L6L
tp1405
F0.3919937145989574
s(g1309
L21L
Ntp1406
L0L
s(g195
L11L
L6L
tp1407
F-0.4582568221701952
s(V19*D
p1408
L6L
L6L
tp1409
F0.5437115049926442
s(V13*A
p1410
L4L
L6L
tp1411
F0.14034236601686095
s(V14*DS
p1412
L2L
L6L
tp1413
F-0.22924882713812378
s(V8*
p1414
L5L
L6L
tp1415
F0.16845243123276232
s(V8*
p1416
L3L
L6L
tp1417
F0.07898104026420436
s(V17*A
p1418
L3L
L6L
tp1419
F0.061779653559150285
s(V15*A
p1420
L10L
L6L
tp1421
F-0.33731152654308244
s(L6L
L22L
Ntp1422
L0L
s(V5*D
p1423
L2L
L6L
tp1424
F-0.08958143109325613
s(L21L
L5L
L6L
tp1425
F1.5
s(g1077
L11L
L6L
tp1426
F-0.1700915896704893
s(V15*A
p1427
L6L
L6L
tp1428
F0.1432055457644223
s.