(dp0
(V10*D
p1
L2L
L-3L
tp2
VDouble
p3
s(V8*DS
p4
L9L
L-3L
tp5
VDraw
p6
s(L13L
L21L
Ntp7
Ns(V11*
p8
L8L
L-3L
tp9
g6
s(V8*
p10
L5L
L-3L
tp11
g6
s(L13L
L18L
Ntp12
Ns(L13L
L24L
Ntp13
Ns(V5*D
p14
L4L
L-3L
tp15
g6
s(V9*
p16
L10L
L-3L
tp17
g6
s(V15*
p18
L4L
L-3L
tp19
VStay
p20
s(V15*
p21
L2L
L-3L
tp22
g20
s(L6L
L26L
Ntp23
Ns(V9*D
p24
L7L
L-3L
tp25
g6
s(V10*
p26
L11L
L-3L
tp27
g6
s(V4*DS
p28
L7L
L-3L
tp29
g6
s(L15L
L26L
Ntp30
Ns(V20*
p31
L21L
Ntp32
Ns(V7*D
p33
L2L
L-3L
tp34
g6
s(V12*D
p35
L4L
L-3L
tp36
g6
s(V19*A
p37
L21L
Ntp38
Ns(L19L
L19L
Ntp39
Ns(V10*D
p40
L21L
Ntp41
Ns(V8*DS
p42
L5L
L-3L
tp43
g6
s(L19L
L20L
Ntp44
Ns(V8*
p45
L11L
L-3L
tp46
g6
s(V18*D
p47
L8L
L-3L
tp48
g20
s(V13*D
p49
L9L
L-3L
tp50
g6
s(V5*D
p51
L8L
L-3L
tp52
g6
s(V9*
p53
L6L
L-3L
tp54
g6
s(V18*D
p55
L2L
L-3L
tp56
g20
s(L17L
L21L
Ntp57
Ns(V5*D
p58
L2L
L-3L
tp59
g6
s(V16*DS
p60
L10L
L-3L
tp61
g6
s(V24*
p62
NNtp63
Ns(V9*D
p64
L11L
L-3L
tp65
g6
s(V10*
p66
L7L
L-3L
tp67
g6
s(V8*D
p68
L10L
L-3L
tp69
g6
s(V12*D
p70
L8L
L-3L
tp71
g6
s(V13*A
p72
L7L
L-3L
tp73
g6
s(V7*D
p74
L8L
L-3L
tp75
g6
s(V14*AD
p76
L8L
L-3L
tp77
g6
s(V16*AD
p78
L6L
L-3L
tp79
g3
s(V6*
p80
L7L
L-3L
tp81
g6
s(V10*DS
p82
L9L
L-3L
tp83
g6
s(V13*D
p84
L5L
L-3L
tp85
g20
s(V19*AD
p86
L2L
L-3L
tp87
g20
s(V6*D
p88
L2L
L-3L
tp89
g6
s(V7*
p90
L3L
L-3L
tp91
g6
s(V13*D
p92
L3L
L-3L
tp93
g6
s(V19*AD
p94
L4L
L-3L
tp95
g20
s(V7*
p96
L9L
L-3L
tp97
g6
s(V6*DS
p98
L3L
L-3L
tp99
g6
s(L4L
L24L
Ntp100
Ns(V16*DS
p101
L4L
L-3L
tp102
g20
s(L4L
L18L
Ntp103
Ns(V8*D
p104
L6L
L-3L
tp105
g6
s(V13*
p106
L21L
Ntp107
Ns(V17*D
p108
L21L
Ntp109
Ns(V11*
p110
L7L
L-3L
tp111
g6
s(V12*ADS
p112
L9L
L-3L
tp113
g6
s(L14L
L17L
Ntp114
Ns(V13*AD
p115
L21L
Ntp116
Ns(V13*A
p117
L11L
L-3L
tp118
g6
s(V16*DS
p119
L21L
Ntp120
Ns(V18*DS
p121
L2L
L-3L
tp122
g20
s(V12*ADS
p123
L7L
L-3L
tp124
g6
s(L18L
L22L
Ntp125
Ns(V16*AD
p126
L10L
L-3L
tp127
g6
s(V6*
p128
L11L
L-3L
tp129
g6
s(V13*
p130
L7L
L-3L
tp131
g6
s(V14*AD
p132
L2L
L-3L
tp133
g6
s(V15*
p134
L11L
L-3L
tp135
g6
s(V10*DS
p136
L7L
L-3L
tp137
g3
s(V14*
p138
L7L
L-3L
tp139
g6
s(V7*
p140
L5L
L-3L
tp141
g6
s(L4L
L20L
Ntp142
Ns(V4*DS
p143
L8L
L-3L
tp144
g6
s(V10*D
p145
L7L
L-3L
tp146
g3
s(V11*
p147
L11L
L-3L
tp148
g6
s(V20*DS
p149
L8L
L-3L
tp150
g20
s(V20*DS
p151
L6L
L-3L
tp152
g20
s(V14*D
p153
L2L
L-3L
tp154
g20
s(V20*AD
p155
L21L
Ntp156
Ns(V15*
p157
L7L
L-3L
tp158
g6
s(V17*
p159
L11L
L-3L
tp160
g20
s(L15L
L22L
Ntp161
Ns(V4*DS
p162
L4L
L-3L
tp163
g6
s(V20*AD
p164
L7L
L-3L
tp165
g20
s(V12*D
p166
L7L
L-3L
tp167
g6
s(L13L
L19L
Ntp168
Ns(L20L
L21L
Ntp169
Ns(V10*D
p170
L9L
L-3L
tp171
g6
s(V8*DS
p172
L2L
L-3L
tp173
g6
s(V12*
p174
L3L
L-3L
tp175
g6
s(L6L
L17L
Ntp176
Ns(V14*DS
p177
L10L
L-3L
tp178
g6
s(L17L
L25L
Ntp179
Ns(V12*
p180
L9L
L-3L
tp181
g6
s(V13*D
p182
L10L
L-3L
tp183
g6
s(V14*D
p184
L8L
L-3L
tp185
g6
s(V16*A
p186
L11L
L-3L
tp187
g6
s(V16*D
p188
L2L
L-3L
tp189
g20
s(V15*A
p190
L3L
L-3L
tp191
g6
s(L19L
L21L
Ntp192
Ns(V12*D
p193
L11L
L-3L
tp194
g6
s(L19L
L22L
Ntp195
Ns(V13*A
p196
L4L
L-3L
tp197
g6
s(L16L
L22L
Ntp198
Ns(V7*D
p199
L7L
L-3L
tp200
g6
s(V14*AD
p201
L11L
L-3L
tp202
g6
s(V18*AD
p203
L21L
Ntp204
Ns(V12*
p205
L5L
L-3L
tp206
g6
s(V13*D
p207
L6L
L-3L
tp208
g20
s(V17*A
p209
L21L
Ntp210
Ns(V6*D
p211
L5L
L-3L
tp212
g6
s(V14*A
p213
L5L
L-3L
tp214
g6
s(V19*AD
p215
L11L
L-3L
tp216
g20
s(L21L
L22L
Ntp217
Ns(V14*A
p218
L11L
L-3L
tp219
g6
s(V16*
p220
L3L
L-3L
tp221
g20
s(V13*AD
p222
L3L
L-3L
tp223
g6
s(V6*DS
p224
L10L
L-3L
tp225
g6
s(V17*D
p226
L3L
L-3L
tp227
g20
s(V16*
p228
L9L
L-3L
tp229
g6
s(V13*AD
p230
L5L
L-3L
tp231
g6
s(V17*D
p232
L5L
L-3L
tp233
g20
s(V12*ADS
p234
L10L
L-3L
tp235
g6
s(V16*D
p236
L8L
L-3L
tp237
g6
s(L12L
L21L
Ntp238
Ns(V15*A
p239
L9L
L-3L
tp240
g6
s(V18*DS
p241
L5L
L-3L
tp242
g20
s(V13*A
p243
L8L
L-3L
tp244
g6
s(V13*A
p245
L2L
L-3L
tp246
g6
s(g64
L21L
Ntp247
Ns(V13*
p248
L4L
L-3L
tp249
g20
s(V18*
p250
L3L
L-3L
tp251
g20
s(V14*AD
p252
L5L
L-3L
tp253
g6
s(V6*D
p254
L9L
L-3L
tp255
g6
s(V18*
p256
L5L
L-3L
tp257
g20
s(L20L
L19L
Ntp258
Ns(L4L
L26L
Ntp259
Ns(L17L
L19L
Ntp260
Ns(V6*DS
p261
L6L
L-3L
tp262
g6
s(V16*
p263
L5L
L-3L
tp264
g20
s(V10*DS
p265
L21L
Ntp266
Ns(V13*AD
p267
L9L
L-3L
tp268
g6
s(V17*D
p269
L9L
L-3L
tp270
g20
s(V25*
p271
NNtp272
Ns(L11L
L21L
Ntp273
Ns(L11L
L22L
Ntp274
Ns(V20*DS
p275
L11L
L-3L
tp276
g20
s(V18*DS
p277
L9L
L-3L
tp278
g20
s(L6L
L24L
Ntp279
Ns(V17*
p280
L8L
L-3L
tp281
g20
s(V20*
p282
L3L
L-3L
tp283
g20
s(V13*
p284
L10L
L-3L
tp285
g6
s(V11*D
p286
L3L
L-3L
tp287
g3
s(V20*
p288
L5L
L-3L
tp289
g20
s(L13L
L22L
Ntp290
Ns(V20*AD
p291
L4L
L-3L
tp292
g20
s(V15*D
p293
L9L
L-3L
tp294
g6
s(g37
L11L
L-3L
tp295
g20
s(V12*DS
p296
L9L
L-3L
tp297
g6
s(V14*DS
p298
L9L
L-3L
tp299
g6
s(V26*
p300
NNtp301
Ns(V21*
p302
L6L
L-3L
tp303
g20
s(L24L
NNtp304
Ns(V21*A
p305
L10L
L-3L
tp306
g20
s(V14*D
p307
L7L
L-3L
tp308
g6
s(V16*A
p309
L8L
L-3L
tp310
g6
s(L12L
L19L
Ntp311
Ns(V17*
p312
L6L
L-3L
tp313
g20
s(V21*A
p314
L4L
L-3L
tp315
g20
s(L12L
L26L
Ntp316
Ns(V15*D
p317
L5L
L-3L
tp318
g20
s(V20*AD
p319
L10L
L-3L
tp320
g20
s(V19*D
p321
L3L
L-3L
tp322
g20
s(L17L
L17L
Ntp323
Ns(V15*D
p324
L3L
L-3L
tp325
g20
s(V12*DS
p326
L5L
L-3L
tp327
g6
s(V20*D
p328
L11L
L-3L
tp329
g20
s(V21*
p330
L10L
L-3L
tp331
g20
s(V14*DS
p332
L7L
L-3L
tp333
g6
s(V14*A
p334
L6L
L-3L
tp335
g6
s(V19*
p336
L3L
L-3L
tp337
g20
s(V19*
p338
L9L
L-3L
tp339
g20
s(L10L
L22L
Ntp340
Ns(V18*A
p341
L2L
L-3L
tp342
g20
s(V16*A
p343
L6L
L-3L
tp344
g6
s(L6L
L18L
Ntp345
Ns(V18*A
p346
L4L
L-3L
tp347
g20
s(V15*AD
p348
L10L
L-3L
tp349
g6
s(V16*D
p350
L7L
L-3L
tp351
g6
s(V15*A
p352
L6L
L-3L
tp353
g6
s(V15*AD
p354
L4L
L-3L
tp355
g6
s(V18*AD
p356
L6L
L-3L
tp357
g3
s(L13L
L25L
Ntp358
Ns(L4L
L22L
Ntp359
Ns(V20*D
p360
L7L
L-3L
tp361
g20
s(V17*A
p362
L6L
L-3L
tp363
g6
s(V18*
p364
L10L
L-3L
tp365
g20
s(L18L
L20L
Ntp366
Ns(V17*A
p367
L8L
L-3L
tp368
g6
s(V19*
p369
L5L
L-3L
tp370
g20
s(L18L
L26L
Ntp371
Ns(V19*A
p372
L2L
L-3L
tp373
g20
s(V20*A
p374
L2L
L-3L
tp375
g20
s(L11L
L26L
Ntp376
Ns(L21L
L3L
L-3L
tp377
g20
s(V8*
p378
L2L
L-3L
tp379
g6
s(L11L
L25L
Ntp380
Ns(V18*AD
p381
L10L
L-3L
tp382
g6
s(g159
L21L
Ntp383
Ns(V11*D
p384
L4L
L-3L
tp385
g3
s(V20*
p386
L10L
L-3L
tp387
g20
s(L10L
L26L
Ntp388
Ns(L10L
L25L
Ntp389
Ns(V15*D
p390
L10L
L-3L
tp391
g6
s(V19*A
p392
L4L
L-3L
tp393
g20
s(V8*
p394
L8L
L-3L
tp395
g6
s(V18*D
p396
L7L
L-3L
tp397
g20
s(V21*
p398
L5L
L-3L
tp399
g20
s(V21*A
p400
L9L
L-3L
tp401
g20
s(V11*D
p402
L8L
L-3L
tp403
g3
s(L13L
L20L
Ntp404
Ns(V21*A
p405
L3L
L-3L
tp406
g20
s(g275
L21L
Ntp407
Ns(V8*D
p408
L9L
L-3L
tp409
g6
s(V9*D
p410
L2L
L-3L
tp411
g6
s(V15*A
p412
L21L
Ntp413
Ns(V15*D
p414
L6L
L-3L
tp415
g20
s(V16*AD
p416
L3L
L-3L
tp417
g6
s(V19*D
p418
L4L
L-3L
tp419
g20
s(V6*
p420
L2L
L-3L
tp421
g6
s(L14L
L23L
Ntp422
Ns(V16*AD
p423
L5L
L-3L
tp424
g3
s(V6*
p425
L4L
L-3L
tp426
g6
s(V12*DS
p427
L2L
L-3L
tp428
g6
s(V21*
p429
L9L
L-3L
tp430
g20
s(L28L
NNtp431
Ns(L12L
L18L
Ntp432
Ns(V21*
p433
L3L
L-3L
tp434
g20
s(V7*
p435
L10L
L-3L
tp436
g6
s(L16L
L18L
Ntp437
Ns(V16*DS
p438
L7L
L-3L
tp439
g6
s(V8*D
p440
L5L
L-3L
tp441
g6
s(V18*A
p442
L11L
L-3L
tp443
g6
s(V15*AD
p444
L9L
L-3L
tp445
g6
s(V19*D
p446
L8L
L-3L
tp447
g20
s(V15*AD
p448
L3L
L-3L
tp449
g6
s(V16*AD
p450
L9L
L-3L
tp451
g6
s(V18*AD
p452
L5L
L-3L
tp453
g3
s(L9L
L19L
Ntp454
Ns(V6*
p455
L8L
L-3L
tp456
g6
s(V10*DS
p457
L2L
L-3L
tp458
g3
s(V17*A
p459
L5L
L-3L
tp460
g6
s(V10*DS
p461
L4L
L-3L
tp462
g3
s(g442
L21L
Ntp463
Ns(V14*
p464
L8L
L-3L
tp465
g6
s(V7*
p466
L6L
L-3L
tp467
g6
s(L14L
L24L
Ntp468
Ns(V17*AD
p469
L2L
L-3L
tp470
g6
s(V8*DS
p471
L11L
L-3L
tp472
g6
s(V17*AD
p473
L8L
L-3L
tp474
g6
s(L21L
L4L
L-3L
tp475
g20
s(V20*A
p476
L11L
L-3L
tp477
g20
s(L13L
L17L
Ntp478
Ns(V19*
p479
L21L
Ntp480
Ns(L13L
L23L
Ntp481
Ns(V11*
p482
L2L
L-3L
tp483
g6
s(L6L
L23L
Ntp484
Ns(V18*AD
p485
L9L
L-3L
tp486
g6
s(V7*D
p487
L21L
Ntp488
Ns(V18*AD
p489
L3L
L-3L
tp490
g3
s(V8*D
p491
L21L
Ntp492
Ns(V21*
p493
L21L
Ntp494
Ns(V17*A
p495
L3L
L-3L
tp496
g6
s(L11L
L18L
Ntp497
Ns(V14*
p498
L2L
L-3L
tp499
g20
s(V4*DS
p500
L3L
L-3L
tp501
g6
s(V6*DS
p502
L21L
Ntp503
Ns(V8*DS
p504
L7L
L-3L
tp505
g6
s(V16*
p506
L21L
Ntp507
Ns(V17*AD
p508
L4L
L-3L
tp509
g3
s(V10*D
p510
L10L
L-3L
tp511
g6
s(L21L
L8L
L-3L
tp512
g20
s(L18L
L23L
Ntp513
Ns(V20*A
p514
L7L
L-3L
tp515
g20
s(V8*
p516
L7L
L-3L
tp517
g6
s(V12*
p518
L10L
L-3L
tp519
g6
s(V18*D
p520
L4L
L-3L
tp521
g20
s(V9*
p522
L2L
L-3L
tp523
g6
s(L15L
L17L
Ntp524
Ns(V18*D
p525
L21L
Ntp526
Ns(V5*D
p527
L6L
L-3L
tp528
g6
s(V9*
p529
L8L
L-3L
tp530
g6
s(L10L
L24L
Ntp531
Ns(V10*
p532
L3L
L-3L
tp533
g6
s(V9*D
p534
L5L
L-3L
tp535
g3
s(V10*
p536
L9L
L-3L
tp537
g6
s(V7*D
p538
L10L
L-3L
tp539
g6
s(L17L
L20L
Ntp540
Ns(V12*D
p541
L2L
L-3L
tp542
g6
s(V7*D
p543
L4L
L-3L
tp544
g6
s(V27*
p545
NNtp546
Ns(L12L
L23L
Ntp547
Ns(V12*
p548
L6L
L-3L
tp549
g6
s(L12L
L25L
Ntp550
Ns(V19*AD
p551
L6L
L-3L
tp552
g20
s(V6*D
p553
L6L
L-3L
tp554
g6
s(V18*D
p555
L10L
L-3L
tp556
g20
s(V19*AD
p557
L8L
L-3L
tp558
g20
s(V5*D
p559
L10L
L-3L
tp560
g6
s(V9*
p561
L4L
L-3L
tp562
g6
s(V16*DS
p563
L2L
L-3L
tp564
g20
s(V16*DS
p565
L8L
L-3L
tp566
g6
s(V6*DS
p567
L9L
L-3L
tp568
g6
s(V16*
p569
L10L
L-3L
tp570
g6
s(V8*D
p571
L2L
L-3L
tp572
g6
s(V9*D
p573
L9L
L-3L
tp574
g6
s(V10*
p575
L5L
L-3L
tp576
g6
s(V12*ADS
p577
L5L
L-3L
tp578
g6
s(L11L
L23L
Ntp579
Ns(V18*DS
p580
L6L
L-3L
tp581
g20
s(V12*ADS
p582
L3L
L-3L
tp583
g6
s(L11L
L17L
Ntp584
Ns(L4L
L25L
Ntp585
Ns(V13*
p586
L3L
L-3L
tp587
g6
s(V14*AD
p588
L6L
L-3L
tp589
g3
s(L4L
L19L
Ntp590
Ns(V6*D
p591
L10L
L-3L
tp592
g6
s(g265
L11L
L-3L
tp593
g6
s(L16L
L20L
Ntp594
Ns(V14*
p595
L11L
L-3L
tp596
g6
s(L18L
L17L
Ntp597
Ns(L9L
L24L
Ntp598
Ns(V6*DS
p599
L5L
L-3L
tp600
g6
s(V10*D
p601
L3L
L-3L
tp602
g3
s(V8*DS
p603
L8L
L-3L
tp604
g6
s(L13L
L26L
Ntp605
Ns(V16*
p606
L6L
L-3L
tp607
g20
s(L30L
NNtp608
Ns(V20*DS
p609
L4L
L-3L
tp610
g20
s(V11*
p611
L5L
L-3L
tp612
g6
s(V18*DS
p613
L10L
L-3L
tp614
g20
s(V20*DS
p615
L2L
L-3L
tp616
g20
s(V15*
p617
L3L
L-3L
tp618
g20
s(V13*
p619
L9L
L-3L
tp620
g6
s(V15*
p621
L9L
L-3L
tp622
g6
s(g117
L21L
Ntp623
Ns(L16L
L24L
Ntp624
Ns(V14*
p625
L5L
L-3L
tp626
g20
s(L12L
L20L
Ntp627
Ns(V20*AD
p628
L3L
L-3L
tp629
g20
s(V8*DS
p630
L4L
L-3L
tp631
g6
s(V4*DS
p632
L10L
L-3L
tp633
g6
s(V10*D
p634
L5L
L-3L
tp635
g3
s(L17L
L23L
Ntp636
Ns(L6L
L21L
Ntp637
Ns(V11*
p638
L9L
L-3L
tp639
g6
s(L10L
L20L
Ntp640
Ns(L10L
L19L
Ntp641
Ns(V14*D
p642
L10L
L-3L
tp643
g6
s(V17*
p644
L3L
L-3L
tp645
g20
s(V12*
p646
L21L
Ntp647
Ns(V14*D
p648
L4L
L-3L
tp649
g20
s(V15*
p650
L5L
L-3L
tp651
g20
s(V17*
p652
L5L
L-3L
tp653
g20
s(V7*D
p654
L9L
L-3L
tp655
g6
s(V4*DS
p656
L6L
L-3L
tp657
g6
s(V20*AD
p658
L9L
L-3L
tp659
g20
s(L14L
L22L
Ntp660
Ns(V7*D
p661
L3L
L-3L
tp662
g6
s(V12*D
p663
L5L
L-3L
tp664
g6
s(L15L
L25L
Ntp665
Ns(V6*D
p666
L3L
L-3L
tp667
g6
s(V14*DS
p668
L2L
L-3L
tp669
g20
s(V13*D
p670
L2L
L-3L
tp671
g6
s(V19*AD
p672
L5L
L-3L
tp673
g20
s(V14*DS
p674
L4L
L-3L
tp675
g20
s(V14*A
p676
L9L
L-3L
tp677
g6
s(V13*D
p678
L8L
L-3L
tp679
g6
s(V19*
p680
L10L
L-3L
tp681
g20
s(V16*A
p682
L3L
L-3L
tp683
g6
s(V13*AD
p684
L7L
L-3L
tp685
g6
s(V17*D
p686
L7L
L-3L
tp687
g20
s(L18L
L24L
Ntp688
Ns(V16*A
p689
L5L
L-3L
tp690
g6
s(V16*D
p691
L10L
L-3L
tp692
g6
s(g412
L11L
L-3L
tp693
g6
s(V18*DS
p694
L3L
L-3L
tp695
g20
s(V12*ADS
p696
L6L
L-3L
tp697
g6
s(V16*D
p698
L4L
L-3L
tp699
g20
s(V15*A
p700
L5L
L-3L
tp701
g6
s(V12*D
p702
L9L
L-3L
tp703
g6
s(V14*AD
p704
L3L
L-3L
tp705
g6
s(V13*A
p706
L6L
L-3L
tp707
g6
s(L15L
L21L
Ntp708
Ns(V18*
p709
L7L
L-3L
tp710
g20
s(V14*AD
p711
L9L
L-3L
tp712
g6
s(V18*
p713
L9L
L-3L
tp714
g20
s(V13*D
p715
L4L
L-3L
tp716
g20
s(V19*AD
p717
L3L
L-3L
tp718
g20
s(V19*
p719
L6L
L-3L
tp720
g20
s(V14*A
p721
L3L
L-3L
tp722
g6
s(L21L
NNtp723
Ns(g115
L11L
L-3L
tp724
g6
s(V6*DS
p725
L2L
L-3L
tp726
g6
s(g108
L11L
L-3L
tp727
g20
s(g215
L21L
Ntp728
Ns(V20*DS
p729
L7L
L-3L
tp730
g20
s(V12*ADS
p731
L8L
L-3L
tp732
g6
s(V13*A
p733
L10L
L-3L
tp734
g6
s(L8L
L18L
Ntp735
Ns(L8L
L21L
Ntp736
Ns(V20*
p737
L7L
L-3L
tp738
g20
s(V13*
p739
L6L
L-3L
tp740
g20
s(V11*D
p741
L7L
L-3L
tp742
g3
s(V20*
p743
L9L
L-3L
tp744
g20
s(L6L
L19L
Ntp745
Ns(V19*A
p746
L9L
L-3L
tp747
g20
s(L6L
L25L
Ntp748
Ns(V4*DS
p749
L21L
Ntp750
Ns(V19*A
p751
L7L
L-3L
tp752
g20
s(V12*DS
p753
L11L
L-3L
tp754
g6
s(V20*DS
p755
L9L
L-3L
tp756
g20
s(V14*D
p757
L9L
L-3L
tp758
g6
s(V14*DS
p759
L21L
Ntp760
Ns(V21*A
p761
L6L
L-3L
tp762
g20
s(V14*D
p763
L3L
L-3L
tp764
g20
s(V11*D
p765
L11L
L-3L
tp766
g6
s(V16*AD
p767
L21L
Ntp768
Ns(V17*
p769
L10L
L-3L
tp770
g20
s(L20L
L25L
Ntp771
Ns(L9L
L17L
Ntp772
Ns(L9L
L22L
Ntp773
Ns(V20*AD
p774
L6L
L-3L
tp775
g20
s(V19*D
p776
L7L
L-3L
tp777
g20
s(V12*DS
p778
L7L
L-3L
tp779
g6
s(V20*D
p780
L9L
L-3L
tp781
g20
s(g759
L11L
L-3L
tp782
g6
s(V14*A
p783
L10L
L-3L
tp784
g6
s(V13*AD
p785
L4L
L-3L
tp786
g6
s(V17*D
p787
L4L
L-3L
tp788
g20
s(V16*A
p789
L10L
L-3L
tp790
g6
s(V18*A
p791
L6L
L-3L
tp792
g20
s(L25L
NNtp793
Ns(V18*A
p794
L8L
L-3L
tp795
g20
s(V16*D
p796
L9L
L-3L
tp797
g6
s(L14L
L20L
Ntp798
Ns(V15*A
p799
L8L
L-3L
tp800
g6
s(L8L
L24L
Ntp801
Ns(V15*AD
p802
L6L
L-3L
tp803
g3
s(V16*D
p804
L3L
L-3L
tp805
g20
s(V19*D
p806
L11L
L-3L
tp807
g20
s(V15*A
p808
L2L
L-3L
tp809
g6
s(V20*D
p810
L5L
L-3L
tp811
g20
s(L26L
NNtp812
Ns(L21L
L26L
Ntp813
Ns(g476
L21L
Ntp814
Ns(V18*
p815
L4L
L-3L
tp816
g20
s(V20*D
p817
L3L
L-3L
tp818
g20
s(L21L
L19L
Ntp819
Ns(V17*A
p820
L10L
L-3L
tp821
g6
s(V16*D
p822
L21L
Ntp823
Ns(L11L
L19L
Ntp824
Ns(V14*A
p825
L4L
L-3L
tp826
g6
s(L11L
L20L
Ntp827
Ns(V13*AD
p828
L8L
L-3L
tp829
g6
s(V17*D
p830
L8L
L-3L
tp831
g20
s(L14L
L18L
Ntp832
Ns(V13*AD
p833
L2L
L-3L
tp834
g6
s(V17*AD
p835
L11L
L-3L
tp836
g6
s(V17*D
p837
L2L
L-3L
tp838
g20
s(L21L
L7L
L-3L
tp839
g20
s(V20*A
p840
L8L
L-3L
tp841
g20
s(L4L
L23L
Ntp842
Ns(L18L
L21L
Ntp843
Ns(V11*D
p844
L2L
L-3L
tp845
g3
s(V20*
p846
L4L
L-3L
tp847
g20
s(L15L
L19L
Ntp848
Ns(g595
L21L
Ntp849
Ns(V18*
p850
L2L
L-3L
tp851
g20
s(V19*A
p852
L10L
L-3L
tp853
g20
s(V17*AD
p854
L7L
L-3L
tp855
g6
s(V12*DS
p856
L8L
L-3L
tp857
g6
s(L21L
L11L
L-3L
tp858
g20
s(V20*A
p859
L4L
L-3L
tp860
g20
s(L6L
L20L
Ntp861
Ns(V8*
p862
L10L
L-3L
tp863
g6
s(L8L
L26L
Ntp864
Ns(V8*
p865
L4L
L-3L
tp866
g6
s(V18*D
p867
L3L
L-3L
tp868
g20
s(L12L
L24L
Ntp869
Ns(V5*D
p870
L3L
L-3L
tp871
g6
s(V5*D
p872
L5L
L-3L
tp873
g6
s(V21*A
p874
L5L
L-3L
tp875
g20
s(V9*
p876
L11L
L-3L
tp877
g6
s(g491
L11L
L-3L
tp878
g6
s(V20*
p879
L2L
L-3L
tp880
g20
s(L27L
NNtp881
Ns(g193
L21L
Ntp882
Ns(V9*D
p883
L6L
L-3L
tp884
g3
s(V19*D
p885
L2L
L-3L
tp886
g20
s(L10L
L23L
Ntp887
Ns(V10*
p888
L10L
L-3L
tp889
g6
s(V15*D
p890
L2L
L-3L
tp891
g20
s(V16*AD
p892
L7L
L-3L
tp893
g6
s(V6*
p894
L6L
L-3L
tp895
g6
s(V12*DS
p896
L4L
L-3L
tp897
g6
s(V15*D
p898
L8L
L-3L
tp899
g6
s(V20*D
p900
L10L
L-3L
tp901
g20
s(V7*
p902
L8L
L-3L
tp903
g6
s(V18*D
p904
L9L
L-3L
tp905
g20
s(V21*
p906
L7L
L-3L
tp907
g20
s(V5*D
p908
L9L
L-3L
tp909
g6
s(V9*
p910
L7L
L-3L
tp911
g6
s(V16*DS
p912
L5L
L-3L
tp913
g20
s(V8*D
p914
L7L
L-3L
tp915
g6
s(V21*A
p916
L11L
L-3L
tp917
g20
s(g119
L11L
L-3L
tp918
g6
s(g134
L21L
Ntp919
Ns(V18*A
p920
L5L
L-3L
tp921
g20
s(L9L
L25L
Ntp922
Ns(L9L
L23L
Ntp923
Ns(L9L
L20L
Ntp924
Ns(V9*D
p925
L10L
L-3L
tp926
g6
s(V10*
p927
L6L
L-3L
tp928
g6
s(V15*AD
p929
L5L
L-3L
tp930
g3
s(g767
L11L
L-3L
tp931
g6
s(V6*
p932
L10L
L-3L
tp933
g6
s(V15*D
p934
L4L
L-3L
tp935
g20
s(L16L
L19L
Ntp936
Ns(V20*D
p937
L6L
L-3L
tp938
g20
s(V10*DS
p939
L6L
L-3L
tp940
g3
s(V13*D
p941
L21L
Ntp942
Ns(V17*A
p943
L9L
L-3L
tp944
g6
s(L11L
L24L
Ntp945
Ns(V7*
p946
L4L
L-3L
tp947
g6
s(V10*DS
p948
L8L
L-3L
tp949
g3
s(g493
L11L
L-3L
tp950
g20
s(V7*
p951
L2L
L-3L
tp952
g6
s(L21L
L2L
L-3L
tp953
g20
s(L29L
NNtp954
Ns(V18*A
p955
L3L
L-3L
tp956
g20
s(V
p957
g957
L-3L
tp958
VBegin
p959
s(V14*D
p960
L21L
Ntp961
Ns(V11*
p962
L6L
L-3L
tp963
g6
s(V15*AD
p964
L11L
L-3L
tp965
g6
s(L21L
L24L
Ntp966
Ns(L14L
L25L
Ntp967
Ns(L10L
L18L
Ntp968
Ns(V18*AD
p969
L7L
L-3L
tp970
g20
s(L10L
L17L
Ntp971
Ns(V15*
p972
L10L
L-3L
tp973
g6
s(g218
L21L
Ntp974
Ns(V17*A
p975
L7L
L-3L
tp976
g6
s(V14*
p977
L6L
L-3L
tp978
g20
s(V22*
p979
NNtp980
Ns(V10*D
p981
L8L
L-3L
tp982
g3
s(V8*DS
p983
L3L
L-3L
tp984
g6
s(V4*DS
p985
L9L
L-3L
tp986
g6
s(L8L
L17L
Ntp987
Ns(V20*A
p988
L3L
L-3L
tp989
g20
s(V10*D
p990
L6L
L-3L
tp991
g3
s(L18L
L19L
Ntp992
Ns(V12*
p993
L8L
L-3L
tp994
g6
s(V8*
p995
L9L
L-3L
tp996
g6
s(V8*
p997
L3L
L-3L
tp998
g6
s(L21L
L23L
Ntp999
Ns(V11*
p1000
L10L
L-3L
tp1001
g6
s(g471
L21L
Ntp1002
Ns(g203
L11L
L-3L
tp1003
g6
s(V15*
p1004
L6L
L-3L
tp1005
g20
s(V8*D
p1006
L8L
L-3L
tp1007
g6
s(V9*D
p1008
L3L
L-3L
tp1009
g6
s(V7*D
p1010
L6L
L-3L
tp1011
g6
s(V4*DS
p1012
L5L
L-3L
tp1013
g6
s(V16*AD
p1014
L4L
L-3L
tp1015
g3
s(V6*
p1016
L5L
L-3L
tp1017
g6
s(V12*D
p1018
L6L
L-3L
tp1019
g6
s(V12*
p1020
L4L
L-3L
tp1021
g6
s(V6*D
p1022
L4L
L-3L
tp1023
g6
s(V12*
p1024
L2L
L-3L
tp1025
g6
s(V19*AD
p1026
L10L
L-3L
tp1027
g20
s(L16L
L26L
Ntp1028
Ns(V17*AD
p1029
L6L
L-3L
tp1030
g3
s(V7*
p1031
L11L
L-3L
tp1032
g6
s(V18*D
p1033
L6L
L-3L
tp1034
g20
s(g941
L11L
L-3L
tp1035
g6
s(L9L
L18L
Ntp1036
Ns(V16*DS
p1037
L6L
L-3L
tp1038
g20
s(g502
L11L
L-3L
tp1039
g6
s(V16*
p1040
L8L
L-3L
tp1041
g6
s(V8*D
p1042
L4L
L-3L
tp1043
g6
s(V23*
p1044
NNtp1045
Ns(V18*
p1046
L21L
Ntp1047
Ns(V18*DS
p1048
L4L
L-3L
tp1049
g20
s(V16*AD
p1050
L8L
L-3L
tp1051
g6
s(V13*A
p1052
L3L
L-3L
tp1053
g6
s(V6*
p1054
L9L
L-3L
tp1055
g6
s(V12*D
p1056
L10L
L-3L
tp1057
g6
s(V14*AD
p1058
L4L
L-3L
tp1059
g6
s(V16*AD
p1060
L2L
L-3L
tp1061
g6
s(V13*A
p1062
L5L
L-3L
tp1063
g6
s(V6*
p1064
L3L
L-3L
tp1065
g6
s(V6*D
p1066
L8L
L-3L
tp1067
g6
s(V14*AD
p1068
L10L
L-3L
tp1069
g6
s(V10*DS
p1070
L5L
L-3L
tp1071
g3
s(L23L
NNtp1072
Ns(L8L
L20L
Ntp1073
Ns(V7*
p1074
L7L
L-3L
tp1075
g6
s(L8L
L23L
Ntp1076
Ns(V13*D
p1077
L7L
L-3L
tp1078
g6
s(V6*DS
p1079
L7L
L-3L
tp1080
g6
s(V16*
p1081
L4L
L-3L
tp1082
g20
s(V16*
p1083
L2L
L-3L
tp1084
g20
s(L21L
L20L
Ntp1085
Ns(V11*
p1086
L3L
L-3L
tp1087
g6
s(V18*DS
p1088
L8L
L-3L
tp1089
g20
s(L16L
L21L
Ntp1090
Ns(V12*ADS
p1091
L11L
L-3L
tp1092
g6
s(L19L
L17L
Ntp1093
Ns(V13*A
p1094
L9L
L-3L
tp1095
g6
s(g106
L11L
L-3L
tp1096
g6
s(g328
L21L
Ntp1097
Ns(V13*
p1098
L5L
L-3L
tp1099
g20
s(V10*DS
p1100
L3L
L-3L
tp1101
g3
s(V14*
p1102
L3L
L-3L
tp1103
g20
s(V14*
p1104
L9L
L-3L
tp1105
g6
s(L20L
L24L
Ntp1106
Ns(g40
L11L
L-3L
tp1107
g6
s(L20L
L18L
Ntp1108
Ns(V28*
p1109
NNtp1110
Ns(L15L
L23L
Ntp1111
Ns(V8*DS
p1112
L10L
L-3L
tp1113
g6
s(g646
L11L
L-3L
tp1114
g6
s(V20*DS
p1115
L10L
L-3L
tp1116
g20
s(V14*D
p1117
L6L
L-3L
tp1118
g20
s(V17*
p1119
L7L
L-3L
tp1120
g20
s(V17*
p1121
L9L
L-3L
tp1122
g20
s(L17L
L22L
Ntp1123
Ns(L8L
L25L
Ntp1124
Ns(L20L
L20L
Ntp1125
Ns(g155
L11L
L-3L
tp1126
g20
s(V12*D
p1127
L3L
L-3L
tp1128
g6
s(V7*D
p1129
L5L
L-3L
tp1130
g6
s(V4*DS
p1131
L2L
L-3L
tp1132
g6
s(V20*AD
p1133
L5L
L-3L
tp1134
g20
s(L14L
L26L
Ntp1135
Ns(V8*DS
p1136
L6L
L-3L
tp1137
g6
s(V12*
p1138
L7L
L-3L
tp1139
g6
s(V6*D
p1140
L7L
L-3L
tp1141
g6
s(V14*DS
p1142
L6L
L-3L
tp1143
g20
s(V19*AD
p1144
L9L
L-3L
tp1145
g20
s(V14*DS
p1146
L8L
L-3L
tp1147
g6
s(L21L
L17L
Ntp1148
Ns(V19*
p1149
L8L
L-3L
tp1150
g20
s(V6*DS
p1151
L8L
L-3L
tp1152
g6
s(g506
L11L
L-3L
tp1153
g6
s(V16*A
p1154
L7L
L-3L
tp1155
g6
s(V16*A
p1156
L9L
L-3L
tp1157
g6
s(L15L
L24L
Ntp1158
Ns(L19L
L24L
Ntp1159
Ns(V16*D
p1160
L6L
L-3L
tp1161
g20
s(V15*A
p1162
L7L
L-3L
tp1163
g6
s(V18*DS
p1164
L7L
L-3L
tp1165
g20
s(V12*ADS
p1166
L2L
L-3L
tp1167
g6
s(L19L
L18L
Ntp1168
Ns(V20*A
p1169
L5L
L-3L
tp1170
g20
s(L4L
L17L
Ntp1171
Ns(g487
L11L
L-3L
tp1172
g6
s(V14*AD
p1173
L7L
L-3L
tp1174
g6
s(V6*D
p1175
L11L
L-3L
tp1176
g6
s(g1046
L11L
L-3L
tp1177
g20
s(L18L
L25L
Ntp1178
Ns(L9L
L26L
Ntp1179
Ns(V18*DS
p1180
L21L
Ntp1181
Ns(V19*
p1182
L4L
L-3L
tp1183
g20
s(V19*AD
p1184
L7L
L-3L
tp1185
g20
s(g201
L21L
Ntp1186
Ns(V14*A
p1187
L7L
L-3L
tp1188
g6
s(V6*DS
p1189
L4L
L-3L
tp1190
g6
s(V16*
p1191
L7L
L-3L
tp1192
g6
s(V19*
p1193
L2L
L-3L
tp1194
g20
s(L16L
L25L
Ntp1195
Ns(g1180
L11L
L-3L
tp1196
g20
s(V20*DS
p1197
L3L
L-3L
tp1198
g20
s(V12*ADS
p1199
L4L
L-3L
tp1200
g6
s(g1175
L21L
Ntp1201
Ns(V13*
p1202
L8L
L-3L
tp1203
g6
s(V11*D
p1204
L5L
L-3L
tp1205
g3
s(L8L
L22L
Ntp1206
Ns(g31
L11L
L-3L
tp1207
g20
s(V13*
p1208
L2L
L-3L
tp1209
g6
s(L20L
L23L
Ntp1210
Ns(V19*A
p1211
L5L
L-3L
tp1212
g20
s(L10L
L21L
Ntp1213
Ns(L18L
L18L
Ntp1214
Ns(V19*A
p1215
L3L
L-3L
tp1216
g20
s(V20*DS
p1217
L5L
L-3L
tp1218
g20
s(V14*D
p1219
L5L
L-3L
tp1220
g20
s(V11*D
p1221
L9L
L-3L
tp1222
g3
s(L17L
L26L
Ntp1223
Ns(V17*
p1224
L4L
L-3L
tp1225
g20
s(L19L
L23L
Ntp1226
Ns(V21*A
p1227
L2L
L-3L
tp1228
g20
s(L20L
L26L
Ntp1229
Ns(V20*AD
p1230
L8L
L-3L
tp1231
g20
s(V19*D
p1232
L5L
L-3L
tp1233
g20
s(g1091
L21L
Ntp1234
Ns(L9L
L21L
Ntp1235
Ns(g765
L21L
Ntp1236
Ns(V20*AD
p1237
L2L
L-3L
tp1238
g20
s(V12*DS
p1239
L3L
L-3L
tp1240
g6
s(V15*D
p1241
L11L
L-3L
tp1242
g6
s(V14*DS
p1243
L5L
L-3L
tp1244
g20
s(V21*
p1245
L2L
L-3L
tp1246
g20
s(g479
L11L
L-3L
tp1247
g20
s(V21*
p1248
L4L
L-3L
tp1249
g20
s(L15L
L20L
Ntp1250
Ns(g960
L11L
L-3L
tp1251
g6
s(V16*A
p1252
L4L
L-3L
tp1253
g6
s(V17*
p1254
L2L
L-3L
tp1255
g20
s(V21*A
p1256
L8L
L-3L
tp1257
g20
s(V18*A
p1258
L10L
L-3L
tp1259
g6
s(V16*D
p1260
L5L
L-3L
tp1261
g20
s(V19*D
p1262
L9L
L-3L
tp1263
g20
s(V15*A
p1264
L4L
L-3L
tp1265
g6
s(V15*AD
p1266
L2L
L-3L
tp1267
g6
s(V15*D
p1268
L7L
L-3L
tp1269
g6
s(L21L
L25L
Ntp1270
Ns(g835
L21L
Ntp1271
Ns(V18*
p1272
L8L
L-3L
tp1273
g20
s(V14*DS
p1274
L3L
L-3L
tp1275
g20
s(V19*
p1276
L7L
L-3L
tp1277
g20
s(V14*A
p1278
L2L
L-3L
tp1279
g6
s(L14L
L21L
Ntp1280
Ns(V21*
p1281
L8L
L-3L
tp1282
g20
s(g806
L21L
Ntp1283
Ns(V14*A
p1284
L8L
L-3L
tp1285
g6
s(V17*AD
p1286
L9L
L-3L
tp1287
g6
s(L21L
L5L
L-3L
tp1288
g20
s(L19L
L26L
Ntp1289
Ns(V20*A
p1290
L10L
L-3L
tp1291
g20
s(V16*A
p1292
L2L
L-3L
tp1293
g6
s(V13*AD
p1294
L6L
L-3L
tp1295
g6
s(V17*D
p1296
L6L
L-3L
tp1297
g20
s(L8L
L19L
Ntp1298
Ns(g822
L11L
L-3L
tp1299
g6
s(g186
L21L
Ntp1300
Ns(V15*A
p1301
L10L
L-3L
tp1302
g6
s(V15*AD
p1303
L8L
L-3L
tp1304
g6
s(V18*AD
p1305
L2L
L-3L
tp1306
g20
s(V11*D
p1307
L6L
L-3L
tp1308
g3
s(V18*AD
p1309
L4L
L-3L
tp1310
g3
s(V20*
p1311
L8L
L-3L
tp1312
g20
s(V17*A
p1313
L2L
L-3L
tp1314
g6
s(V18*
p1315
L6L
L-3L
tp1316
g20
s(V17*A
p1317
L4L
L-3L
tp1318
g6
s(L16L
L17L
Ntp1319
Ns(V19*A
p1320
L6L
L-3L
tp1321
g20
s(V17*AD
p1322
L5L
L-3L
tp1323
g3
s(L21L
L9L
L-3L
tp1324
g20
s(V20*A
p1325
L6L
L-3L
tp1326
g20
s(V13*AD
p1327
L10L
L-3L
tp1328
g6
s(V17*AD
p1329
L3L
L-3L
tp1330
g3
s(V17*D
p1331
L10L
L-3L
tp1332
g20
s(V8*
p1333
L6L
L-3L
tp1334
g6
s(L15L
L18L
Ntp1335
Ns(g1241
L21L
Ntp1336
Ns(V5*D
p1337
L7L
L-3L
tp1338
g6
s(V9*
p1339
L9L
L-3L
tp1340
g6
s(V11*D
p1341
L10L
L-3L
tp1342
g3
s(L20L
L22L
Ntp1343
Ns(V18*AD
p1344
L8L
L-3L
tp1345
g20
s(L20L
L17L
Ntp1346
Ns(L22L
NNtp1347
Ns(V20*
p1348
L6L
L-3L
tp1349
g20
s(V9*D
p1350
L4L
L-3L
tp1351
g6
s(V10*
p1352
L8L
L-3L
tp1353
g6
s(V19*D
p1354
L6L
L-3L
tp1355
g20
s(V19*A
p1356
L8L
L-3L
tp1357
g20
s(L17L
L18L
Ntp1358
Ns(V12*DS
p1359
L10L
L-3L
tp1360
g6
s(g916
L21L
Ntp1361
Ns(g525
L11L
L-3L
tp1362
g20
s(L17L
L24L
Ntp1363
Ns(V5*D
p1364
L11L
L-3L
tp1365
g6
s(V9*
p1366
L5L
L-3L
tp1367
g6
s(V18*D
p1368
L5L
L-3L
tp1369
g20
s(L19L
L25L
Ntp1370
Ns(V9*
p1371
L3L
L-3L
tp1372
g6
s(V16*DS
p1373
L9L
L-3L
tp1374
g6
s(V8*D
p1375
L3L
L-3L
tp1376
g6
s(V21*A
p1377
L7L
L-3L
tp1378
g20
s(V18*A
p1379
L9L
L-3L
tp1380
g6
s(V9*D
p1381
L8L
L-3L
tp1382
g6
s(V10*
p1383
L4L
L-3L
tp1384
g6
s(V10*
p1385
L2L
L-3L
tp1386
g6
s(V19*D
p1387
L10L
L-3L
tp1388
g20
s(L21L
L21L
Ntp1389
Ns(L21L
L18L
Ntp1390
Ns(L14L
L19L
Ntp1391
Ns(L16L
L23L
Ntp1392
Ns(V20*D
p1393
L2L
L-3L
tp1394
g20
s(V12*DS
p1395
L6L
L-3L
tp1396
g6
s(V10*DS
p1397
L10L
L-3L
tp1398
g6
s(V20*D
p1399
L8L
L-3L
tp1400
g20
s(L4L
L21L
Ntp1401
Ns(L12L
L22L
Ntp1402
Ns(L12L
L17L
Ntp1403
Ns(V16*DS
p1404
L3L
L-3L
tp1405
g20
s(V17*AD
p1406
L10L
L-3L
tp1407
g6
s(L21L
L6L
L-3L
tp1408
g20
s(V20*A
p1409
L9L
L-3L
tp1410
g20
s(g964
L21L
Ntp1411
Ns(V18*A
p1412
L7L
L-3L
tp1413
g20
s(V11*
p1414
L4L
L-3L
tp1415
g6
s(V15*AD
p1416
L7L
L-3L
tp1417
g6
s(V15*
p1418
L8L
L-3L
tp1419
g6
s(V20*D
p1420
L4L
L-3L
tp1421
g20
s(V14*
p1422
L4L
L-3L
tp1423
g20
s(g209
L11L
L-3L
tp1424
g6
s(g753
L21L
Ntp1425
Ns(L6L
L22L
Ntp1426
Ns(V14*
p1427
L10L
L-3L
tp1428
g6
s(g749
L11L
L-3L
tp1429
g6
s(L21L
L10L
L-3L
tp1430
g20
s(V10*D
p1431
L4L
L-3L
tp1432
g3
s.