(dp0
(V14*DS
p1
L10L
L13L
tp2
F-0.6448588661451226
s(V19*AD
p3
L2L
L13L
tp4
F0.47701130621336035
s(L13L
L21L
Ntp5
L0L
s(V8*D
p6
L3L
L13L
tp7
F0.22016861257124473
s(L13L
L18L
Ntp8
L0L
s(V19*
p9
L7L
L13L
tp10
F0.7220645344291493
s(L13L
L24L
Ntp11
L0L
s(V14*DS
p12
L6L
L13L
tp13
F0.013435342345709478
s(V15*D
p14
L6L
L13L
tp15
F0.013435342345709478
s(V12*D
p16
L21L
Ntp17
L0L
s(V13*D
p18
L10L
L13L
tp19
F-0.5923965352385677
s(V20*
p20
L7L
L13L
tp21
F0.8320393303903174
s(V17*AD
p22
L6L
L13L
tp23
F0.49901329981217857
s(L6L
L26L
Ntp24
L0L
s(V8*D
p25
L6L
L13L
tp26
F0.5346551086685762
s(V19*
p27
L21L
Ntp28
L0L
s(L15L
L26L
Ntp29
L0L
s(V14*DS
p30
L3L
L13L
tp31
F-0.07670409389249579
s(V17*A
p32
L2L
L13L
tp33
F0.049187935139295494
s(L19L
L19L
Ntp34
L0L
s(V16*AD
p35
L5L
L13L
tp36
F0.39457475994786984
s(L19L
L20L
Ntp37
L0L
s(V20*D
p38
L9L
L13L
tp39
F0.7860652397173153
s(V9*D
p40
L3L
L13L
tp41
F0.47392533986234375
s(V10*D
p42
L4L
L13L
tp43
F0.874288632763809
s(V7*D
p44
L9L
L13L
tp45
F-0.389491673006642
s(V18*
p46
L8L
L13L
tp47
F0.10166678297945025
s(V11*D
p48
L2L
L13L
tp49
F0.8044570140666717
s(V15*
p50
L2L
L13L
tp51
F-0.151254287926043
s(V17*A
p52
L7L
L13L
tp53
F0.015254672589103471
s(L17L
L21L
Ntp54
L0L
s(V14*
p55
L21L
Ntp56
L0L
s(V19*A
p57
L5L
L13L
tp58
F0.5452482660298452
s(V14*
p59
L10L
L13L
tp60
F-0.6448588661451226
s(V10*DS
p61
L8L
L13L
tp62
F0.6494768097737603
s(V18*D
p63
L10L
L13L
tp64
F-0.37577688404316556
s(V17*D
p65
L10L
L13L
tp66
F-0.5641970329034006
s(V15*A
p67
L5L
L13L
tp68
F0.20984786051849652
s(V17*AD
p69
L3L
L13L
tp70
F0.22376067325410684
s(V18*AD
p71
L8L
L13L
tp72
F0.10166678297945025
s(V13*AD
p73
L9L
L13L
tp74
F-0.18055520875254918
s(L4L
L24L
Ntp75
L0L
s(V11*
p76
L4L
L13L
tp77
F0.4807725705744287
s(L4L
L18L
Ntp78
L0L
s(V13*AD
p79
L5L
L13L
tp80
F0.45944273555332016
s(V20*D
p81
L4L
L13L
tp82
F0.6817171984759137
s(V10*D
p83
L9L
L13L
tp84
F0.43323081390592866
s(V12*ADS
p85
L4L
L13L
tp86
F0.22826271146720586
s(V6*DS
p87
L2L
L13L
tp88
F-0.044078369248626674
s(L14L
L17L
Ntp89
L0L
s(L18L
L22L
Ntp90
L0L
s(V21*
p91
L9L
L13L
tp92
F0.9564066602359613
s(V15*D
p93
L8L
L13L
tp94
F-0.5518229154225727
s(V14*AD
p95
L8L
L13L
tp96
F-0.16057866625033523
s(V12*ADS
p97
L8L
L13L
tp98
F-0.005594060656686621
s(V7*
p99
L5L
L13L
tp100
F0.2020722330189941
s(V13*D
p101
L3L
L13L
tp102
F-0.07670409389249579
s(V8*D
p103
L8L
L13L
tp104
F-0.041974676799987135
s(V13*A
p105
L21L
Ntp106
L0L
s(V5*D
p107
L7L
L13L
tp108
F-0.24125754358647436
s(L4L
L20L
Ntp109
L0L
s(V16*A
p110
L5L
L13L
tp111
F0.2047149222827742
s(V16*D
p112
L6L
L13L
tp113
F0.013435342345709478
s(V19*D
p114
L5L
L13L
tp115
F0.5452482660298452
s(V18*
p116
L6L
L13L
tp117
F0.4531484475929121
s(V7*D
p118
L21L
Ntp119
L0L
s(V16*
p120
L6L
L13L
tp121
F0.013435342345709478
s(V6*
p122
L2L
L13L
tp123
F-0.044078369248626674
s(V13*A
p124
L10L
L13L
tp125
F-0.33600832745439824
s(V17*A
p126
L9L
L13L
tp127
F-0.31081916330950077
s(V14*A
p128
L3L
L13L
tp129
F0.11057547910838304
s(L15L
L22L
Ntp130
L0L
s(V9*
p131
L7L
L13L
tp132
F0.31394219688669994
s(V12*DS
p133
L9L
L13L
tp134
F-0.44137010910065577
s(V20*AD
p135
L3L
L13L
tp136
F0.6478132475175261
s(V8*D
p137
L21L
Ntp138
L0L
s(V21*A
p139
L9L
L13L
tp140
F0.9564066602359613
s(V4*DS
p141
L21L
Ntp142
L0L
s(L13L
L19L
Ntp143
L0L
s(L20L
L21L
Ntp144
L0L
s(V6*DS
p145
L7L
L13L
tp146
F-0.25088618541310986
s(V13*
p147
L8L
L13L
tp148
F-0.43885111338570854
s(V6*
p149
L11L
L13L
tp150
F-0.6373747637272362
s(V14*A
p151
L21L
Ntp152
L0L
s(L6L
L17L
Ntp153
L0L
s(L17L
L25L
Ntp154
L0L
s(g27
L11L
L13L
tp155
F-0.23863803893268198
s(V6*D
p156
L10L
L13L
tp157
F-0.5210353820250483
s(V14*D
p158
L3L
L13L
tp159
F-0.07670409389249579
s(V12*DS
p160
L4L
L13L
tp161
F-5.059608521804093e-06
s(L21L
L2L
L13L
tp162
F1.5
s(V10*DS
p163
L3L
L13L
tp164
F0.7751949062953615
s(V18*AD
p165
L6L
L13L
tp166
F0.7071589464661782
s(V5*D
p167
L2L
L13L
tp168
F-0.04034034285874869
s(V6*D
p169
L6L
L13L
tp170
F0.1263171758943814
s(V20*A
p171
L3L
L13L
tp172
F0.6478132475175261
s(V8*
p173
L4L
L13L
tp174
F0.2277120555499809
s(V17*
p175
L9L
L13L
tp176
F-0.5026106938873496
s(V16*D
p177
L3L
L13L
tp178
F-0.07670409389249579
s(V20*DS
p179
L11L
L13L
tp180
F-0.011597067910778653
s(V15*
p181
L11L
L13L
tp182
F-0.7443688873197817
s(V10*
p183
L6L
L13L
tp184
F0.506395810594561
s(L19L
L21L
Ntp185
L0L
s(L19L
L22L
Ntp186
L0L
s(V8*
p187
L8L
L13L
tp188
F-0.041974676799987135
s(L16L
L22L
Ntp189
L0L
s(V16*
p190
L11L
L13L
tp191
F-0.7443688873197817
s(V18*A
p192
L5L
L13L
tp193
F0.3620246096219639
s(V6*D
p194
L3L
L13L
tp195
F0.023382694001604015
s(V16*DS
p196
L5L
L13L
tp197
F0.06936652726777248
s(V8*DS
p198
L6L
L13L
tp199
F0.5346551086685762
s(L21L
L22L
Ntp200
L0L
s(V9*
p201
L2L
L13L
tp202
F0.21371342268528393
s(V19*A
p203
L9L
L13L
tp204
F0.22831111333412488
s(V16*A
p205
L11L
L13L
tp206
F-0.5917813782790371
s(V21*
p207
L6L
L13L
tp208
F0.9221307864418318
s(V8*DS
p209
L10L
L13L
tp210
F-0.40777623277018743
s(V21*A
p211
L4L
L13L
tp212
F0.888472366988718
s(V14*DS
p213
L4L
L13L
tp214
F-5.059608521804093e-06
s(V14*
p215
L6L
L13L
tp216
F0.013435342345709478
s(L12L
L21L
Ntp217
L0L
s(V7*D
p218
L2L
L13L
tp219
F0.00011723359820864712
s(V15*AD
p220
L9L
L13L
tp221
F-0.3227750062301667
s(L20L
L19L
Ntp222
L0L
s(V15*A
p223
L9L
L13L
tp224
F-0.3227750062301667
s(L4L
L26L
Ntp225
L0L
s(V16*AD
p226
L3L
L13L
tp227
F0.12808991483035592
s(V10*
p228
L3L
L13L
tp229
F0.3875974531476807
s(L17L
L19L
Ntp230
L0L
s(V7*D
p231
L7L
L13L
tp232
F-0.05492924633798971
s(L11L
L21L
Ntp233
L0L
s(L11L
L22L
Ntp234
L0L
s(V19*
p235
L5L
L13L
tp236
F0.5452482660298452
s(L6L
L24L
Ntp237
L0L
s(V15*D
p238
L4L
L13L
tp239
F-5.059608521804093e-06
s(g141
L11L
L13L
tp240
F-0.6094745397609465
s(V20*
p241
L5L
L13L
tp242
F0.7275543425504799
s(V7*
p243
L9L
L13L
tp244
F-0.389491673006642
s(V17*AD
p245
L8L
L13L
tp246
F-0.20817658933531977
s(L13L
L22L
Ntp247
L0L
s(V10*DS
p248
L10L
L13L
tp249
F0.013110951811330197
s(V8*D
p250
L4L
L13L
tp251
F0.3601009219973419
s(V4*DS
p252
L7L
L13L
tp253
F-0.191671086402024
s(V18*D
p254
L8L
L13L
tp255
F0.10166678297945025
s(V9*D
p256
L9L
L13L
tp257
F-0.031898696188471215
s(V20*D
p258
L3L
L13L
tp259
F0.6478132475175261
s(V17*D
p260
L21L
Ntp261
L0L
s(V14*A
p262
L10L
L13L
tp263
F-0.3934319036862425
s(V16*D
p264
L10L
L13L
tp265
F-0.6600877666911936
s(V20*DS
p266
L2L
L13L
tp267
F0.6369634991710227
s(V18*
p268
L10L
L13L
tp269
F-0.37577688404316556
s(V9*D
p270
L5L
L13L
tp271
F0.7213945754351828
s(V10*D
p272
L2L
L13L
tp273
F0.7009051800589116
s(V17*AD
p274
L5L
L13L
tp275
F0.48522052016781253
s(V11*D
p276
L4L
L13L
tp277
F0.961545141148857
s(V4*DS
p278
L2L
L13L
tp279
F-0.02029768837144595
s(V20*AD
p280
L10L
L13L
tp281
F0.33043461870222357
s(L24L
NNtp282
L0L
s(V11*
p283
L2L
L13L
tp284
F0.40222850703333574
s(V17*A
p285
L5L
L13L
tp286
F0.24261026008390638
s(V13*AD
p287
L7L
L13L
tp288
F-0.0022007814145908085
s(L12L
L19L
Ntp289
L0L
s(V10*D
p290
L7L
L13L
tp291
F0.797446215261624
s(V20*D
p292
L10L
L13L
tp293
F0.33043461870222357
s(L12L
L26L
Ntp294
L0L
s(V9*
p295
L11L
L13L
tp296
F-0.40172481560717016
s(V6*DS
p297
L21L
Ntp298
L0L
s(V16*A
p299
L2L
L13L
tp300
F0.008749117055932402
s(V21*
p301
L21L
Ntp302
L0L
s(V12*
p303
L7L
L13L
tp304
F-0.30528163412808135
s(V12*ADS
p305
L10L
L13L
tp306
F-0.29517716715991904
s(L17L
L17L
Ntp307
L0L
s(V13*
p308
L21L
Ntp309
L0L
s(V19*A
p310
L6L
L13L
tp311
F0.608409756126121
s(V12*
p312
L11L
L13L
tp313
F-0.6602879610118454
s(V24*
p314
NNtp315
L0L
s(V15*A
p316
L7L
L13L
tp317
F-0.14985822162839743
s(V19*D
p318
L3L
L13L
tp319
F0.4329656920205301
s(V14*
p320
L9L
L13L
tp321
F-0.5701147782484405
s(V18*AD
p322
L10L
L13L
tp323
F-0.352707738252112
s(L10L
L22L
Ntp324
L0L
s(V18*DS
p325
L10L
L13L
tp326
F-0.37577688404316556
s(L6L
L18L
Ntp327
L0L
s(V17*
p328
L5L
L13L
tp329
F0.1697362600726538
s(V20*AD
p330
L21L
Ntp331
L0L
s(V10*
p332
L10L
L13L
tp333
F-0.034298560288692284
s(V13*A
p334
L8L
L13L
tp335
F-0.08055072761431975
s(V18*DS
p336
L6L
L13L
tp337
F0.4531484475929121
s(L13L
L25L
Ntp338
L0L
s(V14*AD
p339
L6L
L13L
tp340
F0.37113458087793394
s(L4L
L22L
Ntp341
L0L
s(V12*DS
p342
L11L
L13L
tp343
F-0.6602879610118454
s(L18L
L20L
Ntp344
L0L
s(V13*AD
p345
L2L
L13L
tp346
F0.08163639999185598
s(V13*D
p347
L5L
L13L
tp348
F0.06936652726777248
s(V18*DS
p349
L3L
L13L
tp350
F0.23411082447504228
s(V5*D
p351
L9L
L13L
tp352
F-0.408915825015446
s(L18L
L26L
Ntp353
L0L
s(V16*A
p354
L7L
L13L
tp355
F-0.16313103410565816
s(V21*
p356
L10L
L13L
tp357
F0.7763077842689895
s(L11L
L26L
Ntp358
L0L
s(V14*AD
p359
L11L
L13L
tp360
F-0.5494700378217979
s(V12*ADS
p361
L21L
Ntp362
L0L
s(V14*DS
p363
L8L
L13L
tp364
F-0.5123666341880195
s(V7*
p365
L6L
L13L
tp366
F0.20527580237325088
s(L11L
L25L
Ntp367
L0L
s(V5*D
p368
L4L
L13L
tp369
F0.09783243474076798
s(V6*D
p370
L4L
L13L
tp371
F0.09463827926953888
s(V16*DS
p372
L2L
L13L
tp373
F-0.151254287926043
s(V16*D
p374
L5L
L13L
tp375
F0.06936652726777248
s(V15*
p376
L9L
L13L
tp377
F-0.6049135875958551
s(V21*A
p378
L3L
L13L
tp379
F0.8816927582854585
s(L10L
L26L
Ntp380
L0L
s(V8*
p381
L10L
L13L
tp382
F-0.40777623277018743
s(L10L
L25L
Ntp383
L0L
s(V16*
p384
L5L
L13L
tp385
F0.06936652726777248
s(V18*A
p386
L7L
L13L
tp387
F0.5318753507734548
s(V13*
p388
L10L
L13L
tp389
F-0.5923965352385677
s(V6*
p390
L9L
L13L
tp391
F-0.42129331161223404
s(V9*
p392
L4L
L13L
tp393
F0.3255067788081678
s(g312
L21L
Ntp394
L0L
s(V19*
p395
L9L
L13L
tp396
F0.22831111333412488
s(V12*DS
p397
L6L
L13L
tp398
F0.013435342345709478
s(V12*D
p399
L6L
L13L
tp400
F0.013435342345709478
s(V20*A
p401
L9L
L13L
tp402
F0.7860652397173153
s(V8*DS
p403
L8L
L13L
tp404
F-0.041974676799987135
s(V21*A
p405
L10L
L13L
tp406
F0.7763077842689895
s(L13L
L20L
Ntp407
L0L
s(V12*D
p408
L10L
L13L
tp409
F-0.5483448920626997
s(V20*A
p410
L5L
L13L
tp411
F0.7275543425504799
s(V19*AD
p412
L7L
L13L
tp413
F0.7220645344291493
s(V11*
p414
L11L
L13L
tp415
F-0.24890172046446385
s(V26*
p416
NNtp417
L0L
s(V19*AD
p418
L21L
Ntp419
L0L
s(g418
L11L
L13L
tp420
F-0.23863803893268198
s(L14L
L23L
Ntp421
L0L
s(V16*DS
p422
L7L
L13L
tp423
F-0.49782725066893035
s(V17*
p424
L10L
L13L
tp425
F-0.5641970329034006
s(V10*
p426
L5L
L13L
tp427
F0.49015016304833176
s(L28L
NNtp428
L0L
s(L12L
L18L
Ntp429
L0L
s(L16L
L18L
Ntp430
L0L
s(V13*AD
p431
L11L
L13L
tp432
F-0.5071431224536845
s(V21*
p433
L4L
L13L
tp434
F0.888472366988718
s(V18*A
p435
L2L
L13L
tp436
F0.17160936435512636
s(V17*D
p437
L3L
L13L
tp438
F0.028913574740329552
s(V15*D
p439
L2L
L13L
tp440
F-0.151254287926043
s(V19*D
p441
L10L
L13L
tp442
F-0.18941997697520468
s(V12*ADS
p443
L6L
L13L
tp444
F0.2733781663817562
s(V20*
p445
L3L
L13L
tp446
F0.6478132475175261
s(L9L
L19L
Ntp447
L0L
s(V19*A
p448
L10L
L13L
tp449
F-0.18941997697520468
s(V17*AD
p450
L10L
L13L
tp451
F-0.4287249425369717
s(V8*D
p452
L2L
L13L
tp453
F0.0992564726141805
s(V4*DS
p454
L5L
L13L
tp455
F0.18017912877354644
s(V14*DS
p456
L7L
L13L
tp457
F-0.45984645125621393
s(V14*A
p458
L8L
L13L
tp459
F-0.16057866625033523
s(V15*A
p460
L11L
L13L
tp461
F-0.5832852776973103
s(V14*
p462
L5L
L13L
tp463
F0.06936652726777248
s(V9*D
p464
L7L
L13L
tp465
F0.49722429400157525
s(V7*D
p466
L5L
L13L
tp467
F0.2802302149948026
s(L14L
L24L
Ntp468
L0L
s(V11*D
p469
L6L
L13L
tp470
F1.0616285741028966
s(V20*AD
p471
L8L
L13L
tp472
F0.8489312790907593
s(L13L
L17L
Ntp473
L0L
s(V17*A
p474
L3L
L13L
tp475
F0.11188033662705332
s(V6*DS
p476
L8L
L13L
tp477
F-0.33625794438145323
s(L13L
L23L
Ntp478
L0L
s(V13*
p479
L3L
L13L
tp480
F-0.07670409389249579
s(L6L
L23L
Ntp481
L0L
s(L11L
L18L
Ntp482
L0L
s(V10*DS
p483
L4L
L13L
tp484
F0.874288632763809
s(V18*D
p485
L6L
L13L
tp486
F0.4531484475929121
s(V16*AD
p487
L21L
Ntp488
L0L
s(V12*
p489
L9L
L13L
tp490
F-0.44137010910065577
s(V20*DS
p491
L4L
L13L
tp492
F0.6817171984759137
s(L18L
L23L
Ntp493
L0L
s(V11*D
p494
L21L
Ntp495
L0L
s(V7*
p496
L10L
L13L
tp497
F-0.48898665394013985
s(V17*AD
p498
L7L
L13L
tp499
F0.015254672589103471
s(V10*DS
p500
L9L
L13L
tp501
F0.43323081390592866
s(V18*D
p502
L11L
L13L
tp503
F-0.4588971485948642
s(V6*D
p504
L8L
L13L
tp505
F-0.33625794438145323
s(g359
L21L
Ntp506
L0L
s(L15L
L17L
Ntp507
L0L
s(V16*D
p508
L9L
L13L
tp509
F-0.6049135875958551
s(L10L
L24L
Ntp510
L0L
s(V18*DS
p511
L4L
L13L
tp512
F0.29966192463909624
s(V9*D
p513
L2L
L13L
tp514
F0.369949785894017
s(V10*D
p515
L5L
L13L
tp516
F0.9803003260966635
s(V20*D
p517
L8L
L13L
tp518
F0.8489312790907593
s(V8*
p519
L6L
L13L
tp520
F0.3197874853915456
s(V
p521
g521
L13L
tp522
F0.04410540237557074
s(V11*D
p523
L3L
L13L
tp524
F0.8767144719936085
s(V14*AD
p525
L4L
L13L
tp526
F0.30016408823068746
s(V8*DS
p527
L21L
Ntp528
L0L
s(L17L
L20L
Ntp529
L0L
s(L12L
L23L
Ntp530
L0L
s(V19*A
p531
L4L
L13L
tp532
F0.49098695836703754
s(V13*AD
p533
L4L
L13L
tp534
F0.33425020113490916
s(V13*D
p535
L7L
L13L
tp536
F-0.38409999376412357
s(L12L
L25L
Ntp537
L0L
s(V5*D
p538
L11L
L13L
tp539
F-0.6311013179350071
s(V9*
p540
L8L
L13L
tp541
F0.2115050331153978
s(V15*AD
p542
L6L
L13L
tp543
F0.32569980867312787
s(V8*DS
p544
L4L
L13L
tp545
F0.3601009219973419
s(g55
L11L
L13L
tp546
F-0.7358490152404816
s(V12*ADS
p547
L9L
L13L
tp548
F-0.12198563213542653
s(V19*A
p549
L21L
Ntp550
L0L
s(V16*
p551
L2L
L13L
tp552
F-0.151254287926043
s(V17*
p553
L3L
L13L
tp554
F0.028913574740329552
s(V13*A
p555
L6L
L13L
tp556
F0.24494232769020807
s(V15*AD
p557
L3L
L13L
tp558
F0.11752814796707337
s(L11L
L23L
Ntp559
L0L
s(V14*D
p560
L6L
L13L
tp561
F0.013435342345709478
s(L21L
L7L
L13L
tp562
F1.5
s(L11L
L17L
Ntp563
L0L
s(L4L
L25L
Ntp564
L0L
s(V19*
p565
L2L
L13L
tp566
F0.3947878832562771
s(L4L
L19L
Ntp567
L0L
s(V14*D
p568
L10L
L13L
tp569
F-0.6448588661451226
s(L21L
L11L
L13L
tp570
F0.8884615384615385
s(V17*
p571
L6L
L13L
tp572
F0.19521354212801184
s(V10*
p573
L9L
L13L
tp574
F0.23228857631135003
s(L16L
L20L
Ntp575
L0L
s(g105
L11L
L13L
tp576
F-0.5071431224536845
s(L18L
L17L
Ntp577
L0L
s(V20*
p578
L10L
L13L
tp579
F0.33043461870222357
s(V6*DS
p580
L3L
L13L
tp581
F0.023382694001604015
s(L9L
L24L
Ntp582
L0L
s(V21*
p583
L8L
L13L
tp584
F0.9486536509576207
s(L13L
L26L
Ntp585
L0L
s(V14*AD
p586
L9L
L13L
tp587
F-0.2567589771997105
s(V12*DS
p588
L8L
L13L
tp589
F-0.3643133543304856
s(L30L
NNtp590
L0L
s(V7*
p591
L4L
L13L
tp592
F0.13665404118478672
s(V13*D
p593
L2L
L13L
tp594
F-0.151254287926043
s(V5*D
p595
L6L
L13L
tp596
F0.12893618421516242
s(V12*D
p597
L8L
L13L
tp598
F-0.3643133543304856
s(V20*A
p599
L7L
L13L
tp600
F0.8320393303903174
s(V4*DS
p601
L9L
L13L
tp602
F-0.3646900823670796
s(V16*D
p603
L7L
L13L
tp604
F-0.49782725066893035
s(V15*
p605
L7L
L13L
tp606
F-0.49782725066893035
s(V11*
p607
L9L
L13L
tp608
F0.2552188723306925
s(L16L
L24L
Ntp609
L0L
s(V14*DS
p610
L11L
L13L
tp611
F-0.7358490152404816
s(V19*AD
p612
L9L
L13L
tp613
F0.22831111333412488
s(V16*
p614
L7L
L13L
tp615
F-0.49782725066893035
s(L12L
L20L
Ntp616
L0L
s(V9*D
p617
L11L
L13L
tp618
F-0.40172481560717016
s(V18*A
p619
L9L
L13L
tp620
F-0.21945485890151714
s(V6*D
p621
L7L
L13L
tp622
F-0.25088618541310986
s(L17L
L23L
Ntp623
L0L
s(V15*
p624
L10L
L13L
tp625
F-0.6600877666911936
s(L6L
L21L
Ntp626
L0L
s(V9*
p627
L6L
L13L
tp628
F0.40736505096044084
s(V8*
p629
L9L
L13L
tp630
F-0.28461647464267736
s(L10L
L20L
Ntp631
L0L
s(L10L
L19L
Ntp632
L0L
s(V16*AD
p633
L6L
L13L
tp634
F0.3438776286513582
s(V18*A
p635
L4L
L13L
tp636
F0.29966192463909624
s(V21*A
p637
L8L
L13L
tp638
F0.9486536509576207
s(V19*D
p639
L8L
L13L
tp640
F0.6690162484053822
s(V14*
p641
L2L
L13L
tp642
F-0.151254287926043
s(V16*AD
p643
L10L
L13L
tp644
F-0.45791435444240447
s(g179
L21L
Ntp645
L0L
s(V18*
p646
L3L
L13L
tp647
F0.23411082447504228
s(V12*
p648
L5L
L13L
tp649
F0.06936652726777248
s(L14L
L22L
Ntp650
L0L
s(g527
L11L
L13L
tp651
F-0.5125182144550479
s(V18*A
p652
L21L
Ntp653
L0L
s(L15L
L25L
Ntp654
L0L
s(V20*A
p655
L2L
L13L
tp656
F0.6369634991710227
s(V17*
p657
L8L
L13L
tp658
F-0.4429832950040797
s(V10*
p659
L7L
L13L
tp660
F0.416597817567689
s(V7*D
p661
L3L
L13L
tp662
F0.06656131589284245
s(V17*D
p663
L9L
L13L
tp664
F-0.5026106938873496
s(V18*DS
p665
L8L
L13L
tp666
F0.10166678297945025
s(L18L
L24L
Ntp667
L0L
s(V20*D
p668
L21L
Ntp669
L0L
s(g502
L21L
Ntp670
L0L
s(V6*DS
p671
L10L
L13L
tp672
F-0.5210353820250483
s(V17*D
p673
L5L
L13L
tp674
F0.1697362600726538
s(V19*A
p675
L8L
L13L
tp676
F0.6690162484053822
s(L15L
L21L
Ntp677
L0L
s(V13*AD
p678
L8L
L13L
tp679
F-0.08055072761431975
s(V10*DS
p680
L6L
L13L
tp681
F1.012791621189122
s(V18*AD
p682
L3L
L13L
tp683
F0.3949327788284577
s(V18*D
p684
L4L
L13L
tp685
F0.29966192463909624
s(V14*DS
p686
L5L
L13L
tp687
F0.06936652726777248
s(V14*A
p688
L6L
L13L
tp689
F0.21412386091489213
s(V20*DS
p690
L6L
L13L
tp691
F0.7658879659301983
s(V14*
p692
L7L
L13L
tp693
F-0.45984645125621393
s(V15*D
p694
L21L
Ntp695
L0L
s(V12*ADS
p696
L5L
L13L
tp697
F0.288445929575239
s(L21L
NNtp698
L0L
s(V27*
p699
NNtp700
L0L
s(V18*DS
p701
L21L
Ntp702
L0L
s(V17*AD
p703
L9L
L13L
tp704
F-0.31081916330950077
s(V11*D
p705
L8L
L13L
tp706
F0.6349811848995961
s(V4*DS
p707
L6L
L13L
tp708
F0.14823284405752327
s(V20*AD
p709
L6L
L13L
tp710
F0.7658879659301983
s(V20*A
p711
L21L
Ntp712
L0L
s(g151
L11L
L13L
tp713
F-0.5494700378217979
s(V13*
p714
L5L
L13L
tp715
F0.06936652726777248
s(V6*
p716
L6L
L13L
tp717
F0.1263171758943814
s(V10*D
p718
L3L
L13L
tp719
F0.7751949062953615
s(V9*D
p720
L4L
L13L
tp721
F0.6010866498665676
s(L8L
L18L
Ntp722
L0L
s(L8L
L21L
Ntp723
L0L
s(V11*D
p724
L5L
L13L
tp725
F1.0535032648360636
s(g330
L11L
L13L
tp726
F-0.011597067910778653
s(L6L
L19L
Ntp727
L0L
s(V6*
p728
L3L
L13L
tp729
F0.023382694001604015
s(L6L
L25L
Ntp730
L0L
s(V15*AD
p731
L4L
L13L
tp732
F0.25574021690082516
s(V7*
p733
L8L
L13L
tp734
F-0.2896018628581565
s(V10*DS
p735
L11L
L13L
tp736
F-0.16710661463468338
s(V18*D
p737
L9L
L13L
tp738
F-0.3015013662366511
s(V17*A
p739
L21L
Ntp740
L0L
s(V16*DS
p741
L8L
L13L
tp742
F-0.5518229154225727
s(V12*D
p743
L4L
L13L
tp744
F-5.059608521804093e-06
s(g711
L11L
L13L
tp745
F-0.011597067910778653
s(V12*
p746
L10L
L13L
tp747
F-0.5483448920626997
s(V16*D
p748
L11L
L13L
tp749
F-0.7443688873197817
s(V20*DS
p750
L3L
L13L
tp751
F0.6478132475175261
s(V13*A
p752
L4L
L13L
tp753
F0.20400975722034417
s(V28*
p754
NNtp755
L0L
s(L20L
L25L
Ntp756
L0L
s(V19*AD
p757
L5L
L13L
tp758
F0.8086161192266195
s(V21*
p759
L3L
L13L
tp760
F0.8816927582854585
s(L9L
L17L
Ntp761
L0L
s(V14*AD
p762
L2L
L13L
tp763
F0.04975766521146882
s(V6*D
p764
L11L
L13L
tp765
F-0.6373747637272362
s(L9L
L22L
Ntp766
L0L
s(V14*D
p767
L8L
L13L
tp768
F-0.5123666341880195
s(L21L
L9L
L13L
tp769
F1.5
s(V13*AD
p770
L6L
L13L
tp771
F0.4087572120571583
s(V13*D
p772
L9L
L13L
tp773
F-0.5014022433510368
s(V18*DS
p774
L7L
L13L
tp775
F0.5318753507734548
s(V20*
p776
L8L
L13L
tp777
F0.8489312790907593
s(V9*
p778
L10L
L13L
tp779
F-0.2894376085348701
s(V17*AD
p780
L21L
Ntp781
L0L
s(V8*
p782
L5L
L13L
tp783
F0.29050227905778364
s(V16*A
p784
L3L
L13L
tp785
F0.07250118506901708
s(V8*DS
p786
L2L
L13L
tp787
F0.0992564726141805
s(V14*AD
p788
L7L
L13L
tp789
F-0.08251207184351331
s(V21*A
p790
L21L
Ntp791
L0L
s(g361
L11L
L13L
tp792
F-0.47156377925734305
s(g748
L21L
Ntp793
L0L
s(V13*D
p794
L4L
L13L
tp795
F-5.059608521804093e-06
s(L25L
NNtp796
L0L
s(V7*D
p797
L10L
L13L
tp798
F-0.48898665394013985
s(V5*D
p799
L8L
L13L
tp800
F-0.32195004515134124
s(L14L
L20L
Ntp801
L0L
s(L8L
L24L
Ntp802
L0L
s(V8*DS
p803
L7L
L13L
tp804
F0.19346643085543874
s(V15*
p805
L5L
L13L
tp806
F0.06936652726777248
s(L26L
NNtp807
L0L
s(L21L
L26L
Ntp808
L0L
s(L21L
L19L
Ntp809
L0L
s(g342
L21L
Ntp810
L0L
s(V17*
p811
L4L
L13L
tp812
F0.10191726795499181
s(V10*
p813
L11L
L13L
tp814
F-0.2801316702588991
s(g652
L11L
L13L
tp815
F-0.4588971485948642
s(V13*A
p816
L9L
L13L
tp817
F-0.18055520875254918
s(L11L
L19L
Ntp818
L0L
s(L11L
L20L
Ntp819
L0L
s(L14L
L18L
Ntp820
L0L
s(L4L
L23L
Ntp821
L0L
s(V12*DS
p822
L10L
L13L
tp823
F-0.5483448920626997
s(L18L
L21L
Ntp824
L0L
s(V10*D
p825
L21L
Ntp826
L0L
s(V15*A
p827
L2L
L13L
tp828
F0.015035045256597584
s(V16*AD
p829
L8L
L13L
tp830
F-0.24737436429314566
s(L15L
L19L
Ntp831
L0L
s(V11*
p832
L7L
L13L
tp833
F0.41612744464582196
s(V14*DS
p834
L9L
L13L
tp835
F-0.5701147782484405
s(V15*D
p836
L7L
L13L
tp837
F-0.49782725066893035
s(V10*D
p838
L10L
L13L
tp839
F0.013110951811330197
s(V20*D
p840
L7L
L13L
tp841
F0.8320393303903174
s(V6*D
p842
L5L
L13L
tp843
F0.16046323574626029
s(V16*DS
p844
L3L
L13L
tp845
F-0.07670409389249579
s(g16
L11L
L13L
tp846
F-0.6602879610118454
s(V20*A
p847
L4L
L13L
tp848
F0.6817171984759137
s(g694
L11L
L13L
tp849
F-0.7443688873197817
s(V4*DS
p850
L10L
L13L
tp851
F-0.48035538797302546
s(L6L
L20L
Ntp852
L0L
s(V15*
p853
L8L
L13L
tp854
F-0.5518229154225727
s(V8*D
p855
L7L
L13L
tp856
F0.19346643085543874
s(V11*
p857
L10L
L13L
tp858
F0.08046255031919404
s(L8L
L26L
Ntp859
L0L
s(V8*
p860
L11L
L13L
tp861
F-0.5125182144550479
s(L12L
L24L
Ntp862
L0L
s(V19*AD
p863
L10L
L13L
tp864
F-0.18941997697520468
s(V19*A
p865
L3L
L13L
tp866
F0.4329656920205301
s(g137
L11L
L13L
tp867
F-0.5125182144550479
s(V9*D
p868
L8L
L13L
tp869
F0.294627429899292
s(V20*D
p870
L2L
L13L
tp871
F0.6369634991710227
s(V18*A
p872
L6L
L13L
tp873
F0.4531484475929121
s(V18*
p874
L9L
L13L
tp875
F-0.3015013662366511
s(V17*D
p876
L7L
L13L
tp877
F-0.0513173633283062
s(V19*D
p878
L6L
L13L
tp879
F0.608409756126121
s(V12*ADS
p880
L2L
L13L
tp881
F0.10897379211386274
s(L27L
NNtp882
L0L
s(V18*
p883
L5L
L13L
tp884
F0.3620246096219639
s(V17*A
p885
L6L
L13L
tp886
F0.24950664990608923
s(L10L
L23L
Ntp887
L0L
s(V12*
p888
L3L
L13L
tp889
F-0.07670409389249579
s(V8*DS
p890
L9L
L13L
tp891
F-0.28461647464267736
s(V17*A
p892
L10L
L13L
tp893
F-0.4287249425369717
s(V14*A
p894
L4L
L13L
tp895
F0.17630822182394304
s(V19*D
p896
L11L
L13L
tp897
F-0.23863803893268198
s(V12*
p898
L6L
L13L
tp899
F0.013435342345709478
s(V11*D
p900
L10L
L13L
tp901
F0.23145888556425323
s(V20*AD
p902
L4L
L13L
tp903
F0.6817171984759137
s(L9L
L25L
Ntp904
L0L
s(V6*DS
p905
L4L
L13L
tp906
F0.09463827926953888
s(L9L
L23L
Ntp907
L0L
s(V13*
p908
L7L
L13L
tp909
F-0.38409999376412357
s(L9L
L20L
Ntp910
L0L
s(V6*
p911
L4L
L13L
tp912
F0.09463827926953888
s(V18*AD
p913
L9L
L13L
tp914
F-0.21945485890151714
s(V14*D
p915
L4L
L13L
tp916
F-5.059608521804093e-06
s(V12*DS
p917
L3L
L13L
tp918
F-0.07670409389249579
s(L21L
L5L
L13L
tp919
F1.5
s(L16L
L19L
Ntp920
L0L
s(V7*
p921
L3L
L13L
tp922
F0.06656131589284245
s(V13*AD
p923
L10L
L13L
tp924
F-0.33600832745439824
s(V18*AD
p925
L5L
L13L
tp926
F0.6453819288589309
s(V18*D
p927
L2L
L13L
tp928
F0.17160936435512636
s(g701
L11L
L13L
tp929
F-0.4588971485948642
s(V23*
p930
NNtp931
L0L
s(V15*AD
p932
L21L
Ntp933
L0L
s(V6*DS
p934
L9L
L13L
tp935
F-0.42129331161223404
s(L11L
L24L
Ntp936
L0L
s(V17*D
p937
L2L
L13L
tp938
F-0.04155066402745167
s(V20*DS
p939
L8L
L13L
tp940
F0.8489312790907593
s(V12*ADS
p941
L7L
L13L
tp942
F0.07536857771860707
s(g780
L11L
L13L
tp943
F-0.5612051435379524
s(V16*
p944
L8L
L13L
tp945
F-0.5518229154225727
s(V10*DS
p946
L5L
L13L
tp947
F0.9803003260966635
s(V18*D
p948
L7L
L13L
tp949
F0.5318753507734548
s(V4*DS
p950
L4L
L13L
tp951
F0.1153163134117289
s(L29L
NNtp952
L0L
s(V16*DS
p953
L10L
L13L
tp954
F-0.6600877666911936
s(V14*A
p955
L9L
L13L
tp956
F-0.2567589771997105
s(V16*A
p957
L4L
L13L
tp958
F0.14083438241034593
s(V20*DS
p959
L5L
L13L
tp960
F0.7275543425504799
s(L21L
L24L
Ntp961
L0L
s(V9*D
p962
L6L
L13L
tp963
F0.7610022884322087
s(L14L
L25L
Ntp964
L0L
s(L10L
L18L
Ntp965
L0L
s(V8*
p966
L2L
L13L
tp967
F0.0992564726141805
s(L10L
L17L
Ntp968
L0L
s(V16*A
p969
L8L
L13L
tp970
F-0.24737436429314566
s(V11*D
p971
L7L
L13L
tp972
F0.777250907763805
s(V20*AD
p973
L9L
L13L
tp974
F0.7860652397173153
s(V21*A
p975
L7L
L13L
tp976
F0.9442538847284646
s(V13*
p977
L2L
L13L
tp978
F-0.151254287926043
s(V13*D
p979
L11L
L13L
tp980
F-0.696997416433311
s(L8L
L17L
Ntp981
L0L
s(L18L
L19L
Ntp982
L0L
s(V15*AD
p983
L10L
L13L
tp984
F-0.4460827036901262
s(L21L
L23L
Ntp985
L0L
s(V21*A
p986
L2L
L13L
tp987
F0.8797085003343003
s(V12*D
p988
L2L
L13L
tp989
F-0.151254287926043
s(V16*AD
p990
L4L
L13L
tp991
F0.2659324496571765
s(V12*
p992
L8L
L13L
tp993
F-0.3643133543304856
s(V7*D
p994
L8L
L13L
tp995
F-0.2896018628581565
s(V13*A
p996
L2L
L13L
tp997
F0.08163639999185598
s(V19*
p998
L10L
L13L
tp999
F-0.18941997697520468
s(V15*AD
p1000
L7L
L13L
tp1001
F-0.14985822162839743
s(V19*AD
p1002
L3L
L13L
tp1003
F0.5734511668192852
s(V6*D
p1004
L9L
L13L
tp1005
F-0.42129331161223404
s(V19*
p1006
L6L
L13L
tp1007
F0.608409756126121
s(V12*D
p1008
L7L
L13L
tp1009
F-0.30528163412808135
s(V20*A
p1010
L8L
L13L
tp1011
F0.8489312790907593
s(V17*
p1012
L2L
L13L
tp1013
F-0.04155066402745167
s(V13*A
p1014
L7L
L13L
tp1015
F-0.0022007814145908085
s(V18*DS
p1016
L5L
L13L
tp1017
F0.3620246096219639
s(V20*
p1018
L6L
L13L
tp1019
F0.7658879659301983
s(L16L
L26L
Ntp1020
L0L
s(V8*
p1021
L7L
L13L
tp1022
F0.19346643085543874
s(V19*AD
p1023
L6L
L13L
tp1024
F0.8553668153191138
s(L9L
L18L
Ntp1025
L0L
s(g181
L21L
Ntp1026
L0L
s(V14*AD
p1027
L5L
L13L
tp1028
F0.4265333447891848
s(V19*
p1029
L3L
L13L
tp1030
F0.4329656920205301
s(g260
L11L
L13L
tp1031
F-0.6556854703363982
s(V14*DS
p1032
L2L
L13L
tp1033
F-0.151254287926043
s(V14*D
p1034
L11L
L13L
tp1035
F-0.7358490152404816
s(L21L
L10L
L13L
tp1036
F1.3471153846153847
s(V13*D
p1037
L6L
L13L
tp1038
F0.013435342345709478
s(g431
L21L
Ntp1039
L0L
s(V20*
p1040
L11L
L13L
tp1041
F-0.011597067910778653
s(V5*D
p1042
L10L
L13L
tp1043
F-0.5123326751250571
s(V17*AD
p1044
L2L
L13L
tp1045
F0.09837587027859111
s(V8*DS
p1046
L5L
L13L
tp1047
F0.48981011194198215
s(V15*
p1048
L3L
L13L
tp1049
F-0.07670409389249579
s(V11*
p1050
L5L
L13L
tp1051
F0.5267516324180319
s(V16*
p1052
L3L
L13L
tp1053
F-0.07670409389249579
s(L23L
NNtp1054
L0L
s(L8L
L20L
Ntp1055
L0L
s(V20*D
p1056
L5L
L13L
tp1057
F0.7275543425504799
s(V10*D
p1058
L8L
L13L
tp1059
F0.6494768097737603
s(L8L
L23L
Ntp1060
L0L
s(V15*D
p1061
L9L
L13L
tp1062
F-0.6049135875958551
s(V15*
p1063
L6L
L13L
tp1064
F0.013435342345709478
s(g896
L21L
Ntp1065
L0L
s(L21L
L20L
Ntp1066
L0L
s(V15*A
p1067
L8L
L13L
tp1068
F-0.22883860847432225
s(g1034
L21L
Ntp1069
L0L
s(V8*D
p1070
L9L
L13L
tp1071
F-0.28461647464267736
s(L16L
L21L
Ntp1072
L0L
s(V18*A
p1073
L8L
L13L
tp1074
F0.10166678297945025
s(L19L
L17L
Ntp1075
L0L
s(V15*A
p1076
L4L
L13L
tp1077
F0.1462332044256984
s(V19*D
p1078
L4L
L13L
tp1079
F0.49098695836703754
s(V18*
p1080
L7L
L13L
tp1081
F0.5318753507734548
s(L20L
L24L
Ntp1082
L0L
s(V17*A
p1083
L8L
L13L
tp1084
F-0.20817658933531977
s(L20L
L18L
Ntp1085
L0L
s(V12*D
p1086
L9L
L13L
tp1087
F-0.44137010910065577
s(V20*A
p1088
L6L
L13L
tp1089
F0.7658879659301983
s(g487
L11L
L13L
tp1090
F-0.5917813782790371
s(L15L
L23L
Ntp1091
L0L
s(V4*DS
p1092
L8L
L13L
tp1093
F-0.27340865086880245
s(V11*
p1094
L8L
L13L
tp1095
F0.34451667896173804
s(V19*AD
p1096
L8L
L13L
tp1097
F0.6690162484053822
s(V9*D
p1098
L10L
L13L
tp1099
F-0.2894376085348701
s(V6*DS
p1100
L6L
L13L
tp1101
F0.1263171758943814
s(L17L
L22L
Ntp1102
L0L
s(L8L
L25L
Ntp1103
L0L
s(L20L
L20L
Ntp1104
L0L
s(V10*DS
p1105
L2L
L13L
tp1106
F0.7009051800589116
s(V18*AD
p1107
L7L
L13L
tp1108
F0.5318753507734548
s(L14L
L26L
Ntp1109
L0L
s(V5*D
p1110
L3L
L13L
tp1111
F0.02680783060088904
s(V17*D
p1112
L4L
L13L
tp1113
F0.10191726795499181
s(V14*A
p1114
L2L
L13L
tp1115
F0.04975766521146882
s(V16*D
p1116
L2L
L13L
tp1117
F-0.151254287926043
s(V19*D
p1118
L9L
L13L
tp1119
F0.22831111333412488
s(V20*DS
p1120
L10L
L13L
tp1121
F0.33043461870222357
s(V14*
p1122
L3L
L13L
tp1123
F-0.07670409389249579
s(V18*
p1124
L2L
L13L
tp1125
F0.17160936435512636
s(L21L
L17L
Ntp1126
L0L
s(V16*
p1127
L10L
L13L
tp1128
F-0.6600877666911936
s(V12*
p1129
L4L
L13L
tp1130
F-5.059608521804093e-06
s(V20*AD
p1131
L2L
L13L
tp1132
F0.6369634991710227
s(V18*AD
p1133
L21L
Ntp1134
L0L
s(L15L
L24L
Ntp1135
L0L
s(V14*A
p1136
L7L
L13L
tp1137
F-0.08251207184351331
s(V13*
p1138
L9L
L13L
tp1139
F-0.5014022433510368
s(L19L
L24L
Ntp1140
L0L
s(V6*
p1141
L10L
L13L
tp1142
F-0.5210353820250483
s(L4L
L17L
Ntp1143
L0L
s(V9*
p1144
L3L
L13L
tp1145
F0.2637062389831163
s(L19L
L18L
Ntp1146
L0L
s(V16*A
p1147
L10L
L13L
tp1148
F-0.45791435444240447
s(V14*D
p1149
L2L
L13L
tp1150
F-0.151254287926043
s(V11*D
p1151
L9L
L13L
tp1152
F0.4627370580950938
s(V12*DS
p1153
L5L
L13L
tp1154
F0.06936652726777248
s(V20*AD
p1155
L7L
L13L
tp1156
F0.8320393303903174
s(L21L
L3L
L13L
tp1157
F1.5
s(L9L
L26L
Ntp1158
L0L
s(V21*A
p1159
L5L
L13L
tp1160
F0.9092776897038299
s(V18*DS
p1161
L9L
L13L
tp1162
F-0.3015013662366511
s(L18L
L25L
Ntp1163
L0L
s(g297
L11L
L13L
tp1164
F-0.6373747637272362
s(V13*
p1165
L4L
L13L
tp1166
F-5.059608521804093e-06
s(V6*
p1167
L7L
L13L
tp1168
F-0.25088618541310986
s(L21L
L6L
L13L
tp1169
F1.5
s(V14*D
p1170
L7L
L13L
tp1171
F-0.45984645125621393
s(V15*AD
p1172
L8L
L13L
tp1173
F-0.22883860847432225
s(L16L
L25L
Ntp1174
L0L
s(V10*DS
p1175
L7L
L13L
tp1176
F0.797446215261624
s(V18*AD
p1177
L2L
L13L
tp1178
F0.27785046202047003
s(V18*D
p1179
L5L
L13L
tp1180
F0.3620246096219639
s(V6*D
p1181
L2L
L13L
tp1182
F-0.044078369248626674
s(V16*DS
p1183
L4L
L13L
tp1184
F-5.059608521804093e-06
s(V10*
p1185
L2L
L13L
tp1186
F0.3504525900294557
s(V20*DS
p1187
L7L
L13L
tp1188
F0.8320393303903174
s(g301
L11L
L13L
tp1189
F0.14395254141124036
s(V18*
p1190
L21L
Ntp1191
L0L
s(L8L
L22L
Ntp1192
L0L
s(V21*
p1193
L7L
L13L
tp1194
F0.9442538847284646
s(L20L
L23L
Ntp1195
L0L
s(V16*DS
p1196
L9L
L13L
tp1197
F-0.6049135875958551
s(V19*
p1198
L4L
L13L
tp1199
F0.49098695836703754
s(g610
L21L
Ntp1200
L0L
s(V15*D
p1201
L5L
L13L
tp1202
F0.06936652726777248
s(V25*
p1203
NNtp1204
L0L
s(V20*
p1205
L4L
L13L
tp1206
F0.6817171984759137
s(L10L
L21L
Ntp1207
L0L
s(L18L
L18L
Ntp1208
L0L
s(g617
L21L
Ntp1209
L0L
s(g460
L21L
Ntp1210
L0L
s(V8*D
p1211
L5L
L13L
tp1212
F0.48981011194198215
s(V21*
p1213
L2L
L13L
tp1214
F0.8797085003343003
s(V14*AD
p1215
L3L
L13L
tp1216
F0.16544799057597115
s(L17L
L26L
Ntp1217
L0L
s(V16*AD
p1218
L2L
L13L
tp1219
F0.008749117055932402
s(V13*D
p1220
L8L
L13L
tp1221
F-0.43885111338570854
s(g1190
L11L
L13L
tp1222
F-0.4588971485948642
s(L19L
L23L
Ntp1223
L0L
s(V7*D
p1224
L6L
L13L
tp1225
F0.26472365750661075
s(L20L
L26L
Ntp1226
L0L
s(V15*AD
p1227
L5L
L13L
tp1228
F0.3845377866673819
s(V8*DS
p1229
L3L
L13L
tp1230
F0.22016861257124473
s(V17*A
p1231
L4L
L13L
tp1232
F0.1791142857382743
s(L9L
L21L
Ntp1233
L0L
s(V12*D
p1234
L5L
L13L
tp1235
F0.06936652726777248
s(V20*A
p1236
L10L
L13L
tp1237
F0.33043461870222357
s(V16*AD
p1238
L7L
L13L
tp1239
F-0.16313103410565816
s(g118
L11L
L13L
tp1240
F-0.6040144168468997
s(V13*A
p1241
L5L
L13L
tp1242
F0.2650551941712155
s(g735
L21L
Ntp1243
L0L
s(V19*AD
p1244
L4L
L13L
tp1245
F0.6933516133978194
s(L15L
L20L
Ntp1246
L0L
s(V14*D
p1247
L9L
L13L
tp1248
F-0.5701147782484405
s(L21L
L8L
L13L
tp1249
F1.5
s(V17*
p1250
L21L
Ntp1251
L0L
s(V20*
p1252
L9L
L13L
tp1253
F0.7860652397173153
s(V15*A
p1254
L6L
L13L
tp1255
F0.18238814494573827
s(V17*AD
p1256
L4L
L13L
tp1257
F0.3582285714765486
s(g1133
L11L
L13L
tp1258
F-0.4588971485948642
s(V4*DS
p1259
L3L
L13L
tp1260
F0.045470113794053885
s(V11*
p1261
L3L
L13L
tp1262
F0.4383572359968042
s(V17*D
p1263
L8L
L13L
tp1264
F-0.4429832950040797
s(L21L
L25L
Ntp1265
L0L
s(g1040
L21L
Ntp1266
L0L
s(V10*D
p1267
L6L
L13L
tp1268
F1.012791621189122
s(g668
L11L
L13L
tp1269
F-0.011597067910778653
s(V16*DS
p1270
L21L
Ntp1271
L0L
s(L14L
L21L
Ntp1272
L0L
s(g549
L11L
L13L
tp1273
F-0.23863803893268198
s(V15*
p1274
L4L
L13L
tp1275
F-5.059608521804093e-06
s(V11*
p1276
L6L
L13L
tp1277
F0.5308142870514483
s(L19L
L26L
Ntp1278
L0L
s(V19*A
p1279
L7L
L13L
tp1280
F0.7220645344291493
s(V13*AD
p1281
L3L
L13L
tp1282
F0.20167385764647205
s(L8L
L19L
Ntp1283
L0L
s(V14*
p1284
L4L
L13L
tp1285
F-5.059608521804093e-06
s(g825
L11L
L13L
tp1286
F-0.16710661463468338
s(V20*D
p1287
L6L
L13L
tp1288
F0.7658879659301983
s(g205
L21L
Ntp1289
L0L
s(V18*A
p1290
L10L
L13L
tp1291
F-0.352707738252112
s(V16*A
p1292
L6L
L13L
tp1293
F0.1774725349261368
s(V15*D
p1294
L10L
L13L
tp1295
F-0.6600877666911936
s(V19*D
p1296
L2L
L13L
tp1297
F0.3947878832562771
s(V14*
p1298
L8L
L13L
tp1299
F-0.5123666341880195
s(V19*A
p1300
L2L
L13L
tp1301
F0.3947878832562771
s(V8*D
p1302
L10L
L13L
tp1303
F-0.40777623277018743
s(g190
L21L
Ntp1304
L0L
s(L16L
L17L
Ntp1305
L0L
s(V15*A
p1306
L3L
L13L
tp1307
F0.07827942466796303
s(V19*D
p1308
L7L
L13L
tp1309
F0.7220645344291493
s(V16*AD
p1310
L9L
L13L
tp1311
F-0.3392374103285326
s(V18*
p1312
L4L
L13L
tp1313
F0.29966192463909624
s(L15L
L18L
Ntp1314
L0L
s(V12*
p1315
L2L
L13L
tp1316
F-0.151254287926043
s(V18*DS
p1317
L2L
L13L
tp1318
F0.17160936435512636
s(g739
L11L
L13L
tp1319
F-0.5612051435379524
s(L20L
L22L
Ntp1320
L0L
s(L20L
L17L
Ntp1321
L0L
s(g308
L11L
L13L
tp1322
F-0.696997416433311
s(L22L
NNtp1323
L0L
s(V7*
p1324
L11L
L13L
tp1325
F-0.6040144168468997
s(V6*
p1326
L8L
L13L
tp1327
F-0.33625794438145323
s(V14*AD
p1328
L10L
L13L
tp1329
F-0.3934319036862425
s(V19*
p1330
L8L
L13L
tp1331
F0.6690162484053822
s(V12*DS
p1332
L7L
L13L
tp1333
F-0.30528163412808135
s(V7*
p1334
L7L
L13L
tp1335
F-0.05492924633798971
s(V16*D
p1336
L8L
L13L
tp1337
F-0.5518229154225727
s(g764
L21L
Ntp1338
L0L
s(V5*D
p1339
L5L
L13L
tp1340
F0.16349131488438137
s(V6*DS
p1341
L5L
L13L
tp1342
F0.16046323574626029
s(V17*D
p1343
L6L
L13L
tp1344
F0.19521354212801184
s(L17L
L18L
Ntp1345
L0L
s(V16*D
p1346
L4L
L13L
tp1347
F-5.059608521804093e-06
s(V12*ADS
p1348
L3L
L13L
tp1349
F0.16549504836436535
s(L17L
L24L
Ntp1350
L0L
s(L19L
L25L
Ntp1351
L0L
s(V7*
p1352
L2L
L13L
tp1353
F0.00011723359820864712
s(V16*
p1354
L4L
L13L
tp1355
F-5.059608521804093e-06
s(V18*AD
p1356
L4L
L13L
tp1357
F0.5231601200219772
s(V18*D
p1358
L3L
L13L
tp1359
F0.23411082447504228
s(V16*DS
p1360
L6L
L13L
tp1361
F0.013435342345709478
s(V9*
p1362
L9L
L13L
tp1363
F-0.031898696188471215
s(V14*A
p1364
L5L
L13L
tp1365
F0.2383965095638178
s(V20*DS
p1366
L9L
L13L
tp1367
F0.7860652397173153
s(L21L
L21L
Ntp1368
L0L
s(V9*
p1369
L5L
L13L
tp1370
F0.3844461297157779
s(L21L
L18L
Ntp1371
L0L
s(L14L
L19L
Ntp1372
L0L
s(V16*
p1373
L9L
L13L
tp1374
F-0.6049135875958551
s(g494
L11L
L13L
tp1375
F-0.11305480767660642
s(V20*AD
p1376
L5L
L13L
tp1377
F0.7275543425504799
s(L16L
L23L
Ntp1378
L0L
s(V21*
p1379
L5L
L13L
tp1380
F0.9092776897038299
s(V18*A
p1381
L3L
L13L
tp1382
F0.23411082447504228
s(g790
L11L
L13L
tp1383
F0.14395254141124036
s(V13*
p1384
L6L
L13L
tp1385
F0.013435342345709478
s(V15*AD
p1386
L2L
L13L
tp1387
F0.015035045256597584
s(L4L
L21L
Ntp1388
L0L
s(L12L
L22L
Ntp1389
L0L
s(V6*
p1390
L5L
L13L
tp1391
F0.16046323574626029
s(L12L
L17L
Ntp1392
L0L
s(V16*A
p1393
L9L
L13L
tp1394
F-0.3392374103285326
s(V14*D
p1395
L5L
L13L
tp1396
F0.06936652726777248
s(V12*DS
p1397
L2L
L13L
tp1398
F-0.151254287926043
s(L21L
L4L
L13L
tp1399
F1.5
s(V17*
p1400
L7L
L13L
tp1401
F-0.0513173633283062
s(V21*A
p1402
L6L
L13L
tp1403
F0.9221307864418318
s(V10*
p1404
L8L
L13L
tp1405
F0.3423890133442159
s(V15*A
p1406
L10L
L13L
tp1407
F-0.4460827036901262
s(g1250
L11L
L13L
tp1408
F-0.6556854703363982
s(V10*
p1409
L4L
L13L
tp1410
F0.43714431638190454
s(V7*D
p1411
L4L
L13L
tp1412
F0.1441817408159896
s(g932
L11L
L13L
tp1413
F-0.5832852776973103
s(V22*
p1414
NNtp1415
L0L
s(g1270
L11L
L13L
tp1416
F-0.7443688873197817
s(L6L
L22L
Ntp1417
L0L
s(V12*D
p1418
L3L
L13L
tp1419
F-0.07670409389249579
s(V15*D
p1420
L3L
L13L
tp1421
F-0.07670409389249579
s(g979
L21L
Ntp1422
L0L
s(V13*A
p1423
L3L
L13L
tp1424
F0.14002734704070022
s(V20*
p1425
L2L
L13L
tp1426
F0.6369634991710227
s(V8*
p1427
L3L
L13L
tp1428
F0.16093584028003752
s.