(dp0
(V14*DS
p1
L8L
L-13L
tp2
VDraw
p3
s(L13L
L21L
Ntp4
Ns(V11*D
p5
L5L
L-13L
tp6
VDouble
p7
s(V20*AD
p8
L11L
L-13L
tp9
VStay
p10
s(L13L
L18L
Ntp11
Ns(V10*D
p12
L3L
L-13L
tp13
g3
s(V9*D
p14
L4L
L-13L
tp15
g3
s(L13L
L24L
Ntp16
Ns(V5*D
p17
L9L
L-13L
tp18
g3
s(V12*D
p19
L21L
Ntp20
Ns(V13*D
p21
L5L
L-13L
tp22
g3
s(V14*A
p23
L11L
L-13L
tp24
g3
s(V12*DS
p25
L11L
L-13L
tp26
g3
s(V4*DS
p27
L6L
L-13L
tp28
g3
s(L6L
L26L
Ntp29
Ns(V14*AD
p30
L6L
L-13L
tp31
g3
s(V17*AD
p32
L9L
L-13L
tp33
g3
s(V19*
p34
L21L
Ntp35
Ns(L15L
L26L
Ntp36
Ns(V12*ADS
p37
L5L
L-13L
tp38
g3
s(V14*
p39
L7L
L-13L
tp40
g3
s(V18*DS
p41
L6L
L-13L
tp42
g10
s(L19L
L19L
Ntp43
Ns(V13*A
p44
L8L
L-13L
tp45
g3
s(V14*DS
p46
L5L
L-13L
tp47
g3
s(L19L
L20L
Ntp48
Ns(V17*
p49
L5L
L-13L
tp50
g10
s(V10*
p51
L10L
L-13L
tp52
g3
s(V18*DS
p53
L10L
L-13L
tp54
g10
s(V13*AD
p55
L8L
L-13L
tp56
g3
s(V19*A
p57
L8L
L-13L
tp58
g10
s(L17L
L21L
Ntp59
Ns(V14*
p60
L21L
Ntp61
Ns(V12*
p62
L11L
L-13L
tp63
g3
s(V12*ADS
p64
L10L
L-13L
tp65
g3
s(V12*
p66
L7L
L-13L
tp67
g3
s(V7*D
p68
L3L
L-13L
tp69
g3
s(V16*A
p70
L2L
L-13L
tp71
g3
s(V17*
p72
L8L
L-13L
tp73
g10
s(V10*
p74
L7L
L-13L
tp75
g3
s(V9*
p76
L11L
L-13L
tp77
g3
s(V20*A
p78
L2L
L-13L
tp79
g10
s(V13*AD
p80
L7L
L-13L
tp81
g3
s(V8*DS
p82
L11L
L-13L
tp83
g3
s(L4L
L24L
Ntp84
Ns(V11*D
p85
L4L
L-13L
tp86
g7
s(V20*AD
p87
L10L
L-13L
tp88
g10
s(L4L
L18L
Ntp89
Ns(V9*D
p90
L5L
L-13L
tp91
g3
s(V10*D
p92
L2L
L-13L
tp93
g3
s(L14L
L17L
Ntp94
Ns(V16*D
p95
L10L
L-13L
tp96
g3
s(V20*DS
p97
L2L
L-13L
tp98
g10
s(V14*A
p99
L10L
L-13L
tp100
g3
s(V21*A
p101
L8L
L-13L
tp102
g10
s(L18L
L22L
Ntp103
Ns(V18*A
p104
L4L
L-13L
tp105
g10
s(V9*D
p106
L9L
L-13L
tp107
g3
s(V20*D
p108
L3L
L-13L
tp109
g10
s(V4*DS
p110
L7L
L-13L
tp111
g3
s(V8*
p112
L9L
L-13L
tp113
g3
s(V10*DS
p114
L10L
L-13L
tp115
g3
s(V18*D
p116
L8L
L-13L
tp117
g10
s(V17*AD
p118
L8L
L-13L
tp119
g3
s(V9*
p120
L6L
L-13L
tp121
g3
s(V7*
p122
L9L
L-13L
tp123
g3
s(V15*
p124
L10L
L-13L
tp125
g3
s(V4*DS
p126
L11L
L-13L
tp127
g3
s(V13*A
p128
L21L
Ntp129
Ns(V6*D
p130
L7L
L-13L
tp131
g3
s(L4L
L20L
Ntp132
Ns(V16*
p133
L7L
L-13L
tp134
g3
s(V14*DS
p135
L11L
L-13L
tp136
g3
s(V7*D
p137
L21L
Ntp138
Ns(V16*D
p139
L7L
L-13L
tp140
g3
s(V5*D
p141
L6L
L-13L
tp142
g3
s(V13*D
p143
L2L
L-13L
tp144
g3
s(V7*
p145
L4L
L-13L
tp146
g3
s(V12*DS
p147
L8L
L-13L
tp148
g3
s(L15L
L22L
Ntp149
Ns(V14*AD
p150
L9L
L-13L
tp151
g3
s(V21*
p152
L8L
L-13L
tp153
g10
s(V7*D
p154
L2L
L-13L
tp155
g3
s(V8*D
p156
L21L
Ntp157
Ns(V6*DS
p158
L3L
L-13L
tp159
g3
s(g126
L21L
Ntp160
Ns(L13L
L19L
Ntp161
Ns(L20L
L21L
Ntp162
Ns(V14*
p163
L6L
L-13L
tp164
g3
s(g128
L11L
L-13L
tp165
g3
s(V14*DS
p166
L4L
L-13L
tp167
g3
s(g23
L21L
Ntp168
Ns(V17*
p169
L6L
L-13L
tp170
g10
s(V10*
p171
L9L
L-13L
tp172
g3
s(V8*DS
p173
L10L
L-13L
tp174
g3
s(L17L
L25L
Ntp175
Ns(L6L
L17L
Ntp176
Ns(V19*A
p177
L9L
L-13L
tp178
g10
s(V8*DS
p179
L6L
L-13L
tp180
g3
s(V15*AD
p181
L3L
L-13L
tp182
g3
s(V18*A
p183
L5L
L-13L
tp184
g10
s(L19L
L21L
Ntp185
Ns(V8*
p186
L8L
L-13L
tp187
g3
s(V12*ADS
p188
L9L
L-13L
tp189
g3
s(L19L
L22L
Ntp190
Ns(g60
L11L
L-13L
tp191
g3
s(L16L
L22L
Ntp192
Ns(V15*
p193
L11L
L-13L
tp194
g3
s(V17*
p195
L9L
L-13L
tp196
g10
s(V10*
p197
L6L
L-13L
tp198
g3
s(V8*
p199
L4L
L-13L
tp200
g3
s(V9*
p201
L8L
L-13L
tp202
g3
s(V20*A
p203
L3L
L-13L
tp204
g10
s(V6*D
p205
L6L
L-13L
tp206
g3
s(V13*AD
p207
L4L
L-13L
tp208
g3
s(V19*A
p209
L4L
L-13L
tp210
g10
s(L21L
L22L
Ntp211
Ns(V6*D
p212
L10L
L-13L
tp213
g3
s(V11*D
p214
L3L
L-13L
tp215
g7
s(V20*D
p216
L8L
L-13L
tp217
g10
s(V9*D
p218
L2L
L-13L
tp219
g3
s(V10*D
p220
L5L
L-13L
tp221
g3
s(V16*D
p222
L9L
L-13L
tp223
g3
s(V21*A
p224
L9L
L-13L
tp225
g10
s(L12L
L21L
Ntp226
Ns(V12*DS
p227
L9L
L-13L
tp228
g3
s(V10*DS
p229
L9L
L-13L
tp230
g3
s(V18*D
p231
L11L
L-13L
tp232
g10
s(V17*AD
p233
L7L
L-13L
tp234
g3
s(V9*
p235
L7L
L-13L
tp236
g3
s(V7*
p237
L10L
L-13L
tp238
g3
s(L20L
L19L
Ntp239
Ns(L4L
L26L
Ntp240
Ns(V13*A
p241
L10L
L-13L
tp242
g3
s(L17L
L19L
Ntp243
Ns(V6*
p244
L2L
L-13L
tp245
g3
s(V16*
p246
L6L
L-13L
tp247
g10
s(L11L
L21L
Ntp248
Ns(L11L
L22L
Ntp249
Ns(V16*D
p250
L6L
L-13L
tp251
g10
s(L6L
L24L
Ntp252
Ns(V5*D
p253
L7L
L-13L
tp254
g3
s(V13*D
p255
L3L
L-13L
tp256
g3
s(V17*A
p257
L3L
L-13L
tp258
g3
s(V7*
p259
L5L
L-13L
tp260
g3
s(L13L
L22L
Ntp261
Ns(V12*ADS
p262
L8L
L-13L
tp263
g3
s(V14*AD
p264
L8L
L-13L
tp265
g3
s(V21*
p266
L9L
L-13L
tp267
g10
s(V7*D
p268
L5L
L-13L
tp269
g3
s(V17*D
p270
L21L
Ntp271
Ns(V6*DS
p272
L2L
L-13L
tp273
g3
s(V12*ADS
p274
L4L
L-13L
tp275
g3
s(V14*
p276
L5L
L-13L
tp277
g3
s(V15*A
p278
L11L
L-13L
tp279
g3
s(V13*AD
p280
L5L
L-13L
tp281
g3
s(V14*DS
p282
L7L
L-13L
tp283
g3
s(V8*D
p284
L2L
L-13L
tp285
g3
s(V13*AD
p286
L9L
L-13L
tp287
g3
s(V19*A
p288
L10L
L-13L
tp289
g10
s(L24L
NNtp290
Ns(V20*
p291
L3L
L-13L
tp292
g10
s(V15*D
p293
L2L
L-13L
tp294
g3
s(L12L
L19L
Ntp295
Ns(L12L
L26L
Ntp296
Ns(V18*A
p297
L2L
L-13L
tp298
g10
s(V6*DS
p299
L21L
Ntp300
Ns(V21*
p301
L4L
L-13L
tp302
g10
s(V21*
p303
L21L
Ntp304
Ns(V10*DS
p305
L8L
L-13L
tp306
g3
s(V18*D
p307
L10L
L-13L
tp308
g10
s(L17L
L17L
Ntp309
Ns(V14*
p310
L10L
L-13L
tp311
g3
s(V13*
p312
L21L
Ntp313
Ns(V17*
p314
L10L
L-13L
tp315
g10
s(V10*
p316
L5L
L-13L
tp317
g3
s(V16*DS
p318
L7L
L-13L
tp319
g3
s(V24*
p320
NNtp321
Ns(V19*A
p322
L5L
L-13L
tp323
g10
s(L10L
L22L
Ntp324
Ns(V11*D
p325
L2L
L-13L
tp326
g3
s(L6L
L18L
Ntp327
Ns(g8
L21L
Ntp328
Ns(V9*D
p329
L3L
L-13L
tp330
g3
s(V10*D
p331
L4L
L-13L
tp332
g3
s(V20*D
p333
L9L
L-13L
tp334
g10
s(V21*A
p335
L10L
L-13L
tp336
g10
s(V17*A
p337
L2L
L-13L
tp338
g3
s(V12*DS
p339
L6L
L-13L
tp340
g3
s(L13L
L25L
Ntp341
Ns(V19*
p342
L9L
L-13L
tp343
g10
s(L4L
L22L
Ntp344
Ns(V9*
p345
L4L
L-13L
tp346
g3
s(V17*AD
p347
L6L
L-13L
tp348
g7
s(V13*
p349
L10L
L-13L
tp350
g3
s(L18L
L20L
Ntp351
Ns(V6*
p352
L9L
L-13L
tp353
g3
s(L18L
L26L
Ntp354
Ns(V14*DS
p355
L6L
L-13L
tp356
g3
s(V16*
p357
L5L
L-13L
tp358
g3
s(L11L
L26L
Ntp359
Ns(V12*ADS
p360
L21L
Ntp361
Ns(V8*D
p362
L3L
L-13L
tp363
g3
s(V14*DS
p364
L10L
L-13L
tp365
g3
s(V20*
p366
L2L
L-13L
tp367
g10
s(V16*D
p368
L5L
L-13L
tp369
g3
s(L11L
L25L
Ntp370
Ns(V15*D
p371
L3L
L-13L
tp372
g3
s(V5*D
p373
L4L
L-13L
tp374
g3
s(V7*
p375
L6L
L-13L
tp376
g3
s(L10L
L26L
Ntp377
Ns(V14*AD
p378
L11L
L-13L
tp379
g3
s(L10L
L25L
Ntp380
Ns(V21*
p381
L10L
L-13L
tp382
g10
s(V7*D
p383
L4L
L-13L
tp384
g3
s(V16*A
p385
L7L
L-13L
tp386
g3
s(V17*
p387
L11L
L-13L
tp388
g3
s(V10*
p389
L4L
L-13L
tp390
g3
s(V18*DS
p391
L3L
L-13L
tp392
g10
s(V15*A
p393
L10L
L-13L
tp394
g3
s(V13*AD
p395
L2L
L-13L
tp396
g3
s(V17*
p397
L7L
L-13L
tp398
g10
s(V10*
p399
L8L
L-13L
tp400
g3
s(g62
L21L
Ntp401
Ns(V15*AD
p402
L2L
L-13L
tp403
g3
s(L13L
L20L
Ntp404
Ns(V21*A
p405
L11L
L-13L
tp406
g10
s(V18*A
p407
L3L
L-13L
tp408
g10
s(V21*
p409
L5L
L-13L
tp410
g10
s(V26*
p411
NNtp412
Ns(V18*AD
p413
L10L
L-13L
tp414
g3
s(V19*AD
p415
L21L
Ntp416
Ns(V19*D
p417
L3L
L-13L
tp418
g10
s(V14*
p419
L9L
L-13L
tp420
g3
s(L14L
L23L
Ntp421
Ns(V15*A
p422
L7L
L-13L
tp423
g3
s(V9*
p424
L5L
L-13L
tp425
g3
s(V9*
p426
L9L
L-13L
tp427
g3
s(V16*DS
p428
L6L
L-13L
tp429
g10
s(V19*A
p430
L6L
L-13L
tp431
g10
s(L28L
NNtp432
Ns(L12L
L18L
Ntp433
Ns(V16*
p434
L4L
L-13L
tp435
g3
s(L16L
L18L
Ntp436
Ns(V16*D
p437
L4L
L-13L
tp438
g3
s(V10*D
p439
L7L
L-13L
tp440
g3
s(V20*D
p441
L10L
L-13L
tp442
g10
s(V5*D
p443
L5L
L-13L
tp444
g3
s(V16*D
p445
L8L
L-13L
tp446
g3
s(V17*A
p447
L5L
L-13L
tp448
g3
s(V7*
p449
L7L
L-13L
tp450
g3
s(V11*
p451
L2L
L-13L
tp452
g3
s(V12*DS
p453
L7L
L-13L
tp454
g3
s(L9L
L19L
Ntp455
Ns(V4*DS
p456
L2L
L-13L
tp457
g3
s(V19*
p458
L8L
L-13L
tp459
g10
s(V14*AD
p460
L10L
L-13L
tp461
g3
s(V17*AD
p462
L5L
L-13L
tp463
g3
s(V7*
p464
L11L
L-13L
tp465
g3
s(g312
L11L
L-13L
tp466
g3
s(V18*
p467
L10L
L-13L
tp468
g10
s(V6*
p469
L8L
L-13L
tp470
g3
s(V18*DS
p471
L2L
L-13L
tp472
g10
s(L14L
L24L
Ntp473
Ns(V8*D
p474
L4L
L-13L
tp475
g3
s(L13L
L17L
Ntp476
Ns(V20*
p477
L5L
L-13L
tp478
g10
s(L13L
L23L
Ntp479
Ns(L6L
L23L
Ntp480
Ns(V15*D
p481
L4L
L-13L
tp482
g3
s(V19*
p483
L5L
L-13L
tp484
g10
s(L11L
L18L
Ntp485
Ns(V19*D
p486
L2L
L-13L
tp487
g10
s(V14*
p488
L8L
L-13L
tp489
g3
s(V7*D
p490
L7L
L-13L
tp491
g3
s(V16*A
p492
L6L
L-13L
tp493
g3
s(V16*AD
p494
L21L
Ntp495
Ns(V10*
p496
L3L
L-13L
tp497
g3
s(V16*AD
p498
L3L
L-13L
tp499
g3
s(V14*
p500
L4L
L-13L
tp501
g3
s(V15*A
p502
L9L
L-13L
tp503
g3
s(V13*AD
p504
L3L
L-13L
tp505
g3
s(L18L
L23L
Ntp506
Ns(V19*A
p507
L7L
L-13L
tp508
g10
s(V11*D
p509
L21L
Ntp510
Ns(V15*AD
p511
L9L
L-13L
tp512
g3
s(V19*A
p513
L11L
L-13L
tp514
g10
s(g378
L21L
Ntp515
Ns(L15L
L17L
Ntp516
Ns(V10*D
p517
L6L
L-13L
tp518
g7
s(V20*D
p519
L11L
L-13L
tp520
g10
s(L10L
L24L
Ntp521
Ns(V21*A
p522
L4L
L-13L
tp523
g10
s(V11*
p524
L3L
L-13L
tp525
g3
s(V21*
p526
L6L
L-13L
tp527
g10
s(V16*A
p528
L11L
L-13L
tp529
g3
s(V4*DS
p530
L3L
L-13L
tp531
g3
s(g82
L21L
Ntp532
Ns(V18*AD
p533
L11L
L-13L
tp534
g3
s(V9*
p535
L2L
L-13L
tp536
g3
s(V17*AD
p537
L4L
L-13L
tp538
g3
s(L17L
L20L
Ntp539
Ns(V15*A
p540
L6L
L-13L
tp541
g3
s(L12L
L23L
Ntp542
Ns(L12L
L25L
Ntp543
Ns(V6*D
p544
L3L
L-13L
tp545
g3
s(V16*DS
p546
L5L
L-13L
tp547
g3
s(V16*
p548
L11L
L-13L
tp549
g3
s(g513
L21L
Ntp550
Ns(V16*D
p551
L3L
L-13L
tp552
g3
s(V20*DS
p553
L11L
L-13L
tp554
g10
s(V5*D
p555
L2L
L-13L
tp556
g3
s(V10*DS
p557
L3L
L-13L
tp558
g3
s(V18*AD
p559
L6L
L-13L
tp560
g10
s(L11L
L23L
Ntp561
Ns(V17*A
p562
L4L
L-13L
tp563
g3
s(V14*D
p564
L3L
L-13L
tp565
g3
s(V12*DS
p566
L4L
L-13L
tp567
g3
s(L21L
L2L
L-13L
tp568
g10
s(L11L
L17L
Ntp569
Ns(g34
L11L
L-13L
tp570
g10
s(L4L
L25L
Ntp571
Ns(L4L
L19L
Ntp572
Ns(V7*D
p573
L6L
L-13L
tp574
g3
s(V13*
p575
L8L
L-13L
tp576
g3
s(V18*
p577
L11L
L-13L
tp578
g10
s(V6*DS
p579
L7L
L-13L
tp580
g3
s(V16*AD
p581
L2L
L-13L
tp582
g3
s(L18L
L17L
Ntp583
Ns(L16L
L20L
Ntp584
Ns(V6*
p585
L11L
L-13L
tp586
g3
s(L9L
L24L
Ntp587
Ns(V20*AD
p588
L3L
L-13L
tp589
g10
s(L13L
L26L
Ntp590
Ns(V8*D
p591
L5L
L-13L
tp592
g3
s(L30L
NNtp593
Ns(V20*
p594
L4L
L-13L
tp595
g10
s(V14*A
p596
L3L
L-13L
tp597
g3
s(V17*A
p598
L9L
L-13L
tp599
g3
s(V15*D
p600
L5L
L-13L
tp601
g3
s(V19*
p602
L4L
L-13L
tp603
g10
s(V21*
p604
L7L
L-13L
tp605
g10
s(L16L
L24L
Ntp606
Ns(V18*
p607
L6L
L-13L
tp608
g10
s(V19*D
p609
L5L
L-13L
tp610
g10
s(L12L
L20L
Ntp611
Ns(g303
L11L
L-13L
tp612
g10
s(V16*A
p613
L5L
L-13L
tp614
g3
s(V10*
p615
L2L
L-13L
tp616
g3
s(V8*D
p617
L8L
L-13L
tp618
g3
s(V6*D
p619
L2L
L-13L
tp620
g3
s(V16*DS
p621
L4L
L-13L
tp622
g3
s(L17L
L23L
Ntp623
Ns(L6L
L21L
Ntp624
Ns(V15*AD
p625
L8L
L-13L
tp626
g3
s(L10L
L20L
Ntp627
Ns(V15*D
p628
L8L
L-13L
tp629
g3
s(L10L
L19L
Ntp630
Ns(V10*D
p631
L9L
L-13L
tp632
g3
s(V20*D
p633
L4L
L-13L
tp634
g10
s(V21*A
p635
L5L
L-13L
tp636
g10
s(g553
L21L
Ntp637
Ns(V11*
p638
L4L
L-13L
tp639
g3
s(V14*D
p640
L2L
L-13L
tp641
g3
s(V12*DS
p642
L5L
L-13L
tp643
g3
s(L21L
L3L
L-13L
tp644
g10
s(V16*A
p645
L10L
L-13L
tp646
g3
s(V18*AD
p647
L8L
L-13L
tp648
g10
s(L14L
L22L
Ntp649
Ns(V17*AD
p650
L3L
L-13L
tp651
g3
s(V18*A
p652
L21L
Ntp653
Ns(V15*A
p654
L5L
L-13L
tp655
g3
s(V9*
p656
L3L
L-13L
tp657
g3
s(V13*
p658
L9L
L-13L
tp659
g3
s(V6*
p660
L10L
L-13L
tp661
g3
s(L15L
L25L
Ntp662
Ns(V17*D
p663
L10L
L-13L
tp664
g10
s(V20*AD
p665
L2L
L-13L
tp666
g10
s(V16*
p667
L10L
L-13L
tp668
g3
s(L18L
L24L
Ntp669
Ns(g519
L21L
Ntp670
Ns(V16*D
p671
L2L
L-13L
tp672
g3
s(V20*DS
p673
L10L
L-13L
tp674
g10
s(V14*A
p675
L2L
L-13L
tp676
g3
s(g231
L21L
Ntp677
Ns(V5*D
p678
L3L
L-13L
tp679
g3
s(V10*DS
p680
L2L
L-13L
tp681
g3
s(V18*AD
p682
L7L
L-13L
tp683
g10
s(V17*A
p684
L7L
L-13L
tp685
g3
s(V15*
p686
L2L
L-13L
tp687
g3
s(L15L
L21L
Ntp688
Ns(V7*D
p689
L9L
L-13L
tp690
g3
s(V18*
p691
L8L
L-13L
tp692
g10
s(V6*DS
p693
L6L
L-13L
tp694
g3
s(V16*AD
p695
L5L
L-13L
tp696
g3
s(V15*D
p697
L21L
Ntp698
Ns(L21L
NNtp699
Ns(V14*DS
p700
L3L
L-13L
tp701
g3
s(V27*
p702
NNtp703
Ns(V18*DS
p704
L21L
Ntp705
Ns(V8*D
p706
L6L
L-13L
tp707
g3
s(V20*
p708
L7L
L-13L
tp709
g10
s(V20*A
p710
L21L
Ntp711
Ns(V13*D
p712
L10L
L-13L
tp713
g3
s(V17*A
p714
L8L
L-13L
tp715
g3
s(V15*D
p716
L6L
L-13L
tp717
g3
s(L8L
L18L
Ntp718
Ns(V19*
p719
L7L
L-13L
tp720
g10
s(L8L
L21L
Ntp721
Ns(V19*AD
p722
L2L
L-13L
tp723
g10
s(V18*
p724
L7L
L-13L
tp725
g10
s(V8*
p726
L3L
L-13L
tp727
g3
s(V19*D
p728
L4L
L-13L
tp729
g10
s(L6L
L19L
Ntp730
Ns(V15*A
p731
L4L
L-13L
tp732
g3
s(V13*A
p733
L3L
L-13L
tp734
g3
s(L6L
L25L
Ntp735
Ns(V12*D
p736
L3L
L-13L
tp737
g3
s(V8*D
p738
L9L
L-13L
tp739
g3
s(V16*DS
p740
L11L
L-13L
tp741
g3
s(V15*A
p742
L8L
L-13L
tp743
g3
s(V15*AD
p744
L11L
L-13L
tp745
g3
s(V17*A
p746
L21L
Ntp747
Ns(V15*D
p748
L9L
L-13L
tp749
g3
s(V10*D
p750
L8L
L-13L
tp751
g3
s(V20*D
p752
L5L
L-13L
tp753
g10
s(V28*
p754
NNtp755
Ns(V21*A
p756
L6L
L-13L
tp757
g10
s(L20L
L25L
Ntp758
Ns(V11*
p759
L5L
L-13L
tp760
g3
s(V14*D
p761
L5L
L-13L
tp762
g3
s(V12*DS
p763
L2L
L-13L
tp764
g3
s(L21L
L4L
L-13L
tp765
g10
s(V16*A
p766
L9L
L-13L
tp767
g3
s(V15*
p768
L3L
L-13L
tp769
g3
s(L9L
L17L
Ntp770
Ns(L9L
L22L
Ntp771
Ns(V17*AD
p772
L2L
L-13L
tp773
g3
s(V13*
p774
L6L
L-13L
tp775
g3
s(V6*
p776
L5L
L-13L
tp777
g3
s(V17*AD
p778
L21L
Ntp779
Ns(V14*DS
p780
L2L
L-13L
tp781
g3
s(g270
L11L
L-13L
tp782
g3
s(g509
L11L
L-13L
tp783
g3
s(V20*AD
p784
L5L
L-13L
tp785
g10
s(V16*
p786
L9L
L-13L
tp787
g3
s(V16*D
p788
L21L
Ntp789
Ns(g405
L21L
Ntp790
Ns(V20*
p791
L6L
L-13L
tp792
g10
s(V20*DS
p793
L9L
L-13L
tp794
g10
s(V14*A
p795
L5L
L-13L
tp796
g3
s(L25L
NNtp797
Ns(L8L
L24L
Ntp798
Ns(L14L
L20L
Ntp799
Ns(V19*
p800
L6L
L-13L
tp801
g10
s(V18*AD
p802
L4L
L-13L
tp803
g10
s(V18*D
p804
L3L
L-13L
tp805
g10
s(V7*
p806
L2L
L-13L
tp807
g3
s(V19*AD
p808
L3L
L-13L
tp809
g10
s(L26L
NNtp810
Ns(V12*ADS
p811
L3L
L-13L
tp812
g3
s(L21L
L26L
Ntp813
Ns(V19*
p814
L10L
L-13L
tp815
g10
s(L21L
L19L
Ntp816
Ns(g25
L21L
Ntp817
Ns(V13*A
p818
L2L
L-13L
tp819
g3
s(V7*D
p820
L8L
L-13L
tp821
g3
s(V17*D
p822
L6L
L-13L
tp823
g10
s(V6*DS
p824
L5L
L-13L
tp825
g3
s(V16*AD
p826
L4L
L-13L
tp827
g3
s(V12*D
p828
L2L
L-13L
tp829
g3
s(L11L
L19L
Ntp830
Ns(L11L
L20L
Ntp831
Ns(L14L
L18L
Ntp832
Ns(V15*AD
p833
L10L
L-13L
tp834
g3
s(L4L
L23L
Ntp835
Ns(L18L
L21L
Ntp836
Ns(V13*D
p837
L11L
L-13L
tp838
g3
s(V10*D
p839
L21L
Ntp840
Ns(g746
L11L
L-13L
tp841
g3
s(V21*A
p842
L7L
L-13L
tp843
g10
s(V12*
p844
L2L
L-13L
tp845
g3
s(L15L
L19L
Ntp846
Ns(V16*A
p847
L8L
L-13L
tp848
g3
s(V18*
p849
L4L
L-13L
tp850
g10
s(V8*
p851
L2L
L-13L
tp852
g3
s(V16*AD
p853
L9L
L-13L
tp854
g3
s(V19*D
p855
L7L
L-13L
tp856
g10
s(V15*A
p857
L3L
L-13L
tp858
g3
s(V16*A
p859
L4L
L-13L
tp860
g3
s(V8*D
p861
L10L
L-13L
tp862
g3
s(V16*DS
p863
L10L
L-13L
tp864
g3
s(L6L
L20L
Ntp865
Ns(V19*A
p866
L2L
L-13L
tp867
g10
s(V16*
p868
L8L
L-13L
tp869
g3
s(L8L
L26L
Ntp870
Ns(L12L
L24L
Ntp871
Ns(V15*D
p872
L10L
L-13L
tp873
g3
s(V20*DS
p874
L8L
L-13L
tp875
g10
s(V18*A
p876
L10L
L-13L
tp877
g3
s(g839
L11L
L-13L
tp878
g3
s(V20*D
p879
L6L
L-13L
tp880
g10
s(V18*AD
p881
L5L
L-13L
tp882
g10
s(V18*D
p883
L2L
L-13L
tp884
g10
s(L27L
NNtp885
Ns(V7*
p886
L3L
L-13L
tp887
g3
s(V11*
p888
L6L
L-13L
tp889
g3
s(V14*D
p890
L4L
L-13L
tp891
g3
s(V12*DS
p892
L3L
L-13L
tp893
g3
s(L21L
L5L
L-13L
tp894
g10
s(V15*
p895
L4L
L-13L
tp896
g3
s(L10L
L23L
Ntp897
Ns(V18*AD
p898
L9L
L-13L
tp899
g3
s(V13*
p900
L7L
L-13L
tp901
g3
s(V6*
p902
L4L
L-13L
tp903
g3
s(V6*DS
p904
L4L
L-13L
tp905
g3
s(V17*D
p906
L8L
L-13L
tp907
g10
s(V11*D
p908
L10L
L-13L
tp909
g3
s(V20*AD
p910
L4L
L-13L
tp911
g10
s(L9L
L25L
Ntp912
Ns(V20*
p913
L9L
L-13L
tp914
g10
s(V14*A
p915
L4L
L-13L
tp916
g3
s(L9L
L23L
Ntp917
Ns(V17*A
p918
L10L
L-13L
tp919
g3
s(L9L
L20L
Ntp920
Ns(V14*D
p921
L9L
L-13L
tp922
g3
s(L21L
L8L
L-13L
tp923
g10
s(V12*
p924
L3L
L-13L
tp925
g3
s(V17*A
p926
L6L
L-13L
tp927
g3
s(L16L
L19L
Ntp928
Ns(V19*AD
p929
L4L
L-13L
tp930
g10
s(V18*
p931
L5L
L-13L
tp932
g10
s(g744
L21L
Ntp933
Ns(V12*ADS
p934
L2L
L-13L
tp935
g3
s(V19*D
p936
L6L
L-13L
tp937
g10
s(V23*
p938
NNtp939
Ns(V13*A
p940
L5L
L-13L
tp941
g3
s(L11L
L24L
Ntp942
Ns(g137
L11L
L-13L
tp943
g3
s(V17*D
p944
L7L
L-13L
tp945
g10
s(V18*
p946
L9L
L-13L
tp947
g10
s(V16*AD
p948
L7L
L-13L
tp949
g3
s(V12*D
p950
L5L
L-13L
tp951
g3
s(g156
L11L
L-13L
tp952
g3
s(V20*A
p953
L10L
L-13L
tp954
g10
s(V19*A
p955
L3L
L-13L
tp956
g10
s(V8*DS
p957
L3L
L-13L
tp958
g3
s(V15*AD
p959
L5L
L-13L
tp960
g3
s(V8*D
p961
L7L
L-13L
tp962
g3
s(L29L
NNtp963
Ns(g697
L11L
L-13L
tp964
g3
s(V13*D
p965
L8L
L-13L
tp966
g3
s(V10*D
p967
L10L
L-13L
tp968
g3
s(V20*D
p969
L7L
L-13L
tp970
g10
s(L21L
L24L
Ntp971
Ns(V15*D
p972
L7L
L-13L
tp973
g3
s(L14L
L25L
Ntp974
Ns(L10L
L18L
Ntp975
Ns(V14*AD
p976
L3L
L-13L
tp977
g3
s(L10L
L17L
Ntp978
Ns(V11*
p979
L7L
L-13L
tp980
g3
s(V21*
p981
L2L
L-13L
tp982
g10
s(V16*AD
p983
L8L
L-13L
tp984
g3
s(V15*A
p985
L2L
L-13L
tp986
g3
s(L8L
L17L
Ntp987
Ns(V16*DS
p988
L9L
L-13L
tp989
g3
s(L18L
L19L
Ntp990
Ns(L21L
L23L
Ntp991
Ns(V20*DS
p992
L7L
L-13L
tp993
g10
s(g652
L11L
L-13L
tp994
g3
s(V10*DS
p995
L7L
L-13L
tp996
g3
s(V18*AD
p997
L2L
L-13L
tp998
g10
s(V18*D
p999
L5L
L-13L
tp1000
g10
s(V14*D
p1001
L7L
L-13L
tp1002
g3
s(L21L
L6L
L-13L
tp1003
g10
s(V15*
p1004
L5L
L-13L
tp1005
g3
s(V7*D
p1006
L10L
L-13L
tp1007
g3
s(V13*
p1008
L4L
L-13L
tp1009
g3
s(V6*
p1010
L7L
L-13L
tp1011
g3
s(g299
L11L
L-13L
tp1012
g3
s(V18*DS
p1013
L9L
L-13L
tp1014
g10
s(L16L
L26L
Ntp1015
Ns(V11*D
p1016
L9L
L-13L
tp1017
g3
s(V20*AD
p1018
L7L
L-13L
tp1019
g10
s(L9L
L18L
Ntp1020
Ns(V8*DS
p1021
L2L
L-13L
tp1022
g3
s(g193
L21L
Ntp1023
Ns(V20*
p1024
L8L
L-13L
tp1025
g10
s(V13*D
p1026
L9L
L-13L
tp1027
g3
s(V14*A
p1028
L7L
L-13L
tp1029
g3
s(V13*AD
p1030
L21L
Ntp1031
Ns(V14*D
p1032
L8L
L-13L
tp1033
g3
s(L21L
L9L
L-13L
tp1034
g10
s(V12*
p1035
L4L
L-13L
tp1036
g3
s(V14*AD
p1037
L2L
L-13L
tp1038
g3
s(V21*
p1039
L3L
L-13L
tp1040
g10
s(V19*AD
p1041
L5L
L-13L
tp1042
g10
s(V18*
p1043
L2L
L-13L
tp1044
g10
s(V19*D
p1045
L9L
L-13L
tp1046
g10
s(V14*
p1047
L3L
L-13L
tp1048
g3
s(L23L
NNtp1049
Ns(V13*A
p1050
L4L
L-13L
tp1051
g3
s(L8L
L20L
Ntp1052
Ns(V17*D
p1053
L4L
L-13L
tp1054
g10
s(L8L
L23L
Ntp1055
Ns(V12*D
p1056
L4L
L-13L
tp1057
g3
s(g710
L11L
L-13L
tp1058
g10
s(V16*DS
p1059
L8L
L-13L
tp1060
g3
s(V19*D
p1061
L21L
Ntp1062
Ns(V15*AD
p1063
L4L
L-13L
tp1064
g3
s(L21L
L20L
Ntp1065
Ns(V14*D
p1066
L21L
Ntp1067
Ns(L16L
L21L
Ntp1068
Ns(V9*D
p1069
L10L
L-13L
tp1070
g3
s(L19L
L17L
Ntp1071
Ns(V19*AD
p1072
L8L
L-13L
tp1073
g10
s(V11*
p1074
L8L
L-13L
tp1075
g3
s(V4*DS
p1076
L8L
L-13L
tp1077
g3
s(g494
L11L
L-13L
tp1078
g3
s(V12*D
p1079
L9L
L-13L
tp1080
g3
s(V20*A
p1081
L6L
L-13L
tp1082
g10
s(L20L
L24L
Ntp1083
Ns(V13*
p1084
L5L
L-13L
tp1085
g3
s(V6*
p1086
L6L
L-13L
tp1087
g3
s(L20L
L18L
Ntp1088
Ns(L15L
L23L
Ntp1089
Ns(V11*D
p1090
L8L
L-13L
tp1091
g3
s(V20*AD
p1092
L6L
L-13L
tp1093
g10
s(V20*DS
p1094
L6L
L-13L
tp1095
g10
s(V14*A
p1096
L6L
L-13L
tp1097
g3
s(V18*A
p1098
L8L
L-13L
tp1099
g10
s(L17L
L22L
Ntp1100
Ns(V10*DS
p1101
L6L
L-13L
tp1102
g7
s(V18*AD
p1103
L3L
L-13L
tp1104
g10
s(V18*D
p1105
L4L
L-13L
tp1106
g10
s(L8L
L25L
Ntp1107
Ns(L20L
L20L
Ntp1108
Ns(V15*
p1109
L6L
L-13L
tp1110
g3
s(L14L
L26L
Ntp1111
Ns(V17*D
p1112
L5L
L-13L
tp1113
g10
s(V6*DS
p1114
L10L
L-13L
tp1115
g3
s(V16*
p1116
L3L
L-13L
tp1117
g3
s(V18*DS
p1118
L8L
L-13L
tp1119
g10
s(V17*D
p1120
L9L
L-13L
tp1121
g10
s(L21L
L17L
Ntp1122
Ns(V8*DS
p1123
L5L
L-13L
tp1124
g3
s(g533
L21L
Ntp1125
Ns(V5*D
p1126
L10L
L-13L
tp1127
g3
s(V20*
p1128
L11L
L-13L
tp1129
g10
s(V13*D
p1130
L6L
L-13L
tp1131
g3
s(L15L
L24L
Ntp1132
Ns(L19L
L24L
Ntp1133
Ns(g1066
L11L
L-13L
tp1134
g3
s(L21L
L10L
L-13L
tp1135
g10
s(L4L
L17L
Ntp1136
Ns(L19L
L18L
Ntp1137
Ns(V12*
p1138
L5L
L-13L
tp1139
g3
s(V14*AD
p1140
L5L
L-13L
tp1141
g3
s(V19*
p1142
L3L
L-13L
tp1143
g10
s(V19*AD
p1144
L6L
L-13L
tp1145
g10
s(V18*
p1146
L3L
L-13L
tp1147
g10
s(V8*
p1148
L7L
L-13L
tp1149
g3
s(V16*AD
p1150
L10L
L-13L
tp1151
g3
s(L18L
L25L
Ntp1152
Ns(V19*D
p1153
L8L
L-13L
tp1154
g10
s(V18*DS
p1155
L5L
L-13L
tp1156
g10
s(V14*
p1157
L2L
L-13L
tp1158
g3
s(V13*A
p1159
L7L
L-13L
tp1160
g3
s(L9L
L26L
Ntp1161
Ns(V17*
p1162
L2L
L-13L
tp1163
g10
s(V16*AD
p1164
L6L
L-13L
tp1165
g3
s(V12*D
p1166
L7L
L-13L
tp1167
g3
s(V20*A
p1168
L8L
L-13L
tp1169
g10
s(V6*D
p1170
L9L
L-13L
tp1171
g3
s(L16L
L25L
Ntp1172
Ns(V15*AD
p1173
L7L
L-13L
tp1174
g3
s(V12*
p1175
L8L
L-13L
tp1176
g3
s(V18*A
p1177
L9L
L-13L
tp1178
g3
s(V9*D
p1179
L11L
L-13L
tp1180
g3
s(g577
L21L
Ntp1181
Ns(V19*AD
p1182
L9L
L-13L
tp1183
g10
s(L8L
L22L
Ntp1184
Ns(V21*A
p1185
L2L
L-13L
tp1186
g10
s(V11*
p1187
L9L
L-13L
tp1188
g3
s(V15*
p1189
L7L
L-13L
tp1190
g3
s(L20L
L23L
Ntp1191
Ns(V4*DS
p1192
L9L
L-13L
tp1193
g3
s(g135
L21L
Ntp1194
Ns(V12*D
p1195
L8L
L-13L
tp1196
g3
s(V20*A
p1197
L7L
L-13L
tp1198
g10
s(V25*
p1199
NNtp1200
Ns(V13*
p1201
L2L
L-13L
tp1202
g3
s(L10L
L21L
Ntp1203
Ns(L18L
L18L
Ntp1204
Ns(g1179
L21L
Ntp1205
Ns(V11*D
p1206
L7L
L-13L
tp1207
g3
s(V20*AD
p1208
L9L
L-13L
tp1209
g10
s(g278
L21L
Ntp1210
Ns(V9*D
p1211
L6L
L-13L
tp1212
g3
s(L17L
L26L
Ntp1213
Ns(V20*
p1214
L10L
L-13L
tp1215
g10
s(V20*DS
p1216
L5L
L-13L
tp1217
g10
s(V14*A
p1218
L9L
L-13L
tp1219
g3
s(L19L
L23L
Ntp1220
Ns(L21L
L11L
L-13L
tp1221
g10
s(V14*D
p1222
L10L
L-13L
tp1223
g3
s(V4*DS
p1224
L4L
L-13L
tp1225
g3
s(L20L
L26L
Ntp1226
Ns(V10*DS
p1227
L5L
L-13L
tp1228
g3
s(V18*D
p1229
L7L
L-13L
tp1230
g10
s(g778
L11L
L-13L
tp1231
g3
s(V19*
p1232
L2L
L-13L
tp1233
g10
s(V14*D
p1234
L6L
L-13L
tp1235
g3
s(L21L
L7L
L-13L
tp1236
g10
s(L9L
L21L
Ntp1237
Ns(V12*ADS
p1238
L7L
L-13L
tp1239
g3
s(V13*A
p1240
L6L
L-13L
tp1241
g3
s(V17*D
p1242
L2L
L-13L
tp1243
g10
s(V17*
p1244
L3L
L-13L
tp1245
g10
s(V6*DS
p1246
L9L
L-13L
tp1247
g3
s(V16*
p1248
L2L
L-13L
tp1249
g3
s(g704
L11L
L-13L
tp1250
g10
s(V13*AD
p1251
L10L
L-13L
tp1252
g3
s(V10*DS
p1253
L21L
Ntp1254
Ns(V8*DS
p1255
L4L
L-13L
tp1256
g3
s(L15L
L20L
Ntp1257
Ns(V15*AD
p1258
L6L
L-13L
tp1259
g3
s(V5*D
p1260
L11L
L-13L
tp1261
g3
s(g387
L21L
Ntp1262
Ns(V13*D
p1263
L7L
L-13L
tp1264
g3
s(V12*
p1265
L6L
L-13L
tp1266
g3
s(V14*AD
p1267
L4L
L-13L
tp1268
g3
s(V
p1269
g1269
L-13L
tp1270
VBegin
p1271
s(L21L
L25L
Ntp1272
Ns(V8*
p1273
L6L
L-13L
tp1274
g3
s(g1061
L11L
L-13L
tp1275
g10
s(V18*DS
p1276
L4L
L-13L
tp1277
g10
s(g1128
L21L
Ntp1278
Ns(g740
L21L
Ntp1279
Ns(L14L
L21L
Ntp1280
Ns(V8*DS
p1281
L9L
L-13L
tp1282
g3
s(V6*D
p1283
L8L
L-13L
tp1284
g3
s(L19L
L26L
Ntp1285
Ns(L8L
L19L
Ntp1286
Ns(g528
L21L
Ntp1287
Ns(V20*DS
p1288
L4L
L-13L
tp1289
g10
s(V12*
p1290
L9L
L-13L
tp1291
g3
s(V18*A
p1292
L6L
L-13L
tp1293
g10
s(V20*D
p1294
L2L
L-13L
tp1295
g10
s(V9*D
p1296
L8L
L-13L
tp1297
g3
s(V19*AD
p1298
L10L
L-13L
tp1299
g10
s(V8*
p1300
L11L
L-13L
tp1301
g3
s(V10*DS
p1302
L4L
L-13L
tp1303
g3
s(V18*D
p1304
L6L
L-13L
tp1305
g10
s(V11*
p1306
L10L
L-13L
tp1307
g3
s(V15*
p1308
L8L
L-13L
tp1309
g3
s(V4*DS
p1310
L10L
L-13L
tp1311
g3
s(g548
L21L
Ntp1312
Ns(L16L
L17L
Ntp1313
Ns(g19
L11L
L-13L
tp1314
g3
s(V20*A
p1315
L4L
L-13L
tp1316
g10
s(V6*D
p1317
L5L
L-13L
tp1318
g3
s(V16*DS
p1319
L3L
L-13L
tp1320
g3
s(V13*
p1321
L3L
L-13L
tp1322
g3
s(V6*DS
p1323
L8L
L-13L
tp1324
g3
s(V14*DS
p1325
L9L
L-13L
tp1326
g3
s(L15L
L18L
Ntp1327
Ns(V11*D
p1328
L6L
L-13L
tp1329
g7
s(V20*AD
p1330
L8L
L-13L
tp1331
g10
s(V9*D
p1332
L7L
L-13L
tp1333
g3
s(L20L
L22L
Ntp1334
Ns(V14*A
p1335
L8L
L-13L
tp1336
g3
s(L20L
L17L
Ntp1337
Ns(L22L
NNtp1338
Ns(V12*DS
p1339
L10L
L-13L
tp1340
g3
s(V4*DS
p1341
L5L
L-13L
tp1342
g3
s(V17*AD
p1343
L10L
L-13L
tp1344
g3
s(V12*ADS
p1345
L6L
L-13L
tp1346
g3
s(V19*D
p1347
L10L
L-13L
tp1348
g10
s(V6*D
p1349
L21L
Ntp1350
Ns(V13*A
p1351
L9L
L-13L
tp1352
g3
s(V17*D
p1353
L3L
L-13L
tp1354
g10
s(L17L
L18L
Ntp1355
Ns(V17*
p1356
L4L
L-13L
tp1357
g10
s(V10*
p1358
L11L
L-13L
tp1359
g3
s(L17L
L24L
Ntp1360
Ns(g1030
L11L
L-13L
tp1361
g3
s(L19L
L25L
Ntp1362
Ns(V8*DS
p1363
L7L
L-13L
tp1364
g3
s(V5*D
p1365
L8L
L-13L
tp1366
g3
s(V13*D
p1367
L4L
L-13L
tp1368
g3
s(g415
L11L
L-13L
tp1369
g10
s(L21L
L21L
Ntp1370
Ns(g360
L11L
L-13L
tp1371
g3
s(L21L
L18L
Ntp1372
Ns(V14*AD
p1373
L7L
L-13L
tp1374
g3
s(L14L
L19L
Ntp1375
Ns(V11*
p1376
L11L
L-13L
tp1377
g3
s(L16L
L23L
Ntp1378
Ns(V16*A
p1379
L3L
L-13L
tp1380
g3
s(V19*AD
p1381
L7L
L-13L
tp1382
g10
s(V8*
p1383
L5L
L-13L
tp1384
g3
s(V9*
p1385
L10L
L-13L
tp1386
g3
s(V12*D
p1387
L10L
L-13L
tp1388
g3
s(V18*DS
p1389
L7L
L-13L
tp1390
g10
s(V20*A
p1391
L5L
L-13L
tp1392
g10
s(V13*AD
p1393
L6L
L-13L
tp1394
g3
s(L4L
L21L
Ntp1395
Ns(L12L
L22L
Ntp1396
Ns(V8*DS
p1397
L8L
L-13L
tp1398
g3
s(L12L
L17L
Ntp1399
Ns(V12*D
p1400
L6L
L-13L
tp1401
g3
s(g1349
L11L
L-13L
tp1402
g3
s(V20*A
p1403
L9L
L-13L
tp1404
g10
s(g788
L11L
L-13L
tp1405
g3
s(V20*DS
p1406
L3L
L-13L
tp1407
g10
s(V12*
p1408
L10L
L-13L
tp1409
g3
s(V18*A
p1410
L7L
L-13L
tp1411
g10
s(V8*
p1412
L10L
L-13L
tp1413
g3
s(g1253
L11L
L-13L
tp1414
g3
s(V18*D
p1415
L9L
L-13L
tp1416
g10
s(V21*A
p1417
L3L
L-13L
tp1418
g10
s(V7*
p1419
L8L
L-13L
tp1420
g3
s(V15*
p1421
L9L
L-13L
tp1422
g3
s(V22*
p1423
NNtp1424
Ns(L6L
L22L
Ntp1425
Ns(V6*D
p1426
L4L
L-13L
tp1427
g3
s(V16*DS
p1428
L2L
L-13L
tp1429
g3
s(V6*
p1430
L3L
L-13L
tp1431
g3
s(g837
L21L
Ntp1432
Ns.