(dp0
(L13L
L21L
Ntp1
L0L
s(V21*A
p2
L5L
L4L
tp3
F0.8961115646946709
s(L13L
L18L
Ntp4
L0L
s(V18*A
p5
L5L
L4L
tp6
F0.24351341614558075
s(V14*D
p7
L8L
L4L
tp8
F-0.41621453311146855
s(V5*D
p9
L3L
L4L
tp10
F-0.06089722853468841
s(L13L
L24L
Ntp11
L0L
s(V6*DS
p12
L10L
L4L
tp13
F-0.4276629426469269
s(V16*DS
p14
L5L
L4L
tp15
F-0.10097440590031503
s(V16*
p16
L9L
L4L
tp17
F-0.5538049270768796
s(V14*A
p18
L11L
L4L
tp19
F-0.4299795729790808
s(V7*
p20
L8L
L4L
tp21
F-0.23522739896964148
s(V6*D
p22
L5L
L4L
tp23
F0.02028389254666313
s(L6L
L26L
Ntp24
L0L
s(V20*D
p25
L10L
L4L
tp26
F0.40408516792916394
s(L15L
L26L
Ntp27
L0L
s(V20*
p28
L21L
Ntp29
L0L
s(V16*AD
p30
L7L
L4L
tp31
F-0.05546806359572756
s(V15*D
p32
L2L
L4L
tp33
F-0.25079720215204454
s(V19*A
p34
L21L
Ntp35
L0L
s(V6*
p36
L6L
L4L
tp37
F0.029260781887315353
s(L19L
L19L
Ntp38
L0L
s(V10*D
p39
L21L
Ntp40
L0L
s(L19L
L20L
Ntp41
L0L
s(V11*D
p42
L2L
L4L
tp43
F0.5785787204330705
s(V8*D
p44
L11L
L4L
tp45
F-0.4665244676090412
s(L17L
L21L
Ntp46
L0L
s(V18*D
p47
L3L
L4L
tp48
F0.17329237164269343
s(V24*
p49
NNtp50
L0L
s(V13*AD
p51
L8L
L4L
tp52
F0.012574067604316647
s(V17*D
p53
L8L
L4L
tp54
F-0.3979543586936566
s(V12*
p55
L9L
L4L
tp56
F-0.3753934884351342
s(V8*
p57
L10L
L4L
tp58
F-0.3355209275215935
s(V12*DS
p59
L8L
L4L
tp60
F-0.3035660426232368
s(V10*D
p61
L9L
L4L
tp62
F0.23320194883591677
s(V8*DS
p63
L2L
L4L
tp64
F0.016236478139089072
s(V19*A
p65
L10L
L4L
tp66
F-0.06871247498191865
s(V7*
p67
L5L
L4L
tp68
F0.05260591844570264
s(V17*A
p69
L10L
L4L
tp70
F-0.31018356250975515
s(V20*D
p71
L5L
L4L
tp72
F0.6849993405566147
s(V20*
p73
L4L
L4L
tp74
F0.6665112871548012
s(V16*AD
p75
L10L
L4L
tp76
F-0.32657304873708143
s(V15*AD
p77
L6L
L4L
tp78
F0.2170110751470367
s(V6*
p79
L11L
L4L
tp80
F-0.5615685599734528
s(L4L
L24L
Ntp81
L0L
s(V20*DS
p82
L6L
L4L
tp83
F0.720719576715008
s(L4L
L18L
Ntp84
L0L
s(V8*D
p85
L6L
L4L
tp86
F0.21919768316064706
s(V13*
p87
L21L
Ntp88
L0L
s(V17*D
p89
L21L
Ntp90
L0L
s(V13*AD
p91
L21L
Ntp92
L0L
s(L14L
L17L
Ntp93
L0L
s(V14*A
p94
L10L
L4L
tp95
F-0.26475529705938294
s(V16*DS
p96
L21L
Ntp97
L0L
s(L18L
L22L
Ntp98
L0L
s(V13*D
p99
L3L
L4L
tp100
F-0.20196828248569823
s(V19*AD
p101
L4L
L4L
tp102
F0.45473048624154055
s(V12*DS
p103
L7L
L4L
tp104
F-0.24304008050145184
s(V10*DS
p105
L7L
L4L
tp106
F0.5141876864090044
s(V18*
p107
L4L
L4L
tp108
F0.209994886050309
s(V7*D
p109
L8L
L4L
tp110
F-0.23522739896964148
s(V14*AD
p111
L2L
L4L
tp112
F0.024656116534422883
s(L4L
L20L
Ntp113
L0L
s(V18*DS
p114
L2L
L4L
tp115
F0.1379968752432163
s(V12*ADS
p116
L7L
L4L
tp117
F0.13759313122238293
s(V16*D
p118
L9L
L4L
tp119
F-0.5538049270768796
s(V15*A
p120
L8L
L4L
tp121
F-0.08946499971940142
s(V21*A
p122
L6L
L4L
tp123
F0.9079637794101804
s(V18*A
p124
L6L
L4L
tp125
F0.33131891963457144
s(V13*AD
p126
L4L
L4L
tp127
F0.13102905073469304
s(V17*D
p128
L4L
L4L
tp129
F-0.02974488302253777
s(V5*D
p130
L2L
L4L
tp131
F-0.10382079667824112
s(V16*DS
p132
L4L
L4L
tp133
F-0.1521761325045549
s(V20*AD
p134
L21L
Ntp135
L0L
s(V7*
p136
L9L
L4L
tp137
F-0.31736215066256906
s(L15L
L22L
Ntp138
L0L
s(V6*D
p139
L2L
L4L
tp140
F-0.11347573965202667
s(V20*D
p141
L9L
L4L
tp142
F0.766945310965177
s(V16*AD
p143
L6L
L4L
tp144
F0.2222161686078469
s(V6*
p145
L7L
L4L
tp146
F-0.18450867201208973
s(L13L
L19L
Ntp147
L0L
s(L20L
L21L
Ntp148
L0L
s(V15*
p149
L2L
L4L
tp150
F-0.25079720215204454
s(L6L
L17L
Ntp151
L0L
s(L17L
L25L
Ntp152
L0L
s(V8*D
p153
L10L
L4L
tp154
F-0.3355209275215935
s(V20*DS
p155
L7L
L4L
tp156
F0.7904644757674516
s(V14*D
p157
L9L
L4L
tp158
F-0.4762958875423747
s(V18*D
p159
L2L
L4L
tp160
F0.1379968752432163
s(V10*D
p161
L2L
L4L
tp162
F0.47164472265762203
s(V8*DS
p163
L9L
L4L
tp164
F-0.23322459999561476
s(g91
L11L
L4L
tp165
F-0.3996051711749356
s(g89
L11L
L4L
tp166
F-0.6407691468340355
s(V8*
p167
L11L
L4L
tp168
F-0.4665244676090412
s(V12*DS
p169
L11L
L4L
tp170
F-0.5875932905995374
s(L19L
L21L
Ntp171
L0L
s(V8*DS
p172
L5L
L4L
tp173
F0.1451972889401748
s(L19L
L22L
Ntp174
L0L
s(V19*A
p175
L9L
L4L
tp176
F0.27055144066902004
s(L16L
L22L
Ntp177
L0L
s(V17*A
p178
L11L
L4L
tp179
F-0.4763422936378572
s(V18*AD
p180
L21L
Ntp181
L0L
s(V20*D
p182
L4L
L4L
tp183
F0.6665112871548012
s(g178
L21L
Ntp184
L0L
s(V14*AD
p185
L3L
L4L
tp186
F0.06234170219121436
s(V20*
p187
L7L
L4L
tp188
F0.7904644757674516
s(V15*AD
p189
L7L
L4L
tp190
F-0.019429259944935565
s(L21L
L22L
Ntp191
L0L
s(V18*DS
p192
L3L
L4L
tp193
F0.17329237164269343
s(V12*ADS
p194
L6L
L4L
tp195
F0.20864089316326528
s(V16*A
p196
L3L
L4L
tp197
F0.02210350478649956
s(L12L
L21L
Ntp198
L0L
s(V14*A
p199
L9L
L4L
tp200
F-0.13163889900018794
s(V9*D
p201
L21L
Ntp202
L0L
s(V14*DS
p203
L2L
L4L
tp204
F-0.25079720215204454
s(V6*D
p205
L3L
L4L
tp206
F-0.0701670481617803
s(V14*
p207
L10L
L4L
tp208
F-0.5522329123466306
s(V12*DS
p209
L6L
L4L
tp210
F-0.10425668211994485
s(L20L
L19L
Ntp211
L0L
s(V18*
p212
L7L
L4L
tp213
F0.4402304721276745
s(L4L
L26L
Ntp214
L0L
s(L17L
L19L
Ntp215
L0L
s(V10*
p216
L2L
L4L
tp217
F0.23582236132881101
s(V10*DS
p218
L21L
Ntp219
L0L
s(V25*
p220
NNtp221
L0L
s(V16*D
p222
L10L
L4L
tp223
F-0.5961190239816825
s(V15*A
p224
L11L
L4L
tp225
F-0.4615327922463306
s(V21*A
p226
L7L
L4L
tp227
F0.9312422957232975
s(V17*
p228
L3L
L4L
tp229
F-0.0751567219560467
s(L11L
L21L
Ntp230
L0L
s(L11L
L22L
Ntp231
L0L
s(V18*A
p232
L7L
L4L
tp233
F0.4402304721276745
s(V13*AD
p234
L7L
L4L
tp235
F0.08625114174743581
s(V17*D
p236
L7L
L4L
tp237
F-0.08819255451456584
s(V9*
p238
L3L
L4L
tp239
F0.15286669694523997
s(L6L
L24L
Ntp240
L0L
s(V16*DS
p241
L3L
L4L
tp242
F-0.20196828248569823
s(V13*D
p243
L2L
L4L
tp244
F-0.25079720215204454
s(V19*AD
p245
L5L
L4L
tp246
F0.5246471842027354
s(L13L
L22L
Ntp247
L0L
s(V8*DS
p248
L4L
L4L
tp249
F0.0955046508167659
s(V20*D
p250
L8L
L4L
tp251
F0.808572235881893
s(V7*D
p252
L9L
L4L
tp253
F-0.31736215066256906
s(V26*
p254
NNtp255
L0L
s(V20*DS
p256
L4L
L4L
tp257
F0.6665112871548012
s(L24L
NNtp258
L0L
s(V14*D
p259
L10L
L4L
tp260
F-0.5522329123466306
s(V18*D
p261
L5L
L4L
tp262
F0.24351341614558075
s(L12L
L19L
Ntp263
L0L
s(L12L
L26L
Ntp264
L0L
s(V17*AD
p265
L3L
L4L
tp266
F0.09903595016260582
s(V13*AD
p267
L10L
L4L
tp268
F-0.22574996921674514
s(V17*D
p269
L10L
L4L
tp270
F-0.48989438676297337
s(V12*DS
p271
L10L
L4L
tp272
F-0.46803261784988104
s(V14*
p273
L11L
L4L
tp274
F-0.6537824979508716
s(L17L
L17L
Ntp275
L0L
s(V19*A
p276
L8L
L4L
tp277
F0.6167525478857927
s(V20*AD
p278
L3L
L4L
tp279
F0.6502949681486817
s(V17*A
p280
L4L
L4L
tp281
F0.08974448482703602
s(V18*AD
p282
L4L
L4L
tp283
F0.3175859604351218
s(V20*
p284
L6L
L4L
tp285
F0.720719576715008
s(V15*
p286
L3L
L4L
tp287
F-0.20196828248569823
s(V15*AD
p288
L8L
L4L
tp289
F-0.08946499971940142
s(V12*ADS
p290
L5L
L4L
tp291
F0.18864395968001085
s(V18*AD
p292
L8L
L4L
tp293
F0.10585057985748098
s(L10L
L22L
Ntp294
L0L
s(L6L
L18L
Ntp295
L0L
s(V16*A
p296
L2L
L4L
tp297
F-0.017282360980329523
s(V16*DS
p298
L2L
L4L
tp299
F-0.25079720215204454
s(V10*D
p300
L3L
L4L
tp301
F0.5287368588639644
s(V8*DS
p302
L8L
L4L
tp303
F-0.05767384003258842
s(V14*A
p304
L8L
L4L
tp305
F-0.03822284311584344
s(L13L
L25L
Ntp306
L0L
s(V14*DS
p307
L3L
L4L
tp308
F-0.20196828248569823
s(L4L
L22L
Ntp309
L0L
s(L18L
L20L
Ntp310
L0L
s(V18*
p311
L6L
L4L
tp312
F0.33131891963457144
s(V13*
p313
L3L
L4L
tp314
F-0.20196828248569823
s(L18L
L26L
Ntp315
L0L
s(L11L
L26L
Ntp316
L0L
s(V16*D
p317
L11L
L4L
tp318
F-0.70506997264555
s(V15*A
p319
L10L
L4L
tp320
F-0.306679822338266
s(V21*A
p321
L8L
L4L
tp322
F0.9357783898226789
s(V17*
p323
L2L
L4L
tp324
F-0.11937560449241488
s(V17*D
p325
L6L
L4L
tp326
F0.06490885535638516
s(V13*AD
p327
L6L
L4L
tp328
F0.2452756400757302
s(L11L
L25L
Ntp329
L0L
s(V21*
p330
L4L
L4L
tp331
F0.8886774870567815
s(V18*D
p332
L4L
L4L
tp333
F0.209994886050309
s(V17*
p334
L21L
Ntp335
L0L
s(V21*
p336
L8L
L4L
tp337
F0.9357783898226789
s(V19*AD
p338
L6L
L4L
tp339
F0.5916263174455801
s(V15*D
p340
L11L
L4L
tp341
F-0.685640983456573
s(L10L
L26L
Ntp342
L0L
s(V8*DS
p343
L7L
L4L
tp344
F0.11034130300505426
s(L10L
L25L
Ntp345
L0L
s(V15*D
p346
L7L
L4L
tp347
F-0.419022508315394
s(V7*D
p348
L10L
L4L
tp349
F-0.4054866107064377
s(V10*
p350
L3L
L4L
tp351
F0.26436842943198213
s(V18*AD
p352
L9L
L4L
tp353
F-0.13757080956165454
s(V20*DS
p354
L5L
L4L
tp355
F0.6849993405566147
s(V14*D
p356
L11L
L4L
tp357
F-0.6537824979508716
s(V9*
p358
L2L
L4L
tp359
F0.11898912392158553
s(L13L
L20L
Ntp360
L0L
s(V20*DS
p361
L21L
Ntp362
L0L
s(V19*A
p363
L3L
L4L
tp364
F0.41322568294470435
s(g224
L21L
Ntp365
L0L
s(V14*
p366
L8L
L4L
tp367
F-0.41621453311146855
s(V20*AD
p368
L2L
L4L
tp369
F0.6399132419249624
s(V4*DS
p370
L3L
L4L
tp371
F-0.046508942950005
s(L14L
L23L
Ntp372
L0L
s(V10*DS
p373
L2L
L4L
tp374
F0.47164472265762203
s(L28L
NNtp375
L0L
s(L12L
L18L
Ntp376
L0L
s(V12*ADS
p377
L4L
L4L
tp378
F0.15031310190020575
s(L16L
L18L
Ntp379
L0L
s(V8*DS
p380
L11L
L4L
tp381
F-0.4665244676090412
s(V17*AD
p382
L2L
L4L
tp383
F0.02205194752764405
s(V14*A
p384
L7L
L4L
tp385
F0.03371091926548153
s(V19*
p386
L2L
L4L
tp387
F0.3903726090492898
s(V21*
p388
L9L
L4L
tp389
F0.944264156388794
s(L9L
L19L
Ntp390
L0L
s(V17*A
p391
L5L
L4L
tp392
F0.13004646947947357
s(V16*AD
p393
L3L
L4L
tp394
F0.023108214689755345
s(V15*D
p395
L6L
L4L
tp396
F-0.10425668211994485
s(V18*A
p397
L21L
Ntp398
L0L
s(V13*
p399
L2L
L4L
tp400
F-0.25079720215204454
s(V6*
p401
L2L
L4L
tp402
F-0.11347573965202667
s(V18*AD
p403
L5L
L4L
tp404
F0.3920824805319786
s(L14L
L24L
Ntp405
L0L
s(V15*AD
p406
L9L
L4L
tp407
F-0.17993581961509264
s(L13L
L17L
Ntp408
L0L
s(V19*
p409
L21L
Ntp410
L0L
s(L13L
L23L
Ntp411
L0L
s(L6L
L23L
Ntp412
L0L
s(V18*D
p413
L7L
L4L
tp414
F0.4402304721276745
s(V7*D
p415
L21L
Ntp416
L0L
s(g44
L21L
Ntp417
L0L
s(V21*
p418
L21L
Ntp419
L0L
s(V19*AD
p420
L7L
L4L
tp421
F0.6476578685550558
s(L11L
L18L
Ntp422
L0L
s(V8*DS
p423
L6L
L4L
tp424
F0.21919768316064706
s(V6*DS
p425
L21L
Ntp426
L0L
s(V16*
p427
L21L
Ntp428
L0L
s(g415
L11L
L4L
tp429
F-0.5504607392765922
s(L18L
L23L
Ntp430
L0L
s(V18*AD
p431
L10L
L4L
tp432
F-0.25193299492575705
s(V16*A
p433
L9L
L4L
tp434
F-0.21238314117319576
s(V21*A
p435
L9L
L4L
tp436
F0.944264156388794
s(V20*DS
p437
L10L
L4L
tp438
F0.40408516792916394
s(L15L
L17L
Ntp439
L0L
s(V18*D
p440
L21L
Ntp441
L0L
s(V21*
p442
L5L
L4L
tp443
F0.8961115646946709
s(L10L
L24L
Ntp444
L0L
s(V14*DS
p445
L8L
L4L
tp446
F-0.41621453311146855
s(V15*D
p447
L10L
L4L
tp448
F-0.5942104417017267
s(V14*
p449
L9L
L4L
tp450
F-0.4762958875423747
s(V20*AD
p451
L5L
L4L
tp452
F0.6849993405566147
s(V4*DS
p453
L2L
L4L
tp454
F-0.08882833808980535
s(L17L
L20L
Ntp455
L0L
s(V27*
p456
NNtp457
L0L
s(L12L
L23L
Ntp458
L0L
s(V10*DS
p459
L3L
L4L
tp460
F0.5287368588639644
s(L12L
L25L
Ntp461
L0L
s(V17*
p462
L9L
L4L
tp463
F-0.44344551198148174
s(V12*ADS
p464
L11L
L4L
tp465
F-0.3715010383148467
s(V18*A
p466
L2L
L4L
tp467
F0.1379968752432163
s(V8*
p468
L2L
L4L
tp469
F0.016236478139089072
s(V16*
p470
L2L
L4L
tp471
F-0.25079720215204454
s(V8*DS
p472
L10L
L4L
tp473
F-0.3355209275215935
s(V20*A
p474
L2L
L4L
tp475
F0.6399132419249624
s(V19*A
p476
L2L
L4L
tp477
F0.3903726090492898
s(L11L
L23L
Ntp478
L0L
s(V21*
p479
L10L
L4L
tp480
F0.801155626918115
s(L11L
L17L
Ntp481
L0L
s(L4L
L25L
Ntp482
L0L
s(L4L
L19L
Ntp483
L0L
s(V17*A
p484
L6L
L4L
tp485
F0.16075126845952278
s(V13*A
p486
L5L
L4L
tp487
F0.16546807977490954
s(V16*AD
p488
L2L
L4L
tp489
F-0.017282360980329523
s(V15*D
p490
L5L
L4L
tp491
F-0.10097440590031503
s(L16L
L20L
Ntp492
L0L
s(L18L
L17L
Ntp493
L0L
s(V13*
p494
L5L
L4L
tp495
F-0.10097440590031503
s(V18*AD
p496
L6L
L4L
tp497
F0.47357876751888867
s(V6*
p498
L3L
L4L
tp499
F-0.0701670481617803
s(L9L
L24L
Ntp500
L0L
s(V13*A
p501
L9L
L4L
tp502
F-0.08424024742890973
s(V15*AD
p503
L10L
L4L
tp504
F-0.306679822338266
s(L13L
L26L
Ntp505
L0L
s(V16*A
p506
L8L
L4L
tp507
F-0.1254596653555135
s(L30L
NNtp508
L0L
s(V13*D
p509
L11L
L4L
tp510
F-0.6208736689327419
s(V18*D
p511
L6L
L4L
tp512
F0.33131891963457144
s(V14*DS
p513
L9L
L4L
tp514
F-0.4762958875423747
s(V14*A
p515
L6L
L4L
tp516
F0.15856283033086654
s(V19*
p517
L3L
L4L
tp518
F0.41322568294470435
s(V12*
p519
L2L
L4L
tp520
F-0.25079720215204454
s(V13*D
p521
L7L
L4L
tp522
F-0.30475008684790134
s(V13*A
p523
L21L
Ntp524
L0L
s(L16L
L24L
Ntp525
L0L
s(V12*D
p526
L6L
L4L
tp527
F-0.10425668211994485
s(V20*AD
p528
L4L
L4L
tp529
F0.6665112871548012
s(V14*AD
p530
L10L
L4L
tp531
F-0.26475529705938294
s(L12L
L20L
Ntp532
L0L
s(V12*D
p533
L10L
L4L
tp534
F-0.46803261784988104
s(L17L
L23L
Ntp535
L0L
s(V20*
p536
L3L
L4L
tp537
F0.6502949681486817
s(V17*
p538
L8L
L4L
tp539
F-0.3979543586936566
s(L6L
L21L
Ntp540
L0L
s(g180
L11L
L4L
tp541
F-0.3994413535781481
s(L10L
L20L
Ntp542
L0L
s(V21*A
p543
L10L
L4L
tp544
F0.801155626918115
s(L10L
L19L
Ntp545
L0L
s(V12*
p546
L21L
Ntp547
L0L
s(V21*
p548
L6L
L4L
tp549
F0.9079637794101804
s(V4*DS
p550
L9L
L4L
tp551
F-0.27865926736273605
s(V15*D
p552
L9L
L4L
tp553
F-0.5246123361067465
s(V14*
p554
L6L
L4L
tp555
F-0.10425668211994485
s(L14L
L22L
Ntp556
L0L
s(V4*DS
p557
L5L
L4L
tp558
F0.042048406781409774
s(V15*
p559
L10L
L4L
tp560
F-0.5942104417017267
s(L15L
L25L
Ntp561
L0L
s(V18*
p562
L3L
L4L
tp563
F0.17329237164269343
s(V13*
p564
L4L
L4L
tp565
F-0.1521761325045549
s(V13*A
p566
L8L
L4L
tp567
F0.012574067604316647
s(V15*
p568
L6L
L4L
tp569
F-0.10425668211994485
s(V11*
p570
L6L
L4L
tp571
F0.39557909308726324
s(g361
L11L
L4L
tp572
F0.09847328290332041
s(V
p573
g573
L4L
tp574
F0.007773857664667434
s(L18L
L24L
Ntp575
L0L
s(V13*AD
p576
L3L
L4L
tp577
F0.0875828383858867
s(V17*D
p578
L3L
L4L
tp579
F-0.0751567219560467
s(V18*A
p580
L3L
L4L
tp581
F0.17329237164269343
s(V11*
p582
L10L
L4L
tp583
F0.04605696208102785
s(V8*
p584
L3L
L4L
tp585
F0.05501743564864747
s(V10*D
p586
L6L
L4L
tp587
F0.7113902339802278
s(V20*A
p588
L3L
L4L
tp589
F0.6502949681486817
s(V7*
p590
L2L
L4L
tp591
F-0.07673783895451253
s(g418
L11L
L4L
tp592
F0.27351398847236846
s(V13*D
p593
L6L
L4L
tp594
F-0.10425668211994485
s(L15L
L21L
Ntp595
L0L
s(V14*AD
p596
L11L
L4L
tp597
F-0.4299795729790808
s(V17*A
p598
L7L
L4L
tp599
F0.03859540662641522
s(V15*D
p600
L4L
L4L
tp601
F-0.1521761325045549
s(V12*D
p602
L11L
L4L
tp603
F-0.5875932905995374
s(V18*AD
p604
L7L
L4L
tp605
F0.4402304721276745
s(L21L
NNtp606
L0L
s(V15*AD
p607
L11L
L4L
tp608
F-0.4615327922463306
s(V12*ADS
p609
L10L
L4L
tp610
F-0.1911710594457799
s(V16*A
p611
L11L
L4L
tp612
F-0.4828060644130441
s(V19*AD
p613
L21L
Ntp614
L0L
s(V16*
p615
L3L
L4L
tp616
F-0.20196828248569823
s(V18*D
p617
L9L
L4L
tp618
F-0.21695422893388389
s(V14*DS
p619
L10L
L4L
tp620
F-0.5522329123466306
s(L8L
L18L
Ntp621
L0L
s(V14*A
p622
L5L
L4L
tp623
F0.14222925625828683
s(L8L
L21L
Ntp624
L0L
s(V10*DS
p625
L8L
L4L
tp626
F0.3958625700329018
s(V20*AD
p627
L7L
L4L
tp628
F0.7904644757674516
s(V4*DS
p629
L4L
L4L
tp630
F-0.0026981698181649996
s(L6L
L19L
Ntp631
L0L
s(V13*A
p632
L4L
L4L
tp633
F0.12610751943129758
s(V9*D
p634
L6L
L4L
tp635
F0.45147271507987047
s(V10*
p636
L10L
L4L
tp637
F-0.04819741584027548
s(L6L
L25L
Ntp638
L0L
s(V4*DS
p639
L21L
Ntp640
L0L
s(V16*D
p641
L2L
L4L
tp642
F-0.25079720215204454
s(V15*A
p643
L3L
L4L
tp644
F0.03719440590080859
s(V20*
p645
L2L
L4L
tp646
F0.6399132419249624
s(g334
L11L
L4L
tp647
F-0.6407691468340355
s(V15*
p648
L7L
L4L
tp649
F-0.419022508315394
s(V9*D
p650
L10L
L4L
tp651
F-0.23793090008950113
s(V10*
p652
L6L
L4L
tp653
F0.35569511699011397
s(V5*D
p654
L5L
L4L
tp655
F0.028815365479747036
s(V9*
p656
L11L
L4L
tp657
F-0.36887990227611756
s(g96
L11L
L4L
tp658
F-0.70506997264555
s(V21*A
p659
L11L
L4L
tp660
F0.27351398847236846
s(V14*DS
p661
L21L
Ntp662
L0L
s(V11*
p663
L11L
L4L
tp664
F-0.22083747986297614
s(V5*D
p665
L9L
L4L
tp666
F-0.31248907442305207
s(V21*
p667
L7L
L4L
tp668
F0.9312422957232975
s(V16*AD
p669
L21L
Ntp670
L0L
s(V13*D
p671
L10L
L4L
tp672
F-0.5097871891503254
s(V9*
p673
L7L
L4L
tp674
F0.20895649838713218
s(V10*D
p675
L7L
L4L
tp676
F0.5141876864090044
s(L20L
L25L
Ntp677
L0L
s(V12*
p678
L3L
L4L
tp679
F-0.20196828248569823
s(L9L
L17L
Ntp680
L0L
s(V15*D
p681
L8L
L4L
tp682
F-0.46841389135788136
s(L9L
L22L
Ntp683
L0L
s(V12*D
p684
L7L
L4L
tp685
F-0.24304008050145184
s(V18*
p686
L2L
L4L
tp687
F0.1379968752432163
s(V13*
p688
L7L
L4L
tp689
F-0.30475008684790134
s(g523
L11L
L4L
tp690
F-0.3996051711749356
s(V14*D
p691
L2L
L4L
tp692
F-0.25079720215204454
s(V20*DS
p693
L8L
L4L
tp694
F0.808572235881893
s(V17*AD
p695
L11L
L4L
tp696
F-0.4763422936378572
s(V13*AD
p697
L2L
L4L
tp698
F0.05098077398678378
s(V17*D
p699
L2L
L4L
tp700
F-0.11937560449241488
s(L21L
L7L
L4L
tp701
F1.5
s(L25L
NNtp702
L0L
s(V20*A
p703
L8L
L4L
tp704
F0.808572235881893
s(L8L
L24L
Ntp705
L0L
s(L14L
L20L
Ntp706
L0L
s(V8*
p707
L4L
L4L
tp708
F0.0955046508167659
s(V17*AD
p709
L7L
L4L
tp710
F0.03859540662641522
s(L21L
L11L
L4L
tp711
F0.9923076923076924
s(V20*A
p712
L4L
L4L
tp713
F0.6665112871548012
s(V4*DS
p714
L8L
L4L
tp715
F-0.1925093528989455
s(V13*D
p716
L5L
L4L
tp717
F-0.10097440590031503
s(V10*DS
p718
L9L
L4L
tp719
F0.23320194883591677
s(V19*AD
p720
L2L
L4L
tp721
F0.3903726090492898
s(L26L
NNtp722
L0L
s(L21L
L26L
Ntp723
L0L
s(V20*A
p724
L21L
Ntp725
L0L
s(V20*D
p726
L3L
L4L
tp727
F0.6502949681486817
s(L21L
L19L
Ntp728
L0L
s(V14*AD
p729
L8L
L4L
tp730
F-0.03822284311584344
s(V14*
p731
L7L
L4L
tp732
F-0.36344695590514475
s(g317
L21L
Ntp733
L0L
s(V15*
p734
L11L
L4L
tp735
F-0.685640983456573
s(V12*D
p736
L8L
L4L
tp737
F-0.3035660426232368
s(L11L
L19L
Ntp738
L0L
s(L11L
L20L
Ntp739
L0L
s(g201
L11L
L4L
tp740
F-0.36887990227611756
s(V10*
p741
L7L
L4L
tp742
F0.2998923182571058
s(L14L
L18L
Ntp743
L0L
s(V12*ADS
p744
L9L
L4L
tp745
F-0.04135770444375216
s(V11*
p746
L7L
L4L
tp747
F0.3264870565362376
s(L4L
L23L
Ntp748
L0L
s(V16*A
p749
L10L
L4L
tp750
F-0.32657304873708143
s(V16*DS
p751
L10L
L4L
tp752
F-0.5961190239816825
s(L18L
L21L
Ntp753
L0L
s(V5*D
p754
L8L
L4L
tp755
F-0.22944146272842592
s(V9*
p756
L6L
L4L
tp757
F0.26034037274658806
s(V6*DS
p758
L3L
L4L
tp759
F-0.0701670481617803
s(g661
L11L
L4L
tp760
F-0.6537824979508716
s(V14*A
p761
L4L
L4L
tp762
F0.10185191037517707
s(L15L
L19L
Ntp763
L0L
s(g273
L21L
Ntp764
L0L
s(V7*
p765
L3L
L4L
tp766
F-0.03456431306738913
s(V19*D
p767
L7L
L4L
tp768
F0.6476578685550558
s(V20*AD
p769
L6L
L4L
tp770
F0.720719576715008
s(V4*DS
p771
L7L
L4L
tp772
F-0.11626821256295583
s(V13*A
p773
L7L
L4L
tp774
F0.08625114174743581
s(V19*D
p775
L11L
L4L
tp776
F-0.15150545432499757
s(V16*D
p777
L3L
L4L
tp778
F-0.20196828248569823
s(V15*A
p779
L2L
L4L
tp780
F-0.0015514617414285274
s(L6L
L20L
Ntp781
L0L
s(V17*
p782
L10L
L4L
tp783
F-0.48989438676297337
s(V15*
p784
L4L
L4L
tp785
F-0.1521761325045549
s(L8L
L26L
Ntp786
L0L
s(V18*A
p787
L8L
L4L
tp788
F0.10585057985748098
s(L12L
L24L
Ntp789
L0L
s(V11*
p790
L8L
L4L
tp791
F0.2603205441073386
s(V8*
p792
L5L
L4L
tp793
F0.13529715230816683
s(V13*D
p794
L9L
L4L
tp795
F-0.42570423200227814
s(V18*D
p796
L8L
L4L
tp797
F0.10585057985748098
s(V10*D
p798
L4L
L4L
tp799
F0.5918673552183775
s(V17*AD
p800
L6L
L4L
tp801
F0.32150253691904557
s(L21L
L10L
L4L
tp802
F1.373076923076923
s(L27L
NNtp803
L0L
s(V20*A
p804
L5L
L4L
tp805
F0.6849993405566147
s(g602
L21L
Ntp806
L0L
s(L10L
L23L
Ntp807
L0L
s(V7*D
p808
L2L
L4L
tp809
F-0.07673783895451253
s(V12*D
p810
L4L
L4L
tp811
F-0.1521761325045549
s(V9*D
p812
L7L
L4L
tp813
F0.22021272971612635
s(V11*D
p814
L7L
L4L
tp815
F0.5600868677130763
s(V13*
p816
L6L
L4L
tp817
F-0.10425668211994485
s(V10*
p818
L11L
L4L
tp819
F-0.2604024996053625
s(V13*A
p820
L10L
L4L
tp821
F-0.22574996921674514
s(V11*D
p822
L11L
L4L
tp823
F-0.18329471403767
s(V14*D
p824
L3L
L4L
tp825
F-0.20196828248569823
s(V5*D
p826
L4L
L4L
tp827
F-0.01652454832438888
s(V9*
p828
L10L
L4L
tp829
F-0.23793090008950113
s(L9L
L25L
Ntp830
L0L
s(g734
L21L
Ntp831
L0L
s(V20*DS
p832
L9L
L4L
tp833
F0.766945310965177
s(L9L
L23L
Ntp834
L0L
s(L9L
L20L
Ntp835
L0L
s(V19*A
p836
L7L
L4L
tp837
F0.6476578685550558
s(g639
L11L
L4L
tp838
F-0.5231277726508268
s(L16L
L19L
Ntp839
L0L
s(V13*D
p840
L4L
L4L
tp841
F-0.1521761325045549
s(V10*DS
p842
L10L
L4L
tp843
F-0.04780893035598974
s(V19*AD
p844
L3L
L4L
tp845
F0.41322568294470435
s(V14*
p846
L4L
L4L
tp847
F-0.1521761325045549
s(g509
L21L
Ntp848
L0L
s(V14*AD
p849
L9L
L4L
tp850
F-0.13163889900018794
s(L11L
L24L
Ntp851
L0L
s(V20*
p852
L9L
L4L
tp853
F0.766945310965177
s(V15*
p854
L8L
L4L
tp855
F-0.46841389135788136
s(V12*D
p856
L9L
L4L
tp857
F-0.3753934884351342
s(V19*D
p858
L10L
L4L
tp859
F-0.06871247498191865
s(V9*D
p860
L8L
L4L
tp861
F0.12689459122667654
s(V18*A
p862
L9L
L4L
tp863
F-0.13757080956165454
s(V10*
p864
L4L
L4L
tp865
F0.29593367760918865
s(V12*ADS
p866
L8L
L4L
tp867
F0.06178802927274113
s(V11*
p868
L4L
L4L
tp869
F0.34509033859091154
s(L29L
NNtp870
L0L
s(V16*A
p871
L5L
L4L
tp872
F0.10521633876917805
s(V16*DS
p873
L9L
L4L
tp874
F-0.5538049270768796
s(g356
L21L
Ntp875
L0L
s(V17*AD
p876
L10L
L4L
tp877
F-0.31018356250975515
s(L21L
L6L
L4L
tp878
F1.5
s(V19*
p879
L10L
L4L
tp880
F-0.06871247498191865
s(V5*D
p881
L11L
L4L
tp882
F-0.5454262030214818
s(V20*A
p883
L9L
L4L
tp884
F0.766945310965177
s(L21L
L24L
Ntp885
L0L
s(V6*DS
p886
L2L
L4L
tp887
F-0.11347573965202667
s(V9*
p888
L5L
L4L
tp889
F0.22625883033333277
s(V14*DS
p890
L4L
L4L
tp891
F-0.1521761325045549
s(L14L
L25L
Ntp892
L0L
s(L10L
L18L
Ntp893
L0L
s(V19*
p894
L6L
L4L
tp895
F0.527037520523043
s(V14*A
p896
L3L
L4L
tp897
F0.06234170219121436
s(L10L
L17L
Ntp898
L0L
s(g18
L21L
Ntp899
L0L
s(V18*
p900
L9L
L4L
tp901
F-0.21695422893388389
s(V20*D
p902
L2L
L4L
tp903
F0.6399132419249624
s(V20*AD
p904
L9L
L4L
tp905
F0.766945310965177
s(V4*DS
p906
L6L
L4L
tp907
F0.05295298279686949
s(V22*
p908
NNtp909
L0L
s(V13*A
p910
L6L
L4L
tp911
F0.1834811165259839
s(L8L
L17L
Ntp912
L0L
s(V16*D
p913
L4L
L4L
tp914
F-0.1521761325045549
s(V15*A
p915
L5L
L4L
tp916
F0.11910908061998456
s(L18L
L19L
Ntp917
L0L
s(V17*
p918
L5L
L4L
tp919
F0.01448402540478256
s(V15*
p920
L5L
L4L
tp921
F-0.10097440590031503
s(V11*D
p922
L10L
L4L
tp923
F0.13675870529794665
s(L21L
L23L
Ntp924
L0L
s(V8*D
p925
L3L
L4L
tp926
F0.05501743564864747
s(g380
L21L
Ntp927
L0L
s(V11*
p928
L9L
L4L
tp929
F0.18314579756104418
s(V8*
p930
L6L
L4L
tp931
F0.17604567364844195
s(V13*D
p932
L8L
L4L
tp933
F-0.36108345500091854
s(g440
L11L
L4L
tp934
F-0.3994413535781481
s(V10*D
p935
L5L
L4L
tp936
F0.6570403689638118
s(V17*AD
p937
L5L
L4L
tp938
F0.2600929389589471
s(L21L
L9L
L4L
tp939
F1.5
s(V19*A
p940
L6L
L4L
tp941
F0.527037520523043
s(V20*A
p942
L6L
L4L
tp943
F0.720719576715008
s(V7*D
p944
L3L
L4L
tp945
F-0.03456431306738913
s(V12*D
p946
L5L
L4L
tp947
F-0.10097440590031503
s(V19*D
p948
L6L
L4L
tp949
F0.527037520523043
s(V17*A
p950
L2L
L4L
tp951
F0.011025973763821974
s(V20*
p952
L8L
L4L
tp953
F0.808572235881893
s(V9*D
p954
L4L
L4L
tp955
F0.31061229276381713
s(V10*
p956
L8L
L4L
tp957
F0.2358585970487907
s(V13*
p958
L9L
L4L
tp959
F-0.42570423200227814
s(V18*AD
p960
L2L
L4L
tp961
F0.1704244068510112
s(L16L
L26L
Ntp962
L0L
s(V20*DS
p963
L2L
L4L
tp964
F0.6399132419249624
s(L9L
L18L
Ntp965
L0L
s(V14*D
p966
L4L
L4L
tp967
F-0.1521761325045549
s(V5*D
p968
L7L
L4L
tp969
F-0.15582249512693666
s(V9*
p970
L9L
L4L
tp971
F-0.04900866402134417
s(V23*
p972
NNtp973
L0L
s(V18*
p974
L21L
Ntp975
L0L
s(V19*
p976
L7L
L4L
tp977
F0.6476578685550558
s(V14*A
p978
L2L
L4L
tp979
F0.024656116534422883
s(V4*DS
p980
L10L
L4L
tp981
F-0.38524995214939983
s(g218
L11L
L4L
tp982
F-0.2571611007070255
s(V18*
p983
L8L
L4L
tp984
F0.10585057985748098
s(V14*
p985
L5L
L4L
tp986
F-0.10097440590031503
s(V14*AD
p987
L6L
L4L
tp988
F0.23258369763211548
s(L23L
NNtp989
L0L
s(L8L
L20L
Ntp990
L0L
s(L8L
L23L
Ntp991
L0L
s(V15*
p992
L9L
L4L
tp993
F-0.5246123361067465
s(V11*D
p994
L6L
L4L
tp995
F0.7911581861745268
s(V18*DS
p996
L6L
L4L
tp997
F0.33131891963457144
s(V12*ADS
p998
L3L
L4L
tp999
F0.11274927166022525
s(V19*D
p1000
L9L
L4L
tp1001
F0.27055144066902004
s(V16*D
p1002
L5L
L4L
tp1003
F-0.10097440590031503
s(V15*A
p1004
L4L
L4L
tp1005
F0.07770722451581433
s(V9*D
p1006
L9L
L4L
tp1007
F-0.04900866402134417
s(V18*A
p1008
L10L
L4L
tp1009
F-0.25193299492575705
s(V10*
p1010
L5L
L4L
tp1011
F0.32852018448190584
s(V18*DS
p1012
L10L
L4L
tp1013
F-0.27886150614971505
s(V11*
p1014
L5L
L4L
tp1015
F0.3751761169341661
s(V6*DS
p1016
L9L
L4L
tp1017
F-0.3367825401124606
s(V16*DS
p1018
L8L
L4L
tp1019
F-0.5013454935738432
s(L21L
L20L
Ntp1020
L0L
s(V16*
p1021
L10L
L4L
tp1022
F-0.5961190239816825
s(V17*AD
p1023
L9L
L4L
tp1024
F-0.19958495681176852
s(L21L
L5L
L4L
tp1025
F1.5
s(L16L
L21L
Ntp1026
L0L
s(V5*D
p1027
L10L
L4L
tp1028
F-0.41436757945755365
s(V20*A
p1029
L10L
L4L
tp1030
F0.40408516792916394
s(V21*
p1031
L2L
L4L
tp1032
F0.8815145115352889
s(V6*DS
p1033
L5L
L4L
tp1034
F0.02028389254666313
s(L19L
L17L
Ntp1035
L0L
s(V16*
p1036
L6L
L4L
tp1037
F-0.10425668211994485
s(V20*D
p1038
L21L
Ntp1039
L0L
s(V6*D
p1040
L6L
L4L
tp1041
F0.029260781887315353
s(V9*
p1042
L4L
L4L
tp1043
F0.18973228668851777
s(V6*D
p1044
L10L
L4L
tp1045
F-0.4276629426469269
s(L20L
L24L
Ntp1046
L0L
s(V15*AD
p1047
L2L
L4L
tp1048
F-0.0015514617414285274
s(L20L
L18L
Ntp1049
L0L
s(V28*
p1050
NNtp1051
L0L
s(L15L
L23L
Ntp1052
L0L
s(V11*D
p1053
L9L
L4L
tp1054
F0.3011025351770835
s(V14*D
p1055
L5L
L4L
tp1056
F-0.10097440590031503
s(V8*D
p1057
L2L
L4L
tp1058
F0.016236478139089072
s(V16*A
p1059
L4L
L4L
tp1060
F0.06320456002956694
s(g409
L11L
L4L
tp1061
F-0.15150545432499757
s(V12*
p1062
L10L
L4L
tp1063
F-0.46803261784988104
s(V8*
p1064
L7L
L4L
tp1065
F0.11034130300505426
s(V19*AD
p1066
L8L
L4L
tp1067
F0.6167525478857927
s(V18*D
p1068
L10L
L4L
tp1069
F-0.27886150614971505
s(L17L
L22L
Ntp1070
L0L
s(V14*DS
p1071
L5L
L4L
tp1072
F-0.10097440590031503
s(V10*D
p1073
L10L
L4L
tp1074
F-0.04780893035598974
s(V17*AD
p1075
L4L
L4L
tp1076
F0.1794889696540723
s(L21L
L8L
L4L
tp1077
F1.5
s(V20*A
p1078
L7L
L4L
tp1079
F0.7904644757674516
s(V12*
p1080
L6L
L4L
tp1081
F-0.10425668211994485
s(L20L
L20L
Ntp1082
L0L
s(V12*DS
p1083
L3L
L4L
tp1084
F-0.20196828248569823
s(V19*A
p1085
L5L
L4L
tp1086
F0.4674299636525878
s(L8L
L25L
Ntp1087
L0L
s(V12*D
p1088
L2L
L4L
tp1089
F-0.25079720215204454
s(V7*D
p1090
L4L
L4L
tp1091
F0.009027086610312813
s(V19*D
p1092
L5L
L4L
tp1093
F0.4674299636525878
s(V20*AD
p1094
L8L
L4L
tp1095
F0.808572235881893
s(L14L
L26L
Ntp1096
L0L
s(V17*A
p1097
L3L
L4L
tp1098
F0.04951797508130295
s(g28
L11L
L4L
tp1099
F0.09847328290332041
s(V9*D
p1100
L5L
L4L
tp1101
F0.3865891267357373
s(V10*
p1102
L9L
L4L
tp1103
F0.14639783507546425
s(V18*AD
p1104
L3L
L4L
tp1105
F0.242149741840907
s(V21*A
p1106
L2L
L4L
tp1107
F0.8815145115352889
s(L21L
L17L
Ntp1108
L0L
s(V17*
p1109
L4L
L4L
tp1110
F-0.02974488302253777
s(V18*DS
p1111
L11L
L4L
tp1112
F-0.3994413535781481
s(V5*D
p1113
L6L
L4L
tp1114
F0.03860953165188245
s(V9*
p1115
L8L
L4L
tp1116
F0.12689459122667654
s(L15L
L24L
Ntp1117
L0L
s(L19L
L24L
Ntp1118
L0L
s(V6*DS
p1119
L4L
L4L
tp1120
F-0.02543908524178618
s(V16*
p1121
L7L
L4L
tp1122
F-0.4514135545392224
s(L4L
L17L
Ntp1123
L0L
s(L19L
L18L
Ntp1124
L0L
s(V19*
p1125
L4L
L4L
tp1126
F0.44148550291859323
s(V10*DS
p1127
L4L
L4L
tp1128
F0.5918673552183775
s(g974
L11L
L4L
tp1129
F-0.3994413535781481
s(V6*D
p1130
L11L
L4L
tp1131
F-0.5615685599734528
s(L18L
L25L
Ntp1132
L0L
s(V14*
p1133
L2L
L4L
tp1134
F-0.25079720215204454
s(L9L
L26L
Ntp1135
L0L
s(g1111
L21L
Ntp1136
L0L
s(V11*D
p1137
L5L
L4L
tp1138
F0.7503522338683323
s(V13*
p1139
L8L
L4L
tp1140
F-0.36108345500091854
s(g596
L21L
Ntp1141
L0L
s(V19*D
p1142
L8L
L4L
tp1143
F0.6167525478857927
s(V16*D
p1144
L6L
L4L
tp1145
F-0.10425668211994485
s(V15*A
p1146
L7L
L4L
tp1147
F-0.019429259944935565
s(V20*DS
p1148
L3L
L4L
tp1149
F0.6502949681486817
s(g397
L11L
L4L
tp1150
F-0.3994413535781481
s(L16L
L25L
Ntp1151
L0L
s(V11*
p1152
L2L
L4L
tp1153
F0.2892893602165351
s(V16*DS
p1154
L7L
L4L
tp1155
F-0.4514135545392224
s(V17*AD
p1156
L8L
L4L
tp1157
F-0.11490224231403573
s(L21L
L4L
L4L
tp1158
F1.5
s(g724
L11L
L4L
tp1159
F0.09847328290332041
s(g1130
L21L
Ntp1160
L0L
s(V21*
p1161
L3L
L4L
tp1162
F0.884534237559872
s(V7*
p1163
L10L
L4L
tp1164
F-0.4054866107064377
s(V19*AD
p1165
L9L
L4L
tp1166
F0.27055144066902004
s(L8L
L22L
Ntp1167
L0L
s(V12*
p1168
L7L
L4L
tp1169
F-0.24304008050145184
s(V7*
p1170
L6L
L4L
tp1171
F0.08154390965630437
s(V16*AD
p1172
L5L
L4L
tp1173
F0.19087595623340825
s(L20L
L23L
Ntp1174
L0L
s(V6*
p1175
L4L
L4L
tp1176
F-0.02543908524178618
s(V12*D
p1177
L3L
L4L
tp1178
F-0.20196828248569823
s(V7*D
p1179
L5L
L4L
tp1180
F0.05260591844570264
s(V14*AD
p1181
L7L
L4L
tp1182
F0.03371091926548153
s(V16*AD
p1183
L9L
L4L
tp1184
F-0.21238314117319576
s(V15*AD
p1185
L3L
L4L
tp1186
F0.03719440590080859
s(V6*
p1187
L8L
L4L
tp1188
F-0.25710579760299257
s(V18*DS
p1189
L7L
L4L
tp1190
F0.4402304721276745
s(V8*D
p1191
L9L
L4L
tp1192
F-0.23322459999561476
s(V12*ADS
p1193
L2L
L4L
tp1194
F0.07721016561259539
s(L18L
L18L
Ntp1195
L0L
s(L10L
L21L
Ntp1196
L0L
s(V11*D
p1197
L8L
L4L
tp1198
F0.4381364201245861
s(V14*D
p1199
L6L
L4L
tp1200
F-0.10425668211994485
s(V8*D
p1201
L5L
L4L
tp1202
F0.1451972889401748
s(V16*A
p1203
L7L
L4L
tp1204
F-0.05546806359572756
s(V6*DS
p1205
L8L
L4L
tp1206
F-0.25710579760299257
s(g427
L11L
L4L
tp1207
F-0.70506997264555
s(L17L
L26L
Ntp1208
L0L
s(V19*
p1209
L8L
L4L
tp1210
F0.6167525478857927
s(L19L
L23L
Ntp1211
L0L
s(V8*
p1212
L8L
L4L
tp1213
F-0.05767384003258842
s(V14*DS
p1214
L6L
L4L
tp1215
F-0.10425668211994485
s(V6*D
p1216
L7L
L4L
tp1217
F-0.18450867201208973
s(L20L
L26L
Ntp1218
L0L
s(V19*A
p1219
L4L
L4L
tp1220
F0.44148550291859323
s(V12*DS
p1221
L2L
L4L
tp1222
F-0.25079720215204454
s(g464
L21L
Ntp1223
L0L
s(L9L
L21L
Ntp1224
L0L
s(V14*
p1225
L3L
L4L
tp1226
F-0.20196828248569823
s(g822
L21L
Ntp1227
L0L
s(V19*D
p1228
L4L
L4L
tp1229
F0.44148550291859323
s(g134
L11L
L4L
tp1230
F0.09847328290332041
s(V20*
p1231
L10L
L4L
tp1232
F0.40408516792916394
s(V9*D
p1233
L2L
L4L
tp1234
F0.16319703151521395
s(V21*A
p1235
L3L
L4L
tp1236
F0.884534237559872
s(V17*
p1237
L7L
L4L
tp1238
F-0.08819255451456584
s(V18*DS
p1239
L8L
L4L
tp1240
F0.10585057985748098
s(L15L
L20L
Ntp1241
L0L
s(V11*
p1242
L3L
L4L
tp1243
F0.3162978223504841
s(g546
L11L
L4L
tp1244
F-0.5875932905995374
s(V6*DS
p1245
L7L
L4L
tp1246
F-0.18450867201208973
s(V16*
p1247
L4L
L4L
tp1248
F-0.1521761325045549
s(g39
L11L
L4L
tp1249
F-0.2571611007070255
s(V19*
p1250
L5L
L4L
tp1251
F0.4674299636525878
s(V7*
p1252
L7L
L4L
tp1253
F-0.06760664488474646
s(L21L
L25L
Ntp1254
L0L
s(g695
L21L
Ntp1255
L0L
s(V18*
p1256
L10L
L4L
tp1257
F-0.27886150614971505
s(V6*D
p1258
L8L
L4L
tp1259
F-0.25710579760299257
s(V13*A
p1260
L3L
L4L
tp1261
F0.0875828383858867
s(V16*AD
p1262
L8L
L4L
tp1263
F-0.1254596653555135
s(L14L
L21L
Ntp1264
L0L
s(V11*D
p1265
L4L
L4L
tp1266
F0.6901806771818231
s(g87
L11L
L4L
tp1267
F-0.6208736689327419
s(g775
L21L
Ntp1268
L0L
s(V6*
p1269
L9L
L4L
tp1270
F-0.3367825401124606
s(V16*D
p1271
L7L
L4L
tp1272
F-0.4514135545392224
s(V15*A
p1273
L6L
L4L
tp1274
F0.1340501630943634
s(L19L
L26L
Ntp1275
L0L
s(V18*A
p1276
L4L
L4L
tp1277
F0.209994886050309
s(V8*D
p1278
L4L
L4L
tp1279
F0.0955046508167659
s(L8L
L19L
Ntp1280
L0L
s(L21L
L3L
L4L
tp1281
F1.5
s(g611
L21L
Ntp1282
L0L
s(V19*AD
p1283
L10L
L4L
tp1284
F-0.06871247498191865
s(g1038
L11L
L4L
tp1285
F0.09847328290332041
s(V12*
p1286
L4L
L4L
tp1287
F-0.1521761325045549
s(V17*A
p1288
L8L
L4L
tp1289
F-0.11490224231403573
s(V10*DS
p1290
L5L
L4L
tp1291
F0.6570403689638118
s(V15*D
p1292
L3L
L4L
tp1293
F-0.20196828248569823
s(V7*D
p1294
L6L
L4L
tp1295
F0.08154390965630437
s(L16L
L17L
Ntp1296
L0L
s(V20*D
p1297
L7L
L4L
tp1298
F0.7904644757674516
s(V14*AD
p1299
L4L
L4L
tp1300
F0.1184338596630107
s(V9*D
p1301
L3L
L4L
tp1302
F0.23397347168239316
s(V15*AD
p1303
L4L
L4L
tp1304
F0.10242072705437498
s(V18*DS
p1305
L4L
L4L
tp1306
F0.209994886050309
s(L15L
L18L
Ntp1307
L0L
s(g340
L21L
Ntp1308
L0L
s(V14*D
p1309
L7L
L4L
tp1310
F-0.36344695590514475
s(V16*A
p1311
L6L
L4L
tp1312
F0.11921782695111197
s(g425
L11L
L4L
tp1313
F-0.5615685599734528
s(V16*DS
p1314
L6L
L4L
tp1315
F-0.10425668211994485
s(V16*
p1316
L8L
L4L
tp1317
F-0.5013454935738432
s(L20L
L22L
Ntp1318
L0L
s(V19*
p1319
L9L
L4L
tp1320
F0.27055144066902004
s(L20L
L17L
Ntp1321
L0L
s(V7*
p1322
L11L
L4L
tp1323
F-0.5504607392765922
s(V12*DS
p1324
L9L
L4L
tp1325
F-0.3753934884351342
s(L22L
NNtp1326
L0L
s(V14*DS
p1327
L7L
L4L
tp1328
F-0.36344695590514475
s(V6*D
p1329
L4L
L4L
tp1330
F-0.02543908524178618
s(g34
L11L
L4L
tp1331
F-0.15150545432499757
s(V12*DS
p1332
L5L
L4L
tp1333
F-0.10097440590031503
s(V16*AD
p1334
L4L
L4L
tp1335
F0.10618784242305243
s(V6*
p1336
L5L
L4L
tp1337
F0.02028389254666313
s(V19*D
p1338
L3L
L4L
tp1339
F0.41322568294470435
s(V20*AD
p1340
L10L
L4L
tp1341
F0.40408516792916394
s(V20*
p1342
L5L
L4L
tp1343
F0.6849993405566147
s(L17L
L18L
Ntp1344
L0L
s(g659
L21L
Ntp1345
L0L
s(V8*D
p1346
L8L
L4L
tp1347
F-0.05767384003258842
s(L17L
L24L
Ntp1348
L0L
s(V21*A
p1349
L4L
L4L
tp1350
F0.8886774870567815
s(L19L
L25L
Ntp1351
L0L
s(V17*
p1352
L6L
L4L
tp1353
F0.06490885535638516
s(V18*DS
p1354
L9L
L4L
tp1355
F-0.21695422893388389
s(L21L
L2L
L4L
tp1356
F1.5
s(V12*
p1357
L8L
L4L
tp1358
F-0.3035660426232368
s(V8*
p1359
L9L
L4L
tp1360
F-0.23322459999561476
s(V6*DS
p1361
L6L
L4L
tp1362
F0.029260781887315353
s(V16*
p1363
L5L
L4L
tp1364
F-0.10097440590031503
s(L21L
L21L
Ntp1365
L0L
s(V10*D
p1366
L8L
L4L
tp1367
F0.3958625700329018
s(V8*DS
p1368
L3L
L4L
tp1369
F0.05501743564864747
s(L21L
L18L
Ntp1370
L0L
s(L14L
L19L
Ntp1371
L0L
s(V17*A
p1372
L9L
L4L
tp1373
F-0.19958495681176852
s(L16L
L23L
Ntp1374
L0L
s(V7*
p1375
L4L
L4L
tp1376
F0.009027086610312813
s(V18*
p1377
L5L
L4L
tp1378
F0.24351341614558075
s(V6*D
p1379
L9L
L4L
tp1380
F-0.3367825401124606
s(V20*D
p1381
L6L
L4L
tp1382
F0.720719576715008
s(V13*A
p1383
L2L
L4L
tp1384
F0.05098077398678378
s(g669
L11L
L4L
tp1385
F-0.4828060644130441
s(V15*AD
p1386
L5L
L4L
tp1387
F0.18732338911632837
s(V11*D
p1388
L3L
L4L
tp1389
F0.632595644700968
s(L12L
L22L
Ntp1390
L0L
s(L12L
L17L
Ntp1391
L0L
s(V13*
p1392
L10L
L4L
tp1393
F-0.5097871891503254
s(V16*D
p1394
L8L
L4L
tp1395
F-0.5013454935738432
s(V15*A
p1396
L9L
L4L
tp1397
F-0.17993581961509264
s(L4L
L21L
Ntp1398
L0L
s(V6*
p1399
L10L
L4L
tp1400
F-0.4276629426469269
s(g607
L21L
Ntp1401
L0L
s(V13*AD
p1402
L5L
L4L
tp1403
F0.21475507707097327
s(V17*D
p1404
L5L
L4L
tp1405
F0.01448402540478256
s(V8*D
p1406
L7L
L4L
tp1407
F0.11034130300505426
s(V13*AD
p1408
L9L
L4L
tp1409
F-0.08424024742890973
s(V17*D
p1410
L9L
L4L
tp1411
F-0.44344551198148174
s(g613
L11L
L4L
tp1412
F-0.15150545432499757
s(V12*
p1413
L5L
L4L
tp1414
F-0.10097440590031503
s(V12*DS
p1415
L4L
L4L
tp1416
F-0.1521761325045549
s(V10*DS
p1417
L6L
L4L
tp1418
F0.7113902339802278
s(V7*D
p1419
L7L
L4L
tp1420
F-0.06760664488474646
s(g169
L21L
Ntp1421
L0L
s(V19*D
p1422
L2L
L4L
tp1423
F0.3903726090492898
s(L6L
L22L
Ntp1424
L0L
s(V14*AD
p1425
L5L
L4L
tp1426
F0.20266317327932823
s(V18*DS
p1427
L5L
L4L
tp1428
F0.24351341614558075
s.