(dp0
(L13L
L21L
Ntp1
Ns(V11*
p2
L2L
L8L
tp3
VDraw
p4
s(L13L
L18L
Ntp5
Ns(V15*D
p6
L7L
L8L
tp7
g4
s(V
p8
g8
L8L
tp9
VBegin
p10
s(L13L
L24L
Ntp11
Ns(V16*AD
p12
L5L
L8L
tp13
VDouble
p14
s(V17*D
p15
L3L
L8L
tp16
VStay
p17
s(V6*D
p18
L8L
L8L
tp19
g4
s(L21L
L11L
L8L
tp20
g17
s(L6L
L26L
Ntp21
Ns(V17*
p22
L5L
L8L
tp23
g17
s(V11*D
p24
L21L
Ntp25
Ns(V18*
p26
L5L
L8L
tp27
g17
s(L15L
L26L
Ntp28
Ns(V13*
p29
L7L
L8L
tp30
g4
s(V16*D
p31
L3L
L8L
tp32
g17
s(V12*
p33
L6L
L8L
tp34
g17
s(V14*AD
p35
L4L
L8L
tp36
g14
s(V19*D
p37
L9L
L8L
tp38
g17
s(L19L
L19L
Ntp39
Ns(V4*DS
p40
L3L
L8L
tp41
g4
s(L19L
L20L
Ntp42
Ns(V20*A
p43
L21L
Ntp44
Ns(V15*
p45
L9L
L8L
tp46
g17
s(V10*DS
p47
L8L
L8L
tp48
g14
s(V10*
p49
L6L
L8L
tp50
g4
s(L17L
L21L
Ntp51
Ns(V17*A
p52
L4L
L8L
tp53
g4
s(V10*D
p54
L3L
L8L
tp55
g14
s(L21L
L7L
L8L
tp56
g17
s(V12*ADS
p57
L3L
L8L
tp58
g4
s(V8*DS
p59
L7L
L8L
tp60
g4
s(V15*A
p61
L9L
L8L
tp62
g4
s(V17*A
p63
L9L
L8L
tp64
g4
s(V20*D
p65
L10L
L8L
tp66
g17
s(V21*A
p67
L5L
L8L
tp68
g17
s(V12*
p69
L10L
L8L
tp70
g4
s(V18*D
p71
L5L
L8L
tp72
g17
s(V13*AD
p73
L7L
L8L
tp74
g4
s(V14*A
p75
L10L
L8L
tp76
g4
s(V12*D
p77
L5L
L8L
tp78
g17
s(V25*
p79
NNtp80
Ns(V18*A
p81
L2L
L8L
tp82
g17
s(V8*DS
p83
L21L
Ntp84
Ns(L4L
L24L
Ntp85
Ns(V10*DS
p86
L9L
L8L
tp87
g14
s(V12*
p88
L21L
Ntp89
Ns(V10*
p90
L7L
L8L
tp91
g4
s(L4L
L18L
Ntp92
Ns(V14*
p93
L10L
L8L
tp94
g4
s(L14L
L17L
Ntp95
Ns(V16*
p96
L8L
L8L
tp97
g17
s(V7*D
p98
L3L
L8L
tp99
g4
s(L18L
L22L
Ntp100
Ns(V14*
p101
L5L
L8L
tp102
g17
s(V7*
p103
L2L
L8L
tp104
g4
s(V17*AD
p105
L2L
L8L
tp106
g14
s(V20*DS
p107
L8L
L8L
tp108
g17
s(V16*
p109
L5L
L8L
tp110
g17
s(V20*DS
p111
L7L
L8L
tp112
g17
s(V11*D
p113
L10L
L8L
tp114
g14
s(V6*
p115
L5L
L8L
tp116
g4
s(V16*DS
p117
L2L
L8L
tp118
g17
s(V10*DS
p119
L21L
Ntp120
Ns(V13*
p121
L10L
L8L
tp122
g4
s(V17*A
p123
L21L
Ntp124
Ns(V4*DS
p125
L21L
Ntp126
Ns(L4L
L20L
Ntp127
Ns(V18*D
p128
L21L
Ntp129
Ns(V13*A
p130
L10L
L8L
tp131
g4
s(V14*D
p132
L2L
L8L
tp133
g17
s(V16*AD
p134
L6L
L8L
tp135
g14
s(V17*D
p136
L2L
L8L
tp137
g17
s(L21L
L10L
L8L
tp138
g17
s(L15L
L22L
Ntp139
Ns(V17*
p140
L4L
L8L
tp141
g17
s(V16*A
p142
L2L
L8L
tp143
g4
s(V18*
p144
L6L
L8L
tp145
g17
s(V15*
p146
L5L
L8L
tp147
g17
s(V12*
p148
L7L
L8L
tp149
g4
s(V14*AD
p150
L3L
L8L
tp151
g14
s(L13L
L19L
Ntp152
Ns(L20L
L21L
Ntp153
Ns(V4*DS
p154
L2L
L8L
tp155
g4
s(V15*
p156
L10L
L8L
tp157
g17
s(L6L
L17L
Ntp158
Ns(L17L
L25L
Ntp159
Ns(V19*A
p160
L2L
L8L
tp161
g17
s(V28*
p162
NNtp163
Ns(V6*DS
p164
L9L
L8L
tp165
g4
s(V17*A
p166
L5L
L8L
tp167
g4
s(V8*DS
p168
L4L
L8L
tp169
g14
s(V18*AD
p170
L21L
Ntp171
Ns(V20*D
p172
L11L
L8L
tp173
g17
s(V21*A
p174
L4L
L8L
tp175
g17
s(L19L
L21L
Ntp176
Ns(L19L
L22L
Ntp177
Ns(L16L
L22L
Ntp178
Ns(V18*D
p179
L4L
L8L
tp180
g17
s(V13*AD
p181
L6L
L8L
tp182
g14
s(V15*AD
p183
L2L
L8L
tp184
g4
s(V12*D
p185
L6L
L8L
tp186
g17
s(L21L
L22L
Ntp187
Ns(V19*A
p188
L3L
L8L
tp189
g17
s(V6*DS
p190
L5L
L8L
tp191
g4
s(V10*DS
p192
L10L
L8L
tp193
g14
s(V10*
p194
L4L
L8L
tp195
g4
s(V11*
p196
L3L
L8L
tp197
g4
s(V14*DS
p198
L21L
Ntp199
Ns(V14*
p200
L9L
L8L
tp201
g4
s(V19*AD
p202
L10L
L8L
tp203
g17
s(V16*
p204
L9L
L8L
tp205
g17
s(L12L
L21L
Ntp206
Ns(V14*AD
p207
L21L
Ntp208
Ns(V14*
p209
L4L
L8L
tp210
g17
s(V7*
p211
L3L
L8L
tp212
g4
s(V20*DS
p213
L11L
L8L
tp214
g17
s(V13*
p215
L6L
L8L
tp216
g17
s(L20L
L19L
Ntp217
Ns(V20*DS
p218
L6L
L8L
tp219
g17
s(V19*
p220
L3L
L8L
tp221
g17
s(L4L
L26L
Ntp222
Ns(g24
L11L
L8L
tp223
g14
s(V6*
p224
L4L
L8L
tp225
g4
s(L17L
L19L
Ntp226
Ns(V13*
p227
L9L
L8L
tp228
g4
s(V16*DS
p229
L21L
Ntp230
Ns(V13*A
p231
L5L
L8L
tp232
g4
s(L11L
L21L
Ntp233
Ns(V19*AD
p234
L6L
L8L
tp235
g14
s(L11L
L22L
Ntp236
Ns(V14*D
p237
L3L
L8L
tp238
g17
s(V10*D
p239
L2L
L8L
tp240
g14
s(L21L
L6L
L8L
tp241
g17
s(V12*ADS
p242
L2L
L8L
tp243
g4
s(V6*DS
p244
L21L
Ntp245
Ns(L6L
L24L
Ntp246
Ns(V16*AD
p247
L7L
L8L
tp248
g4
s(L21L
L9L
L8L
tp249
g17
s(V9*D
p250
L6L
L8L
tp251
g14
s(L13L
L22L
Ntp252
Ns(g88
L11L
L8L
tp253
g4
s(V17*
p254
L11L
L8L
tp255
g17
s(V16*A
p256
L3L
L8L
tp257
g4
s(V18*
p258
L7L
L8L
tp259
g17
s(V15*
p260
L6L
L8L
tp261
g17
s(V19*
p262
L2L
L8L
tp263
g17
s(V12*
p264
L4L
L8L
tp265
g17
s(V14*AD
p266
L2L
L8L
tp267
g4
s(V15*
p268
L11L
L8L
tp269
g4
s(V19*
p270
L21L
Ntp271
Ns(V13*A
p272
L4L
L8L
tp273
g4
s(V8*D
p274
L6L
L8L
tp275
g14
s(V18*DS
p276
L6L
L8L
tp277
g17
s(L24L
NNtp278
Ns(V6*DS
p279
L8L
L8L
tp280
g4
s(V17*A
p281
L2L
L8L
tp282
g4
s(V9*D
p283
L10L
L8L
tp284
g4
s(V8*DS
p285
L5L
L8L
tp286
g14
s(L12L
L19L
Ntp287
Ns(L12L
L26L
Ntp288
Ns(V20*D
p289
L4L
L8L
tp290
g17
s(V21*A
p291
L7L
L8L
tp292
g17
s(L17L
L17L
Ntp293
Ns(V17*
p294
L10L
L8L
tp295
g17
s(V18*D
p296
L3L
L8L
tp297
g17
s(V13*AD
p298
L5L
L8L
tp299
g14
s(V14*
p300
L21L
Ntp301
Ns(V15*AD
p302
L3L
L8L
tp303
g14
s(V8*D
p304
L10L
L8L
tp305
g4
s(V12*D
p306
L7L
L8L
tp307
g4
s(V18*DS
p308
L10L
L8L
tp309
g17
s(L10L
L22L
Ntp310
Ns(g119
L11L
L8L
tp311
g14
s(V10*
p312
L5L
L8L
tp313
g4
s(L6L
L18L
Ntp314
Ns(V8*
p315
L3L
L8L
tp316
g4
s(g254
L21L
Ntp317
Ns(V14*
p318
L8L
L8L
tp319
g4
s(V19*AD
p320
L11L
L8L
tp321
g17
s(V20*D
p322
L5L
L8L
tp323
g17
s(V18*DS
p324
L21L
Ntp325
Ns(V8*D
p326
L21L
Ntp327
Ns(L13L
L25L
Ntp328
Ns(V7*
p329
L4L
L8L
tp330
g4
s(V20*DS
p331
L10L
L8L
tp332
g17
s(L4L
L22L
Ntp333
Ns(V16*DS
p334
L9L
L8L
tp335
g17
s(V13*
p336
L5L
L8L
tp337
g17
s(L18L
L20L
Ntp338
Ns(V6*
p339
L3L
L8L
tp340
g4
s(L18L
L26L
Ntp341
Ns(V13*
p342
L8L
L8L
tp343
g4
s(L11L
L26L
Ntp344
Ns(V15*D
p345
L21L
Ntp346
Ns(L11L
L25L
Ntp347
Ns(V15*D
p348
L2L
L8L
tp349
g17
s(V14*D
p350
L4L
L8L
tp351
g17
s(V5*D
p352
L2L
L8L
tp353
g4
s(L21L
L5L
L8L
tp354
g17
s(V7*
p355
L8L
L8L
tp356
g4
s(L21L
L8L
L8L
tp357
g17
s(V9*D
p358
L7L
L8L
tp359
g14
s(L10L
L26L
Ntp360
Ns(V12*
p361
L8L
L8L
tp362
g4
s(L10L
L25L
Ntp363
Ns(V15*
p364
L7L
L8L
tp365
g4
s(V12*
p366
L5L
L8L
tp367
g17
s(V20*
p368
L9L
L8L
tp369
g17
s(V13*A
p370
L7L
L8L
tp371
g4
s(V6*DS
p372
L4L
L8L
tp373
g4
s(V8*D
p374
L7L
L8L
tp375
g4
s(V18*DS
p376
L7L
L8L
tp377
g17
s(g244
L11L
L8L
tp378
g4
s(V17*A
p379
L3L
L8L
tp380
g4
s(L13L
L20L
Ntp381
Ns(V15*AD
p382
L21L
Ntp383
Ns(V8*DS
p384
L10L
L8L
tp385
g4
s(V21*
p386
L2L
L8L
tp387
g17
s(V21*A
p388
L6L
L8L
tp389
g17
s(V13*D
p390
L9L
L8L
tp391
g4
s(V17*
p392
L9L
L8L
tp393
g17
s(L14L
L23L
Ntp394
Ns(V18*D
p395
L2L
L8L
tp396
g17
s(V20*
p397
L5L
L8L
tp398
g17
s(V13*AD
p399
L4L
L8L
tp400
g14
s(V15*AD
p401
L4L
L8L
tp402
g14
s(V12*D
p403
L8L
L8L
tp404
g4
s(L28L
NNtp405
Ns(L12L
L18L
Ntp406
Ns(V18*A
p407
L7L
L8L
tp408
g17
s(L16L
L18L
Ntp409
Ns(V10*
p410
L2L
L8L
tp411
g4
s(V19*AD
p412
L7L
L8L
tp413
g17
s(V8*
p414
L2L
L8L
tp415
g4
s(g83
L11L
L8L
tp416
g4
s(V13*D
p417
L5L
L8L
tp418
g17
s(V21*
p419
L3L
L8L
tp420
g17
s(V19*AD
p421
L8L
L8L
tp422
g17
s(V22*
p423
NNtp424
Ns(V20*D
p425
L6L
L8L
tp426
g17
s(L9L
L19L
Ntp427
Ns(V7*
p428
L5L
L8L
tp429
g4
s(V17*AD
p430
L7L
L8L
tp431
g4
s(V15*AD
p432
L8L
L8L
tp433
g4
s(V12*DS
p434
L21L
Ntp435
Ns(V16*DS
p436
L8L
L8L
tp437
g17
s(V13*
p438
L4L
L8L
tp439
g17
s(V6*
p440
L2L
L8L
tp441
g4
s(V12*D
p442
L9L
L8L
tp443
g4
s(L14L
L24L
Ntp444
Ns(L13L
L17L
Ntp445
Ns(V15*D
p446
L3L
L8L
tp447
g17
s(L13L
L23L
Ntp448
Ns(V14*D
p449
L5L
L8L
tp450
g17
s(L6L
L23L
Ntp451
Ns(V5*D
p452
L3L
L8L
tp453
g4
s(L21L
L4L
L8L
tp454
g17
s(V9*D
p455
L11L
L8L
tp456
g4
s(V12*DS
p457
L2L
L8L
tp458
g17
s(V26*
p459
NNtp460
Ns(V16*A
p461
L8L
L8L
tp462
g4
s(V9*D
p463
L4L
L8L
tp464
g14
s(L11L
L18L
Ntp465
Ns(V12*
p466
L9L
L8L
tp467
g4
s(V13*D
p468
L21L
Ntp469
Ns(V20*A
p470
L10L
L8L
tp471
g17
s(L18L
L23L
Ntp472
Ns(g326
L11L
L8L
tp473
g4
s(g324
L11L
L8L
tp474
g17
s(V20*
p475
L8L
L8L
tp476
g17
s(V13*A
p477
L6L
L8L
tp478
g4
s(V6*DS
p479
L7L
L8L
tp480
g4
s(V8*D
p481
L4L
L8L
tp482
g14
s(V18*DS
p483
L4L
L8L
tp484
g17
s(V14*DS
p485
L10L
L8L
tp486
g4
s(L15L
L17L
Ntp487
Ns(V18*AD
p488
L3L
L8L
tp489
g14
s(V6*DS
p490
L10L
L8L
tp491
g4
s(L10L
L24L
Ntp492
Ns(V12*DS
p493
L3L
L8L
tp494
g17
s(V21*A
p495
L9L
L8L
tp496
g17
s(V13*D
p497
L8L
L8L
tp498
g4
s(V17*
p499
L8L
L8L
tp500
g17
s(V14*A
p501
L3L
L8L
tp502
g4
s(L17L
L20L
Ntp503
Ns(V20*A
p504
L6L
L8L
tp505
g17
s(L12L
L23L
Ntp506
Ns(V13*AD
p507
L11L
L8L
tp508
g4
s(L12L
L25L
Ntp509
Ns(V15*AD
p510
L5L
L8L
tp511
g14
s(V14*DS
p512
L6L
L8L
tp513
g17
s(V18*A
p514
L6L
L8L
tp515
g17
s(V19*A
p516
L6L
L8L
tp517
g17
s(V10*
p518
L3L
L8L
tp519
g4
s(V11*
p520
L6L
L8L
tp521
g4
s(V19*AD
p522
L4L
L8L
tp523
g14
s(V20*AD
p524
L11L
L8L
tp525
g17
s(V8*DS
p526
L8L
L8L
tp527
g4
s(V7*
p528
L9L
L8L
tp529
g4
s(V19*AD
p530
L9L
L8L
tp531
g17
s(L11L
L23L
Ntp532
Ns(V20*D
p533
L7L
L8L
tp534
g17
s(V21*A
p535
L8L
L8L
tp536
g17
s(L11L
L17L
Ntp537
Ns(L4L
L25L
Ntp538
Ns(V17*AD
p539
L6L
L8L
tp540
g14
s(V7*
p541
L6L
L8L
tp542
g4
s(L4L
L19L
Ntp543
Ns(g229
L11L
L8L
tp544
g4
s(V13*
p545
L3L
L8L
tp546
g17
s(L16L
L20L
Ntp547
Ns(V13*AD
p548
L10L
L8L
tp549
g4
s(L18L
L17L
Ntp550
Ns(V19*A
p551
L10L
L8L
tp552
g17
s(L9L
L24L
Ntp553
Ns(V12*D
p554
L10L
L8L
tp555
g4
s(L13L
L26L
Ntp556
Ns(V20*AD
p557
L7L
L8L
tp558
g17
s(L30L
NNtp559
Ns(V14*D
p560
L6L
L8L
tp561
g17
s(L21L
L3L
L8L
tp562
g17
s(V5*D
p563
L4L
L8L
tp564
g4
s(V10*D
p565
L7L
L8L
tp566
g14
s(V9*D
p567
L8L
L8L
tp568
g14
s(V17*D
p569
L11L
L8L
tp570
g17
s(V12*ADS
p571
L7L
L8L
tp572
g4
s(V16*AD
p573
L2L
L8L
tp574
g4
s(V16*A
p575
L9L
L8L
tp576
g4
s(V7*D
p577
L8L
L8L
tp578
g4
s(V6*D
p579
L3L
L8L
tp580
g4
s(V9*D
p581
L5L
L8L
tp582
g14
s(L16L
L24L
Ntp583
Ns(L12L
L20L
Ntp584
Ns(V18*
p585
L2L
L8L
tp586
g17
s(V19*
p587
L7L
L8L
tp588
g17
s(V20*
p589
L4L
L8L
tp590
g17
s(V19*D
p591
L2L
L8L
tp592
g17
s(g43
L11L
L8L
tp593
g17
s(L17L
L23L
Ntp594
Ns(V18*DS
p595
L8L
L8L
tp596
g17
s(V8*D
p597
L8L
L8L
tp598
g4
s(L6L
L21L
Ntp599
Ns(V20*
p600
L11L
L8L
tp601
g17
s(V6*DS
p602
L6L
L8L
tp603
g4
s(L10L
L20L
Ntp604
Ns(V8*D
p605
L5L
L8L
tp606
g14
s(V18*DS
p607
L5L
L8L
tp608
g17
s(g198
L11L
L8L
tp609
g4
s(L10L
L19L
Ntp610
Ns(V18*AD
p611
L2L
L8L
tp612
g14
s(V7*D
p613
L4L
L8L
tp614
g4
s(V13*D
p615
L4L
L8L
tp616
g17
s(V13*
p617
L21L
Ntp618
Ns(V15*A
p619
L2L
L8L
tp620
g4
s(V6*D
p621
L2L
L8L
tp622
g4
s(g270
L11L
L8L
tp623
g17
s(g468
L11L
L8L
tp624
g4
s(L14L
L22L
Ntp625
Ns(V14*A
p626
L2L
L8L
tp627
g4
s(V15*AD
p628
L9L
L8L
tp629
g4
s(L15L
L25L
Ntp630
Ns(V19*D
p631
L3L
L8L
tp632
g17
s(V15*AD
p633
L6L
L8L
tp634
g14
s(V4*DS
p635
L9L
L8L
tp636
g4
s(V18*A
p637
L5L
L8L
tp638
g17
s(V19*A
p639
L7L
L8L
tp640
g17
s(V8*
p641
L9L
L8L
tp642
g4
s(L18L
L24L
Ntp643
Ns(V11*
p644
L7L
L8L
tp645
g4
s(V19*AD
p646
L5L
L8L
tp647
g14
s(V20*AD
p648
L10L
L8L
tp649
g17
s(V8*DS
p650
L9L
L8L
tp651
g4
s(V7*
p652
L10L
L8L
tp653
g4
s(V15*A
p654
L3L
L8L
tp655
g4
s(V17*
p656
L3L
L8L
tp657
g17
s(V21*A
p658
L11L
L8L
tp659
g17
s(L15L
L21L
Ntp660
Ns(V17*AD
p661
L5L
L8L
tp662
g14
s(V7*
p663
L7L
L8L
tp664
g4
s(V11*D
p665
L2L
L8L
tp666
g14
s(V4*DS
p667
L5L
L8L
tp668
g4
s(V16*DS
p669
L10L
L8L
tp670
g17
s(V13*
p671
L2L
L8L
tp672
g17
s(V13*AD
p673
L9L
L8L
tp674
g4
s(V18*
p675
L21L
Ntp676
Ns(L21L
NNtp677
Ns(V12*D
p678
L11L
L8L
tp679
g4
s(V14*D
p680
L7L
L8L
tp681
g4
s(V5*D
p682
L5L
L8L
tp683
g4
s(V10*D
p684
L6L
L8L
tp685
g14
s(V9*D
p686
L9L
L8L
tp687
g4
s(V17*D
p688
L10L
L8L
tp689
g17
s(L21L
L2L
L8L
tp690
g17
s(V12*ADS
p691
L6L
L8L
tp692
g4
s(V16*AD
p693
L3L
L8L
tp694
g14
s(V18*A
p695
L21L
Ntp696
Ns(V7*D
p697
L9L
L8L
tp698
g4
s(V16*A
p699
L10L
L8L
tp700
g4
s(V27*
p701
NNtp702
Ns(L8L
L18L
Ntp703
Ns(L8L
L21L
Ntp704
Ns(L6L
L19L
Ntp705
Ns(V20*A
p706
L7L
L8L
tp707
g17
s(V18*
p708
L3L
L8L
tp709
g17
s(V15*
p710
L2L
L8L
tp711
g17
s(V19*
p712
L6L
L8L
tp713
g17
s(L6L
L25L
Ntp714
Ns(g213
L21L
Ntp715
Ns(V20*
p716
L7L
L8L
tp717
g17
s(V20*A
p718
L8L
L8L
tp719
g17
s(V17*AD
p720
L21L
Ntp721
Ns(V8*D
p722
L9L
L8L
tp723
g4
s(V18*DS
p724
L9L
L8L
tp725
g17
s(V14*DS
p726
L7L
L8L
tp727
g4
s(V9*
p728
L3L
L8L
tp729
g4
s(V20*
p730
L10L
L8L
tp731
g17
s(V14*DS
p732
L8L
L8L
tp733
g4
s(V18*AD
p734
L5L
L8L
tp735
g14
s(g172
L21L
Ntp736
Ns(V13*D
p737
L7L
L8L
tp738
g4
s(L20L
L25L
Ntp739
Ns(L9L
L17L
Ntp740
Ns(V13*D
p741
L10L
L8L
tp742
g4
s(L9L
L22L
Ntp743
Ns(V14*A
p744
L5L
L8L
tp745
g4
s(V15*AD
p746
L10L
L8L
tp747
g4
s(V16*D
p748
L10L
L8L
tp749
g17
s(V19*A
p750
L11L
L8L
tp751
g17
s(V15*AD
p752
L7L
L8L
tp753
g4
s(V4*DS
p754
L8L
L8L
tp755
g4
s(V10*DS
p756
L2L
L8L
tp757
g14
s(V18*AD
p758
L9L
L8L
tp759
g4
s(V18*A
p760
L4L
L8L
tp761
g17
s(V19*A
p762
L4L
L8L
tp763
g17
s(V8*
p764
L8L
L8L
tp765
g4
s(V20*AD
p766
L6L
L8L
tp767
g17
s(V11*
p768
L4L
L8L
tp769
g4
s(V19*AD
p770
L2L
L8L
tp771
g14
s(L25L
NNtp772
Ns(L8L
L24L
Ntp773
Ns(V20*AD
p774
L9L
L8L
tp775
g17
s(L14L
L20L
Ntp776
Ns(V21*
p777
L6L
L8L
tp778
g17
s(V7*
p779
L11L
L8L
tp780
g4
s(V24*
p781
NNtp782
Ns(V16*
p783
L2L
L8L
tp784
g17
s(V21*A
p785
L10L
L8L
tp786
g17
s(g569
L21L
Ntp787
Ns(V16*D
p788
L6L
L8L
tp789
g17
s(V17*AD
p790
L4L
L8L
tp791
g14
s(L21L
L26L
Ntp792
Ns(L26L
NNtp793
Ns(V11*D
p794
L3L
L8L
tp795
g14
s(L21L
L19L
Ntp796
Ns(V16*DS
p797
L5L
L8L
tp798
g17
s(V13*AD
p799
L8L
L8L
tp800
g4
s(L11L
L19L
Ntp801
Ns(L11L
L20L
Ntp802
Ns(V14*A
p803
L21L
Ntp804
Ns(L14L
L18L
Ntp805
Ns(L4L
L23L
Ntp806
Ns(V8*DS
p807
L2L
L8L
tp808
g4
s(V21*
p809
L10L
L8L
tp810
g17
s(L18L
L21L
Ntp811
Ns(V7*D
p812
L5L
L8L
tp813
g4
s(V14*D
p814
L8L
L8L
tp815
g4
s(V10*D
p816
L5L
L8L
tp817
g14
s(V5*D
p818
L6L
L8L
tp819
g4
s(V17*D
p820
L9L
L8L
tp821
g17
s(V12*ADS
p822
L5L
L8L
tp823
g4
s(V16*
p824
L3L
L8L
tp825
g17
s(V16*A
p826
L11L
L8L
tp827
g4
s(V7*D
p828
L10L
L8L
tp829
g4
s(L15L
L19L
Ntp830
Ns(V19*
p831
L10L
L8L
tp832
g17
s(V20*A
p833
L4L
L8L
tp834
g17
s(V16*DS
p835
L4L
L8L
tp836
g17
s(V15*
p837
L3L
L8L
tp838
g17
s(V19*
p839
L5L
L8L
tp840
g17
s(V20*
p841
L6L
L8L
tp842
g17
s(g826
L21L
Ntp843
Ns(V20*A
p844
L9L
L8L
tp845
g17
s(L6L
L20L
Ntp846
Ns(V9*
p847
L2L
L8L
tp848
g4
s(V14*DS
p849
L4L
L8L
tp850
g17
s(L8L
L26L
Ntp851
Ns(V13*A
p852
L3L
L8L
tp853
g4
s(L12L
L24L
Ntp854
Ns(V14*DS
p855
L9L
L8L
tp856
g4
s(V18*AD
p857
L4L
L8L
tp858
g14
s(V14*D
p859
L9L
L8L
tp860
g4
s(V12*DS
p861
L6L
L8L
tp862
g17
s(V13*D
p863
L6L
L8L
tp864
g17
s(V17*
p865
L2L
L8L
tp866
g17
s(L27L
NNtp867
Ns(g128
L11L
L8L
tp868
g17
s(L10L
L23L
Ntp869
Ns(V14*A
p870
L4L
L8L
tp871
g4
s(g382
L11L
L8L
tp872
g4
s(V4*DS
p873
L4L
L8L
tp874
g4
s(V16*D
p875
L11L
L8L
tp876
g4
s(V19*A
p877
L8L
L8L
tp878
g17
s(g125
L11L
L8L
tp879
g4
s(V10*DS
p880
L3L
L8L
tp881
g14
s(g695
L11L
L8L
tp882
g17
s(V19*A
p883
L5L
L8L
tp884
g17
s(V14*D
p885
L21L
Ntp886
Ns(V8*
p887
L11L
L8L
tp888
g4
s(V20*AD
p889
L5L
L8L
tp890
g17
s(L9L
L25L
Ntp891
Ns(V12*DS
p892
L10L
L8L
tp893
g4
s(V11*
p894
L5L
L8L
tp895
g4
s(V19*AD
p896
L3L
L8L
tp897
g14
s(L9L
L23L
Ntp898
Ns(V14*
p899
L3L
L8L
tp900
g17
s(V20*AD
p901
L8L
L8L
tp902
g17
s(L9L
L20L
Ntp903
Ns(V21*
p904
L7L
L8L
tp905
g17
s(V20*D
p906
L2L
L8L
tp907
g17
s(L16L
L19L
Ntp908
Ns(g720
L11L
L8L
tp909
g4
s(V11*D
p910
L4L
L8L
tp911
g14
s(V6*
p912
L11L
L8L
tp913
g4
s(L11L
L24L
Ntp914
Ns(V18*A
p915
L10L
L8L
tp916
g4
s(V21*
p917
L21L
Ntp918
Ns(L29L
NNtp919
Ns(V16*AD
p920
L8L
L8L
tp921
g4
s(V7*D
p922
L6L
L8L
tp923
g4
s(V14*
p924
L2L
L8L
tp925
g17
s(L21L
L24L
Ntp926
Ns(V10*D
p927
L4L
L8L
tp928
g14
s(V5*D
p929
L7L
L8L
tp930
g4
s(V17*D
p931
L8L
L8L
tp932
g17
s(V12*ADS
p933
L4L
L8L
tp934
g4
s(L14L
L25L
Ntp935
Ns(L10L
L18L
Ntp936
Ns(V16*A
p937
L4L
L8L
tp938
g4
s(V7*D
p939
L11L
L8L
tp940
g4
s(L10L
L17L
Ntp941
Ns(V18*
p942
L8L
L8L
tp943
g17
s(V19*
p944
L9L
L8L
tp945
g17
s(V17*AD
p946
L10L
L8L
tp947
g4
s(V13*AD
p948
L3L
L8L
tp949
g14
s(V20*A
p950
L5L
L8L
tp951
g17
s(V16*DS
p952
L7L
L8L
tp953
g17
s(V19*
p954
L4L
L8L
tp955
g17
s(L8L
L17L
Ntp956
Ns(L18L
L19L
Ntp957
Ns(V9*
p958
L5L
L8L
tp959
g4
s(V14*DS
p960
L5L
L8L
tp961
g17
s(V18*AD
p962
L8L
L8L
tp963
g17
s(L21L
L23L
Ntp964
Ns(V6*DS
p965
L3L
L8L
tp966
g4
s(V13*A
p967
L2L
L8L
tp968
g4
s(V18*AD
p969
L7L
L8L
tp970
g17
s(V15*D
p971
L8L
L8L
tp972
g4
s(g658
L21L
Ntp973
Ns(V14*D
p974
L10L
L8L
tp975
g4
s(V12*DS
p976
L7L
L8L
tp977
g4
s(V16*A
p978
L5L
L8L
tp979
g4
s(V18*D
p980
L10L
L8L
tp981
g17
s(V6*D
p982
L7L
L8L
tp983
g4
s(V16*D
p984
L7L
L8L
tp985
g17
s(V14*A
p986
L7L
L8L
tp987
g4
s(V4*DS
p988
L7L
L8L
tp989
g4
s(V9*
p990
L9L
L8L
tp991
g4
s(V16*D
p992
L8L
L8L
tp993
g17
s(g207
L11L
L8L
tp994
g4
s(V19*D
p995
L6L
L8L
tp996
g17
s(V19*A
p997
L9L
L8L
tp998
g17
s(L16L
L26L
Ntp999
Ns(V4*DS
p1000
L10L
L8L
tp1001
g4
s(V10*DS
p1002
L4L
L8L
tp1003
g14
s(V10*
p1004
L10L
L8L
tp1005
g4
s(L9L
L18L
Ntp1006
Ns(V15*D
p1007
L4L
L8L
tp1008
g17
s(V8*
p1009
L10L
L8L
tp1010
g4
s(V20*AD
p1011
L4L
L8L
tp1012
g17
s(V8*DS
p1013
L3L
L8L
tp1014
g4
s(g917
L11L
L8L
tp1015
g17
s(V11*
p1016
L10L
L8L
tp1017
g4
s(g875
L21L
Ntp1018
Ns(V6*D
p1019
L11L
L8L
tp1020
g4
s(V21*
p1021
L4L
L8L
tp1022
g17
s(V15*A
p1023
L6L
L8L
tp1024
g4
s(V20*D
p1025
L3L
L8L
tp1026
g17
s(V14*AD
p1027
L7L
L8L
tp1028
g4
s(V19*D
p1029
L10L
L8L
tp1030
g17
s(V11*D
p1031
L5L
L8L
tp1032
g14
s(V6*
p1033
L10L
L8L
tp1034
g4
s(L23L
NNtp1035
Ns(L8L
L20L
Ntp1036
Ns(L8L
L23L
Ntp1037
Ns(V18*A
p1038
L9L
L8L
tp1039
g4
s(L21L
L20L
Ntp1040
Ns(V11*
p1041
L11L
L8L
tp1042
g4
s(V15*A
p1043
L10L
L8L
tp1044
g4
s(L16L
L21L
Ntp1045
Ns(V16*AD
p1046
L9L
L8L
tp1047
g4
s(V7*D
p1048
L7L
L8L
tp1049
g4
s(V5*D
p1050
L8L
L8L
tp1051
g4
s(V10*D
p1052
L11L
L8L
tp1053
g14
s(V17*D
p1054
L7L
L8L
tp1055
g17
s(V12*ADS
p1056
L11L
L8L
tp1057
g4
s(L19L
L17L
Ntp1058
Ns(V18*
p1059
L9L
L8L
tp1060
g17
s(g507
L21L
Ntp1061
Ns(V19*
p1062
L8L
L8L
tp1063
g17
s(V20*DS
p1064
L3L
L8L
tp1065
g17
s(V17*AD
p1066
L9L
L8L
tp1067
g4
s(V12*
p1068
L2L
L8L
tp1069
g17
s(V20*A
p1070
L2L
L8L
tp1071
g17
s(V16*DS
p1072
L6L
L8L
tp1073
g17
s(L20L
L24L
Ntp1074
Ns(L20L
L18L
Ntp1075
Ns(L15L
L23L
Ntp1076
Ns(V9*
p1077
L4L
L8L
tp1078
g4
s(V14*DS
p1079
L2L
L8L
tp1080
g17
s(g320
L21L
Ntp1081
Ns(g170
L11L
L8L
tp1082
g17
s(V6*DS
p1083
L2L
L8L
tp1084
g4
s(g434
L11L
L8L
tp1085
g4
s(V18*AD
p1086
L6L
L8L
tp1087
g14
s(V15*D
p1088
L9L
L8L
tp1089
g17
s(g885
L11L
L8L
tp1090
g4
s(V5*D
p1091
L9L
L8L
tp1092
g4
s(V10*D
p1093
L10L
L8L
tp1094
g14
s(V17*D
p1095
L6L
L8L
tp1096
g17
s(V12*DS
p1097
L4L
L8L
tp1098
g17
s(V12*ADS
p1099
L10L
L8L
tp1100
g4
s(L17L
L22L
Ntp1101
Ns(V16*A
p1102
L6L
L8L
tp1103
g4
s(L8L
L25L
Ntp1104
Ns(L20L
L20L
Ntp1105
Ns(V18*D
p1106
L9L
L8L
tp1107
g17
s(V6*D
p1108
L6L
L8L
tp1109
g4
s(V16*D
p1110
L4L
L8L
tp1111
g17
s(V12*
p1112
L3L
L8L
tp1113
g17
s(g455
L21L
Ntp1114
Ns(L14L
L26L
Ntp1115
Ns(V14*A
p1116
L6L
L8L
tp1117
g4
s(V4*DS
p1118
L6L
L8L
tp1119
g4
s(V16*D
p1120
L9L
L8L
tp1121
g17
s(V14*AD
p1122
L10L
L8L
tp1123
g4
s(V19*D
p1124
L7L
L8L
tp1125
g17
s(V10*DS
p1126
L5L
L8L
tp1127
g14
s(g1056
L21L
Ntp1128
Ns(L21L
L17L
Ntp1129
Ns(V10*
p1130
L11L
L8L
tp1131
g4
s(g1052
L21L
Ntp1132
Ns(V8*
p1133
L5L
L8L
tp1134
g4
s(V20*AD
p1135
L3L
L8L
tp1136
g17
s(V21*
p1137
L8L
L8L
tp1138
g17
s(L15L
L24L
Ntp1139
Ns(V17*A
p1140
L10L
L8L
tp1141
g4
s(L19L
L24L
Ntp1142
Ns(V21*
p1143
L5L
L8L
tp1144
g17
s(L4L
L17L
Ntp1145
Ns(V15*A
p1146
L7L
L8L
tp1147
g4
s(L19L
L18L
Ntp1148
Ns(L9L
L26L
Ntp1149
Ns(V13*AD
p1150
L2L
L8L
tp1151
g4
s(L18L
L25L
Ntp1152
Ns(V11*D
p1153
L6L
L8L
tp1154
g14
s(V6*
p1155
L9L
L8L
tp1156
g4
s(V12*D
p1157
L2L
L8L
tp1158
g17
s(V13*A
p1159
L21L
Ntp1160
Ns(V18*A
p1161
L8L
L8L
tp1162
g17
s(L16L
L25L
Ntp1163
Ns(V8*
p1164
L4L
L8L
tp1165
g4
s(V17*A
p1166
L6L
L8L
tp1167
g4
s(V23*
p1168
NNtp1169
Ns(V11*
p1170
L8L
L8L
tp1171
g4
s(V16*AD
p1172
L10L
L8L
tp1173
g4
s(L8L
L22L
Ntp1174
Ns(V16*
p1175
L6L
L8L
tp1176
g17
s(V18*
p1177
L10L
L8L
tp1178
g17
s(L20L
L23L
Ntp1179
Ns(V17*AD
p1180
L8L
L8L
tp1181
g4
s(V20*DS
p1182
L2L
L8L
tp1183
g17
s(V20*A
p1184
L3L
L8L
tp1185
g17
s(g524
L21L
Ntp1186
Ns(V9*
p1187
L8L
L8L
tp1188
g4
s(V20*
p1189
L3L
L8L
tp1190
g17
s(V13*A
p1191
L9L
L8L
tp1192
g4
s(L18L
L18L
Ntp1193
Ns(L10L
L21L
Ntp1194
Ns(V9*
p1195
L7L
L8L
tp1196
g4
s(V14*DS
p1197
L3L
L8L
tp1198
g17
s(V18*AD
p1199
L10L
L8L
tp1200
g4
s(V15*D
p1201
L5L
L8L
tp1202
g17
s(V12*DS
p1203
L8L
L8L
tp1204
g4
s(L17L
L26L
Ntp1205
Ns(V16*
p1206
L10L
L8L
tp1207
g17
s(V19*D
p1208
L21L
Ntp1209
Ns(V15*D
p1210
L10L
L8L
tp1211
g17
s(L19L
L23L
Ntp1212
Ns(V10*D
p1213
L9L
L8L
tp1214
g14
s(V5*D
p1215
L10L
L8L
tp1216
g4
s(V6*D
p1217
L10L
L8L
tp1218
g4
s(V12*DS
p1219
L5L
L8L
tp1220
g17
s(V13*D
p1221
L3L
L8L
tp1222
g17
s(V17*D
p1223
L5L
L8L
tp1224
g17
s(V12*ADS
p1225
L9L
L8L
tp1226
g4
s(L20L
L26L
Ntp1227
Ns(V16*A
p1228
L7L
L8L
tp1229
g4
s(V17*
p1230
L7L
L8L
tp1231
g17
s(V18*D
p1232
L8L
L8L
tp1233
g17
s(V6*D
p1234
L5L
L8L
tp1235
g4
s(L9L
L21L
Ntp1236
Ns(V16*D
p1237
L5L
L8L
tp1238
g17
s(V14*AD
p1239
L6L
L8L
tp1240
g14
s(g1208
L11L
L8L
tp1241
g17
s(V14*A
p1242
L9L
L8L
tp1243
g4
s(V15*A
p1244
L21L
Ntp1245
Ns(V14*AD
p1246
L9L
L8L
tp1247
g4
s(V19*D
p1248
L4L
L8L
tp1249
g17
s(V16*AD
p1250
L21L
Ntp1251
Ns(V10*DS
p1252
L6L
L8L
tp1253
g14
s(V10*
p1254
L8L
L8L
tp1255
g4
s(L15L
L20L
Ntp1256
Ns(V20*AD
p1257
L2L
L8L
tp1258
g17
s(V21*
p1259
L9L
L8L
tp1260
g17
s(g1244
L11L
L8L
tp1261
g4
s(g123
L11L
L8L
tp1262
g4
s(V20*D
p1263
L8L
L8L
tp1264
g17
s(V21*A
p1265
L3L
L8L
tp1266
g17
s(V15*A
p1267
L4L
L8L
tp1268
g4
s(L21L
L25L
Ntp1269
Ns(V14*A
p1270
L8L
L8L
tp1271
g4
s(V11*D
p1272
L7L
L8L
tp1273
g14
s(V6*
p1274
L8L
L8L
tp1275
g4
s(V12*D
p1276
L3L
L8L
tp1277
g17
s(L14L
L21L
Ntp1278
Ns(g600
L21L
Ntp1279
Ns(L19L
L26L
Ntp1280
Ns(V8*
p1281
L7L
L8L
tp1282
g4
s(L8L
L19L
Ntp1283
Ns(V11*
p1284
L9L
L8L
tp1285
g4
s(g1250
L11L
L8L
tp1286
g4
s(V14*
p1287
L7L
L8L
tp1288
g4
s(V9*D
p1289
L2L
L8L
tp1290
g14
s(g678
L21L
Ntp1291
Ns(V16*
p1292
L7L
L8L
tp1293
g17
s(g675
L11L
L8L
tp1294
g17
s(V20*DS
p1295
L5L
L8L
tp1296
g17
s(L16L
L17L
Ntp1297
Ns(V9*
p1298
L11L
L8L
tp1299
g4
s(g750
L21L
Ntp1300
Ns(V18*A
p1301
L3L
L8L
tp1302
g17
s(V20*
p1303
L2L
L8L
tp1304
g17
s(V13*A
p1305
L8L
L8L
tp1306
g4
s(V8*D
p1307
L2L
L8L
tp1308
g4
s(V18*DS
p1309
L2L
L8L
tp1310
g17
s(L15L
L18L
Ntp1311
Ns(V9*
p1312
L6L
L8L
tp1313
g4
s(V15*D
p1314
L6L
L8L
tp1315
g17
s(g300
L11L
L8L
tp1316
g4
s(V12*DS
p1317
L9L
L8L
tp1318
g4
s(L20L
L22L
Ntp1319
Ns(g345
L11L
L8L
tp1320
g4
s(L20L
L17L
Ntp1321
Ns(L22L
NNtp1322
Ns(V17*D
p1323
L4L
L8L
tp1324
g17
s(V10*D
p1325
L8L
L8L
tp1326
g14
s(V9*D
p1327
L3L
L8L
tp1328
g14
s(V20*DS
p1329
L9L
L8L
tp1330
g17
s(V6*D
p1331
L9L
L8L
tp1332
g4
s(V5*D
p1333
L11L
L8L
tp1334
g4
s(V13*D
p1335
L2L
L8L
tp1336
g17
s(V17*AD
p1337
L3L
L8L
tp1338
g14
s(V12*ADS
p1339
L8L
L8L
tp1340
g4
s(V17*
p1341
L6L
L8L
tp1342
g17
s(V18*D
p1343
L7L
L8L
tp1344
g17
s(V6*D
p1345
L4L
L8L
tp1346
g4
s(V16*D
p1347
L2L
L8L
tp1348
g17
s(V19*D
p1349
L8L
L8L
tp1350
g17
s(V14*AD
p1351
L5L
L8L
tp1352
g14
s(V15*
p1353
L8L
L8L
tp1354
g4
s(L17L
L18L
Ntp1355
Ns(V14*AD
p1356
L8L
L8L
tp1357
g4
s(V19*D
p1358
L5L
L8L
tp1359
g17
s(L17L
L24L
Ntp1360
Ns(V8*D
p1361
L3L
L8L
tp1362
g4
s(V18*DS
p1363
L3L
L8L
tp1364
g17
s(V10*DS
p1365
L7L
L8L
tp1366
g14
s(L19L
L25L
Ntp1367
Ns(V10*
p1368
L9L
L8L
tp1369
g4
s(V17*A
p1370
L7L
L8L
tp1371
g4
s(g1019
L21L
Ntp1372
Ns(V8*DS
p1373
L6L
L8L
tp1374
g14
s(g268
L21L
Ntp1375
Ns(V15*A
p1376
L8L
L8L
tp1377
g4
s(V17*A
p1378
L8L
L8L
tp1379
g4
s(V20*D
p1380
L9L
L8L
tp1381
g17
s(V21*A
p1382
L2L
L8L
tp1383
g17
s(L21L
L21L
Ntp1384
Ns(V15*A
p1385
L5L
L8L
tp1386
g4
s(L21L
L18L
Ntp1387
Ns(L14L
L19L
Ntp1388
Ns(V18*D
p1389
L6L
L8L
tp1390
g17
s(L16L
L23L
Ntp1391
Ns(V15*
p1392
L4L
L8L
tp1393
g17
s(g803
L11L
L8L
tp1394
g4
s(V11*D
p1395
L8L
L8L
tp1396
g14
s(V6*
p1397
L7L
L8L
tp1398
g4
s(V12*D
p1399
L4L
L8L
tp1400
g17
s(L4L
L21L
Ntp1401
Ns(L12L
L22L
Ntp1402
Ns(V16*
p1403
L21L
Ntp1404
Ns(L12L
L17L
Ntp1405
Ns(V8*
p1406
L6L
L8L
tp1407
g4
s(g939
L21L
Ntp1408
Ns(g1403
L11L
L8L
tp1409
g4
s(V16*AD
p1410
L4L
L8L
tp1411
g14
s(V7*D
p1412
L2L
L8L
tp1413
g4
s(V14*
p1414
L6L
L8L
tp1415
g17
s(V16*
p1416
L4L
L8L
tp1417
g17
s(V18*
p1418
L4L
L8L
tp1419
g17
s(V20*DS
p1420
L4L
L8L
tp1421
g17
s(L6L
L22L
Ntp1422
Ns(V11*D
p1423
L9L
L8L
tp1424
g14
s(V6*
p1425
L6L
L8L
tp1426
g4
s(V16*DS
p1427
L3L
L8L
tp1428
g17
s(g617
L11L
L8L
tp1429
g4
s(V9*
p1430
L10L
L8L
tp1431
g4
s(g1159
L11L
L8L
tp1432
g4
s.