(dp0
(L13L
L21L
Ntp1
Ns(V12*
p2
L8L
L6L
tp3
VDraw
p4
s(V17*
p5
L10L
L6L
tp6
VStay
p7
s(L13L
L18L
Ntp8
Ns(L13L
L24L
Ntp9
Ns(V4*DS
p10
L6L
L6L
tp11
g4
s(V6*DS
p12
L4L
L6L
tp13
g4
s(L6L
L26L
Ntp14
Ns(V11*D
p15
L21L
Ntp16
Ns(L15L
L26L
Ntp17
Ns(V20*AD
p18
L3L
L6L
tp19
g7
s(V18*AD
p20
L6L
L6L
tp21
VDouble
p22
s(L19L
L19L
Ntp23
Ns(L19L
L20L
Ntp24
Ns(V20*A
p25
L21L
Ntp26
Ns(V20*D
p27
L5L
L6L
tp28
g7
s(V9*D
p29
L7L
L6L
tp30
g22
s(L17L
L21L
Ntp31
Ns(V16*DS
p32
L8L
L6L
tp33
g4
s(V16*DS
p34
L6L
L6L
tp35
g7
s(V16*D
p36
L9L
L6L
tp37
g7
s(V8*D
p38
L7L
L6L
tp39
g4
s(V18*DS
p40
L7L
L6L
tp41
g7
s(V19*AD
p42
L7L
L6L
tp43
g7
s(V6*DS
p44
L11L
L6L
tp45
g4
s(V14*D
p46
L5L
L6L
tp47
g7
s(V14*D
p48
L11L
L6L
tp49
g4
s(V25*
p50
NNtp51
Ns(V21*
p52
L5L
L6L
tp53
g7
s(V8*DS
p54
L21L
Ntp55
Ns(L4L
L24L
Ntp56
Ns(V18*D
p57
L8L
L6L
tp58
g7
s(V12*
p59
L21L
Ntp60
Ns(L4L
L18L
Ntp61
Ns(V18*D
p62
L2L
L6L
tp63
g7
s(V14*A
p64
L9L
L6L
tp65
g4
s(L14L
L17L
Ntp66
Ns(L18L
L22L
Ntp67
Ns(V13*A
p68
L9L
L6L
tp69
g4
s(V13*A
p70
L7L
L6L
tp71
g4
s(V18*AD
p72
L10L
L6L
tp73
g4
s(V17*A
p74
L6L
L6L
tp75
g4
s(V9*D
p76
L11L
L6L
tp77
g4
s(V17*A
p78
L10L
L6L
tp79
g4
s(V10*DS
p80
L21L
Ntp81
Ns(V19*AD
p82
L8L
L6L
tp83
g7
s(V17*A
p84
L21L
Ntp85
Ns(V4*DS
p86
L21L
Ntp87
Ns(V18*D
p88
L21L
Ntp89
Ns(L4L
L20L
Ntp90
Ns(V17*
p91
L7L
L6L
tp92
g7
s(V7*
p93
L5L
L6L
tp94
g4
s(V17*
p95
L9L
L6L
tp96
g7
s(V16*D
p97
L5L
L6L
tp98
g7
s(V11*D
p99
L7L
L6L
tp100
g22
s(V6*
p101
L8L
L6L
tp102
g4
s(V6*
p103
L2L
L6L
tp104
g4
s(V8*D
p105
L11L
L6L
tp106
g4
s(V18*DS
p107
L11L
L6L
tp108
g7
s(L15L
L22L
Ntp109
Ns(V18*A
p110
L6L
L6L
tp111
g7
s(V6*DS
p112
L7L
L6L
tp113
g4
s(V18*A
p114
L8L
L6L
tp115
g7
s(V21*
p116
L9L
L6L
tp117
g7
s(L13L
L19L
Ntp118
Ns(L20L
L21L
Ntp119
Ns(V16*AD
p120
L11L
L6L
tp121
g4
s(V16*
p122
L10L
L6L
tp123
g7
s(g54
L11L
L6L
tp124
g4
s(V20*D
p125
L8L
L6L
tp126
g7
s(V21*
p127
L3L
L6L
tp128
g7
s(L6L
L17L
Ntp129
Ns(V9*D
p130
L2L
L6L
tp131
g22
s(V12*DS
p132
L5L
L6L
tp133
g7
s(V20*D
p134
L6L
L6L
tp135
g7
s(L17L
L25L
Ntp136
Ns(V16*
p137
L6L
L6L
tp138
g7
s(V9*D
p139
L4L
L6L
tp140
g22
s(V17*AD
p141
L6L
L6L
tp142
g22
s(V28*
p143
NNtp144
Ns(V18*
p145
L11L
L6L
tp146
g7
s(V14*A
p147
L3L
L6L
tp148
g4
s(V17*AD
p149
L8L
L6L
tp150
g4
s(V16*DS
p151
L11L
L6L
tp152
g4
s(V20*DS
p153
L2L
L6L
tp154
g7
s(V12*D
p155
L3L
L6L
tp156
g7
s(V18*AD
p157
L21L
Ntp158
Ns(V20*
p159
L2L
L6L
tp160
g7
s(V12*D
p161
L9L
L6L
tp162
g4
s(L19L
L21L
Ntp163
Ns(V8*D
p164
L2L
L6L
tp165
g4
s(V18*DS
p166
L2L
L6L
tp167
g7
s(L19L
L22L
Ntp168
Ns(V20*
p169
L8L
L6L
tp170
g7
s(L16L
L22L
Ntp171
Ns(V8*D
p172
L4L
L6L
tp173
g22
s(V18*DS
p174
L4L
L6L
tp175
g7
s(V19*AD
p176
L4L
L6L
tp177
g22
s(V14*D
p178
L6L
L6L
tp179
g7
s(V7*
p180
L9L
L6L
tp181
g4
s(V16*A
p182
L9L
L6L
tp183
g4
s(L21L
L22L
Ntp184
Ns(V13*D
p185
L2L
L6L
tp186
g7
s(V16*A
p187
L7L
L6L
tp188
g4
s(V13*D
p189
L8L
L6L
tp190
g4
s(V18*D
p191
L7L
L6L
tp192
g7
s(V14*DS
p193
L21L
Ntp194
Ns(V15*AD
p195
L5L
L6L
tp196
g22
s(L12L
L21L
Ntp197
Ns(V14*AD
p198
L21L
Ntp199
Ns(V10*DS
p200
L7L
L6L
tp201
g22
s(V10*
p202
L9L
L6L
tp203
g4
s(V10*
p204
L3L
L6L
tp205
g4
s(V18*AD
p206
L3L
L6L
tp207
g22
s(L20L
L19L
Ntp208
Ns(V12*DS
p209
L9L
L6L
tp210
g4
s(L4L
L26L
Ntp211
Ns(V9*D
p212
L8L
L6L
tp213
g4
s(V12*DS
p214
L3L
L6L
tp215
g7
s(L17L
L19L
Ntp216
Ns(g151
L21L
Ntp217
Ns(V7*
p218
L6L
L6L
tp219
g4
s(L11L
L21L
Ntp220
Ns(L11L
L22L
Ntp221
Ns(V16*D
p222
L2L
L6L
tp223
g7
s(V11*D
p224
L8L
L6L
tp225
g22
s(L6L
L24L
Ntp226
Ns(V6*
p227
L7L
L6L
tp228
g4
s(V20*
p229
L4L
L6L
tp230
g7
s(g44
L21L
Ntp231
Ns(V18*A
p232
L3L
L6L
tp233
g7
s(V8*D
p234
L8L
L6L
tp235
g4
s(V18*DS
p236
L8L
L6L
tp237
g7
s(V18*A
p238
L5L
L6L
tp239
g7
s(L13L
L22L
Ntp240
Ns(V9*
p241
L6L
L6L
tp242
g4
s(V11*
p243
L7L
L6L
tp244
g4
s(V14*
p245
L11L
L6L
tp246
g4
s(V8*DS
p247
L6L
L6L
tp248
g22
s(V11*
p249
L9L
L6L
tp250
g4
s(V16*AD
p251
L4L
L6L
tp252
g22
s(V15*D
p253
L11L
L6L
tp254
g4
s(V8*DS
p255
L8L
L6L
tp256
g4
s(V13*D
p257
L4L
L6L
tp258
g7
s(V14*
p259
L7L
L6L
tp260
g4
s(V19*
p261
L21L
Ntp262
Ns(V16*AD
p263
L2L
L6L
tp264
g4
s(V21*A
p265
L2L
L6L
tp266
g7
s(V17*AD
p267
L3L
L6L
tp268
g22
s(V20*DS
p269
L9L
L6L
tp270
g7
s(V21*A
p271
L8L
L6L
tp272
g7
s(V17*AD
p273
L5L
L6L
tp274
g22
s(L24L
NNtp275
Ns(V6*D
p276
L4L
L6L
tp277
g4
s(V18*
p278
L4L
L6L
tp279
g7
s(V15*AD
p280
L9L
L6L
tp281
g4
s(V20*DS
p282
L5L
L6L
tp283
g7
s(V18*
p284
L2L
L6L
tp285
g7
s(V13*
p286
L2L
L6L
tp287
g7
s(L12L
L19L
Ntp288
Ns(V13*AD
p289
L10L
L6L
tp290
g4
s(V12*D
p291
L4L
L6L
tp292
g7
s(L12L
L26L
Ntp293
Ns(g25
L11L
L6L
tp294
g7
s(V14*AD
p295
L8L
L6L
tp296
g4
s(V12*D
p297
L10L
L6L
tp298
g4
s(V19*D
p299
L5L
L6L
tp300
g7
s(V20*
p301
L11L
L6L
tp302
g7
s(L17L
L17L
Ntp303
Ns(g193
L11L
L6L
tp304
g4
s(V
p305
g305
L6L
tp306
VBegin
p307
s(g245
L21L
Ntp308
Ns(L21L
L2L
L6L
tp309
g7
s(V5*D
p310
L5L
L6L
tp311
g4
s(V10*D
p312
L6L
L6L
tp313
g22
s(V17*D
p314
L10L
L6L
tp315
g7
s(V12*ADS
p316
L6L
L6L
tp317
g4
s(V7*
p318
L10L
L6L
tp319
g4
s(V10*D
p320
L8L
L6L
tp321
g22
s(V5*D
p322
L11L
L6L
tp323
g4
s(V17*D
p324
L4L
L6L
tp325
g7
s(V12*ADS
p326
L8L
L6L
tp327
g4
s(V16*A
p328
L10L
L6L
tp329
g4
s(V15*A
p330
L5L
L6L
tp331
g4
s(L10L
L22L
Ntp332
Ns(V13*D
p333
L11L
L6L
tp334
g4
s(V15*
p335
L4L
L6L
tp336
g7
s(V11*D
p337
L2L
L6L
tp338
g22
s(L6L
L18L
Ntp339
Ns(V17*
p340
L21L
Ntp341
Ns(V15*
p342
L2L
L6L
tp343
g7
s(V15*
p344
L8L
L6L
tp345
g4
s(V9*
p346
L10L
L6L
tp347
g4
s(V15*AD
p348
L6L
L6L
tp349
g22
s(g107
L21L
Ntp350
Ns(g105
L21L
Ntp351
Ns(L13L
L25L
Ntp352
Ns(V19*A
p353
L7L
L6L
tp354
g7
s(V10*DS
p355
L8L
L6L
tp356
g22
s(V10*
p357
L6L
L6L
tp358
g4
s(L4L
L22L
Ntp359
Ns(V15*D
p360
L7L
L6L
tp361
g4
s(L18L
L20L
Ntp362
Ns(V20*AD
p363
L10L
L6L
tp364
g7
s(L18L
L26L
Ntp365
Ns(V6*D
p366
L8L
L6L
tp367
g4
s(L11L
L26L
Ntp368
Ns(g253
L21L
Ntp369
Ns(V6*D
p370
L2L
L6L
tp371
g4
s(V20*A
p372
L7L
L6L
tp373
g7
s(L11L
L25L
Ntp374
Ns(V19*D
p375
L9L
L6L
tp376
g7
s(V14*AD
p377
L4L
L6L
tp378
g22
s(V20*
p379
L7L
L6L
tp380
g7
s(V19*D
p381
L3L
L6L
tp382
g7
s(V14*DS
p383
L7L
L6L
tp384
g4
s(L10L
L26L
Ntp385
Ns(V11*
p386
L2L
L6L
tp387
g4
s(V8*
p388
L8L
L6L
tp389
g4
s(L10L
L25L
Ntp390
Ns(V8*
p391
L6L
L6L
tp392
g4
s(V11*
p393
L4L
L6L
tp394
g4
s(V15*A
p395
L9L
L6L
tp396
g4
s(V7*D
p397
L3L
L6L
tp398
g4
s(V13*D
p399
L7L
L6L
tp400
g4
s(V15*A
p401
L3L
L6L
tp402
g4
s(V21*A
p403
L5L
L6L
tp404
g7
s(V7*D
p405
L9L
L6L
tp406
g4
s(V21*A
p407
L11L
L6L
tp408
g7
s(V13*
p409
L7L
L6L
tp410
g4
s(V15*AD
p411
L10L
L6L
tp412
g4
s(V13*AD
p413
L7L
L6L
tp414
g4
s(V15*AD
p415
L21L
Ntp416
Ns(L13L
L20L
Ntp417
Ns(V19*
p418
L6L
L6L
tp419
g7
s(V13*AD
p420
L9L
L6L
tp421
g4
s(V19*A
p422
L11L
L6L
tp423
g7
s(V13*
p424
L11L
L6L
tp425
g4
s(V20*A
p426
L8L
L6L
tp427
g7
s(V13*A
p428
L10L
L6L
tp429
g4
s(V10*DS
p430
L2L
L6L
tp431
g22
s(V20*AD
p432
L6L
L6L
tp433
g7
s(L14L
L23L
Ntp434
Ns(V14*DS
p435
L8L
L6L
tp436
g4
s(V10*D
p437
L3L
L6L
tp438
g22
s(L21L
L7L
L6L
tp439
g7
s(V12*ADS
p440
L3L
L6L
tp441
g4
s(V10*D
p442
L5L
L6L
tp443
g22
s(V5*D
p444
L6L
L6L
tp445
g4
s(V17*D
p446
L9L
L6L
tp447
g7
s(V12*ADS
p448
L5L
L6L
tp449
g4
s(V17*A
p450
L9L
L6L
tp451
g4
s(V17*D
p452
L3L
L6L
tp453
g7
s(L21L
L11L
L6L
tp454
g7
s(L12L
L18L
Ntp455
Ns(L28L
NNtp456
Ns(V12*
p457
L10L
L6L
tp458
g4
s(L16L
L18L
Ntp459
Ns(V17*
p460
L4L
L6L
tp461
g7
s(V12*
p462
L6L
L6L
tp463
g7
s(V4*DS
p464
L2L
L6L
tp465
g4
s(V22*
p466
NNtp467
Ns(V4*DS
p468
L8L
L6L
tp469
g4
s(V19*A
p470
L2L
L6L
tp471
g7
s(V9*
p472
L3L
L6L
tp473
g4
s(L9L
L19L
Ntp474
Ns(L11L
L20L
Ntp475
Ns(V19*A
p476
L4L
L6L
tp477
g7
s(V12*DS
p478
L21L
Ntp479
Ns(V7*D
p480
L5L
L6L
tp481
g4
s(V20*AD
p482
L9L
L6L
tp483
g7
s(V20*D
p484
L11L
L6L
tp485
g7
s(L14L
L24L
Ntp486
Ns(V16*
p487
L5L
L6L
tp488
g7
s(V19*
p489
L10L
L6L
tp490
g7
s(L13L
L17L
Ntp491
Ns(V14*A
p492
L4L
L6L
tp493
g4
s(V20*A
p494
L4L
L6L
tp495
g7
s(L13L
L23L
Ntp496
Ns(V14*AD
p497
L3L
L6L
tp498
g4
s(V14*A
p499
L10L
L6L
tp500
g4
s(L6L
L23L
Ntp501
Ns(V26*
p502
NNtp503
Ns(V16*DS
p504
L2L
L6L
tp505
g7
s(V14*DS
p506
L4L
L6L
tp507
g7
s(L11L
L18L
Ntp508
Ns(V8*
p509
L11L
L6L
tp510
g4
s(g333
L21L
Ntp511
Ns(V17*A
p512
L5L
L6L
tp513
g4
s(V19*AD
p514
L3L
L6L
tp515
g22
s(L18L
L23L
Ntp516
Ns(V17*
p517
L2L
L6L
tp518
g7
s(V7*D
p519
L10L
L6L
tp520
g4
s(L15L
L17L
Ntp521
Ns(V19*
p522
L3L
L6L
tp523
g7
s(V4*DS
p524
L4L
L6L
tp525
g4
s(L10L
L24L
Ntp526
Ns(V19*
p527
L5L
L6L
tp528
g7
s(V19*A
p529
L8L
L6L
tp530
g7
s(V13*A
p531
L5L
L6L
tp532
g4
s(V13*A
p533
L3L
L6L
tp534
g4
s(V20*AD
p535
L5L
L6L
tp536
g7
s(L17L
L20L
Ntp537
Ns(L12L
L23L
Ntp538
Ns(V18*AD
p539
L4L
L6L
tp540
g22
s(L12L
L25L
Ntp541
Ns(V16*
p542
L9L
L6L
tp543
g7
s(V16*
p544
L3L
L6L
tp545
g7
s(g340
L11L
L6L
tp546
g7
s(V16*DS
p547
L4L
L6L
tp548
g7
s(V16*D
p549
L11L
L6L
tp550
g4
s(L11L
L23L
Ntp551
Ns(g86
L11L
L6L
tp552
g4
s(V6*DS
p553
L5L
L6L
tp554
g4
s(L11L
L17L
Ntp555
Ns(L4L
L25L
Ntp556
Ns(V6*DS
p557
L3L
L6L
tp558
g4
s(L4L
L19L
Ntp559
Ns(V6*DS
p560
L9L
L6L
tp561
g4
s(V14*D
p562
L3L
L6L
tp563
g7
s(L16L
L20L
Ntp564
Ns(V8*DS
p565
L5L
L6L
tp566
g22
s(V7*D
p567
L6L
L6L
tp568
g4
s(V14*D
p569
L9L
L6L
tp570
g4
s(L18L
L17L
Ntp571
Ns(L9L
L24L
Ntp572
Ns(V21*
p573
L7L
L6L
tp574
g7
s(V20*D
p575
L4L
L6L
tp576
g7
s(V14*
p577
L4L
L6L
tp578
g7
s(L13L
L26L
Ntp579
Ns(V20*D
p580
L2L
L6L
tp581
g7
s(V18*D
p582
L10L
L6L
tp583
g7
s(V19*
p584
L9L
L6L
tp585
g7
s(V18*D
p586
L4L
L6L
tp587
g7
s(V14*A
p588
L7L
L6L
tp589
g4
s(L30L
NNtp590
Ns(V20*DS
p591
L6L
L6L
tp592
g7
s(V12*D
p593
L7L
L6L
tp594
g4
s(V18*AD
p595
L8L
L6L
tp596
g7
s(L16L
L24L
Ntp597
Ns(V19*AD
p598
L6L
L6L
tp599
g22
s(L12L
L20L
Ntp600
Ns(V17*A
p601
L2L
L6L
tp602
g4
s(V19*AD
p603
L10L
L6L
tp604
g7
s(L17L
L23L
Ntp605
Ns(L6L
L21L
Ntp606
Ns(V7*
p607
L3L
L6L
tp608
g4
s(V16*A
p609
L3L
L6L
tp610
g4
s(L10L
L20L
Ntp611
Ns(V16*D
p612
L7L
L6L
tp613
g4
s(L10L
L19L
Ntp614
Ns(V11*D
p615
L5L
L6L
tp616
g22
s(V6*
p617
L10L
L6L
tp618
g4
s(V4*DS
p619
L7L
L6L
tp620
g4
s(g15
L11L
L6L
tp621
g22
s(V6*
p622
L4L
L6L
tp623
g4
s(V15*
p624
L11L
L6L
tp625
g4
s(g424
L21L
Ntp626
Ns(V18*A
p627
L10L
L6L
tp628
g4
s(L14L
L22L
Ntp629
Ns(V8*DS
p630
L3L
L6L
tp631
g4
s(V21*
p632
L11L
L6L
tp633
g7
s(V14*
p634
L8L
L6L
tp635
g4
s(V18*AD
p636
L7L
L6L
tp637
g7
s(V16*AD
p638
L9L
L6L
tp639
g4
s(V9*D
p640
L10L
L6L
tp641
g4
s(L15L
L25L
Ntp642
Ns(V14*
p643
L2L
L6L
tp644
g7
s(V16*AD
p645
L7L
L6L
tp646
g4
s(V12*DS
p647
L7L
L6L
tp648
g4
s(V9*D
p649
L6L
L6L
tp650
g22
s(V20*DS
p651
L10L
L6L
tp652
g7
s(V18*
p653
L9L
L6L
tp654
g7
s(V17*AD
p655
L10L
L6L
tp656
g4
s(V16*DS
p657
L9L
L6L
tp658
g7
s(L18L
L24L
Ntp659
Ns(V18*
p660
L7L
L6L
tp661
g7
s(V16*DS
p662
L7L
L6L
tp663
g4
s(V16*D
p664
L8L
L6L
tp665
g4
s(V8*D
p666
L10L
L6L
tp667
g4
s(V18*DS
p668
L10L
L6L
tp669
g7
s(L15L
L21L
Ntp670
Ns(V8*D
p671
L6L
L6L
tp672
g22
s(V18*DS
p673
L6L
L6L
tp674
g7
s(V14*D
p675
L4L
L6L
tp676
g7
s(V8*DS
p677
L10L
L6L
tp678
g4
s(g145
L21L
Ntp679
Ns(V14*D
p680
L10L
L6L
tp681
g4
s(V21*
p682
L2L
L6L
tp683
g7
s(L21L
NNtp684
Ns(V21*
p685
L4L
L6L
tp686
g7
s(V21*A
p687
L6L
L6L
tp688
g7
s(V16*A
p689
L5L
L6L
tp690
g4
s(V18*D
p691
L9L
L6L
tp692
g7
s(V18*D
p693
L3L
L6L
tp694
g7
s(V15*
p695
L7L
L6L
tp696
g4
s(V13*AD
p697
L4L
L6L
tp698
g22
s(V15*AD
p699
L3L
L6L
tp700
g4
s(V18*A
p701
L21L
Ntp702
Ns(V27*
p703
NNtp704
Ns(V12*D
p705
L8L
L6L
tp706
g4
s(V13*
p707
L8L
L6L
tp708
g4
s(L8L
L18L
Ntp709
Ns(L8L
L21L
Ntp710
Ns(V10*DS
p711
L5L
L6L
tp712
g22
s(V10*
p713
L11L
L6L
tp714
g4
s(g157
L11L
L6L
tp715
g7
s(g80
L11L
L6L
tp716
g22
s(V10*
p717
L5L
L6L
tp718
g4
s(L6L
L19L
Ntp719
Ns(g478
L11L
L6L
tp720
g4
s(L6L
L25L
Ntp721
Ns(V20*DS
p722
L21L
Ntp723
Ns(V7*
p724
L8L
L6L
tp725
g4
s(V17*AD
p726
L21L
Ntp727
Ns(L21L
L8L
L6L
tp728
g7
s(V7*
p729
L4L
L6L
tp730
g4
s(V16*D
p731
L4L
L6L
tp732
g7
s(V11*D
p733
L6L
L6L
tp734
g22
s(V6*
p735
L9L
L6L
tp736
g4
s(g484
L21L
Ntp737
Ns(V12*
p738
L5L
L6L
tp739
g7
s(V6*
p740
L3L
L6L
tp741
g4
s(L20L
L25L
Ntp742
Ns(V18*A
p743
L7L
L6L
tp744
g7
s(V9*
p745
L4L
L6L
tp746
g4
s(L9L
L17L
Ntp747
Ns(V18*A
p748
L9L
L6L
tp749
g4
s(L9L
L22L
Ntp750
Ns(V15*D
p751
L3L
L6L
tp752
g7
s(V21*
p753
L8L
L6L
tp754
g7
s(V11*
p755
L11L
L6L
tp756
g4
s(V16*AD
p757
L10L
L6L
tp758
g4
s(V15*D
p759
L9L
L6L
tp760
g4
s(V12*DS
p761
L2L
L6L
tp762
g7
s(V12*DS
p763
L4L
L6L
tp764
g7
s(V17*AD
p765
L7L
L6L
tp766
g4
s(V18*
p767
L10L
L6L
tp768
g7
s(V6*D
p769
L6L
L6L
tp770
g4
s(V17*AD
p771
L9L
L6L
tp772
g4
s(V13*AD
p773
L2L
L6L
tp774
g4
s(V20*DS
p775
L3L
L6L
tp776
g7
s(V13*
p777
L4L
L6L
tp778
g7
s(V20*A
p779
L3L
L6L
tp780
g7
s(V20*
p781
L5L
L6L
tp782
g7
s(L25L
NNtp783
Ns(V12*D
p784
L2L
L6L
tp785
g7
s(L8L
L24L
Ntp786
Ns(L14L
L20L
Ntp787
Ns(V20*
p788
L3L
L6L
tp789
g7
s(V14*AD
p790
L10L
L6L
tp791
g4
s(V19*D
p792
L7L
L6L
tp793
g7
s(V24*
p794
NNtp795
Ns(V20*
p796
L9L
L6L
tp797
g7
s(V14*DS
p798
L3L
L6L
tp799
g7
s(V17*D
p800
L21L
Ntp801
Ns(L26L
NNtp802
Ns(L21L
L26L
Ntp803
Ns(L21L
L19L
Ntp804
Ns(V8*
p805
L2L
L6L
tp806
g4
s(V5*D
p807
L3L
L6L
tp808
g4
s(L21L
L4L
L6L
tp809
g7
s(V13*D
p810
L5L
L6L
tp811
g7
s(L11L
L19L
Ntp812
Ns(V5*D
p813
L9L
L6L
tp814
g4
s(V10*D
p815
L10L
L6L
tp816
g22
s(V17*D
p817
L6L
L6L
tp818
g7
s(V13*D
p819
L3L
L6L
tp820
g7
s(V12*ADS
p821
L10L
L6L
tp822
g4
s(V14*A
p823
L21L
Ntp824
Ns(V21*A
p825
L9L
L6L
tp826
g7
s(V16*A
p827
L8L
L6L
tp828
g4
s(L14L
L18L
Ntp829
Ns(V13*D
p830
L9L
L6L
tp831
g4
s(V12*
p832
L9L
L6L
tp833
g4
s(V15*A
p834
L7L
L6L
tp835
g4
s(V16*A
p836
L6L
L6L
tp837
g4
s(V15*AD
p838
L8L
L6L
tp839
g4
s(L4L
L23L
Ntp840
Ns(V12*
p841
L3L
L6L
tp842
g7
s(L18L
L21L
Ntp843
Ns(V13*AD
p844
L11L
L6L
tp845
g4
s(V9*
p846
L8L
L6L
tp847
g4
s(V15*AD
p848
L4L
L6L
tp849
g22
s(L15L
L19L
Ntp850
Ns(V10*DS
p851
L6L
L6L
tp852
g22
s(V10*
p853
L8L
L6L
tp854
g4
s(V15*D
p855
L5L
L6L
tp856
g7
s(V10*
p857
L2L
L6L
tp858
g4
s(V20*AD
p859
L2L
L6L
tp860
g7
s(V12*DS
p861
L8L
L6L
tp862
g4
s(V16*A
p863
L21L
Ntp864
Ns(V6*D
p865
L10L
L6L
tp866
g4
s(L6L
L20L
Ntp867
Ns(L8L
L26L
Ntp868
Ns(L12L
L24L
Ntp869
Ns(V14*AD
p870
L6L
L6L
tp871
g22
s(V19*D
p872
L11L
L6L
tp873
g7
s(L27L
NNtp874
Ns(V9*
p875
L7L
L6L
tp876
g4
s(L10L
L23L
Ntp877
Ns(V8*
p878
L4L
L6L
tp879
g4
s(V11*
p880
L6L
L6L
tp881
g4
s(V6*DS
p882
L10L
L6L
tp883
g4
s(V11*
p884
L8L
L6L
tp885
g4
s(V15*A
p886
L11L
L6L
tp887
g4
s(V15*D
p888
L10L
L6L
tp889
g7
s(V21*A
p890
L3L
L6L
tp891
g7
s(V6*D
p892
L3L
L6L
tp893
g4
s(g48
L21L
Ntp894
Ns(V6*D
p895
L5L
L6L
tp896
g4
s(V20*A
p897
L6L
L6L
tp898
g7
s(L9L
L25L
Ntp899
Ns(V13*
p900
L3L
L6L
tp901
g7
s(L9L
L23L
Ntp902
Ns(V19*D
p903
L2L
L6L
tp904
g7
s(L9L
L20L
Ntp905
Ns(V20*A
p906
L10L
L6L
tp907
g7
s(V14*AD
p908
L9L
L6L
tp909
g4
s(V19*D
p910
L4L
L6L
tp911
g7
s(V14*DS
p912
L6L
L6L
tp913
g7
s(V13*A
p914
L8L
L6L
tp915
g4
s(V13*A
p916
L6L
L6L
tp917
g4
s(L16L
L19L
Ntp918
Ns(V14*DS
p919
L10L
L6L
tp920
g4
s(L11L
L24L
Ntp921
Ns(L21L
L3L
L6L
tp922
g7
s(V5*D
p923
L4L
L6L
tp924
g4
s(V10*D
p925
L7L
L6L
tp926
g22
s(g800
L11L
L6L
tp927
g7
s(V12*ADS
p928
L7L
L6L
tp929
g4
s(V19*AD
p930
L9L
L6L
tp931
g7
s(V10*D
p932
L9L
L6L
tp933
g22
s(V5*D
p934
L10L
L6L
tp935
g4
s(V17*D
p936
L5L
L6L
tp937
g7
s(V12*ADS
p938
L9L
L6L
tp939
g4
s(g84
L11L
L6L
tp940
g4
s(V17*
p941
L6L
L6L
tp942
g7
s(V15*A
p943
L4L
L6L
tp944
g4
s(V15*A
p945
L2L
L6L
tp946
g4
s(g632
L21L
Ntp947
Ns(V17*
p948
L8L
L6L
tp949
g7
s(L29L
NNtp950
Ns(V19*A
p951
L10L
L6L
tp952
g7
s(L21L
L24L
Ntp953
Ns(V9*
p954
L11L
L6L
tp955
g4
s(L14L
L25L
Ntp956
Ns(L10L
L18L
Ntp957
Ns(L10L
L17L
Ntp958
Ns(V19*A
p959
L6L
L6L
tp960
g7
s(V6*DS
p961
L6L
L6L
tp962
g4
s(V20*AD
p963
L7L
L6L
tp964
g7
s(V15*D
p965
L6L
L6L
tp966
g7
s(V20*AD
p967
L11L
L6L
tp968
g7
s(V20*D
p969
L9L
L6L
tp970
g7
s(L8L
L17L
Ntp971
Ns(V6*D
p972
L9L
L6L
tp973
g4
s(L18L
L19L
Ntp974
Ns(V20*D
p975
L7L
L6L
tp976
g7
s(V16*
p977
L7L
L6L
tp978
g4
s(V9*D
p979
L5L
L6L
tp980
g22
s(L21L
L23L
Ntp981
Ns(V14*A
p982
L2L
L6L
tp983
g4
s(V16*DS
p984
L10L
L6L
tp985
g7
s(V14*AD
p986
L5L
L6L
tp987
g22
s(V19*D
p988
L8L
L6L
tp989
g7
s(V14*A
p990
L8L
L6L
tp991
g4
s(g407
L21L
Ntp992
Ns(V8*
p993
L9L
L6L
tp994
g4
s(V8*D
p995
L5L
L6L
tp996
g22
s(V18*DS
p997
L5L
L6L
tp998
g7
s(V17*A
p999
L7L
L6L
tp1000
g4
s(V8*
p1001
L7L
L6L
tp1002
g4
s(V19*AD
p1003
L5L
L6L
tp1004
g22
s(V7*D
p1005
L4L
L6L
tp1006
g4
s(V14*D
p1007
L7L
L6L
tp1008
g4
s(V15*A
p1009
L8L
L6L
tp1010
g4
s(V7*D
p1011
L2L
L6L
tp1012
g4
s(L16L
L26L
Ntp1013
Ns(V7*D
p1014
L8L
L6L
tp1015
g4
s(g261
L11L
L6L
tp1016
g7
s(L9L
L18L
Ntp1017
Ns(V19*
p1018
L7L
L6L
tp1019
g7
s(g549
L21L
Ntp1020
Ns(V13*A
p1021
L11L
L6L
tp1022
g4
s(V18*AD
p1023
L2L
L6L
tp1024
g22
s(L23L
NNtp1025
Ns(L8L
L20L
Ntp1026
Ns(L8L
L23L
Ntp1027
Ns(V16*
p1028
L11L
L6L
tp1029
g4
s(V9*D
p1030
L9L
L6L
tp1031
g4
s(V17*A
p1032
L8L
L6L
tp1033
g4
s(V17*
p1034
L3L
L6L
tp1035
g7
s(V9*D
p1036
L3L
L6L
tp1037
g22
s(V17*
p1038
L5L
L6L
tp1039
g7
s(V7*
p1040
L7L
L6L
tp1041
g4
s(L21L
L20L
Ntp1042
Ns(V16*D
p1043
L3L
L6L
tp1044
g7
s(V4*DS
p1045
L5L
L6L
tp1046
g4
s(L16L
L21L
Ntp1047
Ns(V4*DS
p1048
L3L
L6L
tp1049
g4
s(L19L
L17L
Ntp1050
Ns(V4*DS
p1051
L9L
L6L
tp1052
g4
s(V8*D
p1053
L9L
L6L
tp1054
g4
s(V18*DS
p1055
L9L
L6L
tp1056
g7
s(V18*A
p1057
L4L
L6L
tp1058
g7
s(V8*D
p1059
L3L
L6L
tp1060
g4
s(V18*DS
p1061
L3L
L6L
tp1062
g7
s(g844
L21L
Ntp1063
Ns(V8*DS
p1064
L7L
L6L
tp1065
g4
s(L20L
L24L
Ntp1066
Ns(V8*DS
p1067
L9L
L6L
tp1068
g4
s(V20*D
p1069
L10L
L6L
tp1070
g7
s(L20L
L18L
Ntp1071
Ns(V14*
p1072
L6L
L6L
tp1073
g7
s(V16*AD
p1074
L3L
L6L
tp1075
g22
s(L15L
L23L
Ntp1076
Ns(V16*
p1077
L2L
L6L
tp1078
g7
s(V16*
p1079
L4L
L6L
tp1080
g7
s(V19*AD
p1081
L21L
Ntp1082
Ns(V17*AD
p1083
L4L
L6L
tp1084
g22
s(V18*D
p1085
L6L
L6L
tp1086
g7
s(V14*A
p1087
L5L
L6L
tp1088
g4
s(V20*DS
p1089
L4L
L6L
tp1090
g7
s(V16*DS
p1091
L5L
L6L
tp1092
g7
s(V18*
p1093
L3L
L6L
tp1094
g7
s(g823
L11L
L6L
tp1095
g4
s(V16*DS
p1096
L3L
L6L
tp1097
g7
s(V12*D
p1098
L5L
L6L
tp1099
g7
s(L17L
L22L
Ntp1100
Ns(V12*D
p1101
L11L
L6L
tp1102
g4
s(L8L
L25L
Ntp1103
Ns(V20*
p1104
L10L
L6L
tp1105
g7
s(L20L
L20L
Ntp1106
Ns(V17*A
p1107
L4L
L6L
tp1108
g4
s(L14L
L26L
Ntp1109
Ns(V19*AD
p1110
L2L
L6L
tp1111
g7
s(g76
L21L
Ntp1112
Ns(V14*D
p1113
L8L
L6L
tp1114
g4
s(V7*
p1115
L11L
L6L
tp1116
g4
s(g863
L11L
L6L
tp1117
g4
s(V12*ADS
p1118
L21L
Ntp1119
Ns(L21L
L17L
Ntp1120
Ns(V10*D
p1121
L21L
Ntp1122
Ns(V13*D
p1123
L10L
L6L
tp1124
g4
s(V11*D
p1125
L3L
L6L
tp1126
g22
s(V15*
p1127
L3L
L6L
tp1128
g7
s(V11*D
p1129
L9L
L6L
tp1130
g22
s(L15L
L24L
Ntp1131
Ns(V6*
p1132
L6L
L6L
tp1133
g4
s(V15*
p1134
L9L
L6L
tp1135
g4
s(L19L
L24L
Ntp1136
Ns(V15*AD
p1137
L7L
L6L
tp1138
g4
s(V18*A
p1139
L2L
L6L
tp1140
g7
s(L4L
L17L
Ntp1141
Ns(L19L
L18L
Ntp1142
Ns(V18*AD
p1143
L9L
L6L
tp1144
g4
s(L9L
L26L
Ntp1145
Ns(L18L
L25L
Ntp1146
Ns(V14*
p1147
L10L
L6L
tp1148
g4
s(V18*AD
p1149
L5L
L6L
tp1150
g22
s(V16*
p1151
L8L
L6L
tp1152
g4
s(V16*AD
p1153
L5L
L6L
tp1154
g22
s(g1021
L21L
Ntp1155
Ns(V17*AD
p1156
L2L
L6L
tp1157
g22
s(V20*DS
p1158
L8L
L6L
tp1159
g7
s(V16*D
p1160
L6L
L6L
tp1161
g7
s(L16L
L25L
Ntp1162
Ns(V18*
p1163
L5L
L6L
tp1164
g7
s(V23*
p1165
NNtp1166
Ns(V16*D
p1167
L10L
L6L
tp1168
g7
s(V20*
p1169
L6L
L6L
tp1170
g7
s(L8L
L22L
Ntp1171
Ns(g701
L11L
L6L
tp1172
g7
s(L20L
L23L
Ntp1173
Ns(V8*DS
p1174
L2L
L6L
tp1175
g4
s(V21*
p1176
L10L
L6L
tp1177
g7
s(V14*D
p1178
L2L
L6L
tp1179
g7
s(V11*
p1180
L5L
L6L
tp1181
g4
s(V8*DS
p1182
L4L
L6L
tp1183
g22
s(V14*
p1184
L3L
L6L
tp1185
g7
s(g967
L21L
Ntp1186
Ns(V21*
p1187
L6L
L6L
tp1188
g7
s(V13*D
p1189
L6L
L6L
tp1190
g7
s(V14*
p1191
L5L
L6L
tp1192
g7
s(L18L
L18L
Ntp1193
Ns(V21*A
p1194
L4L
L6L
tp1195
g7
s(L10L
L21L
Ntp1196
Ns(g88
L11L
L6L
tp1197
g7
s(V21*A
p1198
L10L
L6L
tp1199
g7
s(g726
L11L
L6L
tp1200
g4
s(V18*D
p1201
L5L
L6L
tp1202
g7
s(V15*
p1203
L5L
L6L
tp1204
g7
s(g415
L11L
L6L
tp1205
g4
s(V20*DS
p1206
L7L
L6L
tp1207
g7
s(V13*AD
p1208
L6L
L6L
tp1209
g22
s(L17L
L26L
Ntp1210
Ns(g872
L21L
Ntp1211
Ns(V13*AD
p1212
L8L
L6L
tp1213
g4
s(V12*D
p1214
L6L
L6L
tp1215
g7
s(L19L
L23L
Ntp1216
Ns(V13*
p1217
L10L
L6L
tp1218
g4
s(V20*A
p1219
L9L
L6L
tp1220
g7
s(V10*DS
p1221
L3L
L6L
tp1222
g22
s(L20L
L26L
Ntp1223
Ns(V10*DS
p1224
L9L
L6L
tp1225
g22
s(V10*
p1226
L7L
L6L
tp1227
g4
s(L9L
L21L
Ntp1228
Ns(V14*DS
p1229
L9L
L6L
tp1230
g4
s(V10*D
p1231
L4L
L6L
tp1232
g22
s(V5*D
p1233
L7L
L6L
tp1234
g4
s(V17*D
p1235
L8L
L6L
tp1236
g7
s(V12*ADS
p1237
L4L
L6L
tp1238
g4
s(g886
L21L
Ntp1239
Ns(V17*D
p1240
L2L
L6L
tp1241
g7
s(L21L
L10L
L6L
tp1242
g7
s(V16*A
p1243
L4L
L6L
tp1244
g4
s(g120
L21L
Ntp1245
Ns(V7*
p1246
L2L
L6L
tp1247
g4
s(V16*A
p1248
L2L
L6L
tp1249
g4
s(L15L
L20L
Ntp1250
Ns(V11*D
p1251
L4L
L6L
tp1252
g22
s(V6*
p1253
L11L
L6L
tp1254
g4
s(V12*
p1255
L7L
L6L
tp1256
g4
s(V11*D
p1257
L10L
L6L
tp1258
g22
s(V6*
p1259
L5L
L6L
tp1260
g4
s(V15*
p1261
L10L
L6L
tp1262
g7
s(V9*
p1263
L2L
L6L
tp1264
g4
s(V19*A
p1265
L5L
L6L
tp1266
g7
s(V11*
p1267
L3L
L6L
tp1268
g4
s(L21L
L25L
Ntp1269
Ns(V12*DS
p1270
L10L
L6L
tp1271
g4
s(V14*
p1272
L9L
L6L
tp1273
g4
s(V16*AD
p1274
L8L
L6L
tp1275
g4
s(V20*AD
p1276
L8L
L6L
tp1277
g7
s(V16*AD
p1278
L6L
L6L
tp1279
g22
s(L14L
L21L
Ntp1280
Ns(V12*DS
p1281
L6L
L6L
tp1282
g7
s(g301
L21L
Ntp1283
Ns(g722
L11L
L6L
tp1284
g7
s(V18*
p1285
L8L
L6L
tp1286
g7
s(L19L
L26L
Ntp1287
Ns(V18*
p1288
L6L
L6L
tp1289
g7
s(V13*
p1290
L6L
L6L
tp1291
g7
s(V20*A
p1292
L5L
L6L
tp1293
g7
s(L8L
L19L
Ntp1294
Ns(V14*AD
p1295
L2L
L6L
tp1296
g4
s(g1101
L21L
Ntp1297
Ns(V14*DS
p1298
L5L
L6L
tp1299
g7
s(V8*
p1300
L10L
L6L
tp1301
g4
s(L16L
L17L
Ntp1302
Ns(V11*
p1303
L10L
L6L
tp1304
g4
s(V10*D
p1305
L2L
L6L
tp1306
g22
s(L21L
L6L
L6L
tp1307
g7
s(V12*ADS
p1308
L2L
L6L
tp1309
g4
s(g422
L21L
Ntp1310
Ns(V21*A
p1311
L7L
L6L
tp1312
g7
s(V7*D
p1313
L11L
L6L
tp1314
g4
s(L15L
L18L
Ntp1315
Ns(g59
L11L
L6L
tp1316
g4
s(V13*AD
p1317
L3L
L6L
tp1318
g4
s(V15*
p1319
L6L
L6L
tp1320
g7
s(V13*AD
p1321
L5L
L6L
tp1322
g22
s(L20L
L22L
Ntp1323
Ns(V15*AD
p1324
L2L
L6L
tp1325
g4
s(V19*
p1326
L4L
L6L
tp1327
g7
s(L20L
L17L
Ntp1328
Ns(V19*A
p1329
L9L
L6L
tp1330
g7
s(L22L
NNtp1331
Ns(V13*
p1332
L9L
L6L
tp1333
g4
s(V19*A
p1334
L3L
L6L
tp1335
g7
s(V10*DS
p1336
L4L
L6L
tp1337
g22
s(V10*
p1338
L10L
L6L
tp1339
g4
s(V13*A
p1340
L2L
L6L
tp1341
g4
s(V10*DS
p1342
L10L
L6L
tp1343
g22
s(V10*
p1344
L4L
L6L
tp1345
g4
s(V20*AD
p1346
L4L
L6L
tp1347
g7
s(V5*D
p1348
L8L
L6L
tp1349
g4
s(g1121
L11L
L6L
tp1350
g22
s(V17*D
p1351
L7L
L6L
tp1352
g7
s(g1118
L11L
L6L
tp1353
g4
s(L17L
L18L
Ntp1354
Ns(L21L
L9L
L6L
tp1355
g7
s(L17L
L24L
Ntp1356
Ns(L19L
L25L
Ntp1357
Ns(V12*
p1358
L2L
L6L
tp1359
g7
s(V6*D
p1360
L21L
Ntp1361
Ns(V12*
p1362
L4L
L6L
tp1363
g7
s(g624
L21L
Ntp1364
Ns(V9*
p1365
L9L
L6L
tp1366
g4
s(V4*DS
p1367
L10L
L6L
tp1368
g4
s(L21L
L21L
Ntp1369
Ns(L21L
L18L
Ntp1370
Ns(V9*
p1371
L5L
L6L
tp1372
g4
s(V15*D
p1373
L4L
L6L
tp1374
g7
s(V6*DS
p1375
L2L
L6L
tp1376
g4
s(L14L
L19L
Ntp1377
Ns(L16L
L23L
Ntp1378
Ns(V15*D
p1379
L2L
L6L
tp1380
g7
s(V6*DS
p1381
L8L
L6L
tp1382
g4
s(V15*D
p1383
L8L
L6L
tp1384
g4
s(V7*D
p1385
L7L
L6L
tp1386
g4
s(g1360
L11L
L6L
tp1387
g4
s(L12L
L22L
Ntp1388
Ns(g1028
L21L
Ntp1389
Ns(L4L
L21L
Ntp1390
Ns(L12L
L17L
Ntp1391
Ns(V20*D
p1392
L3L
L6L
tp1393
g7
s(V6*D
p1394
L7L
L6L
tp1395
g4
s(V19*
p1396
L8L
L6L
tp1397
g7
s(V14*AD
p1398
L7L
L6L
tp1399
g4
s(V19*D
p1400
L10L
L6L
tp1401
g7
s(V14*A
p1402
L6L
L6L
tp1403
g4
s(V13*
p1404
L5L
L6L
tp1405
g7
s(V20*A
p1406
L2L
L6L
tp1407
g7
s(V19*
p1408
L2L
L6L
tp1409
g7
s(g1313
L21L
Ntp1410
Ns(g198
L11L
L6L
tp1411
g4
s(V19*D
p1412
L6L
L6L
tp1413
g7
s(V13*A
p1414
L4L
L6L
tp1415
g4
s(V14*DS
p1416
L2L
L6L
tp1417
g7
s(V8*
p1418
L5L
L6L
tp1419
g4
s(V8*
p1420
L3L
L6L
tp1421
g4
s(V17*A
p1422
L3L
L6L
tp1423
g4
s(V15*A
p1424
L10L
L6L
tp1425
g4
s(L6L
L22L
Ntp1426
Ns(V5*D
p1427
L2L
L6L
tp1428
g4
s(L21L
L5L
L6L
tp1429
g7
s(g1081
L11L
L6L
tp1430
g7
s(V15*A
p1431
L6L
L6L
tp1432
g4
s.