(dp0
(V9*
p1
L8L
L-14L
tp2
VDraw
p3
s(L13L
L21L
Ntp4
Ns(V13*D
p5
L7L
L-14L
tp6
g3
s(V13*AD
p7
L4L
L-14L
tp8
g3
s(L13L
L18L
Ntp9
Ns(V19*A
p10
L4L
L-14L
tp11
VStay
p12
s(L13L
L24L
Ntp13
Ns(V14*AD
p14
L4L
L-14L
tp15
g3
s(V12*D
p16
L21L
Ntp17
Ns(V11*D
p18
L3L
L-14L
tp19
g3
s(V
p20
g20
L-14L
tp21
VBegin
p22
s(V8*
p23
L6L
L-14L
tp24
g3
s(V9*D
p25
L2L
L-14L
tp26
g3
s(V10*D
p27
L5L
L-14L
tp28
g3
s(V18*DS
p29
L4L
L-14L
tp30
g12
s(V20*D
p31
L8L
L-14L
tp32
g12
s(L6L
L26L
Ntp33
Ns(V16*D
p34
L9L
L-14L
tp35
g3
s(V19*
p36
L21L
Ntp37
Ns(L15L
L26L
Ntp38
Ns(V6*D
p39
L8L
L-14L
tp40
g3
s(L19L
L19L
Ntp41
Ns(V10*DS
p42
L9L
L-14L
tp43
g3
s(V18*D
p44
L11L
L-14L
tp45
g12
s(V17*AD
p46
L7L
L-14L
tp47
g3
s(L19L
L20L
Ntp48
Ns(V7*
p49
L10L
L-14L
tp50
g3
s(V20*DS
p51
L4L
L-14L
tp52
g12
s(V12*
p53
L9L
L-14L
tp54
g3
s(L17L
L21L
Ntp55
Ns(V14*
p56
L21L
Ntp57
Ns(V10*DS
p58
L4L
L-14L
tp59
g3
s(V18*D
p60
L6L
L-14L
tp61
g12
s(V13*
p62
L3L
L-14L
tp63
g3
s(V6*DS
p64
L8L
L-14L
tp65
g3
s(V17*A
p66
L3L
L-14L
tp67
g3
s(V11*D
p68
L6L
L-14L
tp69
VDouble
p70
s(V20*AD
p71
L8L
L-14L
tp72
g12
s(V7*D
p73
L5L
L-14L
tp74
g3
s(V9*D
p75
L7L
L-14L
tp76
g3
s(V14*
p77
L5L
L-14L
tp78
g3
s(L4L
L24L
Ntp79
Ns(V15*A
p80
L11L
L-14L
tp81
g3
s(V14*A
p82
L8L
L-14L
tp83
g3
s(V14*DS
p84
L7L
L-14L
tp85
g3
s(L4L
L18L
Ntp86
Ns(V4*DS
p87
L5L
L-14L
tp88
g3
s(V8*D
p89
L2L
L-14L
tp90
g3
s(V17*AD
p91
L10L
L-14L
tp92
g3
s(L14L
L17L
Ntp93
Ns(V19*A
p94
L10L
L-14L
tp95
g12
s(L18L
L22L
Ntp96
Ns(V20*
p97
L3L
L-14L
tp98
g12
s(V12*ADS
p99
L6L
L-14L
tp100
g3
s(V19*D
p101
L10L
L-14L
tp102
g12
s(V15*D
p103
L2L
L-14L
tp104
g3
s(V17*D
p105
L3L
L-14L
tp106
g12
s(V18*A
p107
L2L
L-14L
tp108
g12
s(V21*
p109
L4L
L-14L
tp110
g12
s(V13*AD
p111
L11L
L-14L
tp112
g3
s(V13*A
p113
L21L
Ntp114
Ns(L4L
L20L
Ntp115
Ns(V17*
p116
L10L
L-14L
tp117
g12
s(V10*
p118
L5L
L-14L
tp119
g3
s(V7*D
p120
L21L
Ntp121
Ns(V16*DS
p122
L7L
L-14L
tp123
g3
s(V19*AD
p124
L11L
L-14L
tp125
g12
s(V11*
p126
L11L
L-14L
tp127
g3
s(V19*AD
p128
L7L
L-14L
tp129
g12
s(L15L
L22L
Ntp130
Ns(V12*D
p131
L10L
L-14L
tp132
g3
s(V20*A
p133
L5L
L-14L
tp134
g12
s(V21*A
p135
L10L
L-14L
tp136
g12
s(V8*D
p137
L21L
Ntp138
Ns(V8*DS
p139
L8L
L-14L
tp140
g3
s(V12*D
p141
L6L
L-14L
tp142
g3
s(V12*DS
p143
L6L
L-14L
tp144
g3
s(V20*A
p145
L9L
L-14L
tp146
g12
s(L13L
L19L
Ntp147
Ns(L20L
L21L
Ntp148
Ns(V19*
p149
L9L
L-14L
tp150
g12
s(V4*DS
p151
L21L
Ntp152
Ns(V9*
p153
L4L
L-14L
tp154
g3
s(V14*A
p155
L21L
Ntp156
Ns(L6L
L17L
Ntp157
Ns(L17L
L25L
Ntp158
Ns(V13*
p159
L10L
L-14L
tp160
g3
s(V6*
p161
L9L
L-14L
tp162
g3
s(V18*A
p163
L7L
L-14L
tp164
g12
s(V16*
p165
L5L
L-14L
tp166
g3
s(V8*
p167
L10L
L-14L
tp168
g3
s(V21*A
p169
L3L
L-14L
tp170
g12
s(V15*
p171
L9L
L-14L
tp172
g3
s(V16*D
p173
L5L
L-14L
tp174
g3
s(L19L
L21L
Ntp175
Ns(V6*D
p176
L4L
L-14L
tp177
g3
s(V5*D
p178
L4L
L-14L
tp179
g3
s(V16*DS
p180
L2L
L-14L
tp181
g3
s(L19L
L22L
Ntp182
Ns(L16L
L22L
Ntp183
Ns(V7*
p184
L6L
L-14L
tp185
g3
s(V14*DS
p186
L8L
L-14L
tp187
g3
s(V14*AD
p188
L11L
L-14L
tp189
g3
s(V21*
p190
L10L
L-14L
tp191
g12
s(L21L
L22L
Ntp192
Ns(V16*A
p193
L7L
L-14L
tp194
g3
s(V5*D
p195
L9L
L-14L
tp196
g3
s(V18*DS
p197
L3L
L-14L
tp198
g12
s(V13*D
p199
L5L
L-14L
tp200
g3
s(V13*AD
p201
L2L
L-14L
tp202
g3
s(V12*DS
p203
L11L
L-14L
tp204
g3
s(V14*AD
p205
L6L
L-14L
tp206
g3
s(L12L
L21L
Ntp207
Ns(V18*DS
p208
L6L
L-14L
tp209
g12
s(V13*A
p210
L8L
L-14L
tp211
g3
s(V17*
p212
L5L
L-14L
tp213
g12
s(V10*
p214
L10L
L-14L
tp215
g3
s(L20L
L19L
Ntp216
Ns(V18*DS
p217
L10L
L-14L
tp218
g12
s(L4L
L26L
Ntp219
Ns(V18*AD
p220
L10L
L-14L
tp221
g3
s(V19*D
p222
L3L
L-14L
tp223
g12
s(L17L
L19L
Ntp224
Ns(V14*
p225
L9L
L-14L
tp226
g3
s(V15*A
p227
L7L
L-14L
tp228
g3
s(L11L
L21L
Ntp229
Ns(V12*
p230
L11L
L-14L
tp231
g3
s(L11L
L22L
Ntp232
Ns(V19*A
p233
L6L
L-14L
tp234
g12
s(L6L
L24L
Ntp235
Ns(V12*ADS
p236
L10L
L-14L
tp237
g3
s(V12*
p238
L7L
L-14L
tp239
g3
s(V16*A
p240
L2L
L-14L
tp241
g3
s(V9*
p242
L11L
L-14L
tp243
g3
s(V10*D
p244
L7L
L-14L
tp245
g3
s(V20*D
p246
L10L
L-14L
tp247
g12
s(L13L
L22L
Ntp248
Ns(V13*AD
p249
L7L
L-14L
tp250
g3
s(V17*D
p251
L21L
Ntp252
Ns(V17*A
p253
L5L
L-14L
tp254
g3
s(V11*
p255
L2L
L-14L
tp256
g3
s(V4*DS
p257
L2L
L-14L
tp258
g3
s(V20*AD
p259
L10L
L-14L
tp260
g12
s(V11*D
p261
L4L
L-14L
tp262
g3
s(V17*AD
p263
L5L
L-14L
tp264
g3
s(V10*D
p265
L2L
L-14L
tp266
g3
s(V9*D
p267
L5L
L-14L
tp268
g3
s(V18*
p269
L10L
L-14L
tp270
g12
s(V16*D
p271
L10L
L-14L
tp272
g3
s(V20*DS
p273
L2L
L-14L
tp274
g12
s(L24L
NNtp275
Ns(V14*A
p276
L10L
L-14L
tp277
g3
s(V9*D
p278
L9L
L-14L
tp279
g3
s(V20*D
p280
L3L
L-14L
tp281
g12
s(V4*DS
p282
L7L
L-14L
tp283
g3
s(V8*D
p284
L4L
L-14L
tp285
g3
s(V10*DS
p286
L10L
L-14L
tp287
g3
s(V18*D
p288
L8L
L-14L
tp289
g12
s(V17*AD
p290
L8L
L-14L
tp291
g3
s(L12L
L19L
Ntp292
Ns(L12L
L26L
Ntp293
Ns(V7*
p294
L9L
L-14L
tp295
g3
s(V6*DS
p296
L21L
Ntp297
Ns(V20*
p298
L5L
L-14L
tp299
g12
s(g151
L11L
L-14L
tp300
g3
s(V21*
p301
L21L
Ntp302
Ns(V15*D
p303
L4L
L-14L
tp304
g3
s(L17L
L17L
Ntp305
Ns(V19*
p306
L5L
L-14L
tp307
g12
s(V13*
p308
L21L
Ntp309
Ns(V24*
p310
NNtp311
Ns(V7*D
p312
L7L
L-14L
tp313
g3
s(V10*
p314
L3L
L-14L
tp315
g3
s(V16*AD
p316
L3L
L-14L
tp317
g3
s(L10L
L22L
Ntp318
Ns(V15*A
p319
L9L
L-14L
tp320
g3
s(L6L
L18L
Ntp321
Ns(V20*AD
p322
L21L
Ntp323
Ns(V15*AD
p324
L9L
L-14L
tp325
g3
s(V7*D
p326
L2L
L-14L
tp327
g3
s(L13L
L25L
Ntp328
Ns(V14*
p329
L6L
L-14L
tp330
g3
s(L4L
L22L
Ntp331
Ns(V14*DS
p332
L4L
L-14L
tp333
g3
s(V21*A
p334
L4L
L-14L
tp335
g12
s(V8*DS
p336
L10L
L-14L
tp337
g3
s(L18L
L20L
Ntp338
Ns(V21*
p339
L6L
L-14L
tp340
g12
s(V16*A
p341
L11L
L-14L
tp342
g3
s(V19*A
p343
L9L
L-14L
tp344
g12
s(L18L
L26L
Ntp345
Ns(V9*
p346
L2L
L-14L
tp347
g3
s(V8*DS
p348
L6L
L-14L
tp349
g3
s(L11L
L26L
Ntp350
Ns(V12*ADS
p351
L21L
Ntp352
Ns(V16*DS
p353
L5L
L-14L
tp354
g3
s(V6*D
p355
L3L
L-14L
tp356
g3
s(V18*A
p357
L5L
L-14L
tp358
g12
s(L11L
L25L
Ntp359
Ns(V16*
p360
L11L
L-14L
tp361
g3
s(V8*
p362
L8L
L-14L
tp363
g3
s(V15*
p364
L11L
L-14L
tp365
g3
s(V16*D
p366
L3L
L-14L
tp367
g3
s(V20*DS
p368
L11L
L-14L
tp369
g12
s(V17*
p370
L9L
L-14L
tp371
g12
s(V10*
p372
L6L
L-14L
tp373
g3
s(V8*
p374
L4L
L-14L
tp375
g3
s(V20*A
p376
L3L
L-14L
tp377
g12
s(L10L
L26L
Ntp378
Ns(V6*D
p379
L6L
L-14L
tp380
g3
s(V5*D
p381
L2L
L-14L
tp382
g3
s(L10L
L25L
Ntp383
Ns(V10*DS
p384
L3L
L-14L
tp385
g3
s(V18*AD
p386
L6L
L-14L
tp387
g12
s(V14*D
p388
L3L
L-14L
tp389
g3
s(V6*D
p390
L10L
L-14L
tp391
g3
s(V12*DS
p392
L4L
L-14L
tp393
g3
s(L21L
L2L
L-14L
tp394
g12
s(g36
L11L
L-14L
tp395
g12
s(V13*
p396
L8L
L-14L
tp397
g3
s(V6*
p398
L11L
L-14L
tp399
g3
s(V6*DS
p400
L7L
L-14L
tp401
g3
s(g230
L21L
Ntp402
Ns(V21*A
p403
L9L
L-14L
tp404
g12
s(V20*AD
p405
L3L
L-14L
tp406
g12
s(V12*DS
p407
L9L
L-14L
tp408
g3
s(L13L
L20L
Ntp409
Ns(V9*
p410
L7L
L-14L
tp411
g3
s(V14*A
p412
L3L
L-14L
tp413
g3
s(V26*
p414
NNtp415
Ns(V17*A
p416
L9L
L-14L
tp417
g3
s(V13*A
p418
L10L
L-14L
tp419
g3
s(g124
L21L
Ntp420
Ns(L14L
L23L
Ntp421
Ns(V6*
p422
L2L
L-14L
tp423
g3
s(V16*
p424
L6L
L-14L
tp425
g12
s(V18*
p426
L6L
L-14L
tp427
g12
s(V19*D
p428
L5L
L-14L
tp429
g12
s(V16*D
p430
L6L
L-14L
tp431
g12
s(L28L
NNtp432
Ns(L12L
L18L
Ntp433
Ns(V16*A
p434
L5L
L-14L
tp435
g3
s(L16L
L18L
Ntp436
Ns(V5*D
p437
L7L
L-14L
tp438
g3
s(V8*D
p439
L8L
L-14L
tp440
g3
s(V13*D
p441
L3L
L-14L
tp442
g3
s(V7*
p443
L5L
L-14L
tp444
g3
s(V12*ADS
p445
L8L
L-14L
tp446
g3
s(V14*AD
p447
L8L
L-14L
tp448
g3
s(V15*D
p449
L8L
L-14L
tp450
g3
s(V21*
p451
L9L
L-14L
tp452
g12
s(V6*DS
p453
L2L
L-14L
tp454
g3
s(L9L
L19L
Ntp455
Ns(V12*ADS
p456
L4L
L-14L
tp457
g3
s(V10*D
p458
L9L
L-14L
tp459
g3
s(V20*D
p460
L4L
L-14L
tp461
g12
s(V13*AD
p462
L5L
L-14L
tp463
g3
s(V11*
p464
L4L
L-14L
tp465
g3
s(V13*AD
p466
L9L
L-14L
tp467
g3
s(V18*AD
p468
L8L
L-14L
tp469
g12
s(V17*AD
p470
L3L
L-14L
tp471
g3
s(L14L
L24L
Ntp472
Ns(V15*A
p473
L5L
L-14L
tp474
g3
s(L13L
L17L
Ntp475
Ns(V17*D
p476
L10L
L-14L
tp477
g12
s(L13L
L23L
Ntp478
Ns(L6L
L23L
Ntp479
Ns(V10*DS
p480
L8L
L-14L
tp481
g3
s(V18*D
p482
L10L
L-14L
tp483
g12
s(V14*
p484
L10L
L-14L
tp485
g3
s(L11L
L18L
Ntp486
Ns(V19*A
p487
L5L
L-14L
tp488
g12
s(V16*AD
p489
L21L
Ntp490
Ns(V17*A
p491
L7L
L-14L
tp492
g3
s(V15*
p493
L2L
L-14L
tp494
g3
s(V11*D
p495
L2L
L-14L
tp496
g3
s(L18L
L23L
Ntp497
Ns(V11*D
p498
L21L
Ntp499
Ns(V7*D
p500
L9L
L-14L
tp501
g3
s(V9*D
p502
L3L
L-14L
tp503
g3
s(V10*D
p504
L4L
L-14L
tp505
g3
s(V20*D
p506
L9L
L-14L
tp507
g12
s(V16*AD
p508
L5L
L-14L
tp509
g3
s(V18*
p510
L8L
L-14L
tp511
g12
s(g188
L21L
Ntp512
Ns(V14*DS
p513
L3L
L-14L
tp514
g3
s(L15L
L17L
Ntp515
Ns(V17*A
p516
L2L
L-14L
tp517
g3
s(L10L
L24L
Ntp518
Ns(V8*D
p519
L6L
L-14L
tp520
g3
s(V17*AD
p521
L6L
L-14L
tp522
g3
s(V20*
p523
L7L
L-14L
tp524
g12
s(V13*D
p525
L10L
L-14L
tp526
g3
s(V8*DS
p527
L21L
Ntp528
Ns(V15*D
p529
L6L
L-14L
tp530
g3
s(V14*DS
p531
L6L
L-14L
tp532
g3
s(L17L
L20L
Ntp533
Ns(V19*
p534
L7L
L-14L
tp535
g12
s(L12L
L23L
Ntp536
Ns(V8*D
p537
L3L
L-14L
tp538
g3
s(V19*AD
p539
L2L
L-14L
tp540
g12
s(V14*DS
p541
L10L
L-14L
tp542
g3
s(L12L
L25L
Ntp543
Ns(V8*
p544
L3L
L-14L
tp545
g3
s(V20*
p546
L2L
L-14L
tp547
g12
s(V13*A
p548
L3L
L-14L
tp549
g3
s(V15*D
p550
L3L
L-14L
tp551
g3
s(V12*D
p552
L3L
L-14L
tp553
g3
s(V16*DS
p554
L11L
L-14L
tp555
g3
s(V19*A
p556
L21L
Ntp557
Ns(V15*AD
p558
L11L
L-14L
tp559
g3
s(L11L
L23L
Ntp560
Ns(V7*D
p561
L4L
L-14L
tp562
g3
s(V17*
p563
L11L
L-14L
tp564
g3
s(V10*
p565
L4L
L-14L
tp566
g3
s(L11L
L17L
Ntp567
Ns(L4L
L25L
Ntp568
Ns(V15*A
p569
L10L
L-14L
tp570
g3
s(L4L
L19L
Ntp571
Ns(V21*A
p572
L6L
L-14L
tp573
g12
s(V17*
p574
L7L
L-14L
tp575
g12
s(V10*
p576
L8L
L-14L
tp577
g3
s(L16L
L20L
Ntp578
Ns(V14*D
p579
L5L
L-14L
tp580
g3
s(V12*DS
p581
L2L
L-14L
tp582
g3
s(L21L
L4L
L-14L
tp583
g12
s(L18L
L17L
Ntp584
Ns(V16*A
p585
L9L
L-14L
tp586
g3
s(L9L
L24L
Ntp587
Ns(V15*AD
p588
L2L
L-14L
tp589
g3
s(L13L
L26L
Ntp590
Ns(V13*
p591
L6L
L-14L
tp592
g3
s(V6*
p593
L5L
L-14L
tp594
g3
s(V21*A
p595
L11L
L-14L
tp596
g12
s(V18*A
p597
L3L
L-14L
tp598
g12
s(L30L
NNtp599
Ns(g498
L11L
L-14L
tp600
g3
s(V20*AD
p601
L5L
L-14L
tp602
g12
s(V16*
p603
L9L
L-14L
tp604
g3
s(V21*
p605
L5L
L-14L
tp606
g12
s(V9*
p607
L5L
L-14L
tp608
g3
s(V20*DS
p609
L9L
L-14L
tp610
g12
s(V14*A
p611
L5L
L-14L
tp612
g3
s(L16L
L24L
Ntp613
Ns(V9*
p614
L9L
L-14L
tp615
g3
s(V16*DS
p616
L6L
L-14L
tp617
g12
s(V18*AD
p618
L4L
L-14L
tp619
g12
s(V18*D
p620
L3L
L-14L
tp621
g12
s(L12L
L20L
Ntp622
Ns(V16*
p623
L4L
L-14L
tp624
g3
s(V7*
p625
L2L
L-14L
tp626
g3
s(V12*ADS
p627
L3L
L-14L
tp628
g3
s(L17L
L23L
Ntp629
Ns(V16*D
p630
L4L
L-14L
tp631
g3
s(L6L
L21L
Ntp632
Ns(V17*D
p633
L6L
L-14L
tp634
g12
s(V6*DS
p635
L5L
L-14L
tp636
g3
s(V5*D
p637
L5L
L-14L
tp638
g3
s(L10L
L20L
Ntp639
Ns(V16*D
p640
L8L
L-14L
tp641
g3
s(L10L
L19L
Ntp642
Ns(V7*
p643
L7L
L-14L
tp644
g3
s(V12*DS
p645
L7L
L-14L
tp646
g3
s(V19*
p647
L8L
L-14L
tp648
g12
s(V14*AD
p649
L10L
L-14L
tp650
g3
s(g368
L21L
Ntp651
Ns(V7*
p652
L11L
L-14L
tp653
g3
s(g308
L11L
L-14L
tp654
g3
s(V6*
p655
L8L
L-14L
tp656
g3
s(V17*A
p657
L11L
L-14L
tp658
g3
s(V18*DS
p659
L2L
L-14L
tp660
g12
s(L14L
L22L
Ntp661
Ns(V18*A
p662
L21L
Ntp663
Ns(V12*
p664
L2L
L-14L
tp665
g3
s(L15L
L25L
Ntp666
Ns(V18*
p667
L4L
L-14L
tp668
g12
s(V16*AD
p669
L9L
L-14L
tp670
g3
s(V19*D
p671
L7L
L-14L
tp672
g12
s(V15*A
p673
L3L
L-14L
tp674
g3
s(V8*D
p675
L10L
L-14L
tp676
g3
s(L18L
L24L
Ntp677
Ns(V20*D
p678
L21L
Ntp679
Ns(V19*A
p680
L2L
L-14L
tp681
g12
s(g44
L21L
Ntp682
Ns(V19*D
p683
L2L
L-14L
tp684
g12
s(V14*
p685
L8L
L-14L
tp686
g3
s(V15*D
p687
L10L
L-14L
tp688
g3
s(V16*A
p689
L6L
L-14L
tp690
g3
s(V18*A
p691
L10L
L-14L
tp692
g3
s(V10*D
p693
L11L
L-14L
tp694
g3
s(V20*D
p695
L6L
L-14L
tp696
g12
s(L15L
L21L
Ntp697
Ns(V13*AD
p698
L3L
L-14L
tp699
g3
s(V14*
p700
L4L
L-14L
tp701
g3
s(V19*A
p702
L7L
L-14L
tp703
g12
s(V11*
p704
L6L
L-14L
tp705
g3
s(V15*
p706
L4L
L-14L
tp707
g3
s(V15*D
p708
L21L
Ntp709
Ns(g556
L11L
L-14L
tp710
g12
s(L21L
NNtp711
Ns(V27*
p712
NNtp713
Ns(V18*DS
p714
L21L
Ntp715
Ns(V10*D
p716
L6L
L-14L
tp717
g3
s(g678
L11L
L-14L
tp718
g12
s(V17*D
p719
L8L
L-14L
tp720
g12
s(V20*A
p721
L21L
Ntp722
Ns(V11*
p723
L3L
L-14L
tp724
g3
s(V4*DS
p725
L3L
L-14L
tp726
g3
s(V18*AD
p727
L11L
L-14L
tp728
g3
s(V17*AD
p729
L4L
L-14L
tp730
g3
s(L8L
L18L
Ntp731
Ns(V15*A
p732
L6L
L-14L
tp733
g3
s(L8L
L21L
Ntp734
Ns(V20*
p735
L9L
L-14L
tp736
g12
s(V14*D
p737
L9L
L-14L
tp738
g3
s(L21L
L8L
L-14L
tp739
g12
s(L6L
L19L
Ntp740
Ns(L6L
L25L
Ntp741
Ns(V19*AD
p742
L4L
L-14L
tp743
g12
s(V13*A
p744
L5L
L-14L
tp745
g3
s(g120
L11L
L-14L
tp746
g3
s(g657
L21L
Ntp747
Ns(V16*AD
p748
L7L
L-14L
tp749
g3
s(V12*D
p750
L5L
L-14L
tp751
g3
s(V20*A
p752
L10L
L-14L
tp753
g12
s(V17*A
p754
L4L
L-14L
tp755
g3
s(V8*DS
p756
L3L
L-14L
tp757
g3
s(V15*AD
p758
L5L
L-14L
tp759
g3
s(V28*
p760
NNtp761
Ns(V7*D
p762
L6L
L-14L
tp763
g3
s(L20L
L25L
Ntp764
Ns(V18*
p765
L11L
L-14L
tp766
g12
s(V13*D
p767
L8L
L-14L
tp768
g3
s(V16*AD
p769
L2L
L-14L
tp770
g3
s(L9L
L17L
Ntp771
Ns(L9L
L22L
Ntp772
Ns(V14*AD
p773
L3L
L-14L
tp774
g3
s(V8*D
p775
L5L
L-14L
tp776
g3
s(V21*
p777
L2L
L-14L
tp778
g12
s(V17*AD
p779
L21L
Ntp780
Ns(V20*
p781
L4L
L-14L
tp782
g12
s(V16*D
p783
L21L
Ntp784
Ns(g595
L21L
Ntp785
Ns(V15*D
p786
L5L
L-14L
tp787
g3
s(V19*
p788
L4L
L-14L
tp789
g12
s(V16*DS
p790
L9L
L-14L
tp791
g3
s(V21*
p792
L7L
L-14L
tp793
g12
s(L25L
NNtp794
Ns(L8L
L24L
Ntp795
Ns(L14L
L20L
Ntp796
Ns(g301
L11L
L-14L
tp797
g12
s(V20*DS
p798
L7L
L-14L
tp799
g12
s(V10*
p800
L2L
L-14L
tp801
g3
s(L26L
NNtp802
Ns(V6*D
p803
L2L
L-14L
tp804
g3
s(V16*DS
p805
L4L
L-14L
tp806
g3
s(L21L
L26L
Ntp807
Ns(L21L
L19L
Ntp808
Ns(g203
L21L
Ntp809
Ns(V18*D
p810
L5L
L-14L
tp811
g12
s(V10*DS
p812
L7L
L-14L
tp813
g3
s(V18*AD
p814
L2L
L-14L
tp815
g12
s(V15*AD
p816
L8L
L-14L
tp817
g3
s(V14*D
p818
L7L
L-14L
tp819
g3
s(L21L
L6L
L-14L
tp820
g12
s(L11L
L19L
Ntp821
Ns(L11L
L20L
Ntp822
Ns(L14L
L18L
Ntp823
Ns(V13*
p824
L4L
L-14L
tp825
g3
s(g296
L11L
L-14L
tp826
g3
s(L4L
L23L
Ntp827
Ns(V6*
p828
L7L
L-14L
tp829
g3
s(V18*DS
p830
L9L
L-14L
tp831
g12
s(V21*A
p832
L5L
L-14L
tp833
g12
s(L18L
L21L
Ntp834
Ns(V11*D
p835
L9L
L-14L
tp836
g3
s(V14*D
p837
L2L
L-14L
tp838
g3
s(V12*DS
p839
L5L
L-14L
tp840
g3
s(V20*AD
p841
L7L
L-14L
tp842
g12
s(L21L
L3L
L-14L
tp843
g12
s(V16*A
p844
L10L
L-14L
tp845
g3
s(g693
L21L
Ntp846
Ns(V9*
p847
L3L
L-14L
tp848
g3
s(V13*
p849
L9L
L-14L
tp850
g3
s(L15L
L19L
Ntp851
Ns(V6*
p852
L10L
L-14L
tp853
g3
s(V14*A
p854
L7L
L-14L
tp855
g3
s(V20*AD
p856
L2L
L-14L
tp857
g12
s(V12*
p858
L4L
L-14L
tp859
g3
s(V16*
p860
L10L
L-14L
tp861
g3
s(V18*
p862
L2L
L-14L
tp863
g12
s(V19*D
p864
L9L
L-14L
tp865
g12
s(V16*D
p866
L2L
L-14L
tp867
g3
s(V20*DS
p868
L10L
L-14L
tp869
g12
s(V14*
p870
L3L
L-14L
tp871
g3
s(V14*A
p872
L2L
L-14L
tp873
g3
s(L8L
L26L
Ntp874
Ns(V17*D
p875
L4L
L-14L
tp876
g12
s(L6L
L20L
Ntp877
Ns(V5*D
p878
L3L
L-14L
tp879
g3
s(L12L
L24L
Ntp880
Ns(V10*DS
p881
L2L
L-14L
tp882
g3
s(V18*AD
p883
L7L
L-14L
tp884
g12
s(L27L
NNtp885
Ns(V6*DS
p886
L6L
L-14L
tp887
g3
s(L10L
L23L
Ntp888
Ns(V9*D
p889
L10L
L-14L
tp890
g3
s(V19*AD
p891
L8L
L-14L
tp892
g12
s(V11*
p893
L8L
L-14L
tp894
g3
s(V4*DS
p895
L8L
L-14L
tp896
g3
s(g489
L11L
L-14L
tp897
g3
s(V12*D
p898
L9L
L-14L
tp899
g3
s(V20*A
p900
L6L
L-14L
tp901
g12
s(V17*A
p902
L8L
L-14L
tp903
g3
s(L9L
L25L
Ntp904
Ns(L9L
L23L
Ntp905
Ns(V18*
p906
L7L
L-14L
tp907
g12
s(L9L
L20L
Ntp908
Ns(V19*D
p909
L4L
L-14L
tp910
g12
s(V15*A
p911
L4L
L-14L
tp912
g3
s(L16L
L19L
Ntp913
Ns(V18*A
p914
L8L
L-14L
tp915
g12
s(V8*D
p916
L9L
L-14L
tp917
g3
s(g558
L21L
Ntp918
Ns(V15*A
p919
L8L
L-14L
tp920
g3
s(V23*
p921
NNtp922
Ns(L11L
L24L
Ntp923
Ns(V15*
p924
L6L
L-14L
tp925
g3
s(V15*D
p926
L9L
L-14L
tp927
g3
s(V10*D
p928
L8L
L-14L
tp929
g3
s(V20*D
p930
L5L
L-14L
tp931
g12
s(V16*
p932
L3L
L-14L
tp933
g3
s(L29L
NNtp934
Ns(V11*
p935
L5L
L-14L
tp936
g3
s(V15*
p937
L3L
L-14L
tp938
g3
s(V8*DS
p939
L5L
L-14L
tp940
g3
s(L21L
L24L
Ntp941
Ns(V17*AD
p942
L2L
L-14L
tp943
g3
s(L14L
L25L
Ntp944
Ns(L10L
L18L
Ntp945
Ns(V5*D
p946
L10L
L-14L
tp947
g3
s(L10L
L17L
Ntp948
Ns(V20*
p949
L11L
L-14L
tp950
g12
s(V13*D
p951
L6L
L-14L
tp952
g3
s(V14*D
p953
L11L
L-14L
tp954
g3
s(V14*DS
p955
L2L
L-14L
tp956
g3
s(L21L
L10L
L-14L
tp957
g12
s(g251
L11L
L-14L
tp958
g3
s(V19*
p959
L3L
L-14L
tp960
g12
s(V14*AD
p961
L5L
L-14L
tp962
g3
s(V19*AD
p963
L6L
L-14L
tp964
g12
s(L8L
L17L
Ntp965
Ns(V8*
p966
L7L
L-14L
tp967
g3
s(L18L
L19L
Ntp968
Ns(V18*DS
p969
L5L
L-14L
tp970
g12
s(V20*
p971
L6L
L-14L
tp972
g12
s(V13*A
p973
L7L
L-14L
tp974
g3
s(L21L
L23L
Ntp975
Ns(V17*
p976
L2L
L-14L
tp977
g12
s(V12*D
p978
L7L
L-14L
tp979
g3
s(V20*A
p980
L8L
L-14L
tp981
g12
s(V6*D
p982
L9L
L-14L
tp983
g3
s(V19*
p984
L6L
L-14L
tp985
g12
s(V19*AD
p986
L3L
L-14L
tp987
g12
s(V15*AD
p988
L7L
L-14L
tp989
g3
s(V19*
p990
L10L
L-14L
tp991
g12
s(V13*A
p992
L2L
L-14L
tp993
g3
s(V7*D
p994
L8L
L-14L
tp995
g3
s(V12*
p996
L8L
L-14L
tp997
g3
s(V16*AD
p998
L4L
L-14L
tp999
g3
s(V12*D
p1000
L2L
L-14L
tp1001
g3
s(V21*A
p1002
L2L
L-14L
tp1003
g12
s(V15*AD
p1004
L10L
L-14L
tp1005
g3
s(L16L
L26L
Ntp1006
Ns(V13*D
p1007
L11L
L-14L
tp1008
g3
s(L9L
L18L
Ntp1009
Ns(g364
L21L
Ntp1010
Ns(V13*
p1011
L2L
L-14L
tp1012
g3
s(V21*A
p1013
L7L
L-14L
tp1014
g12
s(V11*D
p1015
L7L
L-14L
tp1016
g3
s(V20*AD
p1017
L9L
L-14L
tp1018
g12
s(g111
L21L
Ntp1019
Ns(V16*A
p1020
L8L
L-14L
tp1021
g3
s(V8*
p1022
L2L
L-14L
tp1023
g3
s(V9*D
p1024
L6L
L-14L
tp1025
g3
s(V20*DS
p1026
L5L
L-14L
tp1027
g12
s(V16*A
p1028
L4L
L-14L
tp1029
g3
s(V14*A
p1030
L9L
L-14L
tp1031
g3
s(V16*DS
p1032
L10L
L-14L
tp1033
g3
s(V4*DS
p1034
L4L
L-14L
tp1035
g3
s(V10*DS
p1036
L5L
L-14L
tp1037
g3
s(V18*D
p1038
L7L
L-14L
tp1039
g12
s(g779
L11L
L-14L
tp1040
g3
s(L23L
NNtp1041
Ns(V16*
p1042
L8L
L-14L
tp1043
g3
s(L8L
L20L
Ntp1044
Ns(L8L
L23L
Ntp1045
Ns(V12*ADS
p1046
L7L
L-14L
tp1047
g3
s(V20*DS
p1048
L8L
L-14L
tp1049
g12
s(V19*D
p1050
L21L
Ntp1051
Ns(V17*D
p1052
L2L
L-14L
tp1053
g12
s(V6*DS
p1054
L9L
L-14L
tp1055
g3
s(L21L
L20L
Ntp1056
Ns(g714
L11L
L-14L
tp1057
g12
s(V18*AD
p1058
L5L
L-14L
tp1059
g12
s(V13*AD
p1060
L10L
L-14L
tp1061
g3
s(V18*D
p1062
L2L
L-14L
tp1063
g12
s(g953
L21L
Ntp1064
Ns(L16L
L21L
Ntp1065
Ns(V7*
p1066
L3L
L-14L
tp1067
g3
s(V14*D
p1068
L4L
L-14L
tp1069
g3
s(V12*DS
p1070
L3L
L-14L
tp1071
g3
s(L21L
L5L
L-14L
tp1072
g12
s(L19L
L17L
Ntp1073
Ns(V18*AD
p1074
L9L
L-14L
tp1075
g3
s(V13*
p1076
L7L
L-14L
tp1077
g3
s(V6*
p1078
L4L
L-14L
tp1079
g3
s(V6*DS
p1080
L4L
L-14L
tp1081
g3
s(V20*AD
p1082
L4L
L-14L
tp1083
g12
s(V11*D
p1084
L10L
L-14L
tp1085
g3
s(L20L
L24L
Ntp1086
Ns(V12*
p1087
L6L
L-14L
tp1088
g3
s(L20L
L18L
Ntp1089
Ns(L15L
L23L
Ntp1090
Ns(g1050
L11L
L-14L
tp1091
g12
s(V14*A
p1092
L4L
L-14L
tp1093
g3
s(V17*A
p1094
L10L
L-14L
tp1095
g3
s(V8*DS
p1096
L9L
L-14L
tp1097
g3
s(V12*
p1098
L3L
L-14L
tp1099
g3
s(V17*A
p1100
L6L
L-14L
tp1101
g3
s(V18*
p1102
L5L
L-14L
tp1103
g12
s(V12*ADS
p1104
L2L
L-14L
tp1105
g3
s(V19*D
p1106
L6L
L-14L
tp1107
g12
s(L17L
L22L
Ntp1108
Ns(L8L
L25L
Ntp1109
Ns(V17*D
p1110
L7L
L-14L
tp1111
g12
s(L20L
L20L
Ntp1112
Ns(V18*
p1113
L9L
L-14L
tp1114
g12
s(V18*A
p1115
L6L
L-14L
tp1116
g12
s(V9*D
p1117
L8L
L-14L
tp1118
g3
s(g137
L11L
L-14L
tp1119
g3
s(V20*D
p1120
L2L
L-14L
tp1121
g12
s(V19*AD
p1122
L10L
L-14L
tp1123
g12
s(L14L
L26L
Ntp1124
Ns(V19*A
p1125
L3L
L-14L
tp1126
g12
s(V8*
p1127
L11L
L-14L
tp1128
g3
s(V11*
p1129
L10L
L-14L
tp1130
g3
s(V8*D
p1131
L7L
L-14L
tp1132
g3
s(V15*
p1133
L8L
L-14L
tp1134
g3
s(V4*DS
p1135
L10L
L-14L
tp1136
g3
s(g708
L11L
L-14L
tp1137
g3
s(g16
L11L
L-14L
tp1138
g3
s(V20*A
p1139
L4L
L-14L
tp1140
g12
s(V6*D
p1141
L5L
L-14L
tp1142
g3
s(V16*DS
p1143
L3L
L-14L
tp1144
g3
s(L21L
L17L
Ntp1145
Ns(V10*D
p1146
L10L
L-14L
tp1147
g3
s(V20*D
p1148
L7L
L-14L
tp1149
g12
s(V15*D
p1150
L7L
L-14L
tp1151
g3
s(g727
L21L
Ntp1152
Ns(V14*DS
p1153
L9L
L-14L
tp1154
g3
s(L15L
L24L
Ntp1155
Ns(V11*
p1156
L7L
L-14L
tp1157
g3
s(L19L
L24L
Ntp1158
Ns(V16*AD
p1159
L8L
L-14L
tp1160
g3
s(L4L
L17L
Ntp1161
Ns(L19L
L18L
Ntp1162
Ns(V15*A
p1163
L2L
L-14L
tp1164
g3
s(L9L
L26L
Ntp1165
Ns(V12*DS
p1166
L10L
L-14L
tp1167
g3
s(L18L
L25L
Ntp1168
Ns(V13*A
p1169
L9L
L-14L
tp1170
g3
s(g662
L11L
L-14L
tp1171
g3
s(L16L
L25L
Ntp1172
Ns(V17*
p1173
L4L
L-14L
tp1174
g12
s(V10*
p1175
L11L
L-14L
tp1176
g3
s(V15*
p1177
L5L
L-14L
tp1178
g3
s(V8*DS
p1179
L7L
L-14L
tp1180
g3
s(g765
L21L
Ntp1181
Ns(L8L
L22L
Ntp1182
Ns(V5*D
p1183
L8L
L-14L
tp1184
g3
s(V7*D
p1185
L10L
L-14L
tp1186
g3
s(V13*D
p1187
L4L
L-14L
tp1188
g3
s(L20L
L23L
Ntp1189
Ns(V14*DS
p1190
L21L
Ntp1191
Ns(g351
L11L
L-14L
tp1192
g3
s(V14*AD
p1193
L7L
L-14L
tp1194
g3
s(V8*DS
p1195
L2L
L-14L
tp1196
g3
s(V25*
p1197
NNtp1198
Ns(V16*A
p1199
L3L
L-14L
tp1200
g3
s(L10L
L21L
Ntp1201
Ns(L18L
L18L
Ntp1202
Ns(V8*
p1203
L5L
L-14L
tp1204
g3
s(V9*
p1205
L10L
L-14L
tp1206
g3
s(V20*
p1207
L8L
L-14L
tp1208
g12
s(V18*DS
p1209
L7L
L-14L
tp1210
g12
s(V13*D
p1211
L9L
L-14L
tp1212
g3
s(V13*AD
p1213
L6L
L-14L
tp1214
g3
s(g80
L21L
Ntp1215
Ns(V9*D
p1216
L21L
Ntp1217
Ns(V14*D
p1218
L8L
L-14L
tp1219
g3
s(L21L
L9L
L-14L
tp1220
g12
s(V6*D
p1221
L11L
L-14L
tp1222
g3
s(V14*AD
p1223
L2L
L-14L
tp1224
g3
s(L17L
L26L
Ntp1225
Ns(V21*
p1226
L3L
L-14L
tp1227
g12
s(L19L
L23L
Ntp1228
Ns(V19*AD
p1229
L5L
L-14L
tp1230
g12
s(L20L
L26L
Ntp1231
Ns(V13*A
p1232
L4L
L-14L
tp1233
g3
s(g783
L11L
L-14L
tp1234
g3
s(V20*DS
p1235
L3L
L-14L
tp1236
g12
s(V12*
p1237
L10L
L-14L
tp1238
g3
s(L9L
L21L
Ntp1239
Ns(V12*D
p1240
L4L
L-14L
tp1241
g3
s(g721
L11L
L-14L
tp1242
g12
s(V16*DS
p1243
L8L
L-14L
tp1244
g3
s(V10*DS
p1245
L11L
L-14L
tp1246
g3
s(V18*D
p1247
L9L
L-14L
tp1248
g12
s(V7*
p1249
L8L
L-14L
tp1250
g3
s(V15*AD
p1251
L4L
L-14L
tp1252
g3
s(g1245
L21L
Ntp1253
Ns(V6*
p1254
L3L
L-14L
tp1255
g3
s(L15L
L20L
Ntp1256
Ns(g563
L21L
Ntp1257
Ns(V11*D
p1258
L5L
L-14L
tp1259
g70
s(g322
L11L
L-14L
tp1260
g12
s(V10*D
p1261
L3L
L-14L
tp1262
g3
s(V9*D
p1263
L4L
L-14L
tp1264
g3
s(V13*
p1265
L5L
L-14L
tp1266
g3
s(V6*
p1267
L6L
L-14L
tp1268
g3
s(g155
L11L
L-14L
tp1269
g3
s(L21L
L25L
Ntp1270
Ns(V4*DS
p1271
L6L
L-14L
tp1272
g3
s(V11*D
p1273
L8L
L-14L
tp1274
g3
s(V20*AD
p1275
L6L
L-14L
tp1276
g12
s(g949
L21L
Ntp1277
Ns(V17*AD
p1278
L9L
L-14L
tp1279
g3
s(g554
L21L
Ntp1280
Ns(L14L
L21L
Ntp1281
Ns(V12*ADS
p1282
L5L
L-14L
tp1283
g3
s(V14*
p1284
L7L
L-14L
tp1285
g3
s(V20*DS
p1286
L6L
L-14L
tp1287
g12
s(V14*A
p1288
L6L
L-14L
tp1289
g3
s(V14*DS
p1290
L5L
L-14L
tp1291
g3
s(L19L
L26L
Ntp1292
Ns(V10*DS
p1293
L6L
L-14L
tp1294
g3
s(V13*AD
p1295
L8L
L-14L
tp1296
g3
s(V18*AD
p1297
L3L
L-14L
tp1298
g12
s(V18*D
p1299
L4L
L-14L
tp1300
g12
s(g341
L21L
Ntp1301
Ns(V19*A
p1302
L8L
L-14L
tp1303
g12
s(L8L
L19L
Ntp1304
Ns(V17*D
p1305
L5L
L-14L
tp1306
g12
s(V6*DS
p1307
L10L
L-14L
tp1308
g3
s(V18*DS
p1309
L8L
L-14L
tp1310
g12
s(g360
L21L
Ntp1311
Ns(L16L
L17L
Ntp1312
Ns(V17*D
p1313
L9L
L-14L
tp1314
g12
s(V7*D
p1315
L3L
L-14L
tp1316
g3
s(V17*
p1317
L8L
L-14L
tp1318
g12
s(V10*
p1319
L7L
L-14L
tp1320
g3
s(V20*A
p1321
L2L
L-14L
tp1322
g12
s(L15L
L18L
Ntp1323
Ns(g527
L11L
L-14L
tp1324
g3
s(V12*
p1325
L5L
L-14L
tp1326
g3
s(L20L
L22L
Ntp1327
Ns(L20L
L17L
Ntp1328
Ns(L22L
NNtp1329
Ns(V18*
p1330
L3L
L-14L
tp1331
g12
s(V16*AD
p1332
L10L
L-14L
tp1333
g3
s(V19*D
p1334
L8L
L-14L
tp1335
g12
s(V14*
p1336
L2L
L-14L
tp1337
g3
s(V21*A
p1338
L8L
L-14L
tp1339
g12
s(V18*A
p1340
L4L
L-14L
tp1341
g12
s(V16*AD
p1342
L6L
L-14L
tp1343
g3
s(g1221
L21L
Ntp1344
Ns(V8*
p1345
L9L
L-14L
tp1346
g3
s(V9*
p1347
L6L
L-14L
tp1348
g3
s(L17L
L18L
Ntp1349
Ns(V15*
p1350
L10L
L-14L
tp1351
g3
s(L17L
L24L
Ntp1352
Ns(V6*D
p1353
L7L
L-14L
tp1354
g3
s(L19L
L25L
Ntp1355
Ns(V18*A
p1356
L9L
L-14L
tp1357
g3
s(g1216
L11L
L-14L
tp1358
g3
s(V16*
p1359
L7L
L-14L
tp1360
g3
s(V19*AD
p1361
L9L
L-14L
tp1362
g12
s(g1190
L11L
L-14L
tp1363
g3
s(V11*
p1364
L9L
L-14L
tp1365
g3
s(V15*
p1366
L7L
L-14L
tp1367
g3
s(V16*D
p1368
L7L
L-14L
tp1369
g3
s(V4*DS
p1370
L9L
L-14L
tp1371
g3
s(L21L
L21L
Ntp1372
Ns(V12*D
p1373
L8L
L-14L
tp1374
g3
s(V20*A
p1375
L7L
L-14L
tp1376
g12
s(L21L
L18L
Ntp1377
Ns(V5*D
p1378
L6L
L-14L
tp1379
g3
s(L14L
L19L
Ntp1380
Ns(V13*D
p1381
L2L
L-14L
tp1382
g3
s(L16L
L23L
Ntp1383
Ns(V7*
p1384
L4L
L-14L
tp1385
g3
s(V12*DS
p1386
L8L
L-14L
tp1387
g3
s(V14*AD
p1388
L9L
L-14L
tp1389
g3
s(L4L
L21L
Ntp1390
Ns(L12L
L22L
Ntp1391
Ns(V21*
p1392
L8L
L-14L
tp1393
g12
s(L12L
L17L
Ntp1394
Ns(V6*DS
p1395
L3L
L-14L
tp1396
g3
s(V20*
p1397
L10L
L-14L
tp1398
g12
s(g113
L11L
L-14L
tp1399
g3
s(V17*
p1400
L6L
L-14L
tp1401
g12
s(V14*D
p1402
L10L
L-14L
tp1403
g3
s(L21L
L11L
L-14L
tp1404
g12
s(V10*
p1405
L9L
L-14L
tp1406
g3
s(V19*
p1407
L2L
L-14L
tp1408
g12
s(V14*D
p1409
L6L
L-14L
tp1410
g3
s(L21L
L7L
L-14L
tp1411
g12
s(V15*AD
p1412
L3L
L-14L
tp1413
g3
s(V13*A
p1414
L6L
L-14L
tp1415
g3
s(V17*
p1416
L3L
L-14L
tp1417
g12
s(V16*
p1418
L2L
L-14L
tp1419
g3
s(V22*
p1420
NNtp1421
Ns(L6L
L22L
Ntp1422
Ns(V12*ADS
p1423
L9L
L-14L
tp1424
g3
s(g56
L11L
L-14L
tp1425
g3
s(V8*DS
p1426
L4L
L-14L
tp1427
g3
s(g1007
L21L
Ntp1428
Ns(V15*AD
p1429
L6L
L-14L
tp1430
g3
s(V5*D
p1431
L11L
L-14L
tp1432
g3
s.