(dp0
(L13L
L21L
Ntp1
Ns(V18*
p2
L9L
L10L
tp3
VStay
p4
s(L13L
L18L
Ntp5
Ns(V17*AD
p6
L9L
L10L
tp7
VDraw
p8
s(V20*DS
p9
L3L
L10L
tp10
g4
s(V15*
p11
L7L
L10L
tp12
g4
s(L13L
L24L
Ntp13
Ns(V12*
p14
L5L
L10L
tp15
g4
s(V20*
p16
L9L
L10L
tp17
g4
s(L6L
L26L
Ntp18
Ns(V9*
p19
L4L
L10L
tp20
g8
s(V11*D
p21
L21L
Ntp22
Ns(V18*AD
p23
L11L
L10L
tp24
g4
s(L15L
L26L
Ntp25
Ns(V12*DS
p26
L11L
L10L
tp27
g8
s(L19L
L19L
Ntp28
Ns(V15*D
p29
L9L
L10L
tp30
g4
s(V8*DS
p31
L10L
L10L
tp32
g8
s(L19L
L20L
Ntp33
Ns(V20*A
p34
L21L
Ntp35
Ns(V5*D
p36
L9L
L10L
tp37
g8
s(V10*D
p38
L10L
L10L
tp39
VDouble
p40
s(V17*D
p41
L6L
L10L
tp42
g4
s(V12*DS
p43
L4L
L10L
tp44
g4
s(V12*ADS
p45
L10L
L10L
tp46
g8
s(V21*
p47
L2L
L10L
tp48
g4
s(V21*A
p49
L6L
L10L
tp50
g4
s(V16*A
p51
L6L
L10L
tp52
g8
s(V13*D
p53
L9L
L10L
tp54
g8
s(V18*D
p55
L9L
L10L
tp56
g4
s(V6*D
p57
L6L
L10L
tp58
g8
s(L17L
L21L
Ntp59
Ns(V16*D
p60
L4L
L10L
tp61
g4
s(V12*
p62
L3L
L10L
tp63
g4
s(V20*
p64
L5L
L10L
tp65
g4
s(V13*AD
p66
L4L
L10L
tp67
g40
s(V15*AD
p68
L4L
L10L
tp69
g40
s(V14*AD
p70
L10L
L10L
tp71
g8
s(V12*D
p72
L8L
L10L
tp73
g8
s(V19*D
p74
L7L
L10L
tp75
g4
s(V18*A
p76
L7L
L10L
tp77
g4
s(V10*DS
p78
L5L
L10L
tp79
g40
s(V10*
p80
L11L
L10L
tp81
g8
s(V10*
p82
L2L
L10L
tp83
g8
s(V8*
p84
L2L
L10L
tp85
g8
s(V21*
p86
L8L
L10L
tp87
g4
s(V13*D
p88
L5L
L10L
tp89
g4
s(V25*
p90
NNtp91
Ns(V8*DS
p92
L21L
Ntp93
Ns(V15*A
p94
L7L
L10L
tp95
g8
s(L4L
L24L
Ntp96
Ns(V17*AD
p97
L7L
L10L
tp98
g8
s(V12*
p99
L21L
Ntp100
Ns(V15*AD
p101
L8L
L10L
tp102
g8
s(L4L
L18L
Ntp103
Ns(V13*AD
p104
L2L
L10L
tp105
g8
s(V13*
p106
L4L
L10L
tp107
g4
s(V11*D
p108
L6L
L10L
tp109
g40
s(V6*
p110
L9L
L10L
tp111
g8
s(V12*D
p112
L2L
L10L
tp113
g4
s(L14L
L17L
Ntp114
Ns(L18L
L22L
Ntp115
Ns(V8*
p116
L4L
L10L
tp117
g8
s(V15*D
p118
L3L
L10L
tp119
g4
s(V11*
p120
L8L
L10L
tp121
g8
s(V5*D
p122
L3L
L10L
tp123
g8
s(V16*AD
p124
L10L
L10L
tp125
g8
s(L21L
L4L
L10L
tp126
g4
s(V12*DS
p127
L2L
L10L
tp128
g4
s(V10*DS
p129
L21L
Ntp130
Ns(V17*A
p131
L21L
Ntp132
Ns(V4*DS
p133
L21L
Ntp134
Ns(V16*A
p135
L8L
L10L
tp136
g8
s(V18*D
p137
L21L
Ntp138
Ns(L4L
L20L
Ntp139
Ns(V12*
p140
L9L
L10L
tp141
g8
s(V18*
p142
L10L
L10L
tp143
g4
s(V20*A
p144
L3L
L10L
tp145
g4
s(V9*
p146
L8L
L10L
tp147
g8
s(V20*A
p148
L10L
L10L
tp149
g4
s(V20*
p150
L3L
L10L
tp151
g4
s(L15L
L22L
Ntp152
Ns(V13*A
p153
L6L
L10L
tp154
g8
s(V9*
p155
L7L
L10L
tp156
g8
s(V14*DS
p157
L3L
L10L
tp158
g4
s(V15*D
p159
L5L
L10L
tp160
g4
s(V14*DS
p161
L10L
L10L
tp162
g8
s(V6*DS
p163
L10L
L10L
tp164
g8
s(V12*DS
p165
L8L
L10L
tp166
g8
s(L13L
L19L
Ntp167
Ns(L20L
L21L
Ntp168
Ns(V15*D
p169
L10L
L10L
tp170
g4
s(V10*D
p171
L9L
L10L
tp172
g40
s(V5*D
p173
L10L
L10L
tp174
g8
s(V6*D
p175
L10L
L10L
tp176
g8
s(V17*D
p177
L5L
L10L
tp178
g4
s(V13*D
p179
L3L
L10L
tp180
g4
s(V12*ADS
p181
L9L
L10L
tp182
g8
s(L17L
L25L
Ntp183
Ns(V21*A
p184
L9L
L10L
tp185
g4
s(L6L
L17L
Ntp186
Ns(V28*
p187
NNtp188
Ns(V17*
p189
L8L
L10L
tp190
g4
s(V6*D
p191
L5L
L10L
tp192
g8
s(V20*A
p193
L6L
L10L
tp194
g4
s(V14*AD
p195
L6L
L10L
tp196
g40
s(V19*D
p197
L11L
L10L
tp198
g4
s(V13*AD
p199
L11L
L10L
tp200
g8
s(g23
L21L
Ntp201
Ns(V14*AD
p202
L9L
L10L
tp203
g8
s(V19*D
p204
L4L
L10L
tp205
g4
s(V14*DS
p206
L6L
L10L
tp207
g4
s(L19L
L21L
Ntp208
Ns(V19*A
p209
L6L
L10L
tp210
g4
s(V10*DS
p211
L6L
L10L
tp212
g40
s(L19L
L22L
Ntp213
Ns(V10*
p214
L8L
L10L
tp215
g8
s(L16L
L22L
Ntp216
Ns(V11*
p217
L6L
L10L
tp218
g8
s(V20*AD
p219
L2L
L10L
tp220
g4
s(V15*A
p221
L11L
L10L
tp222
g8
s(V20*AD
p223
L11L
L10L
tp224
g4
s(g131
L11L
L10L
tp225
g8
s(V19*AD
p226
L9L
L10L
tp227
g4
s(V21*A
p228
L3L
L10L
tp229
g4
s(L21L
L22L
Ntp230
Ns(V20*D
p231
L7L
L10L
tp232
g4
s(V15*A
p233
L4L
L10L
tp234
g8
s(V14*DS
p235
L21L
Ntp236
Ns(V14*A
p237
L8L
L10L
tp238
g8
s(V13*
p239
L3L
L10L
tp240
g4
s(V19*A
p241
L10L
L10L
tp242
g4
s(L12L
L21L
Ntp243
Ns(V14*AD
p244
L21L
Ntp245
Ns(V20*AD
p246
L7L
L10L
tp247
g4
s(V8*
p248
L7L
L10L
tp249
g8
s(L20L
L19L
Ntp250
Ns(L4L
L26L
Ntp251
Ns(V5*D
p252
L4L
L10L
tp253
g8
s(V10*D
p254
L7L
L10L
tp255
g40
s(V17*D
p256
L11L
L10L
tp257
g4
s(L21L
L3L
L10L
tp258
g4
s(V12*ADS
p259
L7L
L10L
tp260
g8
s(L17L
L19L
Ntp261
Ns(V16*DS
p262
L21L
Ntp263
Ns(V7*D
p264
L8L
L10L
tp265
g8
s(V16*
p266
L7L
L10L
tp267
g4
s(V6*D
p268
L3L
L10L
tp269
g8
s(V9*D
p270
L5L
L10L
tp271
g40
s(L11L
L21L
Ntp272
Ns(L11L
L22L
Ntp273
Ns(V19*
p274
L7L
L10L
tp275
g4
s(L6L
L24L
Ntp276
Ns(V6*DS
p277
L21L
Ntp278
Ns(V19*D
p279
L2L
L10L
tp280
g4
s(V9*
p281
L11L
L10L
tp282
g8
s(V13*A
p283
L8L
L10L
tp284
g8
s(L13L
L22L
Ntp285
Ns(V6*DS
p286
L6L
L10L
tp287
g8
s(V8*D
p288
L5L
L10L
tp289
g40
s(V15*D
p290
L6L
L10L
tp291
g4
s(V18*DS
p292
L5L
L10L
tp293
g4
s(V18*AD
p294
L2L
L10L
tp295
g40
s(V7*D
p296
L4L
L10L
tp297
g8
s(V15*A
p298
L2L
L10L
tp299
g8
s(V19*
p300
L21L
Ntp301
Ns(V6*D
p302
L9L
L10L
tp303
g8
s(V9*D
p304
L3L
L10L
tp305
g40
s(V17*
p306
L6L
L10L
tp307
g4
s(g300
L11L
L10L
tp308
g4
s(L24L
NNtp309
Ns(V14*A
p310
L2L
L10L
tp311
g8
s(V14*AD
p312
L5L
L10L
tp313
g40
s(V19*D
p314
L8L
L10L
tp315
g4
s(L12L
L19L
Ntp316
Ns(L12L
L26L
Ntp317
Ns(V4*DS
p318
L9L
L10L
tp319
g8
s(V8*D
p320
L3L
L10L
tp321
g40
s(V18*DS
p322
L3L
L10L
tp323
g4
s(L17L
L17L
Ntp324
Ns(V8*
p325
L9L
L10L
tp326
g8
s(V17*A
p327
L7L
L10L
tp328
g8
s(V19*AD
p329
L5L
L10L
tp330
g40
s(V14*
p331
L21L
Ntp332
Ns(V15*A
p333
L8L
L10L
tp334
g8
s(V8*DS
p335
L9L
L10L
tp336
g8
s(V17*A
p337
L8L
L10L
tp338
g8
s(V20*D
p339
L9L
L10L
tp340
g4
s(V17*
p341
L3L
L10L
tp342
g4
s(L10L
L22L
Ntp343
Ns(V7*
p344
L7L
L10L
tp345
g8
s(V18*D
p346
L6L
L10L
tp347
g4
s(L6L
L18L
Ntp348
Ns(V4*DS
p349
L5L
L10L
tp350
g8
s(V16*DS
p351
L10L
L10L
tp352
g4
s(V14*A
p353
L11L
L10L
tp354
g8
s(V17*
p355
L21L
Ntp356
Ns(V12*D
p357
L11L
L10L
tp358
g8
s(V18*DS
p359
L21L
Ntp360
Ns(V8*D
p361
L21L
Ntp362
Ns(L13L
L25L
Ntp363
Ns(L4L
L22L
Ntp364
Ns(L18L
L20L
Ntp365
Ns(V14*D
p366
L7L
L10L
tp367
g8
s(V16*
p368
L11L
L10L
tp369
g4
s(L18L
L26L
Ntp370
Ns(V9*D
p371
L9L
L10L
tp372
g8
s(V7*D
p373
L2L
L10L
tp374
g8
s(V14*
p375
L6L
L10L
tp376
g4
s(V16*AD
p377
L3L
L10L
tp378
g40
s(L11L
L26L
Ntp379
Ns(V15*D
p380
L21L
Ntp381
Ns(V16*
p382
L4L
L10L
tp383
g4
s(V20*DS
p384
L4L
L10L
tp385
g4
s(L11L
L25L
Ntp386
Ns(V18*
p387
L3L
L10L
tp388
g4
s(V11*D
p389
L9L
L10L
tp390
g40
s(V6*
p391
L6L
L10L
tp392
g8
s(V16*DS
p393
L3L
L10L
tp394
g4
s(V8*D
p395
L9L
L10L
tp396
g8
s(V18*DS
p397
L9L
L10L
tp398
g4
s(V13*A
p399
L11L
L10L
tp400
g8
s(V20*
p401
L10L
L10L
tp402
g4
s(L10L
L26L
Ntp403
Ns(L10L
L25L
Ntp404
Ns(V18*AD
p405
L5L
L10L
tp406
g40
s(V16*AD
p407
L5L
L10L
tp408
g40
s(V17*
p409
L5L
L10L
tp410
g4
s(V13*D
p411
L10L
L10L
tp412
g8
s(V18*
p413
L5L
L10L
tp414
g4
s(V14*A
p415
L5L
L10L
tp416
g8
s(V16*D
p417
L3L
L10L
tp418
g4
s(V15*AD
p419
L21L
Ntp420
Ns(L13L
L20L
Ntp421
Ns(V16*D
p422
L10L
L10L
tp423
g4
s(V4*DS
p424
L3L
L10L
tp425
g8
s(V15*
p426
L9L
L10L
tp427
g4
s(V15*AD
p428
L7L
L10L
tp429
g8
s(V18*AD
p430
L9L
L10L
tp431
g8
s(V18*A
p432
L4L
L10L
tp433
g4
s(L14L
L23L
Ntp434
Ns(V17*A
p435
L4L
L10L
tp436
g8
s(V19*AD
p437
L2L
L10L
tp438
g40
s(V8*DS
p439
L7L
L10L
tp440
g8
s(V21*
p441
L6L
L10L
tp442
g4
s(V7*
p443
L11L
L10L
tp444
g8
s(V20*D
p445
L10L
L10L
tp446
g4
s(V16*
p447
L2L
L10L
tp448
g4
s(L12L
L18L
Ntp449
Ns(L28L
NNtp450
Ns(L16L
L18L
Ntp451
Ns(V21*A
p452
L10L
L10L
tp453
g4
s(V16*D
p454
L6L
L10L
tp455
g4
s(V17*AD
p456
L4L
L10L
tp457
g40
s(V18*D
p458
L5L
L10L
tp459
g4
s(V11*D
p460
L3L
L10L
tp461
g40
s(V16*DS
p462
L5L
L10L
tp463
g4
s(V13*AD
p464
L8L
L10L
tp465
g8
s(V22*
p466
NNtp467
Ns(V12*D
p468
L5L
L10L
tp469
g4
s(V18*A
p470
L2L
L10L
tp471
g4
s(L9L
L19L
Ntp472
Ns(V10*DS
p473
L9L
L10L
tp474
g40
s(V10*
p475
L7L
L10L
tp476
g8
s(g26
L21L
Ntp477
Ns(V8*DS
p478
L2L
L10L
tp479
g8
s(V21*
p480
L10L
L10L
tp481
g4
s(V14*
p482
L10L
L10L
tp483
g8
s(V14*D
p484
L8L
L10L
tp485
g8
s(V16*
p486
L8L
L10L
tp487
g4
s(L14L
L24L
Ntp488
Ns(V14*
p489
L5L
L10L
tp490
g4
s(V16*A
p491
L11L
L10L
tp492
g8
s(V7*
p493
L2L
L10L
tp494
g8
s(V17*AD
p495
L2L
L10L
tp496
g40
s(V20*DS
p497
L8L
L10L
tp498
g4
s(L13L
L17L
Ntp499
Ns(V20*DS
p500
L7L
L10L
tp501
g4
s(L13L
L23L
Ntp502
Ns(L6L
L23L
Ntp503
Ns(V15*
p504
L3L
L10L
tp505
g4
s(V11*D
p506
L10L
L10L
tp507
g40
s(V26*
p508
NNtp509
Ns(V6*
p510
L5L
L10L
tp511
g8
s(V20*
p512
L6L
L10L
tp513
g4
s(V13*
p514
L10L
L10L
tp515
g8
s(V20*A
p516
L9L
L10L
tp517
g4
s(V9*
p518
L2L
L10L
tp519
g8
s(L11L
L18L
Ntp520
Ns(V13*D
p521
L21L
Ntp522
Ns(V14*DS
p523
L9L
L10L
tp524
g8
s(V14*D
p525
L2L
L10L
tp526
g4
s(V16*AD
p527
L6L
L10L
tp528
g40
s(V12*DS
p529
L6L
L10L
tp530
g4
s(V13*D
p531
L6L
L10L
tp532
g4
s(L18L
L23L
Ntp533
Ns(V17*D
p534
L2L
L10L
tp535
g4
s(L21L
L10L
L10L
tp536
g4
s(g137
L11L
L10L
tp537
g4
s(V16*A
p538
L2L
L10L
tp539
g8
s(V18*
p540
L6L
L10L
tp541
g4
s(L15L
L17L
Ntp542
Ns(V15*
p543
L5L
L10L
tp544
g4
s(g419
L11L
L10L
tp545
g8
s(V12*
p546
L7L
L10L
tp547
g8
s(L10L
L24L
Ntp548
Ns(V15*
p549
L10L
L10L
tp550
g4
s(V10*DS
p551
L3L
L10L
tp552
g40
s(V18*A
p553
L11L
L10L
tp554
g4
s(V19*A
p555
L5L
L10L
tp556
g4
s(L17L
L20L
Ntp557
Ns(V12*DS
p558
L10L
L10L
tp559
g8
s(V11*
p560
L5L
L10L
tp561
g8
s(L12L
L23L
Ntp562
Ns(V8*DS
p563
L4L
L10L
tp564
g40
s(L12L
L25L
Ntp565
Ns(V20*AD
p566
L8L
L10L
tp567
g4
s(V14*
p568
L3L
L10L
tp569
g4
s(V21*A
p570
L4L
L10L
tp571
g4
s(V17*AD
p572
L11L
L10L
tp573
g8
s(V11*D
p574
L4L
L10L
tp575
g40
s(V6*
p576
L11L
L10L
tp577
g8
s(V13*AD
p578
L6L
L10L
tp579
g40
s(V15*AD
p580
L2L
L10L
tp581
g8
s(V12*D
p582
L6L
L10L
tp583
g4
s(L11L
L23L
Ntp584
Ns(V19*A
p585
L3L
L10L
tp586
g4
s(L11L
L17L
Ntp587
Ns(L4L
L25L
Ntp588
Ns(V10*DS
p589
L10L
L10L
tp590
g40
s(V10*
p591
L4L
L10L
tp592
g8
s(V11*
p593
L3L
L10L
tp594
g8
s(L4L
L19L
Ntp595
Ns(V14*
p596
L9L
L10L
tp597
g8
s(L16L
L20L
Ntp598
Ns(V16*AD
p599
L8L
L10L
tp600
g8
s(L18L
L17L
Ntp601
Ns(V10*D
p602
L4L
L10L
tp603
g40
s(V5*D
p604
L7L
L10L
tp605
g8
s(V17*D
p606
L8L
L10L
tp607
g4
s(V12*ADS
p608
L4L
L10L
tp609
g8
s(L9L
L24L
Ntp610
Ns(L13L
L26L
Ntp611
Ns(V7*D
p612
L11L
L10L
tp613
g8
s(V20*DS
p614
L11L
L10L
tp615
g4
s(V16*A
p616
L4L
L10L
tp617
g8
s(V18*
p618
L8L
L10L
tp619
g4
s(V13*AD
p620
L3L
L10L
tp621
g40
s(L30L
NNtp622
Ns(V13*
p623
L6L
L10L
tp624
g4
s(V20*A
p625
L5L
L10L
tp626
g4
s(V19*
p627
L4L
L10L
tp628
g4
s(V13*
p629
L9L
L10L
tp630
g8
s(V9*
p631
L5L
L10L
tp632
g8
s(V14*DS
p633
L5L
L10L
tp634
g4
s(L16L
L24L
Ntp635
Ns(V13*A
p636
L2L
L10L
tp637
g8
s(L12L
L20L
Ntp638
Ns(V10*D
p639
L2L
L10L
tp640
g40
s(V15*D
p641
L8L
L10L
tp642
g4
s(L21L
L6L
L10L
tp643
g4
s(V12*ADS
p644
L2L
L10L
tp645
g8
s(L17L
L23L
Ntp646
Ns(L21L
L9L
L10L
tp647
g4
s(L6L
L21L
Ntp648
Ns(g99
L11L
L10L
tp649
g8
s(V6*D
p650
L7L
L10L
tp651
g8
s(L10L
L20L
Ntp652
Ns(L10L
L19L
Ntp653
Ns(V15*
p654
L6L
L10L
tp655
g4
s(V19*
p656
L2L
L10L
tp657
g4
s(V12*
p658
L4L
L10L
tp659
g4
s(V14*AD
p660
L2L
L10L
tp661
g8
s(V9*
p662
L9L
L10L
tp663
g8
s(g244
L11L
L10L
tp664
g8
s(V19*D
p665
L6L
L10L
tp666
g4
s(V13*
p667
L21L
Ntp668
Ns(V19*A
p669
L9L
L10L
tp670
g4
s(V4*DS
p671
L10L
L10L
tp672
g8
s(V13*A
p673
L4L
L10L
tp674
g8
s(V10*DS
p675
L4L
L10L
tp676
g40
s(V10*
p677
L10L
L10L
tp678
g8
s(V15*D
p679
L4L
L10L
tp680
g4
s(V8*
p681
L10L
L10L
tp682
g8
s(L14L
L22L
Ntp683
Ns(V20*AD
p684
L4L
L10L
tp685
g4
s(V6*DS
p686
L8L
L10L
tp687
g8
s(V11*
p688
L10L
L10L
tp689
g8
s(L15L
L25L
Ntp690
Ns(V6*D
p691
L11L
L10L
tp692
g8
s(V15*A
p693
L6L
L10L
tp694
g8
s(V21*A
p695
L7L
L10L
tp696
g4
s(V20*D
p697
L3L
L10L
tp698
g4
s(V17*
p699
L10L
L10L
tp700
g4
s(V14*AD
p701
L7L
L10L
tp702
g8
s(V19*D
p703
L10L
L10L
tp704
g4
s(L18L
L24L
Ntp705
Ns(V13*AD
p706
L5L
L10L
tp707
g40
s(L15L
L21L
Ntp708
Ns(V8*
p709
L3L
L10L
tp710
g8
s(V15*A
p711
L10L
L10L
tp712
g8
s(V18*
p713
L21L
Ntp714
Ns(V7*D
p715
L7L
L10L
tp716
g8
s(V19*AD
p717
L11L
L10L
tp718
g4
s(V5*D
p719
L8L
L10L
tp720
g8
s(V10*D
p721
L11L
L10L
tp722
g40
s(V17*D
p723
L7L
L10L
tp724
g4
s(V20*D
p725
L5L
L10L
tp726
g4
s(V12*ADS
p727
L11L
L10L
tp728
g8
s(L21L
NNtp729
Ns(V19*
p730
L8L
L10L
tp731
g4
s(V12*
p732
L2L
L10L
tp733
g4
s(V13*
p734
L5L
L10L
tp735
g4
s(V20*A
p736
L2L
L10L
tp737
g4
s(V16*DS
p738
L6L
L10L
tp739
g4
s(g553
L21L
Ntp740
Ns(V27*
p741
NNtp742
Ns(L8L
L18L
Ntp743
Ns(L8L
L21L
Ntp744
Ns(V14*DS
p745
L2L
L10L
tp746
g4
s(V6*DS
p747
L2L
L10L
tp748
g8
s(L6L
L19L
Ntp749
Ns(V15*D
p750
L2L
L10L
tp751
g4
s(V18*AD
p752
L6L
L10L
tp753
g40
s(V5*D
p754
L2L
L10L
tp755
g8
s(L21L
L5L
L10L
tp756
g4
s(g614
L21L
Ntp757
Ns(V14*D
p758
L11L
L10L
tp759
g8
s(L6L
L25L
Ntp760
Ns(g572
L21L
Ntp761
Ns(V9*D
p762
L7L
L10L
tp763
g40
s(V12*
p764
L8L
L10L
tp765
g8
s(V14*A
p766
L6L
L10L
tp767
g8
s(V20*D
p768
L21L
Ntp769
Ns(V4*DS
p770
L6L
L10L
tp771
g8
s(V16*D
p772
L9L
L10L
tp773
g4
s(L20L
L25L
Ntp774
Ns(V13*A
p775
L7L
L10L
tp776
g8
s(V6*DS
p777
L4L
L10L
tp778
g8
s(L9L
L17L
Ntp779
Ns(V8*D
p780
L7L
L10L
tp781
g8
s(V18*DS
p782
L7L
L10L
tp783
g4
s(V8*
p784
L5L
L10L
tp785
g8
s(L9L
L22L
Ntp786
Ns(V20*AD
p787
L3L
L10L
tp788
g4
s(g277
L11L
L10L
tp789
g8
s(V17*A
p790
L3L
L10L
tp791
g8
s(V17*A
p792
L10L
L10L
tp793
g8
s(V21*
p794
L5L
L10L
tp795
g4
s(V17*
p796
L9L
L10L
tp797
g4
s(V18*D
p798
L2L
L10L
tp799
g4
s(L25L
NNtp800
Ns(L8L
L24L
Ntp801
Ns(L14L
L20L
Ntp802
Ns(V24*
p803
NNtp804
Ns(V18*A
p805
L8L
L10L
tp806
g4
s(L26L
NNtp807
Ns(g256
L21L
Ntp808
Ns(L21L
L26L
Ntp809
Ns(V17*A
p810
L6L
L10L
tp811
g8
s(V19*AD
p812
L7L
L10L
tp813
g4
s(L21L
L19L
Ntp814
Ns(g92
L11L
L10L
tp815
g8
s(V21*
p816
L3L
L10L
tp817
g4
s(L11L
L19L
Ntp818
Ns(V19*AD
p819
L8L
L10L
tp820
g4
s(L11L
L20L
Ntp821
Ns(V20*D
p822
L6L
L10L
tp823
g4
s(g353
L21L
Ntp824
Ns(V16*
p825
L6L
L10L
tp826
g4
s(L14L
L18L
Ntp827
Ns(V7*
p828
L5L
L10L
tp829
g8
s(L4L
L23L
Ntp830
Ns(V17*AD
p831
L8L
L10L
tp832
g8
s(V20*DS
p833
L2L
L10L
tp834
g4
s(V16*DS
p835
L8L
L10L
tp836
g4
s(L18L
L21L
Ntp837
Ns(V6*
p838
L2L
L10L
tp839
g8
s(V12*D
p840
L9L
L10L
tp841
g8
s(V13*A
p842
L9L
L10L
tp843
g8
s(L15L
L19L
Ntp844
Ns(V18*AD
p845
L10L
L10L
tp846
g8
s(V14*D
p847
L5L
L10L
tp848
g4
s(V16*
p849
L10L
L10L
tp850
g4
s(V9*D
p851
L11L
L10L
tp852
g8
s(g491
L21L
Ntp853
Ns(V12*DS
p854
L5L
L10L
tp855
g4
s(L6L
L20L
Ntp856
Ns(V17*
p857
L7L
L10L
tp858
g4
s(V16*A
p859
L7L
L10L
tp860
g8
s(V9*D
p861
L4L
L10L
tp862
g40
s(L8L
L26L
Ntp863
Ns(V18*D
p864
L8L
L10L
tp865
g4
s(L12L
L24L
Ntp866
Ns(V16*D
p867
L5L
L10L
tp868
g4
s(V14*A
p869
L9L
L10L
tp870
g8
s(g361
L11L
L10L
tp871
g8
s(g359
L11L
L10L
tp872
g4
s(L27L
NNtp873
Ns(V20*
p874
L8L
L10L
tp875
g4
s(V6*DS
p876
L7L
L10L
tp877
g8
s(L10L
L23L
Ntp878
Ns(V8*D
p879
L4L
L10L
tp880
g40
s(V18*DS
p881
L4L
L10L
tp882
g4
s(V18*AD
p883
L3L
L10L
tp884
g40
s(V21*
p885
L9L
L10L
tp886
g4
s(V12*DS
p887
L3L
L10L
tp888
g4
s(V20*D
p889
L8L
L10L
tp890
g4
s(V13*D
p891
L8L
L10L
tp892
g8
s(g758
L21L
Ntp893
Ns(V14*A
p894
L3L
L10L
tp895
g8
s(L9L
L25L
Ntp896
Ns(V11*D
p897
L7L
L10L
tp898
g40
s(V6*
p899
L8L
L10L
tp900
g8
s(L9L
L23L
Ntp901
Ns(V12*D
p902
L3L
L10L
tp903
g4
s(L9L
L20L
Ntp904
Ns(V15*AD
p905
L5L
L10L
tp906
g40
s(V18*A
p907
L6L
L10L
tp908
g4
s(L16L
L19L
Ntp909
Ns(V10*
p910
L3L
L10L
tp911
g8
s(V19*AD
p912
L4L
L10L
tp913
g40
s(L11L
L24L
Ntp914
Ns(V11*
p915
L9L
L10L
tp916
g8
s(V16*AD
p917
L11L
L10L
tp918
g8
s(V8*DS
p919
L8L
L10L
tp920
g8
s(V7*
p921
L9L
L10L
tp922
g8
s(V14*
p923
L7L
L10L
tp924
g8
s(V9*D
p925
L2L
L10L
tp926
g40
s(V21*A
p927
L8L
L10L
tp928
g4
s(V21*
p929
L21L
Ntp930
Ns(V17*AD
p931
L6L
L10L
tp932
g40
s(V7*
p933
L6L
L10L
tp934
g8
s(g713
L11L
L10L
tp935
g4
s(L29L
NNtp936
Ns(V20*DS
p937
L5L
L10L
tp938
g4
s(g262
L11L
L10L
tp939
g4
s(V13*AD
p940
L10L
L10L
tp941
g8
s(L21L
L24L
Ntp942
Ns(V18*A
p943
L3L
L10L
tp944
g4
s(V20*
p945
L2L
L10L
tp946
g4
s(V12*D
p947
L10L
L10L
tp948
g8
s(L14L
L25L
Ntp949
Ns(L10L
L18L
Ntp950
Ns(L10L
L17L
Ntp951
Ns(V8*D
p952
L2L
L10L
tp953
g8
s(V18*DS
p954
L2L
L10L
tp955
g4
s(V9*
p956
L6L
L10L
tp957
g8
s(g331
L11L
L10L
tp958
g8
s(V12*DS
p959
L9L
L10L
tp960
g8
s(V14*D
p961
L6L
L10L
tp962
g4
s(g380
L11L
L10L
tp963
g4
s(V9*D
p964
L8L
L10L
tp965
g40
s(L8L
L17L
Ntp966
Ns(V10*D
p967
L8L
L10L
tp968
g40
s(V5*D
p969
L11L
L10L
tp970
g8
s(V16*AD
p971
L2L
L10L
tp972
g8
s(V20*DS
p973
L9L
L10L
tp974
g4
s(V17*AD
p975
L3L
L10L
tp976
g40
s(V13*D
p977
L2L
L10L
tp978
g4
s(V17*D
p979
L4L
L10L
tp980
g4
s(V12*ADS
p981
L8L
L10L
tp982
g8
s(L18L
L19L
Ntp983
Ns(V16*A
p984
L9L
L10L
tp985
g8
s(L21L
L23L
Ntp986
Ns(V18*D
p987
L7L
L10L
tp988
g4
s(V6*D
p989
L4L
L10L
tp990
g8
s(V16*D
p991
L2L
L10L
tp992
g4
s(V18*
p993
L2L
L10L
tp994
g4
s(V21*A
p995
L21L
Ntp996
Ns(V15*
p997
L8L
L10L
tp998
g4
s(V20*
p999
L4L
L10L
tp1000
g4
s(g34
L11L
L10L
tp1001
g4
s(V14*AD
p1002
L8L
L10L
tp1003
g8
s(V18*DS
p1004
L8L
L10L
tp1005
g4
s(V8*D
p1006
L8L
L10L
tp1007
g8
s(V19*D
p1008
L5L
L10L
tp1009
g4
s(V20*
p1010
L11L
L10L
tp1011
g4
s(V10*DS
p1012
L7L
L10L
tp1013
g40
s(V10*
p1014
L9L
L10L
tp1015
g8
s(g235
L11L
L10L
tp1016
g8
s(V8*DS
p1017
L6L
L10L
tp1018
g40
s(V13*D
p1019
L4L
L10L
tp1020
g4
s(L16L
L26L
Ntp1021
Ns(V21*A
p1022
L2L
L10L
tp1023
g4
s(V15*A
p1024
L5L
L10L
tp1025
g8
s(V6*D
p1026
L2L
L10L
tp1027
g8
s(L9L
L18L
Ntp1028
Ns(g521
L11L
L10L
tp1029
g8
s(V15*
p1030
L4L
L10L
tp1031
g4
s(V15*AD
p1032
L9L
L10L
tp1033
g8
s(V11*D
p1034
L8L
L10L
tp1035
g40
s(V6*
p1036
L7L
L10L
tp1037
g8
s(V16*D
p1038
L21L
Ntp1039
Ns(V19*D
p1040
L3L
L10L
tp1041
g4
s(V12*D
p1042
L4L
L10L
tp1043
g4
s(V15*AD
p1044
L6L
L10L
tp1045
g40
s(V18*A
p1046
L5L
L10L
tp1047
g4
s(V19*A
p1048
L7L
L10L
tp1049
g4
s(V8*
p1050
L6L
L10L
tp1051
g8
s(V11*
p1052
L7L
L10L
tp1053
g8
s(L23L
NNtp1054
Ns(L8L
L20L
Ntp1055
Ns(L8L
L23L
Ntp1056
Ns(V20*AD
p1057
L10L
L10L
tp1058
g4
s(V16*AD
p1059
L4L
L10L
tp1060
g40
s(V7*
p1061
L10L
L10L
tp1062
g8
s(V15*A
p1063
L3L
L10L
tp1064
g8
s(g995
L11L
L10L
tp1065
g4
s(V17*AD
p1066
L5L
L10L
tp1067
g40
s(V18*
p1068
L4L
L10L
tp1069
g4
s(V11*D
p1070
L2L
L10L
tp1071
g40
s(L21L
L20L
Ntp1072
Ns(V13*
p1073
L2L
L10L
tp1074
g4
s(L16L
L21L
Ntp1075
Ns(V13*AD
p1076
L9L
L10L
tp1077
g8
s(g667
L11L
L10L
tp1078
g8
s(V9*
p1079
L10L
L10L
tp1080
g8
s(L19L
L17L
Ntp1081
Ns(V11*
p1082
L2L
L10L
tp1083
g8
s(g199
L21L
Ntp1084
Ns(V15*D
p1085
L7L
L10L
tp1086
g4
s(V
p1087
g1087
L10L
tp1088
VBegin
p1089
s(L20L
L24L
Ntp1090
Ns(V5*D
p1091
L5L
L10L
tp1092
g8
s(V10*D
p1093
L6L
L10L
tp1094
g40
s(V17*D
p1095
L10L
L10L
tp1096
g4
s(L21L
L2L
L10L
tp1097
g4
s(V12*ADS
p1098
L6L
L10L
tp1099
g8
s(V17*D
p1100
L3L
L10L
tp1101
g4
s(V6*D
p1102
L8L
L10L
tp1103
g8
s(L21L
L11L
L10L
tp1104
g4
s(V7*D
p1105
L9L
L10L
tp1106
g8
s(L20L
L18L
Ntp1107
Ns(L15L
L23L
Ntp1108
Ns(V16*A
p1109
L10L
L10L
tp1110
g8
s(g717
L21L
Ntp1111
Ns(V13*
p1112
L7L
L10L
tp1113
g8
s(V20*A
p1114
L7L
L10L
tp1115
g4
s(V12*
p1116
L6L
L10L
tp1117
g4
s(V14*AD
p1118
L4L
L10L
tp1119
g40
s(V19*D
p1120
L9L
L10L
tp1121
g4
s(V19*
p1122
L6L
L10L
tp1123
g4
s(V15*
p1124
L2L
L10L
tp1125
g4
s(V20*
p1126
L7L
L10L
tp1127
g4
s(V20*A
p1128
L8L
L10L
tp1129
g4
s(L17L
L22L
Ntp1130
Ns(V9*
p1131
L3L
L10L
tp1132
g8
s(V14*DS
p1133
L7L
L10L
tp1134
g8
s(L8L
L25L
Ntp1135
Ns(L20L
L20L
Ntp1136
Ns(V10*DS
p1137
L8L
L10L
tp1138
g40
s(V10*
p1139
L6L
L10L
tp1140
g8
s(V14*DS
p1141
L8L
L10L
tp1142
g8
s(L14L
L26L
Ntp1143
Ns(V10*D
p1144
L3L
L10L
tp1145
g40
s(L21L
L7L
L10L
tp1146
g4
s(V12*ADS
p1147
L3L
L10L
tp1148
g8
s(g851
L21L
Ntp1149
Ns(V15*A
p1150
L9L
L10L
tp1151
g8
s(V17*A
p1152
L9L
L10L
tp1153
g8
s(V13*D
p1154
L7L
L10L
tp1155
g8
s(V21*A
p1156
L5L
L10L
tp1157
g4
s(V12*
p1158
L10L
L10L
tp1159
g8
s(g727
L21L
Ntp1160
Ns(L21L
L17L
Ntp1161
Ns(g721
L21L
Ntp1162
Ns(V15*AD
p1163
L10L
L10L
tp1164
g8
s(V13*AD
p1165
L7L
L10L
tp1166
g8
s(V14*A
p1167
L10L
L10L
tp1168
g8
s(L15L
L24L
Ntp1169
Ns(V19*A
p1170
L11L
L10L
tp1171
g4
s(L19L
L24L
Ntp1172
Ns(V4*DS
p1173
L8L
L10L
tp1174
g8
s(L4L
L17L
Ntp1175
Ns(V10*DS
p1176
L2L
L10L
tp1177
g40
s(L19L
L18L
Ntp1178
Ns(V19*A
p1179
L4L
L10L
tp1180
g4
s(V8*
p1181
L8L
L10L
tp1182
g8
s(V20*AD
p1183
L6L
L10L
tp1184
g4
s(L9L
L26L
Ntp1185
Ns(L18L
L25L
Ntp1186
Ns(V11*
p1187
L4L
L10L
tp1188
g8
s(V20*AD
p1189
L9L
L10L
tp1190
g4
s(g399
L21L
Ntp1191
Ns(V7*D
p1192
L3L
L10L
tp1193
g8
s(V16*
p1194
L5L
L10L
tp1195
g4
s(L16L
L25L
Ntp1196
Ns(V23*
p1197
NNtp1198
Ns(V16*DS
p1199
L2L
L10L
tp1200
g4
s(V13*A
p1201
L10L
L10L
tp1202
g8
s(L8L
L22L
Ntp1203
Ns(L20L
L23L
Ntp1204
Ns(V7*D
p1205
L5L
L10L
tp1206
g40
s(g223
L21L
Ntp1207
Ns(V10*D
p1208
L5L
L10L
tp1209
g40
s(V5*D
p1210
L6L
L10L
tp1211
g8
s(V17*D
p1212
L9L
L10L
tp1213
g4
s(V12*ADS
p1214
L5L
L10L
tp1215
g8
s(L10L
L21L
Ntp1216
Ns(L18L
L18L
Ntp1217
Ns(V16*
p1218
L3L
L10L
tp1219
g4
s(V7*D
p1220
L10L
L10L
tp1221
g8
s(V17*
p1222
L4L
L10L
tp1223
g4
s(V19*
p1224
L10L
L10L
tp1225
g4
s(V20*A
p1226
L4L
L10L
tp1227
g4
s(V16*DS
p1228
L4L
L10L
tp1229
g4
s(V14*AD
p1230
L3L
L10L
tp1231
g40
s(L17L
L26L
Ntp1232
Ns(V19*
p1233
L5L
L10L
tp1234
g4
s(g197
L21L
Ntp1235
Ns(V4*DS
p1236
L2L
L10L
tp1237
g8
s(L19L
L23L
Ntp1238
Ns(V19*A
p1239
L2L
L10L
tp1240
g4
s(L20L
L26L
Ntp1241
Ns(V14*DS
p1242
L4L
L10L
tp1243
g4
s(V13*A
p1244
L3L
L10L
tp1245
g8
s(L9L
L21L
Ntp1246
Ns(V6*DS
p1247
L9L
L10L
tp1248
g8
s(V17*A
p1249
L5L
L10L
tp1250
g8
s(V18*AD
p1251
L4L
L10L
tp1252
g40
s(V14*D
p1253
L9L
L10L
tp1254
g8
s(g221
L21L
Ntp1255
Ns(g768
L11L
L10L
tp1256
g4
s(V17*
p1257
L2L
L10L
tp1258
g4
s(g917
L21L
Ntp1259
Ns(L15L
L20L
Ntp1260
Ns(V18*D
p1261
L4L
L10L
tp1262
g4
s(V14*A
p1263
L4L
L10L
tp1264
g8
s(V4*DS
p1265
L4L
L10L
tp1266
g8
s(g1038
L11L
L10L
tp1267
g4
s(V19*A
p1268
L8L
L10L
tp1269
g4
s(g133
L11L
L10L
tp1270
g8
s(V6*DS
p1271
L5L
L10L
tp1272
g8
s(V8*
p1273
L11L
L10L
tp1274
g8
s(L21L
L25L
Ntp1275
Ns(V20*AD
p1276
L5L
L10L
tp1277
g4
s(V19*AD
p1278
L3L
L10L
tp1279
g40
s(V19*AD
p1280
L10L
L10L
tp1281
g4
s(V16*
p1282
L9L
L10L
tp1283
g4
s(L14L
L21L
Ntp1284
Ns(g1010
L21L
Ntp1285
Ns(V21*
p1286
L7L
L10L
tp1287
g4
s(V14*
p1288
L4L
L10L
tp1289
g4
s(V7*
p1290
L3L
L10L
tp1291
g8
s(V20*D
p1292
L2L
L10L
tp1293
g4
s(L19L
L26L
Ntp1294
Ns(V19*
p1295
L3L
L10L
tp1296
g4
s(V20*DS
p1297
L6L
L10L
tp1298
g4
s(L8L
L19L
Ntp1299
Ns(g21
L11L
L10L
tp1300
g40
s(V6*
p1301
L4L
L10L
tp1302
g8
s(V13*A
p1303
L5L
L10L
tp1304
g8
s(g357
L21L
Ntp1305
Ns(V18*A
p1306
L10L
L10L
tp1307
g8
s(V19*AD
p1308
L6L
L10L
tp1309
g40
s(L16L
L17L
Ntp1310
Ns(V14*D
p1311
L3L
L10L
tp1312
g4
s(V7*D
p1313
L6L
L10L
tp1314
g40
s(V14*
p1315
L2L
L10L
tp1316
g4
s(V16*AD
p1317
L7L
L10L
tp1318
g8
s(g1170
L21L
Ntp1319
Ns(V9*D
p1320
L6L
L10L
tp1321
g40
s(L15L
L18L
Ntp1322
Ns(g355
L11L
L10L
tp1323
g4
s(V16*A
p1324
L3L
L10L
tp1325
g8
s(V19*
p1326
L9L
L10L
tp1327
g4
s(V17*AD
p1328
L10L
L10L
tp1329
g8
s(V18*
p1330
L7L
L10L
tp1331
g4
s(V16*DS
p1332
L7L
L10L
tp1333
g4
s(L20L
L22L
Ntp1334
Ns(L20L
L17L
Ntp1335
Ns(V15*
p1336
L11L
L10L
tp1337
g4
s(L22L
NNtp1338
Ns(V18*AD
p1339
L8L
L10L
tp1340
g4
s(V8*D
p1341
L6L
L10L
tp1342
g40
s(V18*DS
p1343
L6L
L10L
tp1344
g4
s(V6*DS
p1345
L3L
L10L
tp1346
g8
s(V17*A
p1347
L2L
L10L
tp1348
g8
s(V18*AD
p1349
L7L
L10L
tp1350
g4
s(V9*D
p1351
L10L
L10L
tp1352
g8
s(V8*DS
p1353
L5L
L10L
tp1354
g40
s(V14*D
p1355
L10L
L10L
tp1356
g8
s(L17L
L18L
Ntp1357
Ns(V12*DS
p1358
L7L
L10L
tp1359
g8
s(V20*D
p1360
L4L
L10L
tp1361
g4
s(L17L
L24L
Ntp1362
Ns(V16*A
p1363
L5L
L10L
tp1364
g8
s(V18*D
p1365
L10L
L10L
tp1366
g4
s(L19L
L25L
Ntp1367
Ns(V16*D
p1368
L7L
L10L
tp1369
g4
s(V18*D
p1370
L3L
L10L
tp1371
g4
s(V14*A
p1372
L7L
L10L
tp1373
g8
s(g691
L21L
Ntp1374
Ns(V4*DS
p1375
L7L
L10L
tp1376
g8
s(g1336
L21L
Ntp1377
Ns(V15*AD
p1378
L3L
L10L
tp1379
g40
s(V16*D
p1380
L8L
L10L
tp1381
g4
s(V8*D
p1382
L10L
L10L
tp1383
g8
s(V12*D
p1384
L7L
L10L
tp1385
g8
s(V18*DS
p1386
L10L
L10L
tp1387
g4
s(L21L
L21L
Ntp1388
Ns(L21L
L18L
Ntp1389
Ns(L14L
L19L
Ntp1390
Ns(g129
L11L
L10L
tp1391
g40
s(L16L
L23L
Ntp1392
Ns(V10*
p1393
L5L
L10L
tp1394
g8
s(V8*DS
p1395
L3L
L10L
tp1396
g40
s(g929
L11L
L10L
tp1397
g4
s(V14*
p1398
L8L
L10L
tp1399
g8
s(L4L
L21L
Ntp1400
Ns(L12L
L22L
Ntp1401
Ns(g368
L21L
Ntp1402
Ns(V21*
p1403
L4L
L10L
tp1404
g4
s(L12L
L17L
Ntp1405
Ns(V7*
p1406
L4L
L10L
tp1407
g8
s(V20*DS
p1408
L10L
L10L
tp1409
g4
s(V16*DS
p1410
L9L
L10L
tp1411
g4
s(g612
L21L
Ntp1412
Ns(V11*D
p1413
L5L
L10L
tp1414
g40
s(V6*
p1415
L10L
L10L
tp1416
g8
s(V6*
p1417
L3L
L10L
tp1418
g8
s(V13*
p1419
L8L
L10L
tp1420
g8
s(V18*A
p1421
L9L
L10L
tp1422
g8
s(V11*
p1423
L11L
L10L
tp1424
g8
s(V14*D
p1425
L4L
L10L
tp1426
g4
s(L6L
L22L
Ntp1427
Ns(V16*AD
p1428
L9L
L10L
tp1429
g8
s(V7*
p1430
L8L
L10L
tp1431
g8
s(L21L
L8L
L10L
tp1432
g4
s.