(dp0
(V21*A
p1
L11L
L0L
tp2
F0.32335173541186774
s(L13L
L21L
Ntp3
L0L
s(L13L
L18L
Ntp4
L0L
s(L13L
L24L
Ntp5
L0L
s(V13*A
p6
L11L
L0L
tp7
F-0.3532721931683263
s(V19*A
p8
L9L
L0L
tp9
F0.2816468522041841
s(V14*A
p10
L10L
L0L
tp11
F-0.2104281003708367
s(V10*D
p12
L9L
L0L
tp13
F0.14576659783557744
s(V6*D
p14
L11L
L0L
tp15
F-0.5158605963990278
s(V14*AD
p16
L7L
L0L
tp17
F0.07925763410020643
s(L6L
L26L
Ntp18
L0L
s(V7*D
p19
L2L
L0L
tp20
F-0.10192003441900375
s(L15L
L26L
Ntp21
L0L
s(V17*AD
p22
L11L
L0L
tp23
F-0.428779601476631
s(V17*D
p24
L10L
L0L
tp25
F-0.46226920867373905
s(V15*AD
p26
L10L
L0L
tp27
F-0.23514722701993512
s(V12*ADS
p28
L2L
L0L
tp29
F0.07688860561968373
s(V6*
p30
L5L
L0L
tp31
F-0.03814604689813431
s(V4*DS
p32
L21L
Ntp33
L0L
s(L19L
L19L
Ntp34
L0L
s(V14*
p35
L7L
L0L
tp36
F-0.3198344186710977
s(L19L
L20L
Ntp37
L0L
s(V16*AD
p38
L10L
L0L
tp39
F-0.266287036764896
s(V19*
p40
L10L
L0L
tp41
F-0.02597363102079831
s(V18*D
p42
L5L
L0L
tp43
F0.19608022986329193
s(V18*DS
p44
L21L
Ntp45
L0L
s(V28*
p46
NNtp47
L0L
s(V19*AD
p48
L9L
L0L
tp49
F0.2816468522041841
s(V13*
p50
L9L
L0L
tp51
F-0.39551072693153116
s(V15*D
p52
L3L
L0L
tp53
F-0.2503317091309238
s(L17L
L21L
Ntp54
L0L
s(V15*A
p55
L3L
L0L
tp56
F0.0352395461063407
s(V13*AD
p57
L21L
Ntp58
L0L
s(V18*DS
p59
L7L
L0L
tp60
F0.3996387489906291
s(g57
L11L
L0L
tp61
F-0.3532721931683263
s(V11*
p62
L4L
L0L
tp63
F0.28147100450078577
s(V18*AD
p64
L11L
L0L
tp65
F-0.36775772787500854
s(L21L
L11L
L0L
tp66
F1.0326923076923078
s(V17*AD
p67
L7L
L0L
tp68
F0.057804921826527994
s(V12*DS
p69
L8L
L0L
tp70
F-0.2852826541296448
s(V15*AD
p71
L6L
L0L
tp72
F0.1768966236840235
s(V7*D
p73
L21L
Ntp74
L0L
s(V16*AD
p75
L6L
L0L
tp76
F0.17689662368402362
s(V19*
p77
L6L
L0L
tp78
F0.4943388910701175
s(V13*
p79
L5L
L0L
tp80
F-0.17348742865204383
s(V8*
p81
L10L
L0L
tp82
F-0.30682025522079137
s(L4L
L24L
Ntp83
L0L
s(g44
L11L
L0L
tp84
F-0.37185997761091316
s(V6*DS
p85
L2L
L0L
tp86
F-0.13402636828407533
s(L4L
L18L
Ntp87
L0L
s(L21L
L7L
L0L
tp88
F1.5
s(V9*
p89
L3L
L0L
tp90
F0.10648346374272175
s(V21*A
p91
L4L
L0L
tp92
F0.8906326440830766
s(V9*D
p93
L11L
L0L
tp94
F-0.35039463150809086
s(L14L
L17L
Ntp95
L0L
s(V24*
p96
NNtp97
L0L
s(L18L
L22L
Ntp98
L0L
s(V5*D
p99
L2L
L0L
tp100
F-0.12132179633406732
s(V19*A
p101
L6L
L0L
tp102
F0.4943388910701175
s(V10*
p103
L3L
L0L
tp104
F0.20978630819907632
s(V14*AD
p105
L10L
L0L
tp106
F-0.2104281003708367
s(V8*DS
p107
L5L
L0L
tp108
F0.06863761700540737
s(V8*
p109
L6L
L0L
tp110
F0.11332372376508135
s(L4L
L20L
Ntp111
L0L
s(V8*D
p112
L4L
L0L
tp113
F0.04090280412018119
s(V21*
p114
L4L
L0L
tp115
F0.8906326440830766
s(V14*
p116
L10L
L0L
tp117
F-0.5092355906092945
s(V21*A
p118
L8L
L0L
tp119
F0.9306022850492102
s(V9*D
p120
L7L
L0L
tp121
F0.17414616141897865
s(V16*
p122
L11L
L0L
tp123
F-0.6615942788574358
s(V19*A
p124
L10L
L0L
tp125
F-0.02597363102079831
s(V18*A
p126
L2L
L0L
tp127
F0.130426608636448
s(V14*A
p128
L11L
L0L
tp129
F-0.37469013833111486
s(V10*D
p130
L8L
L0L
tp131
F0.2823496270001414
s(L15L
L22L
Ntp132
L0L
s(V6*D
p133
L8L
L0L
tp134
F-0.21480089663554636
s(V14*AD
p135
L6L
L0L
tp136
F0.16804333689974124
s(V7*D
p137
L3L
L0L
tp138
F-0.07244583411629787
s(V6*
p139
L4L
L0L
tp140
F-0.07193012154983633
s(V8*D
p141
L8L
L0L
tp142
F-0.0589060245249003
s(V17*D
p143
L11L
L0L
tp144
F-0.6340047184170516
s(V15*AD
p145
L9L
L0L
tp146
F-0.1088808580773209
s(V12*ADS
p147
L3L
L0L
tp148
F0.09684618315263421
s(L13L
L19L
Ntp149
L0L
s(L20L
L21L
Ntp150
L0L
s(V14*
p151
L6L
L0L
tp152
F-0.159723560306723
s(V16*AD
p153
L11L
L0L
tp154
F-0.41955324456951465
s(V19*
p155
L11L
L0L
tp156
F-0.11442518053532703
s(L6L
L17L
Ntp157
L0L
s(V18*D
p158
L4L
L0L
tp159
F0.17667513923557576
s(L17L
L25L
Ntp160
L0L
s(V15*
p161
L3L
L0L
tp162
F-0.2503317091309238
s(V13*
p163
L8L
L0L
tp164
F-0.3307683715369136
s(V15*A
p165
L2L
L0L
tp166
F0.008531299203628306
s(V18*DS
p167
L4L
L0L
tp168
F0.17667513923557576
s(V13*AD
p169
L10L
L0L
tp170
F-0.18339120366302153
s(V16*A
p171
L10L
L0L
tp172
F-0.266287036764896
s(V11*
p173
L5L
L0L
tp174
F0.30235091327145525
s(V18*AD
p175
L8L
L0L
tp176
F0.10033181904338545
s(L21L
L10L
L0L
tp177
F1.383173076923077
s(V12*DS
p178
L9L
L0L
tp179
F-0.35377050761198514
s(V15*AD
p180
L5L
L0L
tp181
F0.12219209181937642
s(L19L
L21L
Ntp182
L0L
s(L19L
L22L
Ntp183
L0L
s(L16L
L22L
Ntp184
L0L
s(V13*D
p185
L21L
Ntp186
L0L
s(V16*AD
p187
L7L
L0L
tp188
F0.0011371929827537841
s(V19*
p189
L7L
L0L
tp190
F0.6166977628461
s(V19*AD
p191
L2L
L0L
tp192
F0.3946783871515326
s(V13*
p193
L4L
L0L
tp194
F-0.21315019797616774
s(L21L
L22L
Ntp195
L0L
s(V8*
p196
L11L
L0L
tp197
F-0.4400559820937223
s(V18*DS
p198
L8L
L0L
tp199
F0.10033181904338545
s(g143
L21L
Ntp200
L0L
s(V16*A
p201
L6L
L0L
tp202
F0.0978287530506766
s(L21L
L6L
L0L
tp203
F1.5
s(V9*
p204
L2L
L0L
tp205
F0.08214168912854175
s(V21*A
p206
L5L
L0L
tp207
F0.8915645347104276
s(V9*D
p208
L10L
L0L
tp209
F-0.2194287669089087
s(L12L
L21L
Ntp210
L0L
s(V19*A
p211
L7L
L0L
tp212
F0.6166977628461
s(V14*DS
p213
L21L
Ntp214
L0L
s(V20*
p215
L21L
Ntp216
L0L
s(L20L
L19L
Ntp217
L0L
s(V10*
p218
L2L
L0L
tp219
F0.18797181375975475
s(V14*AD
p220
L9L
L0L
tp221
F-0.07895651695913308
s(V8*DS
p222
L4L
L0L
tp223
F0.04090280412018119
s(L4L
L26L
Ntp224
L0L
s(V8*
p225
L7L
L0L
tp226
F0.0862889570269464
s(L17L
L19L
Ntp227
L0L
s(V8*D
p228
L5L
L0L
tp229
F0.06863761700540737
s(V6*DS
p230
L9L
L0L
tp231
F-0.2910393461303945
s(V17*A
p232
L10L
L0L
tp233
F-0.25649181100531704
s(V16*DS
p234
L3L
L0L
tp235
F-0.2503317091309238
s(V21*
p236
L5L
L0L
tp237
F0.8915645347104276
s(V4*DS
p238
L2L
L0L
tp239
F-0.10992001624268571
s(V14*
p240
L9L
L0L
tp241
F-0.4323965476373703
s(V21*A
p242
L9L
L0L
tp243
F0.938996622973316
s(L11L
L21L
Ntp244
L0L
s(V9*D
p245
L6L
L0L
tp246
F0.311998614955778
s(L11L
L22L
Ntp247
L0L
s(L6L
L24L
Ntp248
L0L
s(V16*
p249
L10L
L0L
tp250
F-0.5711049110018841
s(V19*A
p251
L11L
L0L
tp252
F-0.11442518053532703
s(V11*D
p253
L3L
L0L
tp254
F0.5200486325579419
s(V18*A
p255
L3L
L0L
tp256
F0.15331778317982836
s(V14*A
p257
L4L
L0L
tp258
F0.07952428211773498
s(V10*D
p259
L11L
L0L
tp260
F-0.2510928977242363
s(V6*D
p261
L9L
L0L
tp262
F-0.2910393461303945
s(V14*AD
p263
L5L
L0L
tp264
F0.11331665879135595
s(L13L
L22L
Ntp265
L0L
s(V6*
p266
L7L
L0L
tp267
F-0.1477395159925329
s(V8*D
p268
L9L
L0L
tp269
F-0.21123119211970062
s(V17*D
p270
L4L
L0L
tp271
F-0.0816374070251545
s(V15*AD
p272
L8L
L0L
tp273
F-0.022978756909915316
s(V14*
p274
L5L
L0L
tp275
F-0.17348742865204383
s(V16*AD
p276
L8L
L0L
tp277
F-0.06278793635036164
s(V19*
p278
L8L
L0L
tp279
F0.5929113389116607
s(V18*D
p280
L7L
L0L
tp281
F0.3996387489906291
s(V12*D
p282
L7L
L0L
tp283
F-0.22446273604872127
s(V15*
p284
L2L
L0L
tp285
F-0.2873767150837089
s(L24L
NNtp286
L0L
s(L12L
L19L
Ntp287
L0L
s(V18*DS
p288
L5L
L0L
tp289
F0.19608022986329193
s(V13*AD
p290
L9L
L0L
tp291
F-0.047614630669577114
s(V16*A
p292
L11L
L0L
tp293
F-0.41955324456951465
s(V7*D
p294
L8L
L0L
tp295
F-0.21162139536869
s(L12L
L26L
Ntp296
L0L
s(V11*
p297
L6L
L0L
tp298
F0.32852529573420813
s(V18*AD
p299
L9L
L0L
tp300
F-0.10023620982927361
s(L21L
L9L
L0L
tp301
F1.5
s(V12*
p302
L21L
Ntp303
L0L
s(V15*AD
p304
L4L
L0L
tp305
F0.06301926080067093
s(L17L
L17L
Ntp306
L0L
s(V20*A
p307
L3L
L0L
tp308
F0.6559800489461085
s(V16*AD
p309
L4L
L0L
tp310
F0.06301926080067097
s(V19*
p311
L4L
L0L
tp312
F0.42549740685060056
s(V19*AD
p313
L3L
L0L
tp314
F0.41097592929478327
s(V15*A
p315
L9L
L0L
tp316
F-0.1088808580773209
s(V13*
p317
L3L
L0L
tp318
F-0.2503317091309238
s(L10L
L22L
Ntp319
L0L
s(V18*DS
p320
L9L
L0L
tp321
F-0.19048787046789273
s(V16*A
p322
L7L
L0L
tp323
F0.0011371929827537841
s(L6L
L18L
Ntp324
L0L
s(L21L
L5L
L0L
tp325
F1.5
s(V13*
p326
L21L
Ntp327
L0L
s(V12*DS
p328
L2L
L0L
tp329
F-0.2604956325632414
s(V9*D
p330
L9L
L0L
tp331
F-0.05218189192988317
s(V20*DS
p332
L3L
L0L
tp333
F0.6559800489461085
s(L13L
L25L
Ntp334
L0L
s(L4L
L22L
Ntp335
L0L
s(L18L
L20L
Ntp336
L0L
s(V14*AD
p337
L8L
L0L
tp338
F0.010598774875287703
s(V8*DS
p339
L7L
L0L
tp340
F0.0862889570269464
s(L18L
L26L
Ntp341
L0L
s(V8*D
p342
L6L
L0L
tp343
F0.11332372376508135
s(V6*DS
p344
L8L
L0L
tp345
F-0.21480089663554636
s(V17*A
p346
L11L
L0L
tp347
F-0.428779601476631
s(V16*DS
p348
L2L
L0L
tp349
F-0.2873767150837089
s(L11L
L26L
Ntp350
L0L
s(V21*
p351
L10L
L0L
tp352
F0.8098450451244926
s(V4*DS
p353
L3L
L0L
tp354
F-0.0803997804537909
s(V14*
p355
L8L
L0L
tp356
F-0.37219901169265346
s(V9*D
p357
L5L
L0L
tp358
F0.23774222965444408
s(L11L
L25L
Ntp359
L0L
s(V16*
p360
L9L
L0L
tp361
F-0.5045058170766723
s(V18*A
p362
L4L
L0L
tp363
F0.17667513923557576
s(V11*D
p364
L2L
L0L
tp365
F0.47659933380718345
s(V14*DS
p366
L3L
L0L
tp367
F-0.2503317091309238
s(V14*A
p368
L5L
L0L
tp369
F0.10730497489452175
s(V10*D
p370
L10L
L0L
tp371
F-0.05466342924782924
s(V12*ADS
p372
L21L
Ntp373
L0L
s(V14*AD
p374
L4L
L0L
tp375
F0.07952428211773498
s(V20*AD
p376
L3L
L0L
tp377
F0.6559800489461085
s(L10L
L26L
Ntp378
L0L
s(L10L
L25L
Ntp379
L0L
s(g6
L21L
Ntp380
L0L
s(V6*
p381
L6L
L0L
tp382
F-0.01589259009757995
s(V8*D
p383
L10L
L0L
tp384
F-0.30682025522079137
s(V17*D
p385
L5L
L0L
tp386
F-0.05027227791213377
s(V14*
p387
L4L
L0L
tp388
F-0.21315019797616774
s(V16*AD
p389
L9L
L0L
tp390
F-0.14539928420739892
s(V19*
p391
L9L
L0L
tp392
F0.2816468522041841
s(V18*D
p393
L6L
L0L
tp394
F0.28056781446465806
s(V12*D
p395
L6L
L0L
tp396
F-0.159723560306723
s(V15*
p397
L5L
L0L
tp398
F-0.17348742865204383
s(V15*A
p399
L21L
Ntp400
L0L
s(L13L
L20L
Ntp401
L0L
s(V6*D
p402
L2L
L0L
tp403
F-0.13402636828407533
s(V13*AD
p404
L8L
L0L
tp405
F0.045415434440740816
s(V16*A
p406
L8L
L0L
tp407
F-0.06278793635036164
s(V7*D
p408
L9L
L0L
tp409
F-0.285079303862315
s(g155
L21L
Ntp410
L0L
s(g153
L21L
Ntp411
L0L
s(V13*D
p412
L3L
L0L
tp413
F-0.2503317091309238
s(V11*
p414
L7L
L0L
tp415
F0.2882002826855328
s(V18*AD
p416
L6L
L0L
tp417
F0.3812592019149575
s(L21L
L8L
L0L
tp418
F1.5
s(V17*AD
p419
L2L
L0L
tp420
F0.01211671228504397
s(V15*AD
p421
L3L
L0L
tp422
F0.0352395461063407
s(V20*A
p423
L2L
L0L
tp424
F0.6453124170441201
s(L14L
L23L
Ntp425
L0L
s(V16*AD
p426
L5L
L0L
tp427
F0.12219209181937636
s(V19*
p428
L5L
L0L
tp429
F0.43758529924933387
s(V15*
p430
L9L
L0L
tp431
F-0.4659144432143747
s(L28L
NNtp432
L0L
s(L12L
L18L
Ntp433
L0L
s(V15*A
p434
L8L
L0L
tp435
F-0.022978756909915316
s(V13*
p436
L2L
L0L
tp437
F-0.2873767150837089
s(V15*D
p438
L21L
Ntp439
L0L
s(L16L
L18L
Ntp440
L0L
s(V16*A
p441
L4L
L0L
tp442
F0.04271531891458484
s(L21L
L4L
L0L
tp443
F1.5
s(g22
L21L
Ntp444
L0L
s(V12*DS
p445
L3L
L0L
tp446
F-0.24241190669067691
s(V9*D
p447
L8L
L0L
tp448
F0.10034697181085936
s(V20*DS
p449
L2L
L0L
tp450
F0.6453124170441201
s(g93
L21L
Ntp451
L0L
s(L9L
L19L
Ntp452
L0L
s(g292
L21L
Ntp453
L0L
s(V16*D
p454
L21L
Ntp455
L0L
s(V8*DS
p456
L6L
L0L
tp457
F0.11332372376508135
s(L14L
L24L
Ntp458
L0L
s(V8*D
p459
L7L
L0L
tp460
F0.0862889570269464
s(V6*DS
p461
L11L
L0L
tp462
F-0.5158605963990278
s(V17*A
p463
L8L
L0L
tp464
F-0.07201078205917733
s(V16*DS
p465
L5L
L0L
tp466
F-0.17348742865204383
s(V21*
p467
L11L
L0L
tp468
F0.32335173541186774
s(L13L
L17L
Ntp469
L0L
s(V9*D
p470
L4L
L0L
tp471
F0.18518431056490298
s(L13L
L23L
Ntp472
L0L
s(L6L
L23L
Ntp473
L0L
s(V5*D
p474
L11L
L0L
tp475
F-0.49823268829299194
s(V16*
p476
L8L
L0L
tp477
F-0.45272346683114123
s(V18*A
p478
L5L
L0L
tp479
F0.19608022986329193
s(V11*D
p480
L5L
L0L
tp481
F0.6047018265429105
s(V14*DS
p482
L2L
L0L
tp483
F-0.2873767150837089
s(V14*A
p484
L6L
L0L
tp485
F0.13508315115483036
s(V10*D
p486
L5L
L0L
tp487
F0.5069469841503733
s(V14*AD
p488
L3L
L0L
tp489
F0.05274075096776099
s(V20*AD
p490
L2L
L0L
tp491
F0.6453124170441201
s(L11L
L18L
Ntp492
L0L
s(g14
L21L
Ntp493
L0L
s(g215
L11L
L0L
tp494
F0.14190048668558145
s(V8*D
p495
L11L
L0L
tp496
F-0.4400559820937223
s(V17*D
p497
L6L
L0L
tp498
F0.006952606468648481
s(V20*D
p499
L2L
L0L
tp500
F0.6453124170441201
s(V4*DS
p501
L8L
L0L
tp502
F-0.16118810060818423
s(V14*
p503
L3L
L0L
tp504
F-0.2503317091309238
s(L18L
L23L
Ntp505
L0L
s(V14*AD
p506
L21L
Ntp507
L0L
s(V12*D
p508
L5L
L0L
tp509
F-0.17348742865204383
s(V15*
p510
L4L
L0L
tp511
F-0.21315019797616774
s(L15L
L17L
Ntp512
L0L
s(V11*D
p513
L9L
L0L
tp514
F0.22085573839323375
s(L10L
L24L
Ntp515
L0L
s(V6*D
p516
L3L
L0L
tp517
F-0.10355555247590283
s(V13*AD
p518
L7L
L0L
tp519
F0.11662311781884822
s(V16*A
p520
L9L
L0L
tp521
F-0.14539928420739892
s(V7*D
p522
L10L
L0L
tp523
F-0.3699346818076746
s(V20*DS
p524
L21L
Ntp525
L0L
s(V11*
p526
L8L
L0L
tp527
F0.2249349410323572
s(V13*D
p528
L2L
L0L
tp529
F-0.2873767150837089
s(V18*AD
p530
L7L
L0L
tp531
F0.3996387489906291
s(V20*
p532
L7L
L0L
tp533
F0.7738832798607757
s(V17*AD
p534
L3L
L0L
tp535
F0.06843275927717596
s(V15*AD
p536
L2L
L0L
tp537
F0.008531299203628306
s(L17L
L20L
Ntp538
L0L
s(V16*AD
p539
L2L
L0L
tp540
F-0.01274618916956733
s(L12L
L23L
Ntp541
L0L
s(V19*
p542
L2L
L0L
tp543
F0.3946783871515326
s(L12L
L25L
Ntp544
L0L
s(V15*
p545
L8L
L0L
tp546
F-0.41009904453625895
s(g399
L11L
L0L
tp547
F-0.39486339560815475
s(V16*A
p548
L5L
L0L
tp549
F0.0720121992110602
s(L21L
L3L
L0L
tp550
F1.5
s(V9*
p551
L7L
L0L
tp552
F0.17414616141897865
s(L11L
L23L
Ntp553
L0L
s(V16*D
p554
L8L
L0L
tp555
F-0.45272346683114123
s(L11L
L17L
Ntp556
L0L
s(L4L
L25L
Ntp557
L0L
s(L4L
L19L
Ntp558
L0L
s(L16L
L20L
Ntp559
L0L
s(V8*DS
p560
L9L
L0L
tp561
F-0.21123119211970062
s(L18L
L17L
Ntp562
L0L
s(V8*
p563
L2L
L0L
tp564
F-0.013480705078905492
s(L9L
L24L
Ntp565
L0L
s(V6*DS
p566
L10L
L0L
tp567
F-0.3873918588810049
s(L13L
L26L
Ntp568
L0L
s(V16*DS
p569
L4L
L0L
tp570
F-0.21315019797616774
s(V17*A
p571
L9L
L0L
tp572
F-0.14808414088740607
s(V21*
p573
L8L
L0L
tp574
F0.9306022850492102
s(V9*D
p575
L3L
L0L
tp576
F0.13213941720085326
s(V20*DS
p577
L9L
L0L
tp578
F0.7572214093769947
s(L30L
NNtp579
L0L
s(V16*D
p580
L4L
L0L
tp581
F-0.21315019797616774
s(V5*D
p582
L10L
L0L
tp583
F-0.36508748690173076
s(V16*
p584
L7L
L0L
tp585
F-0.4076686321010297
s(V18*A
p586
L6L
L0L
tp587
F0.28056781446465806
s(V11*D
p588
L4L
L0L
tp589
F0.5629420090015717
s(V14*DS
p590
L5L
L0L
tp591
F-0.17348742865204383
s(V14*A
p592
L7L
L0L
tp593
F0.07925763410020643
s(V10*D
p594
L4L
L0L
tp595
F0.4634352145600642
s(L16L
L24L
Ntp596
L0L
s(V14*AD
p597
L2L
L0L
tp598
F0.026698135260116048
s(V20*AD
p599
L5L
L0L
tp600
F0.6695410405103587
s(L12L
L20L
Ntp601
L0L
s(g495
L21L
Ntp602
L0L
s(V20*
p603
L10L
L0L
tp604
F0.4291580974937881
s(V17*D
p605
L7L
L0L
tp606
F-0.11118827445311047
s(V20*D
p607
L3L
L0L
tp608
F0.6559800489461085
s(V4*DS
p609
L9L
L0L
tp610
F-0.24334071903629173
s(V14*
p611
L2L
L0L
tp612
F-0.2873767150837089
s(L17L
L23L
Ntp613
L0L
s(L6L
L21L
Ntp614
L0L
s(L10L
L20L
Ntp615
L0L
s(V12*D
p616
L4L
L0L
tp617
F-0.21315019797616774
s(V15*
p618
L7L
L0L
tp619
F-0.3615351313319753
s(V23*
p620
NNtp621
L0L
s(V26*
p622
NNtp623
L0L
s(L10L
L19L
Ntp624
L0L
s(V11*D
p625
L8L
L0L
tp626
F0.3374244849177672
s(V13*AD
p627
L6L
L0L
tp628
F0.16085183792189683
s(V20*AD
p629
L9L
L0L
tp630
F0.7572214093769947
s(g73
L11L
L0L
tp631
F-0.5194561666873715
s(V11*
p632
L9L
L0L
tp633
F0.1543210318792234
s(V13*D
p634
L5L
L0L
tp635
F-0.17348742865204383
s(V12*
p636
L10L
L0L
tp637
F-0.4402896705251292
s(V18*AD
p638
L4L
L0L
tp639
F0.244091699611567
s(V20*
p640
L6L
L0L
tp641
F0.7032563170346242
s(L14L
L22L
Ntp642
L0L
s(V16*AD
p643
L3L
L0L
tp644
F0.014635663385278526
s(V19*
p645
L3L
L0L
tp646
F0.41097592929478327
s(L15L
L25L
Ntp647
L0L
s(V11*D
p648
L21L
Ntp649
L0L
s(V19*AD
p650
L6L
L0L
tp651
F0.4943388910701175
s(V15*
p652
L11L
L0L
tp653
F-0.6352376794222938
s(V15*A
p654
L10L
L0L
tp655
F-0.23514722701993512
s(L18L
L24L
Ntp656
L0L
s(V16*A
p657
L2L
L0L
tp658
F-0.01274618916956733
s(V13*D
p659
L9L
L0L
tp660
F-0.39551072693153116
s(V12*
p661
L6L
L0L
tp662
F-0.159723560306723
s(L21L
L2L
L0L
tp663
F1.5
s(V9*
p664
L6L
L0L
tp665
F0.19402638184261536
s(V16*D
p666
L9L
L0L
tp667
F-0.5045058170766723
s(L15L
L21L
Ntp668
L0L
s(V7*
p669
L3L
L0L
tp670
F-0.07244583411629787
s(V12*D
p671
L21L
Ntp672
L0L
s(V8*DS
p673
L8L
L0L
tp674
F-0.0589060245249003
s(V8*
p675
L3L
L0L
tp676
F0.013210891909615607
s(L21L
NNtp677
L0L
s(V6*DS
p678
L5L
L0L
tp679
F-0.03814604689813431
s(V17*A
p680
L6L
L0L
tp681
F0.1273928392712573
s(V16*DS
p682
L7L
L0L
tp683
F-0.4076686321010297
s(V21*
p684
L9L
L0L
tp685
F0.938996622973316
s(V20*DS
p686
L8L
L0L
tp687
F0.7916956055982189
s(V9*D
p688
L2L
L0L
tp689
F0.08214168912854175
s(V17*
p690
L3L
L0L
tp691
F-0.11420884683599226
s(V16*D
p692
L5L
L0L
tp693
F-0.17348742865204383
s(V5*D
p694
L9L
L0L
tp695
F-0.26519098027516513
s(V16*DS
p696
L21L
Ntp697
L0L
s(V16*
p698
L6L
L0L
tp699
F-0.159723560306723
s(L8L
L18L
Ntp700
L0L
s(V18*A
p701
L7L
L0L
tp702
F0.3996387489906291
s(V11*D
p703
L7L
L0L
tp704
F0.4470706770807464
s(V14*DS
p705
L4L
L0L
tp706
F-0.21315019797616774
s(L8L
L21L
Ntp707
L0L
s(V10*D
p708
L7L
L0L
tp709
F0.3832624807739434
s(V20*AD
p710
L4L
L0L
tp711
F0.66439260366103
s(L6L
L19L
Ntp712
L0L
s(V20*
p713
L9L
L0L
tp714
F0.7572214093769947
s(V6*
p715
L3L
L0L
tp716
F-0.10355555247590283
s(V20*D
p717
L4L
L0L
tp718
F0.66439260366103
s(L6L
L25L
Ntp719
L0L
s(g259
L21L
Ntp720
L0L
s(V4*DS
p721
L10L
L0L
tp722
F-0.34655354388043713
s(V18*D
p723
L3L
L0L
tp724
F0.15331778317982836
s(g671
L11L
L0L
tp725
F-0.5584239713437515
s(V15*
p726
L6L
L0L
tp727
F-0.159723560306723
s(g648
L11L
L0L
tp728
F-0.21192905392451564
s(g128
L21L
Ntp729
L0L
s(V19*AD
p730
L21L
Ntp731
L0L
s(V13*AD
p732
L5L
L0L
tp733
F0.12566176462615775
s(V20*AD
p734
L8L
L0L
tp735
F0.7916956055982189
s(V7*D
p736
L4L
L0L
tp737
F-0.041832764539621065
s(V11*
p738
L10L
L0L
tp739
F0.030571259804288008
s(L20L
L25L
Ntp740
L0L
s(V13*D
p741
L4L
L0L
tp742
F-0.21315019797616774
s(g302
L11L
L0L
tp743
F-0.5584239713437515
s(V18*AD
p744
L5L
L0L
tp745
F0.2938671085489026
s(V20*
p746
L5L
L0L
tp747
F0.6695410405103587
s(L9L
L17L
Ntp748
L0L
s(V20*D
p749
L8L
L0L
tp750
F0.7916956055982189
s(L9L
L22L
Ntp751
L0L
s(V14*D
p752
L2L
L0L
tp753
F-0.2873767150837089
s(V19*AD
p754
L7L
L0L
tp755
F0.6166977628461
s(V15*
p756
L10L
L0L
tp757
F-0.5377005819549154
s(V15*A
p758
L5L
L0L
tp759
F0.09113284330424425
s(V16*A
p760
L3L
L0L
tp761
F0.014635663385278526
s(V13*D
p762
L8L
L0L
tp763
F-0.3307683715369136
s(L25L
NNtp764
L0L
s(V12*
p765
L7L
L0L
tp766
F-0.22446273604872127
s(L8L
L24L
Ntp767
L0L
s(L14L
L20L
Ntp768
L0L
s(V12*DS
p769
L6L
L0L
tp770
F-0.159723560306723
s(V9*
p771
L5L
L0L
tp772
F0.15593160107318685
s(V16*D
p773
L10L
L0L
tp774
F-0.5711049110018841
s(V10*DS
p775
L11L
L0L
tp776
F-0.2510928977242363
s(L26L
NNtp777
L0L
s(L21L
L26L
Ntp778
L0L
s(g346
L21L
Ntp779
L0L
s(L21L
L19L
Ntp780
L0L
s(V7*
p781
L2L
L0L
tp782
F-0.10192003441900375
s(V18*
p783
L11L
L0L
tp784
F-0.37185997761091316
s(V10*
p785
L9L
L0L
tp786
F0.11677646160039544
s(V8*DS
p787
L11L
L0L
tp788
F-0.4400559820937223
s(V19*D
p789
L2L
L0L
tp790
F0.3946783871515326
s(L11L
L19L
Ntp791
L0L
s(L11L
L20L
Ntp792
L0L
s(V6*DS
p793
L4L
L0L
tp794
F-0.07193012154983633
s(V17*A
p795
L7L
L0L
tp796
F0.057804921826527994
s(V16*DS
p797
L6L
L0L
tp798
F-0.159723560306723
s(L14L
L18L
Ntp799
L0L
s(L4L
L23L
Ntp800
L0L
s(V21*A
p801
L2L
L0L
tp802
F0.8837862830379171
s(g524
L11L
L0L
tp803
F0.14190048668558145
s(L18L
L21L
Ntp804
L0L
s(V17*
p805
L2L
L0L
tp806
F-0.14641400205072427
s(V16*D
p807
L6L
L0L
tp808
F-0.159723560306723
s(V10*DS
p809
L7L
L0L
tp810
F0.3832624807739434
s(V5*D
p811
L8L
L0L
tp812
F-0.185865634637609
s(V16*
p813
L5L
L0L
tp814
F-0.17348742865204383
s(V13*A
p815
L2L
L0L
tp816
F0.047273529463926225
s(g1
L21L
Ntp817
L0L
s(V11*D
p818
L6L
L0L
tp819
F0.657050591468416
s(V14*DS
p820
L7L
L0L
tp821
F-0.3198344186710977
s(L15L
L19L
Ntp822
L0L
s(V18*A
p823
L8L
L0L
tp824
F0.10033181904338545
s(V10*D
p825
L6L
L0L
tp826
F0.5696651753980208
s(V18*
p827
L7L
L0L
tp828
F0.3996387489906291
s(V10*
p829
L5L
L0L
tp830
F0.25347349207518666
s(V20*AD
p831
L7L
L0L
tp832
F0.7738832798607757
s(V20*
p833
L8L
L0L
tp834
F0.7916956055982189
s(V6*
p835
L2L
L0L
tp836
F-0.13402636828407533
s(V20*D
p837
L5L
L0L
tp838
F0.6695410405103587
s(V21*
p839
L2L
L0L
tp840
F0.8837862830379171
s(g32
L11L
L0L
tp841
F-0.4833292557194322
s(L6L
L20L
Ntp842
L0L
s(L8L
L26L
Ntp843
L0L
s(V18*D
p844
L2L
L0L
tp845
F0.130426608636448
s(L12L
L24L
Ntp846
L0L
s(V12*D
p847
L10L
L0L
tp848
F-0.4402896705251292
s(V15*D
p849
L10L
L0L
tp850
F-0.5377005819549154
s(V11*D
p851
L10L
L0L
tp852
F0.08889701514212957
s(V6*D
p853
L6L
L0L
tp854
F-0.01589259009757995
s(V13*AD
p855
L4L
L0L
tp856
F0.09866269309258588
s(V20*AD
p857
L11L
L0L
tp858
F0.14190048668558145
s(V7*D
p859
L5L
L0L
tp860
F-0.010346687438653603
s(V11*
p861
L11L
L0L
tp862
F-0.21192905392451564
s(L27L
NNtp863
L0L
s(V13*D
p864
L7L
L0L
tp865
F-0.274251164304196
s(V12*
p866
L8L
L0L
tp867
F-0.2852826541296448
s(V18*AD
p868
L2L
L0L
tp869
F0.1403117699270439
s(V20*
p870
L4L
L0L
tp871
F0.66439260366103
s(L10L
L23L
Ntp872
L0L
s(V20*D
p873
L9L
L0L
tp874
F0.7572214093769947
s(g461
L21L
Ntp875
L0L
s(V14*D
p876
L3L
L0L
tp877
F-0.2503317091309238
s(V19*AD
p878
L4L
L0L
tp879
F0.42549740685060056
s(V15*A
p880
L4L
L0L
tp881
F0.06264330628780691
s(V15*D
p882
L6L
L0L
tp883
F-0.159723560306723
s(L9L
L25L
Ntp884
L0L
s(V18*DS
p885
L2L
L0L
tp886
F0.130426608636448
s(L9L
L23L
Ntp887
L0L
s(g185
L11L
L0L
tp888
F-0.5869076175853298
s(V12*
p889
L4L
L0L
tp890
F-0.21315019797616774
s(L9L
L20L
Ntp891
L0L
s(V9*
p892
L4L
L0L
tp893
F0.13111553739844495
s(V12*DS
p894
L7L
L0L
tp895
F-0.22446273604872127
s(g454
L11L
L0L
tp896
F-0.6615942788574358
s(V10*DS
p897
L10L
L0L
tp898
F-0.05466342924782924
s(L16L
L19L
Ntp899
L0L
s(V7*
p900
L5L
L0L
tp901
F-0.010346687438653603
s(L11L
L24L
Ntp902
L0L
s(V18*
p903
L10L
L0L
tp904
F-0.24395916023188408
s(V10*
p905
L8L
L0L
tp906
F0.19739751207354417
s(V8*DS
p907
L10L
L0L
tp908
F-0.30682025522079137
s(V19*D
p909
L3L
L0L
tp910
F0.41097592929478327
s(V6*DS
p911
L7L
L0L
tp912
F-0.1477395159925329
s(V17*A
p913
L4L
L0L
tp914
F0.06223809982446647
s(V16*DS
p915
L9L
L0L
tp916
F-0.5045058170766723
s(V14*D
p917
L21L
Ntp918
L0L
s(L29L
NNtp919
L0L
s(V21*A
p920
L3L
L0L
tp921
F0.8873648951016896
s(g467
L21L
Ntp922
L0L
s(V20*DS
p923
L10L
L0L
tp924
F0.4291580974937881
s(V17*
p925
L5L
L0L
tp926
F-0.05027227791213377
s(V16*D
p927
L7L
L0L
tp928
F-0.4076686321010297
s(V10*DS
p929
L6L
L0L
tp930
F0.5696651753980208
s(V5*D
p931
L7L
L0L
tp932
F-0.11538670085218913
s(L21L
L24L
Ntp933
L0L
s(L14L
L25L
Ntp934
L0L
s(V16*
p935
L4L
L0L
tp936
F-0.21315019797616774
s(V13*A
p937
L3L
L0L
tp938
F0.07256913396422861
s(V18*A
p939
L9L
L0L
tp940
F-0.10023620982927361
s(L10L
L17L
Ntp941
L0L
s(V14*DS
p942
L6L
L0L
tp943
F-0.159723560306723
s(V14*A
p944
L2L
L0L
tp945
F0.026698135260116048
s(L10L
L18L
Ntp946
L0L
s(V7*
p947
L9L
L0L
tp948
F-0.285079303862315
s(V17*
p949
L21L
Ntp950
L0L
s(V18*
p951
L6L
L0L
tp952
F0.28056781446465806
s(V10*
p953
L4L
L0L
tp954
F0.23171760728003205
s(V20*AD
p955
L6L
L0L
tp956
F0.7032563170346242
s(V17*D
p957
L2L
L0L
tp958
F-0.14641400205072427
s(V20*D
p959
L6L
L0L
tp960
F0.7032563170346242
s(V12*ADS
p961
L10L
L0L
tp962
F-0.15368160217895863
s(L8L
L17L
Ntp963
L0L
s(V21*
p964
L3L
L0L
tp965
F0.8873648951016896
s(V4*DS
p966
L4L
L0L
tp967
F-0.0496176201283393
s(L18L
L19L
Ntp968
L0L
s(V17*
p969
L9L
L0L
tp970
F-0.42547639383646924
s(L21L
L23L
Ntp971
L0L
s(V12*DS
p972
L21L
Ntp973
L0L
s(V12*D
p974
L9L
L0L
tp975
F-0.35377050761198514
s(g438
L11L
L0L
tp976
F-0.6352376794222938
s(V15*AD
p977
L21L
Ntp978
L0L
s(V6*D
p979
L7L
L0L
tp980
F-0.1477395159925329
s(V13*AD
p981
L3L
L0L
tp982
F0.07256913396422861
s(V20*AD
p983
L10L
L0L
tp984
F0.4291580974937881
s(V7*D
p985
L6L
L0L
tp986
F0.026697237802487055
s(V13*D
p987
L6L
L0L
tp988
F-0.159723560306723
s(V12*
p989
L9L
L0L
tp990
F-0.35377050761198514
s(V18*AD
p991
L3L
L0L
tp992
F0.19231565419493188
s(V20*
p993
L3L
L0L
tp994
F0.6559800489461085
s(V6*
p995
L9L
L0L
tp996
F-0.2910393461303945
s(V20*D
p997
L10L
L0L
tp998
F0.4291580974937881
s(V12*ADS
p999
L6L
L0L
tp1000
F0.17619220399251365
s(V14*D
p1001
L4L
L0L
tp1002
F-0.21315019797616774
s(V20*A
p1003
L9L
L0L
tp1004
F0.7572214093769947
s(g122
L21L
Ntp1005
L0L
s(V18*D
p1006
L21L
Ntp1007
L0L
s(V18*D
p1008
L9L
L0L
tp1009
F-0.19048787046789273
s(L16L
L26L
Ntp1010
L0L
s(V19*AD
p1011
L5L
L0L
tp1012
F0.43758529924933387
s(V15*A
p1013
L7L
L0L
tp1014
F0.04318490167415716
s(V15*D
p1015
L7L
L0L
tp1016
F-0.3615351313319753
s(L9L
L18L
Ntp1017
L0L
s(V18*DS
p1018
L3L
L0L
tp1019
F0.15331778317982836
s(V13*D
p1020
L10L
L0L
tp1021
F-0.47696741874566567
s(V12*
p1022
L5L
L0L
tp1023
F-0.17348742865204383
s(V22*
p1024
NNtp1025
L0L
s(V9*
p1026
L11L
L0L
tp1027
F-0.35039463150809086
s(V12*DS
p1028
L4L
L0L
tp1029
F-0.21315019797616774
s(V14*D
p1030
L8L
L0L
tp1031
F-0.37219901169265346
s(V20*A
p1032
L5L
L0L
tp1033
F0.6695410405103587
s(V10*DS
p1034
L9L
L0L
tp1035
F0.14576659783557744
s(V18*A
p1036
L21L
Ntp1037
L0L
s(V7*
p1038
L4L
L0L
tp1039
F-0.041832764539621065
s(L23L
NNtp1040
L0L
s(L8L
L20L
Ntp1041
L0L
s(L8L
L23L
Ntp1042
L0L
s(V18*
p1043
L9L
L0L
tp1044
F-0.19048787046789273
s(V10*
p1045
L11L
L0L
tp1046
F-0.2510928977242363
s(V19*D
p1047
L4L
L0L
tp1048
F0.42549740685060056
s(V27*
p1049
NNtp1050
L0L
s(V6*DS
p1051
L6L
L0L
tp1052
F-0.01589259009757995
s(V17*A
p1053
L5L
L0L
tp1054
F0.08988573978449407
s(V16*DS
p1055
L8L
L0L
tp1056
F-0.45272346683114123
s(L21L
L20L
Ntp1057
L0L
s(V20*DS
p1058
L5L
L0L
tp1059
F0.6695410405103587
s(L16L
L21L
Ntp1060
L0L
s(V17*
p1061
L4L
L0L
tp1062
F-0.0816374070251545
s(V10*DS
p1063
L5L
L0L
tp1064
F0.5069469841503733
s(V5*D
p1065
L6L
L0L
tp1066
F-0.003675865421638615
s(L19L
L17L
Ntp1067
L0L
s(V13*A
p1068
L4L
L0L
tp1069
F0.09866269309258588
s(V16*
p1070
L3L
L0L
tp1071
F-0.2503317091309238
s(V18*A
p1072
L10L
L0L
tp1073
F-0.2084445625041951
s(V19*A
p1074
L2L
L0L
tp1075
F0.3946783871515326
s(V14*DS
p1076
L9L
L0L
tp1077
F-0.4323965476373703
s(V14*A
p1078
L3L
L0L
tp1079
F0.05274075096776099
s(V19*D
p1080
L21L
Ntp1081
L0L
s(V7*
p1082
L8L
L0L
tp1083
F-0.21162139536869
s(g787
L21L
Ntp1084
L0L
s(V18*
p1085
L5L
L0L
tp1086
F0.19608022986329193
s(V14*
p1087
L21L
Ntp1088
L0L
s(V19*D
p1089
L8L
L0L
tp1090
F0.5929113389116607
s(V10*
p1091
L7L
L0L
tp1092
F0.2562961845321314
s(L20L
L24L
Ntp1093
L0L
s(V17*D
p1094
L3L
L0L
tp1095
F-0.11420884683599226
s(V20*D
p1096
L7L
L0L
tp1097
F0.7738832798607757
s(g372
L11L
L0L
tp1098
F-0.3302652210146539
s(L20L
L18L
Ntp1099
L0L
s(V4*DS
p1100
L5L
L0L
tp1101
F-0.016784411131676738
s(L15L
L23L
Ntp1102
L0L
s(V17*
p1103
L8L
L0L
tp1104
F-0.3887806227307085
s(V12*D
p1105
L8L
L0L
tp1106
F-0.2852826541296448
s(V13*A
p1107
L8L
L0L
tp1108
F0.045415434440740816
s(V15*D
p1109
L8L
L0L
tp1110
F-0.41009904453625895
s(V6*D
p1111
L4L
L0L
tp1112
F-0.07193012154983633
s(V13*AD
p1113
L2L
L0L
tp1114
F0.047273529463926225
s(L17L
L22L
Ntp1115
L0L
s(V7*D
p1116
L7L
L0L
tp1117
F-0.06666645472388119
s(L8L
L25L
Ntp1118
L0L
s(L20L
L20L
Ntp1119
L0L
s(V20*
p1120
L2L
L0L
tp1121
F0.6453124170441201
s(V17*AD
p1122
L8L
L0L
tp1123
F-0.07201078205917733
s(V20*D
p1124
L11L
L0L
tp1125
F0.14190048668558145
s(V6*
p1126
L8L
L0L
tp1127
F-0.21480089663554636
s(V12*ADS
p1128
L7L
L0L
tp1129
F0.15519207315606703
s(L14L
L26L
Ntp1130
L0L
s(V14*D
p1131
L5L
L0L
tp1132
F-0.17348742865204383
s(V20*A
p1133
L8L
L0L
tp1134
F0.7916956055982189
s(V18*D
p1135
L8L
L0L
tp1136
F0.10033181904338545
s(V19*AD
p1137
L10L
L0L
tp1138
F-0.02597363102079831
s(L21L
L17L
Ntp1139
L0L
s(V15*A
p1140
L6L
L0L
tp1141
F0.11788811591793562
s(V15*D
p1142
L4L
L0L
tp1143
F-0.21315019797616774
s(L15L
L24L
Ntp1144
L0L
s(V12*
p1145
L2L
L0L
tp1146
F-0.2604956325632414
s(g64
L21L
Ntp1147
L0L
s(L19L
L24L
Ntp1148
L0L
s(V9*
p1149
L10L
L0L
tp1150
F-0.2194287669089087
s(V17*AD
p1151
L4L
L0L
tp1152
F0.12447619964893303
s(V12*DS
p1153
L5L
L0L
tp1154
F-0.17348742865204383
s(L4L
L17L
Ntp1155
L0L
s(L19L
L18L
Ntp1156
L0L
s(V14*D
p1157
L9L
L0L
tp1158
F-0.4323965476373703
s(V20*A
p1159
L4L
L0L
tp1160
F0.66439260366103
s(V10*DS
p1161
L8L
L0L
tp1162
F0.2823496270001414
s(V25*
p1163
NNtp1164
L0L
s(L9L
L26L
Ntp1165
L0L
s(L18L
L25L
Ntp1166
L0L
s(V7*
p1167
L7L
L0L
tp1168
F-0.06666645472388119
s(V18*
p1169
L8L
L0L
tp1170
F0.10033181904338545
s(V10*
p1171
L10L
L0L
tp1172
F-0.05466342924782924
s(V19*D
p1173
L5L
L0L
tp1174
F0.43758529924933387
s(g783
L21L
Ntp1175
L0L
s(V17*A
p1176
L2L
L0L
tp1177
F0.008151978915750748
s(g696
L11L
L0L
tp1178
F-0.6615942788574358
s(L16L
L25L
Ntp1179
L0L
s(g251
L21L
Ntp1180
L0L
s(V20*DS
p1181
L4L
L0L
tp1182
F0.66439260366103
s(V17*
p1183
L7L
L0L
tp1184
F-0.11118827445311047
s(V10*DS
p1185
L4L
L0L
tp1186
F0.4634352145600642
s(V5*D
p1187
L5L
L0L
tp1188
F-0.026831966848291554
s(V13*A
p1189
L5L
L0L
tp1190
F0.12566176462615775
s(V16*
p1191
L2L
L0L
tp1192
F-0.2873767150837089
s(g1036
L11L
L0L
tp1193
F-0.36775772787500854
s(V19*A
p1194
L3L
L0L
tp1195
F0.41097592929478327
s(V14*DS
p1196
L8L
L0L
tp1197
F-0.37219901169265346
s(L8L
L22L
Ntp1198
L0L
s(V7*
p1199
L11L
L0L
tp1200
F-0.5194561666873715
s(V10*D
p1201
L3L
L0L
tp1202
F0.41833895486419115
s(L20L
L23L
Ntp1203
L0L
s(V18*
p1204
L4L
L0L
tp1205
F0.17667513923557576
s(V10*
p1206
L6L
L0L
tp1207
F0.2848325876990104
s(V19*D
p1208
L9L
L0L
tp1209
F0.2816468522041841
s(V12*ADS
p1210
L8L
L0L
tp1211
F0.0816811488786755
s(L10L
L21L
Ntp1212
L0L
s(L18L
L18L
Ntp1213
L0L
s(V4*DS
p1214
L6L
L0L
tp1215
F0.007054299901769591
s(g949
L11L
L0L
tp1216
F-0.6340047184170516
s(L17L
L26L
Ntp1217
L0L
s(V13*A
p1218
L9L
L0L
tp1219
F-0.047614630669577114
s(V15*D
p1220
L9L
L0L
tp1221
F-0.4659144432143747
s(L19L
L23L
Ntp1222
L0L
s(V14*A
p1223
L8L
L0L
tp1224
F0.010598774875287703
s(V6*D
p1225
L5L
L0L
tp1226
F-0.03814604689813431
s(L20L
L26L
Ntp1227
L0L
s(V6*
p1228
L11L
L0L
tp1229
F-0.5158605963990278
s(V17*AD
p1230
L9L
L0L
tp1231
F-0.14808414088740607
s(V17*D
p1232
L8L
L0L
tp1233
F-0.3887806227307085
s(L9L
L21L
Ntp1234
L0L
s(V12*ADS
p1235
L4L
L0L
tp1236
F0.1202870884986625
s(V14*D
p1237
L6L
L0L
tp1238
F-0.159723560306723
s(V20*A
p1239
L11L
L0L
tp1240
F0.14190048668558145
s(g1006
L11L
L0L
tp1241
F-0.37185997761091316
s(g730
L11L
L0L
tp1242
F-0.11442518053532703
s(V12*D
p1243
L3L
L0L
tp1244
F-0.24241190669067691
s(g326
L11L
L0L
tp1245
F-0.5869076175853298
s(V15*D
p1246
L5L
L0L
tp1247
F-0.17348742865204383
s(L15L
L20L
Ntp1248
L0L
s(V11*
p1249
L2L
L0L
tp1250
F0.24039328967682044
s(V12*
p1251
L3L
L0L
tp1252
F-0.24241190669067691
s(V9*
p1253
L9L
L0L
tp1254
F-0.05218189192988317
s(V17*AD
p1255
L5L
L0L
tp1256
F0.17977147956898823
s(V12*DS
p1257
L10L
L0L
tp1258
F-0.4402896705251292
s(V14*D
p1259
L10L
L0L
tp1260
F-0.5092355906092945
s(V20*A
p1261
L7L
L0L
tp1262
F0.7738832798607757
s(L21L
L25L
Ntp1263
L0L
s(V7*
p1264
L6L
L0L
tp1265
F0.026697237802487055
s(L14L
L21L
Ntp1266
L0L
s(V13*
p1267
L7L
L0L
tp1268
F-0.274251164304196
s(V19*D
p1269
L6L
L0L
tp1270
F0.4943388910701175
s(V8*
p1271
L8L
L0L
tp1272
F-0.0589060245249003
s(g652
L21L
Ntp1273
L0L
s(V17*A
p1274
L3L
L0L
tp1275
F0.034833210405568846
s(L19L
L26L
Ntp1276
L0L
s(V16*DS
p1277
L10L
L0L
tp1278
F-0.5711049110018841
s(g1239
L21L
Ntp1279
L0L
s(V21*A
p1280
L6L
L0L
tp1281
F0.9026708538071544
s(L8L
L19L
Ntp1282
L0L
s(V20*DS
p1283
L7L
L0L
tp1284
F0.7738832798607757
s(V17*
p1285
L6L
L0L
tp1286
F0.006952606468648481
s(V16*D
p1287
L2L
L0L
tp1288
F-0.2873767150837089
s(V10*DS
p1289
L3L
L0L
tp1290
F0.41833895486419115
s(V5*D
p1291
L4L
L0L
tp1292
F-0.060107653420355685
s(V13*A
p1293
L6L
L0L
tp1294
F0.15444830900089446
s(V19*A
p1295
L4L
L0L
tp1296
F0.42549740685060056
s(V7*
p1297
L10L
L0L
tp1298
F-0.3699346818076746
s(g213
L11L
L0L
tp1299
F-0.6123422719415155
s(V10*D
p1300
L2L
L0L
tp1301
F0.371756381973052
s(V18*
p1302
L3L
L0L
tp1303
F0.15331778317982836
s(V8*DS
p1304
L3L
L0L
tp1305
F0.013210891909615607
s(V19*D
p1306
L10L
L0L
tp1307
F-0.02597363102079831
s(L16L
L17L
Ntp1308
L0L
s(g775
L21L
Ntp1309
L0L
s(V8*
p1310
L4L
L0L
tp1311
F0.04090280412018119
s(V8*D
p1312
L2L
L0L
tp1313
F-0.013480705078905492
s(V12*ADS
p1314
L9L
L0L
tp1315
F-0.013415728313538102
s(V21*
p1316
L6L
L0L
tp1317
F0.9026708538071544
s(V4*DS
p1318
L7L
L0L
tp1319
F-0.08825179201062597
s(L15L
L18L
Ntp1320
L0L
s(V21*A
p1321
L10L
L0L
tp1322
F0.8098450451244926
s(V17*
p1323
L10L
L0L
tp1324
F-0.46226920867373905
s(V13*A
p1325
L10L
L0L
tp1326
F-0.18339120366302153
s(L20L
L22L
Ntp1327
L0L
s(V19*A
p1328
L8L
L0L
tp1329
F0.5929113389116607
s(L20L
L17L
Ntp1330
L0L
s(V14*A
p1331
L9L
L0L
tp1332
F-0.07895651695913308
s(L22L
NNtp1333
L0L
s(V6*D
p1334
L10L
L0L
tp1335
F-0.3873918588810049
s(V6*
p1336
L10L
L0L
tp1337
F-0.3873918588810049
s(V17*AD
p1338
L10L
L0L
tp1339
F-0.25649181100531704
s(V17*D
p1340
L9L
L0L
tp1341
F-0.42547639383646924
s(g977
L11L
L0L
tp1342
F-0.39486339560815475
s(V12*ADS
p1343
L5L
L0L
tp1344
F0.14641474812099264
s(V14*D
p1345
L7L
L0L
tp1346
F-0.3198344186710977
s(V20*A
p1347
L10L
L0L
tp1348
F0.4291580974937881
s(L17L
L18L
Ntp1349
L0L
s(V18*D
p1350
L10L
L0L
tp1351
F-0.24395916023188408
s(L17L
L24L
Ntp1352
L0L
s(V19*AD
p1353
L8L
L0L
tp1354
F0.5929113389116607
s(V12*D
p1355
L2L
L0L
tp1356
F-0.2604956325632414
s(L19L
L25L
Ntp1357
L0L
s(V13*
p1358
L10L
L0L
tp1359
F-0.47696741874566567
s(V15*D
p1360
L2L
L0L
tp1361
F-0.2873767150837089
s(V18*DS
p1362
L6L
L0L
tp1363
F0.28056781446465806
s(V11*
p1364
L3L
L0L
tp1365
F0.26064114704595176
s(V18*AD
p1366
L10L
L0L
tp1367
F-0.2084445625041951
s(V9*
p1368
L8L
L0L
tp1369
F0.10034697181085936
s(V17*AD
p1370
L6L
L0L
tp1371
F0.25478567854251466
s(g972
L11L
L0L
tp1372
F-0.5584239713437515
s(V15*AD
p1373
L7L
L0L
tp1374
F0.04318490167415716
s(L21L
L21L
Ntp1375
L0L
s(L21L
L18L
Ntp1376
L0L
s(g917
L11L
L0L
tp1377
F-0.6123422719415155
s(L14L
L19L
Ntp1378
L0L
s(V20*A
p1379
L6L
L0L
tp1380
F0.7032563170346242
s(L16L
L23L
Ntp1381
L0L
s(g1124
L21L
Ntp1382
L0L
s(L4L
L21L
Ntp1383
L0L
s(L12L
L22L
Ntp1384
L0L
s(V13*
p1385
L6L
L0L
tp1386
F-0.159723560306723
s(V19*D
p1387
L7L
L0L
tp1388
F0.6166977628461
s(L12L
L17L
Ntp1389
L0L
s(V8*
p1390
L9L
L0L
tp1391
F-0.21123119211970062
s(V18*DS
p1392
L10L
L0L
tp1393
F-0.24395916023188408
s(V6*DS
p1394
L3L
L0L
tp1395
F-0.10355555247590283
s(V
p1396
g1396
L0L
tp1397
F-0.010666363374583822
s(V21*A
p1398
L7L
L0L
tp1399
F0.9262107372609032
s(V20*DS
p1400
L6L
L0L
tp1401
F0.7032563170346242
s(V16*D
p1402
L3L
L0L
tp1403
F-0.2503317091309238
s(V10*DS
p1404
L2L
L0L
tp1405
F0.371756381973052
s(V5*D
p1406
L3L
L0L
tp1407
F-0.09130705687625527
s(V13*A
p1408
L7L
L0L
tp1409
F0.11662311781884822
s(V19*A
p1410
L5L
L0L
tp1411
F0.43758529924933387
s(V14*DS
p1412
L10L
L0L
tp1413
F-0.5092355906092945
s(V18*
p1414
L2L
L0L
tp1415
F0.130426608636448
s(g506
L11L
L0L
tp1416
F-0.37469013833111486
s(g1080
L11L
L0L
tp1417
F-0.11442518053532703
s(V8*DS
p1418
L2L
L0L
tp1419
F-0.013480705078905492
s(g857
L21L
Ntp1420
L0L
s(L6L
L22L
Ntp1421
L0L
s(V8*
p1422
L5L
L0L
tp1423
F0.06863761700540737
s(V8*D
p1424
L3L
L0L
tp1425
F0.013210891909615607
s(V21*
p1426
L7L
L0L
tp1427
F0.9262107372609032
s(g1087
L11L
L0L
tp1428
F-0.6123422719415155
s.