(dp0
(V21*A
p1
L11L
L0L
tp2
VStay
p3
s(L13L
L21L
Ntp4
Ns(L13L
L18L
Ntp5
Ns(L13L
L24L
Ntp6
Ns(V13*A
p7
L11L
L0L
tp8
VDraw
p9
s(V19*A
p10
L9L
L0L
tp11
g3
s(V14*A
p12
L10L
L0L
tp13
g9
s(V10*D
p14
L9L
L0L
tp15
VDouble
p16
s(V6*D
p17
L11L
L0L
tp18
g9
s(V14*AD
p19
L7L
L0L
tp20
g9
s(L6L
L26L
Ntp21
Ns(V7*D
p22
L2L
L0L
tp23
g9
s(L15L
L26L
Ntp24
Ns(V17*AD
p25
L11L
L0L
tp26
g9
s(V17*D
p27
L10L
L0L
tp28
g3
s(V15*AD
p29
L10L
L0L
tp30
g9
s(V12*ADS
p31
L2L
L0L
tp32
g9
s(V6*
p33
L5L
L0L
tp34
g9
s(V4*DS
p35
L21L
Ntp36
Ns(L19L
L19L
Ntp37
Ns(V14*
p38
L7L
L0L
tp39
g9
s(L19L
L20L
Ntp40
Ns(V16*AD
p41
L10L
L0L
tp42
g9
s(V19*
p43
L10L
L0L
tp44
g3
s(V18*D
p45
L5L
L0L
tp46
g3
s(V18*DS
p47
L21L
Ntp48
Ns(V28*
p49
NNtp50
Ns(V19*AD
p51
L9L
L0L
tp52
g3
s(V13*
p53
L9L
L0L
tp54
g9
s(V15*D
p55
L3L
L0L
tp56
g3
s(L17L
L21L
Ntp57
Ns(V15*A
p58
L3L
L0L
tp59
g9
s(V13*AD
p60
L21L
Ntp61
Ns(V18*DS
p62
L7L
L0L
tp63
g3
s(g60
L11L
L0L
tp64
g9
s(V11*
p65
L4L
L0L
tp66
g9
s(V18*AD
p67
L11L
L0L
tp68
g9
s(L21L
L11L
L0L
tp69
g3
s(V17*AD
p70
L7L
L0L
tp71
g9
s(V12*DS
p72
L8L
L0L
tp73
g9
s(V15*AD
p74
L6L
L0L
tp75
g16
s(V7*D
p76
L21L
Ntp77
Ns(V16*AD
p78
L6L
L0L
tp79
g16
s(V19*
p80
L6L
L0L
tp81
g3
s(V13*
p82
L5L
L0L
tp83
g3
s(V8*
p84
L10L
L0L
tp85
g9
s(L4L
L24L
Ntp86
Ns(g47
L11L
L0L
tp87
g3
s(V6*DS
p88
L2L
L0L
tp89
g9
s(L4L
L18L
Ntp90
Ns(L21L
L7L
L0L
tp91
g3
s(V9*
p92
L3L
L0L
tp93
g9
s(V21*A
p94
L4L
L0L
tp95
g3
s(V9*D
p96
L11L
L0L
tp97
g9
s(L14L
L17L
Ntp98
Ns(V24*
p99
NNtp100
Ns(L18L
L22L
Ntp101
Ns(V5*D
p102
L2L
L0L
tp103
g9
s(V19*A
p104
L6L
L0L
tp105
g3
s(V10*
p106
L3L
L0L
tp107
g9
s(V14*AD
p108
L10L
L0L
tp109
g9
s(V8*DS
p110
L5L
L0L
tp111
g9
s(V8*
p112
L6L
L0L
tp113
g9
s(L4L
L20L
Ntp114
Ns(V8*D
p115
L4L
L0L
tp116
g9
s(V21*
p117
L4L
L0L
tp118
g3
s(V14*
p119
L10L
L0L
tp120
g9
s(V21*A
p121
L8L
L0L
tp122
g3
s(V9*D
p123
L7L
L0L
tp124
g9
s(V16*
p125
L11L
L0L
tp126
g9
s(V19*A
p127
L10L
L0L
tp128
g3
s(V18*A
p129
L2L
L0L
tp130
g3
s(V14*A
p131
L11L
L0L
tp132
g9
s(V10*D
p133
L8L
L0L
tp134
g16
s(L15L
L22L
Ntp135
Ns(V6*D
p136
L8L
L0L
tp137
g9
s(V14*AD
p138
L6L
L0L
tp139
g16
s(V7*D
p140
L3L
L0L
tp141
g9
s(V6*
p142
L4L
L0L
tp143
g9
s(V8*D
p144
L8L
L0L
tp145
g9
s(V17*D
p146
L11L
L0L
tp147
g3
s(V15*AD
p148
L9L
L0L
tp149
g9
s(V12*ADS
p150
L3L
L0L
tp151
g9
s(L13L
L19L
Ntp152
Ns(L20L
L21L
Ntp153
Ns(V14*
p154
L6L
L0L
tp155
g3
s(V16*AD
p156
L11L
L0L
tp157
g9
s(V19*
p158
L11L
L0L
tp159
g3
s(L6L
L17L
Ntp160
Ns(V18*D
p161
L4L
L0L
tp162
g3
s(L17L
L25L
Ntp163
Ns(V15*
p164
L3L
L0L
tp165
g3
s(V13*
p166
L8L
L0L
tp167
g9
s(V15*A
p168
L2L
L0L
tp169
g9
s(V18*DS
p170
L4L
L0L
tp171
g3
s(V13*AD
p172
L10L
L0L
tp173
g9
s(V16*A
p174
L10L
L0L
tp175
g9
s(V11*
p176
L5L
L0L
tp177
g9
s(V18*AD
p178
L8L
L0L
tp179
g3
s(L21L
L10L
L0L
tp180
g3
s(V12*DS
p181
L9L
L0L
tp182
g9
s(V15*AD
p183
L5L
L0L
tp184
g16
s(L19L
L21L
Ntp185
Ns(L19L
L22L
Ntp186
Ns(L16L
L22L
Ntp187
Ns(V13*D
p188
L21L
Ntp189
Ns(V16*AD
p190
L7L
L0L
tp191
g9
s(V19*
p192
L7L
L0L
tp193
g3
s(V19*AD
p194
L2L
L0L
tp195
g3
s(V13*
p196
L4L
L0L
tp197
g3
s(L21L
L22L
Ntp198
Ns(V8*
p199
L11L
L0L
tp200
g9
s(V18*DS
p201
L8L
L0L
tp202
g3
s(g146
L21L
Ntp203
Ns(V16*A
p204
L6L
L0L
tp205
g9
s(L21L
L6L
L0L
tp206
g3
s(V9*
p207
L2L
L0L
tp208
g9
s(V21*A
p209
L5L
L0L
tp210
g3
s(V9*D
p211
L10L
L0L
tp212
g9
s(L12L
L21L
Ntp213
Ns(V19*A
p214
L7L
L0L
tp215
g3
s(V14*DS
p216
L21L
Ntp217
Ns(V20*
p218
L21L
Ntp219
Ns(L20L
L19L
Ntp220
Ns(V10*
p221
L2L
L0L
tp222
g9
s(V14*AD
p223
L9L
L0L
tp224
g9
s(V8*DS
p225
L4L
L0L
tp226
g9
s(L4L
L26L
Ntp227
Ns(V8*
p228
L7L
L0L
tp229
g9
s(L17L
L19L
Ntp230
Ns(V8*D
p231
L5L
L0L
tp232
g9
s(V6*DS
p233
L9L
L0L
tp234
g9
s(V17*A
p235
L10L
L0L
tp236
g9
s(V16*DS
p237
L3L
L0L
tp238
g3
s(V21*
p239
L5L
L0L
tp240
g3
s(V4*DS
p241
L2L
L0L
tp242
g9
s(V14*
p243
L9L
L0L
tp244
g9
s(V21*A
p245
L9L
L0L
tp246
g3
s(L11L
L21L
Ntp247
Ns(V9*D
p248
L6L
L0L
tp249
g16
s(L11L
L22L
Ntp250
Ns(L6L
L24L
Ntp251
Ns(V16*
p252
L10L
L0L
tp253
g9
s(V19*A
p254
L11L
L0L
tp255
g3
s(V11*D
p256
L3L
L0L
tp257
g16
s(V18*A
p258
L3L
L0L
tp259
g3
s(V14*A
p260
L4L
L0L
tp261
g9
s(V10*D
p262
L11L
L0L
tp263
g9
s(V6*D
p264
L9L
L0L
tp265
g9
s(V14*AD
p266
L5L
L0L
tp267
g16
s(L13L
L22L
Ntp268
Ns(V6*
p269
L7L
L0L
tp270
g9
s(V8*D
p271
L9L
L0L
tp272
g9
s(V17*D
p273
L4L
L0L
tp274
g3
s(V15*AD
p275
L8L
L0L
tp276
g9
s(V14*
p277
L5L
L0L
tp278
g3
s(V16*AD
p279
L8L
L0L
tp280
g9
s(V19*
p281
L8L
L0L
tp282
g3
s(V18*D
p283
L7L
L0L
tp284
g3
s(V12*D
p285
L7L
L0L
tp286
g9
s(V15*
p287
L2L
L0L
tp288
g3
s(L24L
NNtp289
Ns(L12L
L19L
Ntp290
Ns(V18*DS
p291
L5L
L0L
tp292
g3
s(V13*AD
p293
L9L
L0L
tp294
g9
s(V16*A
p295
L11L
L0L
tp296
g9
s(V7*D
p297
L8L
L0L
tp298
g9
s(L12L
L26L
Ntp299
Ns(V11*
p300
L6L
L0L
tp301
g9
s(V18*AD
p302
L9L
L0L
tp303
g9
s(L21L
L9L
L0L
tp304
g3
s(V12*
p305
L21L
Ntp306
Ns(V15*AD
p307
L4L
L0L
tp308
g9
s(L17L
L17L
Ntp309
Ns(V20*A
p310
L3L
L0L
tp311
g3
s(V16*AD
p312
L4L
L0L
tp313
g16
s(V19*
p314
L4L
L0L
tp315
g3
s(V19*AD
p316
L3L
L0L
tp317
g3
s(V15*A
p318
L9L
L0L
tp319
g9
s(V13*
p320
L3L
L0L
tp321
g3
s(L10L
L22L
Ntp322
Ns(V18*DS
p323
L9L
L0L
tp324
g3
s(V16*A
p325
L7L
L0L
tp326
g9
s(L6L
L18L
Ntp327
Ns(L21L
L5L
L0L
tp328
g3
s(V13*
p329
L21L
Ntp330
Ns(V12*DS
p331
L2L
L0L
tp332
g9
s(V9*D
p333
L9L
L0L
tp334
g9
s(V20*DS
p335
L3L
L0L
tp336
g3
s(L13L
L25L
Ntp337
Ns(L4L
L22L
Ntp338
Ns(L18L
L20L
Ntp339
Ns(V14*AD
p340
L8L
L0L
tp341
g9
s(V8*DS
p342
L7L
L0L
tp343
g9
s(L18L
L26L
Ntp344
Ns(V8*D
p345
L6L
L0L
tp346
g9
s(V6*DS
p347
L8L
L0L
tp348
g9
s(V17*A
p349
L11L
L0L
tp350
g9
s(V16*DS
p351
L2L
L0L
tp352
g3
s(L11L
L26L
Ntp353
Ns(V21*
p354
L10L
L0L
tp355
g3
s(V4*DS
p356
L3L
L0L
tp357
g9
s(V14*
p358
L8L
L0L
tp359
g9
s(V9*D
p360
L5L
L0L
tp361
g16
s(L11L
L25L
Ntp362
Ns(V16*
p363
L9L
L0L
tp364
g9
s(V18*A
p365
L4L
L0L
tp366
g3
s(V11*D
p367
L2L
L0L
tp368
g16
s(V14*DS
p369
L3L
L0L
tp370
g3
s(V14*A
p371
L5L
L0L
tp372
g9
s(V10*D
p373
L10L
L0L
tp374
g9
s(V12*ADS
p375
L21L
Ntp376
Ns(V14*AD
p377
L4L
L0L
tp378
g9
s(V20*AD
p379
L3L
L0L
tp380
g3
s(L10L
L26L
Ntp381
Ns(L10L
L25L
Ntp382
Ns(g7
L21L
Ntp383
Ns(V6*
p384
L6L
L0L
tp385
g9
s(V8*D
p386
L10L
L0L
tp387
g9
s(V17*D
p388
L5L
L0L
tp389
g3
s(V14*
p390
L4L
L0L
tp391
g3
s(V16*AD
p392
L9L
L0L
tp393
g9
s(V19*
p394
L9L
L0L
tp395
g3
s(V18*D
p396
L6L
L0L
tp397
g3
s(V12*D
p398
L6L
L0L
tp399
g9
s(V15*
p400
L5L
L0L
tp401
g3
s(V15*A
p402
L21L
Ntp403
Ns(L13L
L20L
Ntp404
Ns(V6*D
p405
L2L
L0L
tp406
g9
s(V13*AD
p407
L8L
L0L
tp408
g9
s(V16*A
p409
L8L
L0L
tp410
g9
s(V7*D
p411
L9L
L0L
tp412
g9
s(g158
L21L
Ntp413
Ns(g156
L21L
Ntp414
Ns(V13*D
p415
L3L
L0L
tp416
g3
s(V11*
p417
L7L
L0L
tp418
g9
s(V18*AD
p419
L6L
L0L
tp420
g16
s(L21L
L8L
L0L
tp421
g3
s(V17*AD
p422
L2L
L0L
tp423
g9
s(V15*AD
p424
L3L
L0L
tp425
g9
s(V20*A
p426
L2L
L0L
tp427
g3
s(L14L
L23L
Ntp428
Ns(V16*AD
p429
L5L
L0L
tp430
g16
s(V19*
p431
L5L
L0L
tp432
g3
s(V15*
p433
L9L
L0L
tp434
g9
s(L28L
NNtp435
Ns(L12L
L18L
Ntp436
Ns(V15*A
p437
L8L
L0L
tp438
g9
s(V13*
p439
L2L
L0L
tp440
g9
s(V15*D
p441
L21L
Ntp442
Ns(L16L
L18L
Ntp443
Ns(V16*A
p444
L4L
L0L
tp445
g9
s(L21L
L4L
L0L
tp446
g3
s(g25
L21L
Ntp447
Ns(V12*DS
p448
L3L
L0L
tp449
g9
s(V9*D
p450
L8L
L0L
tp451
g9
s(V20*DS
p452
L2L
L0L
tp453
g3
s(g96
L21L
Ntp454
Ns(L9L
L19L
Ntp455
Ns(g295
L21L
Ntp456
Ns(V16*D
p457
L21L
Ntp458
Ns(V8*DS
p459
L6L
L0L
tp460
g9
s(L14L
L24L
Ntp461
Ns(V8*D
p462
L7L
L0L
tp463
g9
s(V6*DS
p464
L11L
L0L
tp465
g9
s(V17*A
p466
L8L
L0L
tp467
g9
s(V16*DS
p468
L5L
L0L
tp469
g3
s(V21*
p470
L11L
L0L
tp471
g3
s(L13L
L17L
Ntp472
Ns(V9*D
p473
L4L
L0L
tp474
g16
s(L13L
L23L
Ntp475
Ns(L6L
L23L
Ntp476
Ns(V5*D
p477
L11L
L0L
tp478
g9
s(V16*
p479
L8L
L0L
tp480
g9
s(V18*A
p481
L5L
L0L
tp482
g3
s(V11*D
p483
L5L
L0L
tp484
g16
s(V14*DS
p485
L2L
L0L
tp486
g3
s(V14*A
p487
L6L
L0L
tp488
g9
s(V10*D
p489
L5L
L0L
tp490
g16
s(V14*AD
p491
L3L
L0L
tp492
g9
s(V20*AD
p493
L2L
L0L
tp494
g3
s(L11L
L18L
Ntp495
Ns(g17
L21L
Ntp496
Ns(g218
L11L
L0L
tp497
g3
s(V8*D
p498
L11L
L0L
tp499
g9
s(V17*D
p500
L6L
L0L
tp501
g3
s(V20*D
p502
L2L
L0L
tp503
g3
s(V4*DS
p504
L8L
L0L
tp505
g9
s(V14*
p506
L3L
L0L
tp507
g3
s(L18L
L23L
Ntp508
Ns(V14*AD
p509
L21L
Ntp510
Ns(V12*D
p511
L5L
L0L
tp512
g9
s(V15*
p513
L4L
L0L
tp514
g3
s(L15L
L17L
Ntp515
Ns(V11*D
p516
L9L
L0L
tp517
g16
s(L10L
L24L
Ntp518
Ns(V6*D
p519
L3L
L0L
tp520
g9
s(V13*AD
p521
L7L
L0L
tp522
g9
s(V16*A
p523
L9L
L0L
tp524
g9
s(V7*D
p525
L10L
L0L
tp526
g9
s(V20*DS
p527
L21L
Ntp528
Ns(V11*
p529
L8L
L0L
tp530
g9
s(V13*D
p531
L2L
L0L
tp532
g9
s(V18*AD
p533
L7L
L0L
tp534
g3
s(V20*
p535
L7L
L0L
tp536
g3
s(V17*AD
p537
L3L
L0L
tp538
g9
s(V15*AD
p539
L2L
L0L
tp540
g9
s(L17L
L20L
Ntp541
Ns(V16*AD
p542
L2L
L0L
tp543
g9
s(L12L
L23L
Ntp544
Ns(V19*
p545
L2L
L0L
tp546
g3
s(L12L
L25L
Ntp547
Ns(V15*
p548
L8L
L0L
tp549
g9
s(g402
L11L
L0L
tp550
g9
s(V16*A
p551
L5L
L0L
tp552
g9
s(L21L
L3L
L0L
tp553
g3
s(V9*
p554
L7L
L0L
tp555
g9
s(L11L
L23L
Ntp556
Ns(V16*D
p557
L8L
L0L
tp558
g9
s(L11L
L17L
Ntp559
Ns(L4L
L25L
Ntp560
Ns(L4L
L19L
Ntp561
Ns(L16L
L20L
Ntp562
Ns(V8*DS
p563
L9L
L0L
tp564
g9
s(L18L
L17L
Ntp565
Ns(V8*
p566
L2L
L0L
tp567
g9
s(L9L
L24L
Ntp568
Ns(V6*DS
p569
L10L
L0L
tp570
g9
s(L13L
L26L
Ntp571
Ns(V16*DS
p572
L4L
L0L
tp573
g3
s(V17*A
p574
L9L
L0L
tp575
g9
s(V21*
p576
L8L
L0L
tp577
g3
s(V9*D
p578
L3L
L0L
tp579
g9
s(V20*DS
p580
L9L
L0L
tp581
g3
s(L30L
NNtp582
Ns(V16*D
p583
L4L
L0L
tp584
g3
s(V5*D
p585
L10L
L0L
tp586
g9
s(V16*
p587
L7L
L0L
tp588
g3
s(V18*A
p589
L6L
L0L
tp590
g3
s(V11*D
p591
L4L
L0L
tp592
g16
s(V14*DS
p593
L5L
L0L
tp594
g3
s(V14*A
p595
L7L
L0L
tp596
g9
s(V10*D
p597
L4L
L0L
tp598
g16
s(L16L
L24L
Ntp599
Ns(V14*AD
p600
L2L
L0L
tp601
g9
s(V20*AD
p602
L5L
L0L
tp603
g3
s(L12L
L20L
Ntp604
Ns(g498
L21L
Ntp605
Ns(V20*
p606
L10L
L0L
tp607
g3
s(V17*D
p608
L7L
L0L
tp609
g3
s(V20*D
p610
L3L
L0L
tp611
g3
s(V4*DS
p612
L9L
L0L
tp613
g9
s(V14*
p614
L2L
L0L
tp615
g3
s(L17L
L23L
Ntp616
Ns(L6L
L21L
Ntp617
Ns(L10L
L20L
Ntp618
Ns(V12*D
p619
L4L
L0L
tp620
g9
s(V15*
p621
L7L
L0L
tp622
g9
s(V23*
p623
NNtp624
Ns(V26*
p625
NNtp626
Ns(L10L
L19L
Ntp627
Ns(V11*D
p628
L8L
L0L
tp629
g16
s(V13*AD
p630
L6L
L0L
tp631
g16
s(V20*AD
p632
L9L
L0L
tp633
g3
s(g76
L11L
L0L
tp634
g9
s(V11*
p635
L9L
L0L
tp636
g9
s(V13*D
p637
L5L
L0L
tp638
g3
s(V12*
p639
L10L
L0L
tp640
g9
s(V18*AD
p641
L4L
L0L
tp642
g16
s(V20*
p643
L6L
L0L
tp644
g3
s(L14L
L22L
Ntp645
Ns(V16*AD
p646
L3L
L0L
tp647
g9
s(V19*
p648
L3L
L0L
tp649
g3
s(L15L
L25L
Ntp650
Ns(V11*D
p651
L21L
Ntp652
Ns(V19*AD
p653
L6L
L0L
tp654
g3
s(V15*
p655
L11L
L0L
tp656
g9
s(V15*A
p657
L10L
L0L
tp658
g9
s(L18L
L24L
Ntp659
Ns(V16*A
p660
L2L
L0L
tp661
g9
s(V13*D
p662
L9L
L0L
tp663
g9
s(V12*
p664
L6L
L0L
tp665
g9
s(L21L
L2L
L0L
tp666
g3
s(V9*
p667
L6L
L0L
tp668
g9
s(V16*D
p669
L9L
L0L
tp670
g9
s(L15L
L21L
Ntp671
Ns(V7*
p672
L3L
L0L
tp673
g9
s(V12*D
p674
L21L
Ntp675
Ns(V8*DS
p676
L8L
L0L
tp677
g9
s(V8*
p678
L3L
L0L
tp679
g9
s(L21L
NNtp680
Ns(V6*DS
p681
L5L
L0L
tp682
g9
s(V17*A
p683
L6L
L0L
tp684
g9
s(V16*DS
p685
L7L
L0L
tp686
g3
s(V21*
p687
L9L
L0L
tp688
g3
s(V20*DS
p689
L8L
L0L
tp690
g3
s(V9*D
p691
L2L
L0L
tp692
g9
s(V17*
p693
L3L
L0L
tp694
g3
s(V16*D
p695
L5L
L0L
tp696
g3
s(V5*D
p697
L9L
L0L
tp698
g9
s(V16*DS
p699
L21L
Ntp700
Ns(V16*
p701
L6L
L0L
tp702
g3
s(L8L
L18L
Ntp703
Ns(V18*A
p704
L7L
L0L
tp705
g3
s(V11*D
p706
L7L
L0L
tp707
g16
s(V14*DS
p708
L4L
L0L
tp709
g3
s(L8L
L21L
Ntp710
Ns(V10*D
p711
L7L
L0L
tp712
g16
s(V20*AD
p713
L4L
L0L
tp714
g3
s(L6L
L19L
Ntp715
Ns(V20*
p716
L9L
L0L
tp717
g3
s(V6*
p718
L3L
L0L
tp719
g9
s(V20*D
p720
L4L
L0L
tp721
g3
s(L6L
L25L
Ntp722
Ns(g262
L21L
Ntp723
Ns(V4*DS
p724
L10L
L0L
tp725
g9
s(V18*D
p726
L3L
L0L
tp727
g3
s(g674
L11L
L0L
tp728
g9
s(V15*
p729
L6L
L0L
tp730
g3
s(g651
L11L
L0L
tp731
g9
s(g131
L21L
Ntp732
Ns(V19*AD
p733
L21L
Ntp734
Ns(V13*AD
p735
L5L
L0L
tp736
g16
s(V20*AD
p737
L8L
L0L
tp738
g3
s(V7*D
p739
L4L
L0L
tp740
g9
s(V11*
p741
L10L
L0L
tp742
g9
s(L20L
L25L
Ntp743
Ns(V13*D
p744
L4L
L0L
tp745
g3
s(g305
L11L
L0L
tp746
g9
s(V18*AD
p747
L5L
L0L
tp748
g16
s(V20*
p749
L5L
L0L
tp750
g3
s(L9L
L17L
Ntp751
Ns(V20*D
p752
L8L
L0L
tp753
g3
s(L9L
L22L
Ntp754
Ns(V14*D
p755
L2L
L0L
tp756
g3
s(V19*AD
p757
L7L
L0L
tp758
g3
s(V15*
p759
L10L
L0L
tp760
g9
s(V15*A
p761
L5L
L0L
tp762
g9
s(V16*A
p763
L3L
L0L
tp764
g9
s(V13*D
p765
L8L
L0L
tp766
g9
s(L25L
NNtp767
Ns(V12*
p768
L7L
L0L
tp769
g9
s(L8L
L24L
Ntp770
Ns(L14L
L20L
Ntp771
Ns(V12*DS
p772
L6L
L0L
tp773
g9
s(V9*
p774
L5L
L0L
tp775
g9
s(V16*D
p776
L10L
L0L
tp777
g9
s(V10*DS
p778
L11L
L0L
tp779
g9
s(L26L
NNtp780
Ns(L21L
L26L
Ntp781
Ns(g349
L21L
Ntp782
Ns(L21L
L19L
Ntp783
Ns(V7*
p784
L2L
L0L
tp785
g9
s(V18*
p786
L11L
L0L
tp787
g3
s(V10*
p788
L9L
L0L
tp789
g9
s(V8*DS
p790
L11L
L0L
tp791
g9
s(V19*D
p792
L2L
L0L
tp793
g3
s(L11L
L19L
Ntp794
Ns(L11L
L20L
Ntp795
Ns(V6*DS
p796
L4L
L0L
tp797
g9
s(V17*A
p798
L7L
L0L
tp799
g9
s(V16*DS
p800
L6L
L0L
tp801
g3
s(L14L
L18L
Ntp802
Ns(L4L
L23L
Ntp803
Ns(V21*A
p804
L2L
L0L
tp805
g3
s(g527
L11L
L0L
tp806
g3
s(L18L
L21L
Ntp807
Ns(V17*
p808
L2L
L0L
tp809
g3
s(V16*D
p810
L6L
L0L
tp811
g3
s(V10*DS
p812
L7L
L0L
tp813
g16
s(V5*D
p814
L8L
L0L
tp815
g9
s(V16*
p816
L5L
L0L
tp817
g3
s(V13*A
p818
L2L
L0L
tp819
g9
s(g1
L21L
Ntp820
Ns(V11*D
p821
L6L
L0L
tp822
g16
s(V14*DS
p823
L7L
L0L
tp824
g9
s(L15L
L19L
Ntp825
Ns(V18*A
p826
L8L
L0L
tp827
g3
s(V10*D
p828
L6L
L0L
tp829
g16
s(V18*
p830
L7L
L0L
tp831
g3
s(V10*
p832
L5L
L0L
tp833
g9
s(V20*AD
p834
L7L
L0L
tp835
g3
s(V20*
p836
L8L
L0L
tp837
g3
s(V6*
p838
L2L
L0L
tp839
g9
s(V20*D
p840
L5L
L0L
tp841
g3
s(V21*
p842
L2L
L0L
tp843
g3
s(g35
L11L
L0L
tp844
g9
s(L6L
L20L
Ntp845
Ns(L8L
L26L
Ntp846
Ns(V18*D
p847
L2L
L0L
tp848
g3
s(L12L
L24L
Ntp849
Ns(V12*D
p850
L10L
L0L
tp851
g9
s(V15*D
p852
L10L
L0L
tp853
g9
s(V11*D
p854
L10L
L0L
tp855
g16
s(V6*D
p856
L6L
L0L
tp857
g9
s(V13*AD
p858
L4L
L0L
tp859
g9
s(V20*AD
p860
L11L
L0L
tp861
g3
s(V7*D
p862
L5L
L0L
tp863
g9
s(V11*
p864
L11L
L0L
tp865
g9
s(L27L
NNtp866
Ns(V13*D
p867
L7L
L0L
tp868
g9
s(V12*
p869
L8L
L0L
tp870
g9
s(V18*AD
p871
L2L
L0L
tp872
g3
s(V20*
p873
L4L
L0L
tp874
g3
s(L10L
L23L
Ntp875
Ns(V20*D
p876
L9L
L0L
tp877
g3
s(g464
L21L
Ntp878
Ns(V14*D
p879
L3L
L0L
tp880
g3
s(V19*AD
p881
L4L
L0L
tp882
g3
s(V15*A
p883
L4L
L0L
tp884
g9
s(V15*D
p885
L6L
L0L
tp886
g3
s(L9L
L25L
Ntp887
Ns(V18*DS
p888
L2L
L0L
tp889
g3
s(L9L
L23L
Ntp890
Ns(g188
L11L
L0L
tp891
g9
s(V12*
p892
L4L
L0L
tp893
g9
s(L9L
L20L
Ntp894
Ns(V9*
p895
L4L
L0L
tp896
g9
s(V12*DS
p897
L7L
L0L
tp898
g9
s(g457
L11L
L0L
tp899
g9
s(V10*DS
p900
L10L
L0L
tp901
g9
s(L16L
L19L
Ntp902
Ns(V7*
p903
L5L
L0L
tp904
g9
s(L11L
L24L
Ntp905
Ns(V18*
p906
L10L
L0L
tp907
g3
s(V10*
p908
L8L
L0L
tp909
g9
s(V8*DS
p910
L10L
L0L
tp911
g9
s(V19*D
p912
L3L
L0L
tp913
g3
s(V6*DS
p914
L7L
L0L
tp915
g9
s(V17*A
p916
L4L
L0L
tp917
g9
s(V16*DS
p918
L9L
L0L
tp919
g9
s(V14*D
p920
L21L
Ntp921
Ns(L29L
NNtp922
Ns(V21*A
p923
L3L
L0L
tp924
g3
s(g470
L21L
Ntp925
Ns(V20*DS
p926
L10L
L0L
tp927
g3
s(V17*
p928
L5L
L0L
tp929
g3
s(V16*D
p930
L7L
L0L
tp931
g3
s(V10*DS
p932
L6L
L0L
tp933
g16
s(V5*D
p934
L7L
L0L
tp935
g9
s(L21L
L24L
Ntp936
Ns(L14L
L25L
Ntp937
Ns(V16*
p938
L4L
L0L
tp939
g3
s(V13*A
p940
L3L
L0L
tp941
g9
s(V18*A
p942
L9L
L0L
tp943
g9
s(L10L
L17L
Ntp944
Ns(V14*DS
p945
L6L
L0L
tp946
g3
s(V14*A
p947
L2L
L0L
tp948
g9
s(L10L
L18L
Ntp949
Ns(V7*
p950
L9L
L0L
tp951
g9
s(V17*
p952
L21L
Ntp953
Ns(V18*
p954
L6L
L0L
tp955
g3
s(V10*
p956
L4L
L0L
tp957
g9
s(V20*AD
p958
L6L
L0L
tp959
g3
s(V17*D
p960
L2L
L0L
tp961
g3
s(V20*D
p962
L6L
L0L
tp963
g3
s(V12*ADS
p964
L10L
L0L
tp965
g9
s(L8L
L17L
Ntp966
Ns(V21*
p967
L3L
L0L
tp968
g3
s(V4*DS
p969
L4L
L0L
tp970
g9
s(L18L
L19L
Ntp971
Ns(V17*
p972
L9L
L0L
tp973
g3
s(L21L
L23L
Ntp974
Ns(V12*DS
p975
L21L
Ntp976
Ns(V12*D
p977
L9L
L0L
tp978
g9
s(g441
L11L
L0L
tp979
g9
s(V15*AD
p980
L21L
Ntp981
Ns(V6*D
p982
L7L
L0L
tp983
g9
s(V13*AD
p984
L3L
L0L
tp985
g9
s(V20*AD
p986
L10L
L0L
tp987
g3
s(V7*D
p988
L6L
L0L
tp989
g9
s(V13*D
p990
L6L
L0L
tp991
g3
s(V12*
p992
L9L
L0L
tp993
g9
s(V18*AD
p994
L3L
L0L
tp995
g3
s(V20*
p996
L3L
L0L
tp997
g3
s(V6*
p998
L9L
L0L
tp999
g9
s(V20*D
p1000
L10L
L0L
tp1001
g3
s(V12*ADS
p1002
L6L
L0L
tp1003
g9
s(V14*D
p1004
L4L
L0L
tp1005
g3
s(V20*A
p1006
L9L
L0L
tp1007
g3
s(g125
L21L
Ntp1008
Ns(V18*D
p1009
L21L
Ntp1010
Ns(V18*D
p1011
L9L
L0L
tp1012
g3
s(L16L
L26L
Ntp1013
Ns(V19*AD
p1014
L5L
L0L
tp1015
g3
s(V15*A
p1016
L7L
L0L
tp1017
g9
s(V15*D
p1018
L7L
L0L
tp1019
g9
s(L9L
L18L
Ntp1020
Ns(V18*DS
p1021
L3L
L0L
tp1022
g3
s(V13*D
p1023
L10L
L0L
tp1024
g9
s(V12*
p1025
L5L
L0L
tp1026
g9
s(V22*
p1027
NNtp1028
Ns(V9*
p1029
L11L
L0L
tp1030
g9
s(V12*DS
p1031
L4L
L0L
tp1032
g9
s(V14*D
p1033
L8L
L0L
tp1034
g9
s(V20*A
p1035
L5L
L0L
tp1036
g3
s(V10*DS
p1037
L9L
L0L
tp1038
g16
s(V18*A
p1039
L21L
Ntp1040
Ns(V7*
p1041
L4L
L0L
tp1042
g9
s(L23L
NNtp1043
Ns(L8L
L20L
Ntp1044
Ns(L8L
L23L
Ntp1045
Ns(V18*
p1046
L9L
L0L
tp1047
g3
s(V10*
p1048
L11L
L0L
tp1049
g9
s(V19*D
p1050
L4L
L0L
tp1051
g3
s(V27*
p1052
NNtp1053
Ns(V6*DS
p1054
L6L
L0L
tp1055
g9
s(V17*A
p1056
L5L
L0L
tp1057
g9
s(V16*DS
p1058
L8L
L0L
tp1059
g9
s(L21L
L20L
Ntp1060
Ns(V20*DS
p1061
L5L
L0L
tp1062
g3
s(L16L
L21L
Ntp1063
Ns(V17*
p1064
L4L
L0L
tp1065
g3
s(V10*DS
p1066
L5L
L0L
tp1067
g16
s(V5*D
p1068
L6L
L0L
tp1069
g9
s(L19L
L17L
Ntp1070
Ns(V13*A
p1071
L4L
L0L
tp1072
g9
s(V16*
p1073
L3L
L0L
tp1074
g3
s(V18*A
p1075
L10L
L0L
tp1076
g9
s(V19*A
p1077
L2L
L0L
tp1078
g3
s(V14*DS
p1079
L9L
L0L
tp1080
g9
s(V14*A
p1081
L3L
L0L
tp1082
g9
s(V19*D
p1083
L21L
Ntp1084
Ns(V7*
p1085
L8L
L0L
tp1086
g9
s(g790
L21L
Ntp1087
Ns(V18*
p1088
L5L
L0L
tp1089
g3
s(V14*
p1090
L21L
Ntp1091
Ns(V19*D
p1092
L8L
L0L
tp1093
g3
s(V10*
p1094
L7L
L0L
tp1095
g9
s(L20L
L24L
Ntp1096
Ns(V17*D
p1097
L3L
L0L
tp1098
g3
s(V20*D
p1099
L7L
L0L
tp1100
g3
s(g375
L11L
L0L
tp1101
g9
s(L20L
L18L
Ntp1102
Ns(V4*DS
p1103
L5L
L0L
tp1104
g9
s(L15L
L23L
Ntp1105
Ns(V17*
p1106
L8L
L0L
tp1107
g3
s(V12*D
p1108
L8L
L0L
tp1109
g9
s(V13*A
p1110
L8L
L0L
tp1111
g9
s(V15*D
p1112
L8L
L0L
tp1113
g9
s(V6*D
p1114
L4L
L0L
tp1115
g9
s(V13*AD
p1116
L2L
L0L
tp1117
g9
s(L17L
L22L
Ntp1118
Ns(V7*D
p1119
L7L
L0L
tp1120
g9
s(L8L
L25L
Ntp1121
Ns(L20L
L20L
Ntp1122
Ns(V20*
p1123
L2L
L0L
tp1124
g3
s(V17*AD
p1125
L8L
L0L
tp1126
g9
s(V20*D
p1127
L11L
L0L
tp1128
g3
s(V6*
p1129
L8L
L0L
tp1130
g9
s(V12*ADS
p1131
L7L
L0L
tp1132
g9
s(L14L
L26L
Ntp1133
Ns(V14*D
p1134
L5L
L0L
tp1135
g3
s(V20*A
p1136
L8L
L0L
tp1137
g3
s(V18*D
p1138
L8L
L0L
tp1139
g3
s(V19*AD
p1140
L10L
L0L
tp1141
g3
s(L21L
L17L
Ntp1142
Ns(V15*A
p1143
L6L
L0L
tp1144
g9
s(V15*D
p1145
L4L
L0L
tp1146
g3
s(L15L
L24L
Ntp1147
Ns(V12*
p1148
L2L
L0L
tp1149
g9
s(g67
L21L
Ntp1150
Ns(L19L
L24L
Ntp1151
Ns(V9*
p1152
L10L
L0L
tp1153
g9
s(V17*AD
p1154
L4L
L0L
tp1155
g16
s(V12*DS
p1156
L5L
L0L
tp1157
g9
s(L4L
L17L
Ntp1158
Ns(L19L
L18L
Ntp1159
Ns(V14*D
p1160
L9L
L0L
tp1161
g9
s(V20*A
p1162
L4L
L0L
tp1163
g3
s(V10*DS
p1164
L8L
L0L
tp1165
g16
s(V25*
p1166
NNtp1167
Ns(L9L
L26L
Ntp1168
Ns(L18L
L25L
Ntp1169
Ns(V7*
p1170
L7L
L0L
tp1171
g9
s(V18*
p1172
L8L
L0L
tp1173
g3
s(V10*
p1174
L10L
L0L
tp1175
g9
s(V19*D
p1176
L5L
L0L
tp1177
g3
s(g786
L21L
Ntp1178
Ns(V17*A
p1179
L2L
L0L
tp1180
g9
s(g699
L11L
L0L
tp1181
g9
s(L16L
L25L
Ntp1182
Ns(g254
L21L
Ntp1183
Ns(V20*DS
p1184
L4L
L0L
tp1185
g3
s(V17*
p1186
L7L
L0L
tp1187
g3
s(V10*DS
p1188
L4L
L0L
tp1189
g16
s(V5*D
p1190
L5L
L0L
tp1191
g9
s(V13*A
p1192
L5L
L0L
tp1193
g9
s(V16*
p1194
L2L
L0L
tp1195
g3
s(g1039
L11L
L0L
tp1196
g9
s(V19*A
p1197
L3L
L0L
tp1198
g3
s(V14*DS
p1199
L8L
L0L
tp1200
g9
s(L8L
L22L
Ntp1201
Ns(V7*
p1202
L11L
L0L
tp1203
g9
s(V10*D
p1204
L3L
L0L
tp1205
g16
s(L20L
L23L
Ntp1206
Ns(V18*
p1207
L4L
L0L
tp1208
g3
s(V10*
p1209
L6L
L0L
tp1210
g9
s(V19*D
p1211
L9L
L0L
tp1212
g3
s(V12*ADS
p1213
L8L
L0L
tp1214
g9
s(L10L
L21L
Ntp1215
Ns(L18L
L18L
Ntp1216
Ns(V4*DS
p1217
L6L
L0L
tp1218
g9
s(g952
L11L
L0L
tp1219
g3
s(L17L
L26L
Ntp1220
Ns(V13*A
p1221
L9L
L0L
tp1222
g9
s(V15*D
p1223
L9L
L0L
tp1224
g9
s(L19L
L23L
Ntp1225
Ns(V14*A
p1226
L8L
L0L
tp1227
g9
s(V6*D
p1228
L5L
L0L
tp1229
g9
s(L20L
L26L
Ntp1230
Ns(V6*
p1231
L11L
L0L
tp1232
g9
s(V17*AD
p1233
L9L
L0L
tp1234
g9
s(V17*D
p1235
L8L
L0L
tp1236
g3
s(L9L
L21L
Ntp1237
Ns(V12*ADS
p1238
L4L
L0L
tp1239
g9
s(V14*D
p1240
L6L
L0L
tp1241
g3
s(V20*A
p1242
L11L
L0L
tp1243
g3
s(g1009
L11L
L0L
tp1244
g3
s(g733
L11L
L0L
tp1245
g3
s(V12*D
p1246
L3L
L0L
tp1247
g9
s(g329
L11L
L0L
tp1248
g9
s(V15*D
p1249
L5L
L0L
tp1250
g3
s(L15L
L20L
Ntp1251
Ns(V11*
p1252
L2L
L0L
tp1253
g9
s(V12*
p1254
L3L
L0L
tp1255
g9
s(V9*
p1256
L9L
L0L
tp1257
g9
s(V17*AD
p1258
L5L
L0L
tp1259
g16
s(V12*DS
p1260
L10L
L0L
tp1261
g9
s(V14*D
p1262
L10L
L0L
tp1263
g9
s(V20*A
p1264
L7L
L0L
tp1265
g3
s(L21L
L25L
Ntp1266
Ns(V7*
p1267
L6L
L0L
tp1268
g9
s(L14L
L21L
Ntp1269
Ns(V13*
p1270
L7L
L0L
tp1271
g9
s(V19*D
p1272
L6L
L0L
tp1273
g3
s(V8*
p1274
L8L
L0L
tp1275
g9
s(g655
L21L
Ntp1276
Ns(V17*A
p1277
L3L
L0L
tp1278
g9
s(L19L
L26L
Ntp1279
Ns(V16*DS
p1280
L10L
L0L
tp1281
g9
s(g1242
L21L
Ntp1282
Ns(V21*A
p1283
L6L
L0L
tp1284
g3
s(L8L
L19L
Ntp1285
Ns(V20*DS
p1286
L7L
L0L
tp1287
g3
s(V17*
p1288
L6L
L0L
tp1289
g3
s(V16*D
p1290
L2L
L0L
tp1291
g3
s(V10*DS
p1292
L3L
L0L
tp1293
g16
s(V5*D
p1294
L4L
L0L
tp1295
g9
s(V13*A
p1296
L6L
L0L
tp1297
g9
s(V19*A
p1298
L4L
L0L
tp1299
g3
s(V7*
p1300
L10L
L0L
tp1301
g9
s(g216
L11L
L0L
tp1302
g9
s(V10*D
p1303
L2L
L0L
tp1304
g16
s(V18*
p1305
L3L
L0L
tp1306
g3
s(V8*DS
p1307
L3L
L0L
tp1308
g9
s(V19*D
p1309
L10L
L0L
tp1310
g3
s(L16L
L17L
Ntp1311
Ns(g778
L21L
Ntp1312
Ns(V8*
p1313
L4L
L0L
tp1314
g9
s(V8*D
p1315
L2L
L0L
tp1316
g9
s(V12*ADS
p1317
L9L
L0L
tp1318
g9
s(V21*
p1319
L6L
L0L
tp1320
g3
s(V4*DS
p1321
L7L
L0L
tp1322
g9
s(L15L
L18L
Ntp1323
Ns(V21*A
p1324
L10L
L0L
tp1325
g3
s(V17*
p1326
L10L
L0L
tp1327
g3
s(V13*A
p1328
L10L
L0L
tp1329
g9
s(L20L
L22L
Ntp1330
Ns(V19*A
p1331
L8L
L0L
tp1332
g3
s(L20L
L17L
Ntp1333
Ns(V14*A
p1334
L9L
L0L
tp1335
g9
s(L22L
NNtp1336
Ns(V6*D
p1337
L10L
L0L
tp1338
g9
s(V6*
p1339
L10L
L0L
tp1340
g9
s(V17*AD
p1341
L10L
L0L
tp1342
g9
s(V17*D
p1343
L9L
L0L
tp1344
g3
s(g980
L11L
L0L
tp1345
g9
s(V12*ADS
p1346
L5L
L0L
tp1347
g9
s(V14*D
p1348
L7L
L0L
tp1349
g9
s(V20*A
p1350
L10L
L0L
tp1351
g3
s(L17L
L18L
Ntp1352
Ns(V18*D
p1353
L10L
L0L
tp1354
g3
s(L17L
L24L
Ntp1355
Ns(V19*AD
p1356
L8L
L0L
tp1357
g3
s(V12*D
p1358
L2L
L0L
tp1359
g9
s(L19L
L25L
Ntp1360
Ns(V13*
p1361
L10L
L0L
tp1362
g9
s(V15*D
p1363
L2L
L0L
tp1364
g3
s(V18*DS
p1365
L6L
L0L
tp1366
g3
s(V11*
p1367
L3L
L0L
tp1368
g9
s(V18*AD
p1369
L10L
L0L
tp1370
g9
s(V9*
p1371
L8L
L0L
tp1372
g9
s(V17*AD
p1373
L6L
L0L
tp1374
g16
s(g975
L11L
L0L
tp1375
g9
s(V15*AD
p1376
L7L
L0L
tp1377
g9
s(L21L
L21L
Ntp1378
Ns(L21L
L18L
Ntp1379
Ns(g920
L11L
L0L
tp1380
g9
s(L14L
L19L
Ntp1381
Ns(V20*A
p1382
L6L
L0L
tp1383
g3
s(L16L
L23L
Ntp1384
Ns(g1127
L21L
Ntp1385
Ns(L4L
L21L
Ntp1386
Ns(L12L
L22L
Ntp1387
Ns(V13*
p1388
L6L
L0L
tp1389
g3
s(V19*D
p1390
L7L
L0L
tp1391
g3
s(L12L
L17L
Ntp1392
Ns(V8*
p1393
L9L
L0L
tp1394
g9
s(V18*DS
p1395
L10L
L0L
tp1396
g3
s(V6*DS
p1397
L3L
L0L
tp1398
g9
s(V
p1399
g1399
L0L
tp1400
VBegin
p1401
s(V21*A
p1402
L7L
L0L
tp1403
g3
s(V20*DS
p1404
L6L
L0L
tp1405
g3
s(V16*D
p1406
L3L
L0L
tp1407
g3
s(V10*DS
p1408
L2L
L0L
tp1409
g16
s(V5*D
p1410
L3L
L0L
tp1411
g9
s(V13*A
p1412
L7L
L0L
tp1413
g9
s(V19*A
p1414
L5L
L0L
tp1415
g3
s(V14*DS
p1416
L10L
L0L
tp1417
g9
s(V18*
p1418
L2L
L0L
tp1419
g3
s(g509
L11L
L0L
tp1420
g9
s(g1083
L11L
L0L
tp1421
g3
s(V8*DS
p1422
L2L
L0L
tp1423
g9
s(g860
L21L
Ntp1424
Ns(L6L
L22L
Ntp1425
Ns(V8*
p1426
L5L
L0L
tp1427
g9
s(V8*D
p1428
L3L
L0L
tp1429
g9
s(V21*
p1430
L7L
L0L
tp1431
g3
s(g1090
L11L
L0L
tp1432
g9
s.