(dp0
(V21*A
p1
L11L
L0L
tp2
F0.383026129990462
s(L13L
L21L
Ntp3
L0L
s(L13L
L18L
Ntp4
L0L
s(L13L
L24L
Ntp5
L0L
s(V13*A
p6
L11L
L0L
tp7
F-0.30064333106434643
s(V19*A
p8
L9L
L0L
tp9
F0.3312481936806827
s(V14*A
p10
L10L
L0L
tp11
F-0.16879556281962668
s(V10*D
p12
L9L
L0L
tp13
F0.14234429864421225
s(V6*D
p14
L11L
L0L
tp15
F-0.5339457032376731
s(V14*AD
p16
L7L
L0L
tp17
F0.09162703424343568
s(L6L
L26L
Ntp18
L0L
s(V7*D
p19
L2L
L0L
tp20
F-0.1566792119583112
s(L15L
L26L
Ntp21
L0L
s(V17*AD
p22
L11L
L0L
tp23
F-0.4556476604537358
s(V17*D
p24
L10L
L0L
tp25
F-0.47955587618000955
s(V15*AD
p26
L10L
L0L
tp27
F-0.24782679796815313
s(V12*ADS
p28
L2L
L0L
tp29
F0.119860312610797
s(V6*
p30
L5L
L0L
tp31
F-0.0133987480458342
s(V4*DS
p32
L21L
Ntp33
L0L
s(L19L
L19L
Ntp34
L0L
s(V14*
p35
L7L
L0L
tp36
F-0.32528314478239106
s(L19L
L20L
Ntp37
L0L
s(V16*AD
p38
L10L
L0L
tp39
F-0.2830371419482932
s(V19*
p40
L10L
L0L
tp41
F0.033305440037055385
s(V18*D
p42
L5L
L0L
tp43
F0.21791950088797565
s(V18*DS
p44
L21L
Ntp45
L0L
s(V28*
p46
NNtp47
L0L
s(V19*AD
p48
L9L
L0L
tp49
F0.3312481936806827
s(V13*
p50
L9L
L0L
tp51
F-0.3280929127217287
s(V15*D
p52
L3L
L0L
tp53
F-0.2705697275726196
s(L17L
L21L
Ntp54
L0L
s(V15*A
p55
L3L
L0L
tp56
F-0.013090263492031476
s(V13*AD
p57
L21L
Ntp58
L0L
s(V18*DS
p59
L7L
L0L
tp60
F0.40262804923331885
s(g57
L11L
L0L
tp61
F-0.30064333106434643
s(V11*
p62
L4L
L0L
tp63
F0.29298319105601434
s(V18*AD
p64
L11L
L0L
tp65
F-0.4036715076816749
s(L21L
L11L
L0L
tp66
F1.078846153846154
s(V17*AD
p67
L7L
L0L
tp68
F0.03119743275981702
s(V12*DS
p69
L8L
L0L
tp70
F-0.17277979550062464
s(V15*AD
p71
L6L
L0L
tp72
F0.2022442399993812
s(V7*D
p73
L21L
Ntp74
L0L
s(V16*AD
p75
L6L
L0L
tp76
F0.20224423999938124
s(V19*
p77
L6L
L0L
tp78
F0.5056509228638492
s(V13*
p79
L5L
L0L
tp80
F-0.12758450028897658
s(V8*
p81
L10L
L0L
tp82
F-0.313034996131125
s(L4L
L24L
Ntp83
L0L
s(g44
L11L
L0L
tp84
F-0.41327193966502135
s(V6*DS
p85
L2L
L0L
tp86
F-0.1833337670854307
s(L4L
L18L
Ntp87
L0L
s(L21L
L7L
L0L
tp88
F1.5
s(V9*
p89
L3L
L0L
tp90
F0.0621855674571949
s(V21*A
p91
L4L
L0L
tp92
F0.8757558452872503
s(V9*D
p93
L11L
L0L
tp94
F-0.3747601762379947
s(L14L
L17L
Ntp95
L0L
s(V24*
p96
NNtp97
L0L
s(L18L
L22L
Ntp98
L0L
s(V5*D
p99
L2L
L0L
tp100
F-0.16837506210684192
s(V19*A
p101
L6L
L0L
tp102
F0.5056509228638492
s(V10*
p103
L3L
L0L
tp104
F0.17744298337278253
s(V14*AD
p105
L10L
L0L
tp106
F-0.16879556281962668
s(V8*DS
p107
L5L
L0L
tp108
F0.08374774101699539
s(V8*
p109
L6L
L0L
tp110
F0.1299160519351644
s(L4L
L20L
Ntp111
L0L
s(V8*D
p112
L4L
L0L
tp113
F0.0239121018503022
s(V21*
p114
L4L
L0L
tp115
F0.8757558452872503
s(V14*
p116
L10L
L0L
tp117
F-0.49411661085549796
s(V21*A
p118
L8L
L0L
tp119
F0.9312960949871896
s(V9*D
p120
L7L
L0L
tp121
F0.1645865949847072
s(V16*
p122
L11L
L0L
tp123
F-0.6944943791200251
s(V19*A
p124
L10L
L0L
tp125
F0.033305440037055385
s(V18*A
p126
L2L
L0L
tp127
F0.06436604026342546
s(V14*A
p128
L11L
L0L
tp129
F-0.3528082491211641
s(V10*D
p130
L8L
L0L
tp131
F0.32543447172164114
s(L15L
L22L
Ntp132
L0L
s(V6*D
p133
L8L
L0L
tp134
F-0.22601923727611853
s(V14*AD
p135
L6L
L0L
tp136
F0.2613718818061713
s(V7*D
p137
L3L
L0L
tp138
F-0.10944630839427644
s(V6*
p139
L4L
L0L
tp140
F-0.07833521414718254
s(V8*D
p141
L8L
L0L
tp142
F-0.06538312568316934
s(V17*D
p143
L11L
L0L
tp144
F-0.6719070224535959
s(V15*AD
p145
L9L
L0L
tp146
F-0.1298438777503979
s(V12*ADS
p147
L3L
L0L
tp148
F0.14596896508091575
s(L13L
L19L
Ntp149
L0L
s(L20L
L21L
Ntp150
L0L
s(V14*
p151
L6L
L0L
tp152
F-0.11064270907426423
s(V16*AD
p153
L11L
L0L
tp154
F-0.4409531280060846
s(V19*
p155
L11L
L0L
tp156
F-0.12195960784344725
s(L6L
L17L
Ntp157
L0L
s(V18*D
p158
L4L
L0L
tp159
F0.16352933856807506
s(L17L
L25L
Ntp160
L0L
s(V15*
p161
L3L
L0L
tp162
F-0.2705697275726196
s(V13*
p163
L8L
L0L
tp164
F-0.2707344686441078
s(V15*A
p165
L2L
L0L
tp166
F-0.05233433258129826
s(V18*DS
p167
L4L
L0L
tp168
F0.16352933856807506
s(V13*AD
p169
L10L
L0L
tp170
F-0.10339993747507688
s(V16*A
p171
L10L
L0L
tp172
F-0.2830371419482932
s(V11*
p173
L5L
L0L
tp174
F0.33895141470288354
s(V18*AD
p175
L8L
L0L
tp176
F0.1490833003777597
s(L21L
L10L
L0L
tp177
F1.3947115384615385
s(V12*DS
p178
L9L
L0L
tp179
F-0.24210213139516348
s(V15*AD
p180
L5L
L0L
tp181
F0.1451800771698853
s(L19L
L21L
Ntp182
L0L
s(L19L
L22L
Ntp183
L0L
s(L16L
L22L
Ntp184
L0L
s(V13*D
p185
L21L
Ntp186
L0L
s(V16*AD
p187
L7L
L0L
tp188
F-0.028018419231507812
s(V19*
p189
L7L
L0L
tp190
F0.6132261607265791
s(V19*AD
p191
L2L
L0L
tp192
F0.3333547852700723
s(V13*
p193
L4L
L0L
tp194
F-0.20201518570635282
s(L21L
L22L
Ntp195
L0L
s(V8*
p196
L11L
L0L
tp197
F-0.4739841260223918
s(V18*DS
p198
L8L
L0L
tp199
F0.1490833003777597
s(g143
L21L
Ntp200
L0L
s(V16*A
p201
L6L
L0L
tp202
F0.10984223126336828
s(L21L
L6L
L0L
tp203
F1.5
s(V9*
p204
L2L
L0L
tp205
F0.02481043152707728
s(V21*A
p206
L5L
L0L
tp207
F0.8910222688600705
s(V9*D
p208
L10L
L0L
tp209
F-0.21186398497884154
s(L12L
L21L
Ntp210
L0L
s(V19*A
p211
L7L
L0L
tp212
F0.6132261607265791
s(V14*DS
p213
L21L
Ntp214
L0L
s(V20*
p215
L21L
Ntp216
L0L
s(L20L
L19L
Ntp217
L0L
s(V10*
p218
L2L
L0L
tp219
F0.14721207524372362
s(V14*AD
p220
L9L
L0L
tp221
F-0.04422571370093456
s(V8*DS
p222
L4L
L0L
tp223
F0.0239121018503022
s(L4L
L26L
Ntp224
L0L
s(V8*
p225
L7L
L0L
tp226
F0.06136033008504072
s(L17L
L19L
Ntp227
L0L
s(V8*D
p228
L5L
L0L
tp229
F0.08374774101699539
s(V6*DS
p230
L9L
L0L
tp231
F-0.30245967876919666
s(V17*A
p232
L10L
L0L
tp233
F-0.27644602078600883
s(V16*DS
p234
L3L
L0L
tp235
F-0.2705697275726196
s(V21*
p236
L5L
L0L
tp237
F0.8910222688600705
s(V4*DS
p238
L2L
L0L
tp239
F-0.1401229476280883
s(V14*
p240
L9L
L0L
tp241
F-0.4203371750176461
s(V21*A
p242
L9L
L0L
tp243
F0.940865679626399
s(L11L
L21L
Ntp244
L0L
s(V9*D
p245
L6L
L0L
tp246
F0.3527364083924747
s(L11L
L22L
Ntp247
L0L
s(L6L
L24L
Ntp248
L0L
s(V16*
p249
L10L
L0L
tp250
F-0.6047683990482847
s(V19*A
p251
L11L
L0L
tp252
F-0.12195960784344725
s(V11*D
p253
L3L
L0L
tp254
F0.4943634805867882
s(V18*A
p255
L3L
L0L
tp256
F0.10999209231450502
s(V14*A
p257
L4L
L0L
tp258
F0.08746848347977429
s(V10*D
p259
L11L
L0L
tp260
F-0.2551988673351913
s(V6*D
p261
L9L
L0L
tp262
F-0.30245967876919666
s(V14*AD
p263
L5L
L0L
tp264
F0.20459880537024633
s(L13L
L22L
Ntp265
L0L
s(V6*
p266
L7L
L0L
tp267
F-0.16051184909323737
s(V8*D
p268
L9L
L0L
tp269
F-0.20609446350086774
s(V17*D
p270
L4L
L0L
tp271
F-0.07930788028680161
s(V15*AD
p272
L8L
L0L
tp273
F-0.047937420141556115
s(V14*
p274
L5L
L0L
tp275
F-0.12758450028897658
s(V16*AD
p276
L8L
L0L
tp277
F-0.08720204894021495
s(V19*
p278
L8L
L0L
tp279
F0.6034003169310654
s(V18*D
p280
L7L
L0L
tp281
F0.40262804923331885
s(V12*D
p282
L7L
L0L
tp283
F-0.1249544142620406
s(V15*
p284
L2L
L0L
tp285
F-0.3319351095752154
s(L24L
NNtp286
L0L
s(L12L
L19L
Ntp287
L0L
s(V18*DS
p288
L5L
L0L
tp289
F0.21791950088797565
s(V13*AD
p290
L9L
L0L
tp291
F0.033557764388390435
s(V16*A
p292
L11L
L0L
tp293
F-0.4409531280060846
s(V7*D
p294
L8L
L0L
tp295
F-0.20344941300492309
s(L12L
L26L
Ntp296
L0L
s(V11*
p297
L6L
L0L
tp298
F0.37078704805189694
s(V18*AD
p299
L9L
L0L
tp300
F-0.10768101783871636
s(L21L
L9L
L0L
tp301
F1.5
s(V12*
p302
L21L
Ntp303
L0L
s(V15*AD
p304
L4L
L0L
tp305
F0.0391084692922392
s(L17L
L17L
Ntp306
L0L
s(V20*A
p307
L3L
L0L
tp308
F0.6124620132903073
s(V16*AD
p309
L4L
L0L
tp310
F0.02164413033503506
s(V19*
p311
L4L
L0L
tp312
F0.4017021307086515
s(V19*AD
p313
L3L
L0L
tp314
F0.3581338390318248
s(V15*A
p315
L9L
L0L
tp316
F-0.1298438777503979
s(V13*
p317
L3L
L0L
tp318
F-0.2667883454822602
s(L10L
L22L
Ntp319
L0L
s(V18*DS
p320
L9L
L0L
tp321
F-0.12978222109722887
s(V16*A
p322
L7L
L0L
tp323
F-0.028018419231507812
s(L6L
L18L
Ntp324
L0L
s(L21L
L5L
L0L
tp325
F1.5
s(V13*
p326
L21L
Ntp327
L0L
s(V12*DS
p328
L2L
L0L
tp329
F-0.20034805154653762
s(V9*D
p330
L9L
L0L
tp331
F-0.05227776320966289
s(V20*DS
p332
L3L
L0L
tp333
F0.6124620132903073
s(L13L
L25L
Ntp334
L0L
s(L4L
L22L
Ntp335
L0L
s(L18L
L20L
Ntp336
L0L
s(V14*AD
p337
L8L
L0L
tp338
F0.038798656765010556
s(V8*DS
p339
L7L
L0L
tp340
F0.06136033008504072
s(L18L
L26L
Ntp341
L0L
s(V8*D
p342
L6L
L0L
tp343
F0.1299160519351644
s(V6*DS
p344
L8L
L0L
tp345
F-0.22601923727611853
s(V17*A
p346
L11L
L0L
tp347
F-0.4556476604537358
s(V16*DS
p348
L2L
L0L
tp349
F-0.3319351095752154
s(L11L
L26L
Ntp350
L0L
s(V21*
p351
L10L
L0L
tp352
F0.8246878260567814
s(V4*DS
p353
L3L
L0L
tp354
F-0.09832159759790712
s(V14*
p355
L8L
L0L
tp356
F-0.36747301658215437
s(V9*D
p357
L5L
L0L
tp358
F0.27086089842844335
s(L11L
L25L
Ntp359
L0L
s(V16*
p360
L9L
L0L
tp361
F-0.5418314394025324
s(V18*A
p362
L4L
L0L
tp363
F0.16352933856807506
s(V11*D
p364
L2L
L0L
tp365
F0.4281620286659311
s(V14*DS
p366
L3L
L0L
tp367
F-0.2705697275726196
s(V14*A
p368
L5L
L0L
tp369
F0.1431079301447523
s(V10*D
p370
L10L
L0L
tp371
F-0.04593990340410459
s(V12*ADS
p372
L21L
Ntp373
L0L
s(V14*AD
p374
L4L
L0L
tp375
F0.08746848347977429
s(V20*AD
p376
L3L
L0L
tp377
F0.6124620132903073
s(L10L
L26L
Ntp378
L0L
s(L10L
L25L
Ntp379
L0L
s(g6
L21L
Ntp380
L0L
s(V6*
p381
L6L
L0L
tp382
F0.011940379357071032
s(V8*D
p383
L10L
L0L
tp384
F-0.313034996131125
s(V17*D
p385
L5L
L0L
tp386
F-0.012563565180156104
s(V14*
p387
L4L
L0L
tp388
F-0.20201518570635282
s(V16*AD
p389
L9L
L0L
tp390
F-0.17021778330201637
s(V19*
p391
L9L
L0L
tp392
F0.3312481936806827
s(V18*D
p393
L6L
L0L
tp394
F0.30286964377197184
s(V12*D
p395
L6L
L0L
tp396
F-0.07720540160844899
s(V15*
p397
L5L
L0L
tp398
F-0.12758450028897658
s(V15*A
p399
L21L
Ntp400
L0L
s(L13L
L20L
Ntp401
L0L
s(V6*D
p402
L2L
L0L
tp403
F-0.1833337670854307
s(V13*AD
p404
L8L
L0L
tp405
F0.11875637455718219
s(V16*A
p406
L8L
L0L
tp407
F-0.08720204894021495
s(V7*D
p408
L9L
L0L
tp409
F-0.2898953259926953
s(g155
L21L
Ntp410
L0L
s(g153
L21L
Ntp411
L0L
s(V13*D
p412
L3L
L0L
tp413
F-0.2667883454822602
s(V11*
p414
L7L
L0L
tp415
F0.3264012765015115
s(V18*AD
p416
L6L
L0L
tp417
F0.3855089317785416
s(L21L
L8L
L0L
tp418
F1.5
s(V17*AD
p419
L2L
L0L
tp420
F-0.05743585068814047
s(V15*AD
p421
L3L
L0L
tp422
F-0.013090263492031476
s(V20*A
p423
L2L
L0L
tp424
F0.6074390952416912
s(L14L
L23L
Ntp425
L0L
s(V16*AD
p426
L5L
L0L
tp427
F0.1451800771698851
s(V19*
p428
L5L
L0L
tp429
F0.44658474538071424
s(V15*
p430
L9L
L0L
tp431
F-0.5112521002998077
s(L28L
NNtp432
L0L
s(L12L
L18L
Ntp433
L0L
s(V15*A
p434
L8L
L0L
tp435
F-0.047937420141556115
s(V13*
p436
L2L
L0L
tp437
F-0.2891348326698933
s(V15*D
p438
L21L
Ntp439
L0L
s(L16L
L18L
Ntp440
L0L
s(V16*A
p441
L4L
L0L
tp442
F0.02164413033503506
s(L21L
L4L
L0L
tp443
F1.5
s(g22
L21L
Ntp444
L0L
s(V12*DS
p445
L3L
L0L
tp446
F-0.17571029045300346
s(V9*D
p447
L8L
L0L
tp448
F0.08929708104403428
s(V20*DS
p449
L2L
L0L
tp450
F0.6074390952416912
s(g93
L21L
Ntp451
L0L
s(L9L
L19L
Ntp452
L0L
s(g292
L21L
Ntp453
L0L
s(V16*D
p454
L21L
Ntp455
L0L
s(V8*DS
p456
L6L
L0L
tp457
F0.1299160519351644
s(L14L
L24L
Ntp458
L0L
s(V8*D
p459
L7L
L0L
tp460
F0.06136033008504072
s(V6*DS
p461
L11L
L0L
tp462
F-0.5339457032376731
s(V17*A
p463
L8L
L0L
tp464
F-0.07968612192287959
s(V16*DS
p465
L5L
L0L
tp466
F-0.12758450028897658
s(V21*
p467
L11L
L0L
tp468
F0.383026129990462
s(L13L
L17L
Ntp469
L0L
s(V9*D
p470
L4L
L0L
tp471
F0.14959678929440898
s(L13L
L23L
Ntp472
L0L
s(L6L
L23L
Ntp473
L0L
s(V5*D
p474
L11L
L0L
tp475
F-0.5124961572637956
s(V16*
p476
L8L
L0L
tp477
F-0.47784052249830367
s(V18*A
p478
L5L
L0L
tp479
F0.21791950088797565
s(V11*D
p480
L5L
L0L
tp481
F0.6743970492000936
s(V14*DS
p482
L2L
L0L
tp483
F-0.3319351095752154
s(V14*A
p484
L6L
L0L
tp485
F0.1724887763950167
s(V10*D
p486
L5L
L0L
tp487
F0.5418288781584536
s(V14*AD
p488
L3L
L0L
tp489
F0.03830491748815725
s(V20*AD
p490
L2L
L0L
tp491
F0.6074390952416912
s(L11L
L18L
Ntp492
L0L
s(g14
L21L
Ntp493
L0L
s(g215
L11L
L0L
tp494
F0.17652128538494172
s(V8*D
p495
L11L
L0L
tp496
F-0.4739841260223918
s(V17*D
p497
L6L
L0L
tp498
F0.045569415711595326
s(V20*D
p499
L2L
L0L
tp500
F0.6074390952416912
s(V4*DS
p501
L8L
L0L
tp502
F-0.13776215397358138
s(V14*
p503
L3L
L0L
tp504
F-0.2705697275726196
s(L18L
L23L
Ntp505
L0L
s(V14*AD
p506
L21L
Ntp507
L0L
s(V12*D
p508
L5L
L0L
tp509
F-0.10261181937185058
s(V15*
p510
L4L
L0L
tp511
F-0.20201518570635282
s(L15L
L17L
Ntp512
L0L
s(V11*D
p513
L9L
L0L
tp514
F0.2837097441408629
s(L10L
L24L
Ntp515
L0L
s(V6*D
p516
L3L
L0L
tp517
F-0.13718192884994085
s(V13*AD
p518
L7L
L0L
tp519
F0.17077522667131212
s(V16*A
p520
L9L
L0L
tp521
F-0.17021778330201637
s(V7*D
p522
L10L
L0L
tp523
F-0.3843262215355819
s(V20*DS
p524
L21L
Ntp525
L0L
s(V11*
p526
L8L
L0L
tp527
F0.2691565490129935
s(V13*D
p528
L2L
L0L
tp529
F-0.2891348326698933
s(V18*AD
p530
L7L
L0L
tp531
F0.40262804923331885
s(V20*
p532
L7L
L0L
tp533
F0.7694699079626436
s(V17*AD
p534
L3L
L0L
tp535
F-0.014773442485754695
s(V15*AD
p536
L2L
L0L
tp537
F-0.05233433258129826
s(L17L
L20L
Ntp538
L0L
s(V16*AD
p539
L2L
L0L
tp540
F-0.07425915811058173
s(L12L
L23L
Ntp541
L0L
s(V19*
p542
L2L
L0L
tp543
F0.3333547852700723
s(L12L
L25L
Ntp544
L0L
s(V15*
p545
L8L
L0L
tp546
F-0.4615944164061563
s(g399
L11L
L0L
tp547
F-0.4133228190393346
s(V16*A
p548
L5L
L0L
tp549
F0.08214320670556627
s(L21L
L3L
L0L
tp550
F1.5
s(V9*
p551
L7L
L0L
tp552
F0.1645865949847072
s(L11L
L23L
Ntp553
L0L
s(V16*D
p554
L8L
L0L
tp555
F-0.47784052249830367
s(L11L
L17L
Ntp556
L0L
s(L4L
L25L
Ntp557
L0L
s(L4L
L19L
Ntp558
L0L
s(L16L
L20L
Ntp559
L0L
s(V8*DS
p560
L9L
L0L
tp561
F-0.20609446350086774
s(L18L
L17L
Ntp562
L0L
s(V8*
p563
L2L
L0L
tp564
F-0.075695570871717
s(L9L
L24L
Ntp565
L0L
s(V6*DS
p566
L10L
L0L
tp567
F-0.39728176563656176
s(L13L
L26L
Ntp568
L0L
s(V16*DS
p569
L4L
L0L
tp570
F-0.20201518570635282
s(V17*A
p571
L9L
L0L
tp572
F-0.16456130469917096
s(V21*
p573
L8L
L0L
tp574
F0.9312960949871896
s(V9*D
p575
L3L
L0L
tp576
F0.0621855674571949
s(V20*DS
p577
L9L
L0L
tp578
F0.7676476889244698
s(L30L
NNtp579
L0L
s(V16*D
p580
L4L
L0L
tp581
F-0.20201518570635282
s(V5*D
p582
L10L
L0L
tp583
F-0.36964378665867714
s(V16*
p584
L7L
L0L
tp585
F-0.41249635437136845
s(V18*A
p586
L6L
L0L
tp587
F0.30286964377197184
s(V11*D
p588
L4L
L0L
tp589
F0.5774702630220213
s(V14*DS
p590
L5L
L0L
tp591
F-0.12758450028897658
s(V14*A
p592
L7L
L0L
tp593
F0.09162703424343568
s(V10*D
p594
L4L
L0L
tp595
F0.43463503137900605
s(L16L
L24L
Ntp596
L0L
s(V14*AD
p597
L2L
L0L
tp598
F0.002389591032196571
s(V20*AD
p599
L5L
L0L
tp600
F0.6709161983171418
s(L12L
L20L
Ntp601
L0L
s(g495
L21L
Ntp602
L0L
s(V20*
p603
L10L
L0L
tp604
F0.4764082466601345
s(V17*D
p605
L7L
L0L
tp606
F-0.07132623835841552
s(V20*D
p607
L3L
L0L
tp608
F0.6124620132903073
s(V4*DS
p609
L9L
L0L
tp610
F-0.21648948538707274
s(V14*
p611
L2L
L0L
tp612
F-0.3319351095752154
s(L17L
L23L
Ntp613
L0L
s(L6L
L21L
Ntp614
L0L
s(L10L
L20L
Ntp615
L0L
s(V12*D
p616
L4L
L0L
tp617
F-0.14149488533917756
s(V15*
p618
L7L
L0L
tp619
F-0.41249635437136845
s(V23*
p620
NNtp621
L0L
s(V26*
p622
NNtp623
L0L
s(L10L
L19L
Ntp624
L0L
s(V11*D
p625
L8L
L0L
tp626
F0.4486381582590782
s(V13*AD
p627
L6L
L0L
tp628
F0.309047059824497
s(V20*AD
p629
L9L
L0L
tp630
F0.7676476889244698
s(g73
L11L
L0L
tp631
F-0.5437048960076276
s(V11*
p632
L9L
L0L
tp633
F0.18857076148084717
s(V13*D
p634
L5L
L0L
tp635
F-0.12758450028897658
s(V12*
p636
L10L
L0L
tp637
F-0.34438330141980333
s(V18*AD
p638
L4L
L0L
tp639
F0.17926844291124722
s(V20*
p640
L6L
L0L
tp641
F0.7066460569541733
s(L14L
L22L
Ntp642
L0L
s(V16*AD
p643
L3L
L0L
tp644
F-0.03256322288452439
s(V19*
p645
L3L
L0L
tp646
F0.3581338390318248
s(L15L
L25L
Ntp647
L0L
s(V11*D
p648
L21L
Ntp649
L0L
s(V19*AD
p650
L6L
L0L
tp651
F0.5056509228638492
s(V15*
p652
L11L
L0L
tp653
F-0.6730502345774885
s(V15*A
p654
L10L
L0L
tp655
F-0.24782679796815313
s(L18L
L24L
Ntp656
L0L
s(V16*A
p657
L2L
L0L
tp658
F-0.07425915811058173
s(V13*D
p659
L9L
L0L
tp660
F-0.3280929127217287
s(V12*
p661
L6L
L0L
tp662
F-0.07720540160844899
s(L21L
L2L
L0L
tp663
F1.5
s(V9*
p664
L6L
L0L
tp665
F0.21250791161471255
s(V16*D
p666
L9L
L0L
tp667
F-0.5418314394025324
s(L15L
L21L
Ntp668
L0L
s(V7*
p669
L3L
L0L
tp670
F-0.10944630839427644
s(V12*D
p671
L21L
Ntp672
L0L
s(V8*DS
p673
L8L
L0L
tp674
F-0.06538312568316934
s(V8*
p675
L3L
L0L
tp676
F-0.03170206740015937
s(L21L
NNtp677
L0L
s(V6*DS
p678
L5L
L0L
tp679
F-0.0133987480458342
s(V17*A
p680
L6L
L0L
tp681
F0.13636383035844807
s(V16*DS
p682
L7L
L0L
tp683
F-0.41249635437136845
s(V21*
p684
L9L
L0L
tp685
F0.940865679626399
s(V20*DS
p686
L8L
L0L
tp687
F0.7945149472329366
s(V9*D
p688
L2L
L0L
tp689
F0.02481043152707728
s(V17*
p690
L3L
L0L
tp691
F-0.14286697980046484
s(V16*D
p692
L5L
L0L
tp693
F-0.12758450028897658
s(V5*D
p694
L9L
L0L
tp695
F-0.270883286166282
s(V16*DS
p696
L21L
Ntp697
L0L
s(V16*
p698
L6L
L0L
tp699
F-0.11064270907426423
s(L8L
L18L
Ntp700
L0L
s(V18*A
p701
L7L
L0L
tp702
F0.40262804923331885
s(V11*D
p703
L7L
L0L
tp704
F0.5740555112906023
s(V14*DS
p705
L4L
L0L
tp706
F-0.20201518570635282
s(L8L
L21L
Ntp707
L0L
s(V10*D
p708
L7L
L0L
tp709
F0.45994924446071145
s(V20*AD
p710
L4L
L0L
tp711
F0.6356283499942024
s(L6L
L19L
Ntp712
L0L
s(V20*
p713
L9L
L0L
tp714
F0.7676476889244698
s(V6*
p715
L3L
L0L
tp716
F-0.13718192884994085
s(V20*D
p717
L4L
L0L
tp718
F0.6356283499942024
s(L6L
L25L
Ntp719
L0L
s(g259
L21L
Ntp720
L0L
s(V4*DS
p721
L10L
L0L
tp722
F-0.3210726538633386
s(V18*D
p723
L3L
L0L
tp724
F0.10999209231450502
s(g671
L11L
L0L
tp725
F-0.49072322558602804
s(V15*
p726
L6L
L0L
tp727
F-0.11064270907426423
s(g648
L11L
L0L
tp728
F-0.18696788691239202
s(g128
L21L
Ntp729
L0L
s(V19*AD
p730
L21L
Ntp731
L0L
s(V13*AD
p732
L5L
L0L
tp733
F0.2511780127889366
s(V20*AD
p734
L8L
L0L
tp735
F0.7945149472329366
s(V7*D
p736
L4L
L0L
tp737
F-0.051011884872500926
s(V11*
p738
L10L
L0L
tp739
F0.05528202571193714
s(L20L
L25L
Ntp740
L0L
s(V13*D
p741
L4L
L0L
tp742
F-0.20201518570635282
s(g302
L11L
L0L
tp743
F-0.49072322558602804
s(V18*AD
p744
L5L
L0L
tp745
F0.29739997067511603
s(V20*
p746
L5L
L0L
tp747
F0.6709161983171418
s(L9L
L17L
Ntp748
L0L
s(V20*D
p749
L8L
L0L
tp750
F0.7945149472329366
s(L9L
L22L
Ntp751
L0L
s(V14*D
p752
L2L
L0L
tp753
F-0.3319351095752154
s(V19*AD
p754
L7L
L0L
tp755
F0.6132261607265791
s(V15*
p756
L10L
L0L
tp757
F-0.5770261809045585
s(V15*A
p758
L5L
L0L
tp759
F0.09759284830661219
s(V16*A
p760
L3L
L0L
tp761
F-0.03256322288452439
s(V13*D
p762
L8L
L0L
tp763
F-0.2707344686441078
s(L25L
NNtp764
L0L
s(V12*
p765
L7L
L0L
tp766
F-0.1249544142620406
s(L8L
L24L
Ntp767
L0L
s(L14L
L20L
Ntp768
L0L
s(V12*DS
p769
L6L
L0L
tp770
F-0.07720540160844899
s(V9*
p771
L5L
L0L
tp772
F0.1699305718116794
s(V16*D
p773
L10L
L0L
tp774
F-0.6047683990482847
s(V10*DS
p775
L11L
L0L
tp776
F-0.2551988673351913
s(L26L
NNtp777
L0L
s(L21L
L26L
Ntp778
L0L
s(g346
L21L
Ntp779
L0L
s(L21L
L19L
Ntp780
L0L
s(V7*
p781
L2L
L0L
tp782
F-0.1566792119583112
s(V18*
p783
L11L
L0L
tp784
F-0.41327193966502135
s(V10*
p785
L9L
L0L
tp786
F0.11788803873252185
s(V8*DS
p787
L11L
L0L
tp788
F-0.4739841260223918
s(V19*D
p789
L2L
L0L
tp790
F0.3333547852700723
s(L11L
L19L
Ntp791
L0L
s(L11L
L20L
Ntp792
L0L
s(V6*DS
p793
L4L
L0L
tp794
F-0.07833521414718254
s(V17*A
p795
L7L
L0L
tp796
F0.03119743275981702
s(V16*DS
p797
L6L
L0L
tp798
F-0.11064270907426423
s(L14L
L18L
Ntp799
L0L
s(L4L
L23L
Ntp800
L0L
s(V21*A
p801
L2L
L0L
tp802
F0.8714283136383666
s(g524
L11L
L0L
tp803
F0.17652128538494172
s(L18L
L21L
Ntp804
L0L
s(V17*
p805
L2L
L0L
tp806
F-0.1989455181908885
s(V16*D
p807
L6L
L0L
tp808
F-0.11064270907426423
s(V10*DS
p809
L7L
L0L
tp810
F0.45994924446071145
s(V5*D
p811
L8L
L0L
tp812
F-0.1954418642082149
s(V16*
p813
L5L
L0L
tp814
F-0.12758450028897658
s(V13*A
p815
L2L
L0L
tp816
F0.0610194316823717
s(g1
L21L
Ntp817
L0L
s(V11*D
p818
L6L
L0L
tp819
F0.7368800125557083
s(V14*DS
p820
L7L
L0L
tp821
F-0.32528314478239106
s(L15L
L19L
Ntp822
L0L
s(V18*A
p823
L8L
L0L
tp824
F0.1490833003777597
s(V10*D
p825
L6L
L0L
tp826
F0.6156329369555176
s(V18*
p827
L7L
L0L
tp828
F0.40262804923331885
s(V10*
p829
L5L
L0L
tp830
F0.2726673291820636
s(V20*AD
p831
L7L
L0L
tp832
F0.7694699079626436
s(V20*
p833
L8L
L0L
tp834
F0.7945149472329366
s(V6*
p835
L2L
L0L
tp836
F-0.1833337670854307
s(V20*D
p837
L5L
L0L
tp838
F0.6709161983171418
s(V21*
p839
L2L
L0L
tp840
F0.8714283136383666
s(g32
L11L
L0L
tp841
F-0.47513343708493466
s(L6L
L20L
Ntp842
L0L
s(L8L
L26L
Ntp843
L0L
s(V18*D
p844
L2L
L0L
tp845
F0.06436604026342546
s(L12L
L24L
Ntp846
L0L
s(V12*D
p847
L10L
L0L
tp848
F-0.34438330141980333
s(V15*D
p849
L10L
L0L
tp850
F-0.5770261809045585
s(V11*D
p851
L10L
L0L
tp852
F0.09646145401739059
s(V6*D
p853
L6L
L0L
tp854
F0.011940379357071032
s(V13*AD
p855
L4L
L0L
tp856
F0.13221928005045133
s(V20*AD
p857
L11L
L0L
tp858
F0.17652128538494172
s(V7*D
p859
L5L
L0L
tp860
F0.012439553993506972
s(V11*
p861
L11L
L0L
tp862
F-0.18696788691239202
s(L27L
NNtp863
L0L
s(V13*D
p864
L7L
L0L
tp865
F-0.22631367269352662
s(V12*
p866
L8L
L0L
tp867
F-0.17277979550062464
s(V18*AD
p868
L2L
L0L
tp869
F0.06436604026342546
s(V20*
p870
L4L
L0L
tp871
F0.6356283499942024
s(L10L
L23L
Ntp872
L0L
s(V20*D
p873
L9L
L0L
tp874
F0.7676476889244698
s(g461
L21L
Ntp875
L0L
s(V14*D
p876
L3L
L0L
tp877
F-0.2705697275726196
s(V19*AD
p878
L4L
L0L
tp879
F0.4017021307086515
s(V15*A
p880
L4L
L0L
tp881
F0.0391084692922392
s(V15*D
p882
L6L
L0L
tp883
F-0.11064270907426423
s(L9L
L25L
Ntp884
L0L
s(V18*DS
p885
L2L
L0L
tp886
F0.06436604026342546
s(L9L
L23L
Ntp887
L0L
s(g185
L11L
L0L
tp888
F-0.5480557470843528
s(V12*
p889
L4L
L0L
tp890
F-0.14149488533917756
s(L9L
L20L
Ntp891
L0L
s(V9*
p892
L4L
L0L
tp893
F0.11379153256110508
s(V12*DS
p894
L7L
L0L
tp895
F-0.1249544142620406
s(g454
L11L
L0L
tp896
F-0.6944943791200251
s(V10*DS
p897
L10L
L0L
tp898
F-0.04593990340410459
s(L16L
L19L
Ntp899
L0L
s(V7*
p900
L5L
L0L
tp901
F0.012439553993506972
s(L11L
L24L
Ntp902
L0L
s(V18*
p903
L10L
L0L
tp904
F-0.2241488558919899
s(V10*
p905
L8L
L0L
tp906
F0.20755470574427493
s(V8*DS
p907
L10L
L0L
tp908
F-0.313034996131125
s(V19*D
p909
L3L
L0L
tp910
F0.3581338390318248
s(V6*DS
p911
L7L
L0L
tp912
F-0.16051184909323737
s(V17*A
p913
L4L
L0L
tp914
F0.03916740357087299
s(V16*DS
p915
L9L
L0L
tp916
F-0.5418314394025324
s(V14*D
p917
L21L
Ntp918
L0L
s(L29L
NNtp919
L0L
s(V21*A
p920
L3L
L0L
tp921
F0.8719023825871601
s(g467
L21L
Ntp922
L0L
s(V20*DS
p923
L10L
L0L
tp924
F0.4764082466601345
s(V17*
p925
L5L
L0L
tp926
F-0.012563565180156104
s(V16*D
p927
L7L
L0L
tp928
F-0.41249635437136845
s(V10*DS
p929
L6L
L0L
tp930
F0.6156329369555176
s(V5*D
p931
L7L
L0L
tp932
F-0.13275643325431996
s(L21L
L24L
Ntp933
L0L
s(L14L
L25L
Ntp934
L0L
s(V16*
p935
L4L
L0L
tp936
F-0.20201518570635282
s(V13*A
p937
L3L
L0L
tp938
F0.08642661509678874
s(V18*A
p939
L9L
L0L
tp940
F-0.10768101783871636
s(L10L
L17L
Ntp941
L0L
s(V14*DS
p942
L6L
L0L
tp943
F-0.11064270907426423
s(V14*A
p944
L2L
L0L
tp945
F0.002389591032196571
s(L10L
L18L
Ntp946
L0L
s(V7*
p947
L9L
L0L
tp948
F-0.2898953259926953
s(V17*
p949
L21L
Ntp950
L0L
s(V18*
p951
L6L
L0L
tp952
F0.30286964377197184
s(V10*
p953
L4L
L0L
tp954
F0.22156557523450668
s(V20*AD
p955
L6L
L0L
tp956
F0.7066460569541733
s(V17*D
p957
L2L
L0L
tp958
F-0.1989455181908885
s(V20*D
p959
L6L
L0L
tp960
F0.7066460569541733
s(V12*ADS
p961
L10L
L0L
tp962
F-0.05548852836343882
s(L8L
L17L
Ntp963
L0L
s(V21*
p964
L3L
L0L
tp965
F0.8719023825871601
s(V4*DS
p966
L4L
L0L
tp967
F-0.04285607002351608
s(L18L
L19L
Ntp968
L0L
s(V17*
p969
L9L
L0L
tp970
F-0.40516412518110634
s(L21L
L23L
Ntp971
L0L
s(V12*DS
p972
L21L
Ntp973
L0L
s(V12*D
p974
L9L
L0L
tp975
F-0.24210213139516348
s(g438
L11L
L0L
tp976
F-0.6730502345774885
s(V15*AD
p977
L21L
Ntp978
L0L
s(V6*D
p979
L7L
L0L
tp980
F-0.16051184909323737
s(V13*AD
p981
L3L
L0L
tp982
F0.08642661509678874
s(V20*AD
p983
L10L
L0L
tp984
F0.4764082466601345
s(V7*D
p985
L6L
L0L
tp986
F0.05060199018684981
s(V13*D
p987
L6L
L0L
tp988
F-0.11064270907426423
s(V12*
p989
L9L
L0L
tp990
F-0.24210213139516348
s(V18*AD
p991
L3L
L0L
tp992
F0.10999209231450502
s(V20*
p993
L3L
L0L
tp994
F0.6124620132903073
s(V6*
p995
L9L
L0L
tp996
F-0.30245967876919666
s(V20*D
p997
L10L
L0L
tp998
F0.4764082466601345
s(V12*ADS
p999
L6L
L0L
tp1000
F0.263182960451248
s(V14*D
p1001
L4L
L0L
tp1002
F-0.20201518570635282
s(V20*A
p1003
L9L
L0L
tp1004
F0.7676476889244698
s(g122
L21L
Ntp1005
L0L
s(V18*D
p1006
L21L
Ntp1007
L0L
s(V18*D
p1008
L9L
L0L
tp1009
F-0.12978222109722887
s(L16L
L26L
Ntp1010
L0L
s(V19*AD
p1011
L5L
L0L
tp1012
F0.44658474538071424
s(V15*A
p1013
L7L
L0L
tp1014
F0.007355614212587751
s(V15*D
p1015
L7L
L0L
tp1016
F-0.41249635437136845
s(L9L
L18L
Ntp1017
L0L
s(V18*DS
p1018
L3L
L0L
tp1019
F0.10999209231450502
s(V13*D
p1020
L10L
L0L
tp1021
F-0.41554558115398577
s(V12*
p1022
L5L
L0L
tp1023
F-0.10261181937185058
s(V22*
p1024
NNtp1025
L0L
s(V9*
p1026
L11L
L0L
tp1027
F-0.3747601762379947
s(V12*DS
p1028
L4L
L0L
tp1029
F-0.14149488533917756
s(V14*D
p1030
L8L
L0L
tp1031
F-0.36747301658215437
s(V20*A
p1032
L5L
L0L
tp1033
F0.6709161983171418
s(V10*DS
p1034
L9L
L0L
tp1035
F0.14234429864421225
s(V18*A
p1036
L21L
Ntp1037
L0L
s(V7*
p1038
L4L
L0L
tp1039
F-0.051011884872500926
s(L23L
NNtp1040
L0L
s(L8L
L20L
Ntp1041
L0L
s(L8L
L23L
Ntp1042
L0L
s(V18*
p1043
L9L
L0L
tp1044
F-0.12978222109722887
s(V10*
p1045
L11L
L0L
tp1046
F-0.2551988673351913
s(V19*D
p1047
L4L
L0L
tp1048
F0.4017021307086515
s(V27*
p1049
NNtp1050
L0L
s(V6*DS
p1051
L6L
L0L
tp1052
F0.011940379357071032
s(V17*A
p1053
L5L
L0L
tp1054
F0.09856368329242514
s(V16*DS
p1055
L8L
L0L
tp1056
F-0.47784052249830367
s(L21L
L20L
Ntp1057
L0L
s(V20*DS
p1058
L5L
L0L
tp1059
F0.6709161983171418
s(L16L
L21L
Ntp1060
L0L
s(V17*
p1061
L4L
L0L
tp1062
F-0.07930788028680161
s(V10*DS
p1063
L5L
L0L
tp1064
F0.5418288781584536
s(V5*D
p1065
L6L
L0L
tp1066
F0.02237215945827317
s(L19L
L17L
Ntp1067
L0L
s(V13*A
p1068
L4L
L0L
tp1069
F0.13221928005045133
s(V16*
p1070
L3L
L0L
tp1071
F-0.2705697275726196
s(V18*A
p1072
L10L
L0L
tp1073
F-0.22236380478540438
s(V19*A
p1074
L2L
L0L
tp1075
F0.3333547852700723
s(V14*DS
p1076
L9L
L0L
tp1077
F-0.4203371750176461
s(V14*A
p1078
L3L
L0L
tp1079
F0.03830491748815725
s(V19*D
p1080
L21L
Ntp1081
L0L
s(V7*
p1082
L8L
L0L
tp1083
F-0.20344941300492309
s(g787
L21L
Ntp1084
L0L
s(V18*
p1085
L5L
L0L
tp1086
F0.21791950088797565
s(V14*
p1087
L21L
Ntp1088
L0L
s(V19*D
p1089
L8L
L0L
tp1090
F0.6034003169310654
s(V10*
p1091
L7L
L0L
tp1092
F0.2693481430865661
s(L20L
L24L
Ntp1093
L0L
s(V17*D
p1094
L3L
L0L
tp1095
F-0.14286697980046484
s(V20*D
p1096
L7L
L0L
tp1097
F0.7694699079626436
s(g372
L11L
L0L
tp1098
F-0.26044573463069165
s(L20L
L18L
Ntp1099
L0L
s(V4*DS
p1100
L5L
L0L
tp1101
F0.01871234714485067
s(L15L
L23L
Ntp1102
L0L
s(V17*
p1103
L8L
L0L
tp1104
F-0.33001842555671
s(V12*D
p1105
L8L
L0L
tp1106
F-0.17277979550062464
s(V13*A
p1107
L8L
L0L
tp1108
F0.11875637455718219
s(V15*D
p1109
L8L
L0L
tp1110
F-0.4615944164061563
s(V6*D
p1111
L4L
L0L
tp1112
F-0.07833521414718254
s(V13*AD
p1113
L2L
L0L
tp1114
F0.0610194316823717
s(L17L
L22L
Ntp1115
L0L
s(V7*D
p1116
L7L
L0L
tp1117
F-0.07734162835400453
s(L8L
L25L
Ntp1118
L0L
s(L20L
L20L
Ntp1119
L0L
s(V20*
p1120
L2L
L0L
tp1121
F0.6074390952416912
s(V17*AD
p1122
L8L
L0L
tp1123
F-0.07968612192287959
s(V20*D
p1124
L11L
L0L
tp1125
F0.17652128538494172
s(V6*
p1126
L8L
L0L
tp1127
F-0.22601923727611853
s(V12*ADS
p1128
L7L
L0L
tp1129
F0.24152172601384334
s(L14L
L26L
Ntp1130
L0L
s(V14*D
p1131
L5L
L0L
tp1132
F-0.12758450028897658
s(V20*A
p1133
L8L
L0L
tp1134
F0.7945149472329366
s(V18*D
p1135
L8L
L0L
tp1136
F0.1490833003777597
s(V19*AD
p1137
L10L
L0L
tp1138
F0.033305440037055385
s(L21L
L17L
Ntp1139
L0L
s(V15*A
p1140
L6L
L0L
tp1141
F0.12629383283815376
s(V15*D
p1142
L4L
L0L
tp1143
F-0.20201518570635282
s(L15L
L24L
Ntp1144
L0L
s(V12*
p1145
L2L
L0L
tp1146
F-0.20034805154653762
s(g64
L21L
Ntp1147
L0L
s(L19L
L24L
Ntp1148
L0L
s(V9*
p1149
L10L
L0L
tp1150
F-0.21186398497884154
s(V17*AD
p1151
L4L
L0L
tp1152
F0.06983868805173872
s(V12*DS
p1153
L5L
L0L
tp1154
F-0.10261181937185058
s(L4L
L17L
Ntp1155
L0L
s(L19L
L18L
Ntp1156
L0L
s(V14*D
p1157
L9L
L0L
tp1158
F-0.4203371750176461
s(V20*A
p1159
L4L
L0L
tp1160
F0.6356283499942024
s(V10*DS
p1161
L8L
L0L
tp1162
F0.32543447172164114
s(V25*
p1163
NNtp1164
L0L
s(L9L
L26L
Ntp1165
L0L
s(L18L
L25L
Ntp1166
L0L
s(V7*
p1167
L7L
L0L
tp1168
F-0.07734162835400453
s(V18*
p1169
L8L
L0L
tp1170
F0.1490833003777597
s(V10*
p1171
L10L
L0L
tp1172
F-0.04593990340410459
s(V19*D
p1173
L5L
L0L
tp1174
F0.44658474538071424
s(g783
L21L
Ntp1175
L0L
s(V17*A
p1176
L2L
L0L
tp1177
F-0.05743585068814047
s(g696
L11L
L0L
tp1178
F-0.6944943791200251
s(L16L
L25L
Ntp1179
L0L
s(g251
L21L
Ntp1180
L0L
s(V20*DS
p1181
L4L
L0L
tp1182
F0.6356283499942024
s(V17*
p1183
L7L
L0L
tp1184
F-0.07132623835841552
s(V10*DS
p1185
L4L
L0L
tp1186
F0.43463503137900605
s(V5*D
p1187
L5L
L0L
tp1188
F-0.003994357828270002
s(V13*A
p1189
L5L
L0L
tp1190
F0.18539806022108035
s(V16*
p1191
L2L
L0L
tp1192
F-0.3319351095752154
s(g1036
L11L
L0L
tp1193
F-0.4036715076816749
s(V19*A
p1194
L3L
L0L
tp1195
F0.3581338390318248
s(V14*DS
p1196
L8L
L0L
tp1197
F-0.36747301658215437
s(L8L
L22L
Ntp1198
L0L
s(V7*
p1199
L11L
L0L
tp1200
F-0.5437048960076276
s(V10*D
p1201
L3L
L0L
tp1202
F0.3410383132795495
s(L20L
L23L
Ntp1203
L0L
s(V18*
p1204
L4L
L0L
tp1205
F0.16352933856807506
s(V10*
p1206
L6L
L0L
tp1207
F0.3101635102518015
s(V19*D
p1208
L9L
L0L
tp1209
F0.3312481936806827
s(V12*ADS
p1210
L8L
L0L
tp1211
F0.18936085416822926
s(L10L
L21L
Ntp1212
L0L
s(L18L
L18L
Ntp1213
L0L
s(V4*DS
p1214
L6L
L0L
tp1215
F0.04617302644860045
s(g949
L11L
L0L
tp1216
F-0.6719070224535959
s(L17L
L26L
Ntp1217
L0L
s(V13*A
p1218
L9L
L0L
tp1219
F0.033557764388390435
s(V15*D
p1220
L9L
L0L
tp1221
F-0.5112521002998077
s(L19L
L23L
Ntp1222
L0L
s(V14*A
p1223
L8L
L0L
tp1224
F0.038798656765010556
s(V6*D
p1225
L5L
L0L
tp1226
F-0.0133987480458342
s(L20L
L26L
Ntp1227
L0L
s(V6*
p1228
L11L
L0L
tp1229
F-0.5339457032376731
s(V17*AD
p1230
L9L
L0L
tp1231
F-0.16456130469917096
s(V17*D
p1232
L8L
L0L
tp1233
F-0.33001842555671
s(L9L
L21L
Ntp1234
L0L
s(V12*ADS
p1235
L4L
L0L
tp1236
F0.18426738621030592
s(V14*D
p1237
L6L
L0L
tp1238
F-0.11064270907426423
s(V20*A
p1239
L11L
L0L
tp1240
F0.17652128538494172
s(g1006
L11L
L0L
tp1241
F-0.41327193966502135
s(g730
L11L
L0L
tp1242
F-0.12195960784344725
s(V12*D
p1243
L3L
L0L
tp1244
F-0.17571029045300346
s(g326
L11L
L0L
tp1245
F-0.5480557470843528
s(V15*D
p1246
L5L
L0L
tp1247
F-0.12758450028897658
s(L15L
L20L
Ntp1248
L0L
s(V11*
p1249
L2L
L0L
tp1250
F0.2263216638042943
s(V12*
p1251
L3L
L0L
tp1252
F-0.17571029045300346
s(V9*
p1253
L9L
L0L
tp1254
F-0.05227776320966289
s(V17*AD
p1255
L5L
L0L
tp1256
F0.19362158637917687
s(V12*DS
p1257
L10L
L0L
tp1258
F-0.34438330141980333
s(V14*D
p1259
L10L
L0L
tp1260
F-0.49411661085549796
s(V20*A
p1261
L7L
L0L
tp1262
F0.7694699079626436
s(L21L
L25L
Ntp1263
L0L
s(V7*
p1264
L6L
L0L
tp1265
F0.05060199018684981
s(L14L
L21L
Ntp1266
L0L
s(V13*
p1267
L7L
L0L
tp1268
F-0.22631367269352662
s(V19*D
p1269
L6L
L0L
tp1270
F0.5056509228638492
s(V8*
p1271
L8L
L0L
tp1272
F-0.06538312568316934
s(g652
L21L
Ntp1273
L0L
s(V17*A
p1274
L3L
L0L
tp1275
F-0.014773442485754695
s(L19L
L26L
Ntp1276
L0L
s(V16*DS
p1277
L10L
L0L
tp1278
F-0.6047683990482847
s(g1239
L21L
Ntp1279
L0L
s(V21*A
p1280
L6L
L0L
tp1281
F0.9029740076135693
s(L8L
L19L
Ntp1282
L0L
s(V20*DS
p1283
L7L
L0L
tp1284
F0.7694699079626436
s(V17*
p1285
L6L
L0L
tp1286
F0.045569415711595326
s(V16*D
p1287
L2L
L0L
tp1288
F-0.3319351095752154
s(V10*DS
p1289
L3L
L0L
tp1290
F0.3410383132795495
s(V5*D
p1291
L4L
L0L
tp1292
F-0.06720076755186909
s(V13*A
p1293
L6L
L0L
tp1294
F0.2162000177496194
s(V19*A
p1295
L4L
L0L
tp1296
F0.4017021307086515
s(V7*
p1297
L10L
L0L
tp1298
F-0.3843262215355819
s(g213
L11L
L0L
tp1299
F-0.6097626139183019
s(V10*D
p1300
L2L
L0L
tp1301
F0.2699428515447898
s(V18*
p1302
L3L
L0L
tp1303
F0.10999209231450502
s(V8*DS
p1304
L3L
L0L
tp1305
F-0.03170206740015937
s(V19*D
p1306
L10L
L0L
tp1307
F0.033305440037055385
s(L16L
L17L
Ntp1308
L0L
s(g775
L21L
Ntp1309
L0L
s(V8*
p1310
L4L
L0L
tp1311
F0.0239121018503022
s(V8*D
p1312
L2L
L0L
tp1313
F-0.075695570871717
s(V12*ADS
p1314
L9L
L0L
tp1315
F0.09377263825913928
s(V21*
p1316
L6L
L0L
tp1317
F0.9029740076135693
s(V4*DS
p1318
L7L
L0L
tp1319
F-0.07521356439533133
s(L15L
L18L
Ntp1320
L0L
s(V21*A
p1321
L10L
L0L
tp1322
F0.8246878260567814
s(V17*
p1323
L10L
L0L
tp1324
F-0.47955587618000955
s(V13*A
p1325
L10L
L0L
tp1326
F-0.10339993747507688
s(L20L
L22L
Ntp1327
L0L
s(V19*A
p1328
L8L
L0L
tp1329
F0.6034003169310654
s(L20L
L17L
Ntp1330
L0L
s(V14*A
p1331
L9L
L0L
tp1332
F-0.04422571370093456
s(L22L
NNtp1333
L0L
s(V6*D
p1334
L10L
L0L
tp1335
F-0.39728176563656176
s(V6*
p1336
L10L
L0L
tp1337
F-0.39728176563656176
s(V17*AD
p1338
L10L
L0L
tp1339
F-0.27644602078600883
s(V17*D
p1340
L9L
L0L
tp1341
F-0.40516412518110634
s(g977
L11L
L0L
tp1342
F-0.4133228190393346
s(V12*ADS
p1343
L5L
L0L
tp1344
F0.22864392887108168
s(V14*D
p1345
L7L
L0L
tp1346
F-0.32528314478239106
s(V20*A
p1347
L10L
L0L
tp1348
F0.4764082466601345
s(L17L
L18L
Ntp1349
L0L
s(V18*D
p1350
L10L
L0L
tp1351
F-0.2241488558919899
s(L17L
L24L
Ntp1352
L0L
s(V19*AD
p1353
L8L
L0L
tp1354
F0.6034003169310654
s(V12*D
p1355
L2L
L0L
tp1356
F-0.20034805154653762
s(L19L
L25L
Ntp1357
L0L
s(V13*
p1358
L10L
L0L
tp1359
F-0.41554558115398577
s(V15*D
p1360
L2L
L0L
tp1361
F-0.3319351095752154
s(V18*DS
p1362
L6L
L0L
tp1363
F0.30286964377197184
s(V11*
p1364
L3L
L0L
tp1365
F0.25410556702640197
s(V18*AD
p1366
L10L
L0L
tp1367
F-0.22236380478540438
s(V9*
p1368
L8L
L0L
tp1369
F0.08929708104403428
s(V17*AD
p1370
L6L
L0L
tp1371
F0.2680335771688105
s(g972
L11L
L0L
tp1372
F-0.49072322558602804
s(V15*AD
p1373
L7L
L0L
tp1374
F0.007355614212587751
s(L21L
L21L
Ntp1375
L0L
s(L21L
L18L
Ntp1376
L0L
s(g917
L11L
L0L
tp1377
F-0.6097626139183019
s(L14L
L19L
Ntp1378
L0L
s(V20*A
p1379
L6L
L0L
tp1380
F0.7066460569541733
s(L16L
L23L
Ntp1381
L0L
s(g1124
L21L
Ntp1382
L0L
s(L4L
L21L
Ntp1383
L0L
s(L12L
L22L
Ntp1384
L0L
s(V13*
p1385
L6L
L0L
tp1386
F-0.11064270907426423
s(V19*D
p1387
L7L
L0L
tp1388
F0.6132261607265791
s(L12L
L17L
Ntp1389
L0L
s(V8*
p1390
L9L
L0L
tp1391
F-0.20609446350086774
s(V18*DS
p1392
L10L
L0L
tp1393
F-0.2241488558919899
s(V6*DS
p1394
L3L
L0L
tp1395
F-0.13718192884994085
s(V
p1396
g1396
L0L
tp1397
F-0.010858678753956305
s(V21*A
p1398
L7L
L0L
tp1399
F0.9239498576421156
s(V20*DS
p1400
L6L
L0L
tp1401
F0.7066460569541733
s(V16*D
p1402
L3L
L0L
tp1403
F-0.2705697275726196
s(V10*DS
p1404
L2L
L0L
tp1405
F0.2699428515447898
s(V5*D
p1406
L3L
L0L
tp1407
F-0.12435427639141147
s(V13*A
p1408
L7L
L0L
tp1409
F0.17077522667131212
s(V19*A
p1410
L5L
L0L
tp1411
F0.44658474538071424
s(V14*DS
p1412
L10L
L0L
tp1413
F-0.49411661085549796
s(V18*
p1414
L2L
L0L
tp1415
F0.06436604026342546
s(g506
L11L
L0L
tp1416
F-0.3528082491211641
s(g1080
L11L
L0L
tp1417
F-0.12195960784344725
s(V8*DS
p1418
L2L
L0L
tp1419
F-0.075695570871717
s(g857
L21L
Ntp1420
L0L
s(L6L
L22L
Ntp1421
L0L
s(V8*
p1422
L5L
L0L
tp1423
F0.08374774101699539
s(V8*D
p1424
L3L
L0L
tp1425
F-0.03170206740015937
s(V21*
p1426
L7L
L0L
tp1427
F0.9239498576421156
s(g1087
L11L
L0L
tp1428
F-0.6097626139183019
s.